(dp1
S'title'
p2
VBoy's Life Magazine Vintage Back Issue July 1970 The Great Blue Heron
p3
sS'url'
p4
Vhttp://www.ecrater.com/p/15132746/boys-life-magazine-vintage-back?keywords=great+blue+heron
p5
sS'price'
p6
V$5.49
p7
sS'seller'
p8
Vhttp://foundtreasuresden.ecrater.com
p9
sS'description_links'
p10
VFor your enjoyment is this nice vintage copy of Boys' Life. July,1970. This one is rated a B- with some wear. Has a tear to bottom of rear cover. Has age coloring. Has wear to edges from storage. Mailing label on cover as shown. Item # CB-262.ISBN # : N/A Dated 1970# Of Pages: 68Color Pictures: YesHard or Soft Cover: MagazineCondition Rating; A - = Like new with very little apparent use.B+ = Minor wear from use and may have a few spotsB   = Some wear from use and may have several spots B - = Considerable wear from use and may have several spotsC+ = Considerable wear,spots and writing (other than previous owners name)C   = Major wear,spots and writing (other than previous owners name)C - = Usable but not prettyI will be glad to combine shipping. I now have well over 14,000 items available for your enjoyment including well over 6000 cookbooks.Please check my about us page for current sales / specials.All reasonable offers will be considered.
p11
sS'images'
p12
(lp13
Vhttp://s.ecrater.com/stores/108769/4fcd301669465_108769b.jpg
p14
asS'shipping_info'
p15
(lp16
VOnly 1 available
p17
aVShipping:US-Mainland: $5.30(more destinations)
p18
aVSales Tax: New York: 8%
p19
aVCondition: Used
p20
asS'id'
p21
V15132746
p22
s.