(dp1
S'title'
p2
VBlack Dyed Blue Fox Fur Throw Blanket 48" x 64"
p3
sS'url'
p4
Vhttp://www.glacierwear.com/black-dyed-blue-fox-fur-throw-blanket-48-x-64.html
p5
sS'price'
p6
V2299.95
p7
sS'seller'
p8
(lp9
sS'description_links'
p10
Vfxx-300-blbk-48x64Black Dyed Blue Fox Fur Throw Blanket 48" x 64". All fur, full pelt, (not pieces,) Black Dyed Blue Fox Blanket. Made just like a quilt with batting between layers. Backed with Satin. (All sizes are approx.) MADE IN USA!
p11
sS'images'
p12
(lp13
Vhttp://www.glacierwear.com/media/catalog/product/cache/1/image/9df78eab33525d08d6e5fb8d27136e95/f/x/fxx-300-blbk-48x64-lg_1.jpg
p14
asS'shipping_info'
p15
VFree Shipping on $100.00+
p16
sS'id'
p17
V64_1497081061
p18
s.