(dp1
S'title'
p2
VWolverine Pelt #223653
p3
sS'url'
p4
Vhttp://www.glacierwear.com/wolverine-pelt-for-sale-9580.html
p5
sS'price'
p6
V425
p7
sS'seller'
p8
(lp9
sS'description_links'
p10
Vwlv223653\u2022 From Tip of Nose to Tip of Tail: 42 inches\u2022 Heavy, Glossy\u2022 Complete Life-Size\u2022 Heel Pads, Toe Pads and Claws\u2022 Origin: Canada\u2022 Color: Pale/Medium Brown\u2014\u201cBlue\u201d Color
p11
sS'images'
p12
(lp13
Vhttp://www.glacierwear.com/media/catalog/product/cache/1/thumbnail/500x/17f82f742ffe127f42dca9de82fb58b1/2/2/223653.jpg
p14
asS'shipping_info'
p15
VFree Shipping on $100.00+
p16
sS'id'
p17
V9580_1497081077
p18
s.