(dp1
S'title'
p2
VBlue Scaled Quail
p3
sS'url'
p4
Vhttp://store.yahoo.com/yhst-66562580642243/blue-scale-quail.html
p5
sS'price'
p6
(lp7
sS'seller'
p8
(lp9
sS'description_links'
p10
VBlue Scaled Quail Photo Reference Cd
p11
sS'images'
p12
(lp13
Vhttp://ep.yimg.com/ca/I/yhst-66562580642243_2251_85647492
p14
asS'shipping_info'
p15
(lp16
sS'id'
p17
Vblue-scale-quail_1497081136
p18
s.