(dp1
S'title'
p2
VBighorn Sheep Horn Eagle Head Carving For Sale
p3
sS'url'
p4
Vhttp://www.thetaxidermystore.com/bighorn-sheep-horn-eagle-head-carving-for-sale-13077.html
p5
sS'price'
p6
V$0.00
p7
sS'seller'
p8
(lp9
sS'description_links'
p10
VDetailsDescription of Taxidermy For SaleThis is an incredible Eagle head figure, carved into a Bighorn horn. It has been expertly crafted into the tip of the horn and carved with incredible detail on both sides, then finally set onto an antler base for display, allowing it to be faced in any direction you wish.- Includes a custom antler base for display.- Great for a mantle, shelf, ledge, table, or countertop.About the Bald Eagle (Haliaeetus leucocephalus)The Bald Eagle is the proud national bird of the United States, instantly recognized by it\u2019s snowy white head and tail, golden beak, and massive 6 to 8 foot wingspan, making it one of the most powerful predatory birds on the planet. In the past, the Bald Eagle was hunted for sport. Now, after decades of protection, their numbers have rebounded significantly, and they thrive in the northernmost parts of both the U.S. and Canada. The Bald Eagle will scavenge for carrion, but prefer habitats near rivers and lakes, where they can search for fish. SpecificationsDimensions:*Depth: 14"Height: 15"Width: 14"Weight: 6 lbs
p11
sS'images'
p12
(lp13
Vhttp://www.thetaxidermystore.com/skin/frontend/default/blanco_customization/images/logo.png
p14
aVhttp://www.thetaxidermystore.com/media/wysiwyg/ttsgraphics/sales_banners/Spring-Sale-612.jpg
p15
aVhttp://www.thetaxidermystore.com/media/wysiwyg/ttsgraphics/sales_banners/Spring-Green-CP.jpg
p16
aVhttp://www.thetaxidermystore.com/media/wysiwyg/ttsgraphics/sales_banners/Spring-Sale-612.jpg
p17
aVhttp://www.thetaxidermystore.com/media/wysiwyg/ttsgraphics/sales_banners/Spring-Green-CP.jpg
p18
aVhttp://www.thetaxidermystore.com/media/catalog/product/cache/1/image/396x396/9df78eab33525d08d6e5fb8d27136e95/e/a/eagle-horn-carving-taxidermy-mount-_13077-for-sale-_-the-taxidermy-store.jpg
p19
aVhttp://www.thetaxidermystore.com/media/catalog/product/cache/1/thumbnail/70x70/9df78eab33525d08d6e5fb8d27136e95/e/a/eagle-horn-carving-taxidermy-mount-_13077-for-sale-_-the-taxidermy-store.jpg
p20
aVhttp://www.thetaxidermystore.com/media/catalog/product/cache/1/thumbnail/70x70/9df78eab33525d08d6e5fb8d27136e95/l/a/last_viewed_events_-_20_1_2.jpg
p21
aVhttp://www.thetaxidermystore.com/media/catalog/product/cache/1/thumbnail/70x70/9df78eab33525d08d6e5fb8d27136e95/l/a/last_viewed_events_-_21_1_2.jpg
p22
aVhttp://www.thetaxidermystore.com/media/catalog/product/cache/1/thumbnail/70x70/9df78eab33525d08d6e5fb8d27136e95/l/a/last_viewed_events_-_17_1.jpg
p23
aVhttp://www.thetaxidermystore.com/media/catalog/product/cache/1/thumbnail/70x70/9df78eab33525d08d6e5fb8d27136e95/l/a/last_viewed_events_-_19_1_2.jpg
p24
aVhttp://www.thetaxidermystore.com/media/catalog/product/cache/1/thumbnail/70x70/9df78eab33525d08d6e5fb8d27136e95/l/a/last_viewed_events_-_14_1.jpg
p25
aVhttp://www.thetaxidermystore.com/media/catalog/product/cache/1/thumbnail/70x70/9df78eab33525d08d6e5fb8d27136e95/l/a/last_viewed_events_-_16_1.jpg
p26
aVhttp://www.thetaxidermystore.com/media/catalog/product/cache/1/thumbnail/70x70/9df78eab33525d08d6e5fb8d27136e95/l/a/last_viewed_events_-_18_1_2.jpg
p27
aVhttp://www.thetaxidermystore.com/media/catalog/product/cache/1/thumbnail/70x70/9df78eab33525d08d6e5fb8d27136e95/l/a/last_viewed_events_-_15_1.jpg
p28
aVhttp://www.thetaxidermystore.com//media/wysiwyg/grade/cache/225x225/excellent.png
p29
aVhttp://www.thetaxidermystore.com/media/wysiwyg/ttsgraphics/Certificate.png
p30
aVhttp://www.thetaxidermystore.com/media/wysiwyg/ttsgraphics/ttshomepage/pinterest-logo.jpg
p31
aV/skin/frontend/default/blanco_customization/images/icon-twitter.png
p32
aV/skin/frontend/default/blanco_customization/images/icon-paypal.png
p33
aV/skin/frontend/default/blanco_customization/images/icon-discover.png
p34
aV/skin/frontend/default/blanco_customization/images/icon-visa.png
p35
aV/skin/frontend/default/blanco_customization/images/icon-american-express.png
p36
aV/skin/frontend/default/blanco_customization/images/icon-mastercard.png
p37
asS'shipping_info'
p38
(lp39
sS'id'
p40
V13077_1497078998
p41
s.