(dp1
S'title'
p2
Vchanel jumbo classic python metallic brown brushed gold flap shoulder bag
p3
sS'url'
p4
S'http://www.ebay.com/itm/Chanel-Jumbo-Classic-Python-Metallic-Brown-Brushed-Gold-Flap-Shoulder-Bag-/122510002059?hash=item1c862a478b:g:pzYAAOSwHoFXsJ-k'
p5
sS'price'
p6
VUS $8,995.00
p7
sS'seller'
p8
(dp9
g4
Vhttp://www.ebay.com/usr/upscalealley-chaneltosell?_trksid=p2047675.l2559
p10
sS'name'
p11
V upscalealley-chaneltosell
p12
ssS'description_links'
p13
(lp14
Vhttp://vi.vipr.ebaydesc.com/ws/eBayISAPI.dll?ViewItemDescV4&item=122510002059&t=1471526718000&tid=10&category=63852&seller=upscalealley-chaneltosell&excSoj=1&excTrk=1&lsite=0&ittenable=false&domain=ebay.com&descgauge=1
p15
asS'images'
p16
(lp17
(dp18
S'maxImageUrl'
p19
Vhttp://i.ebayimg.com/images/g/pzYAAOSwHoFXsJ-k/s-l1600.jpg
p20
sS'displayImgUrl'
p21
Vhttp://i.ebayimg.com/images/g/pzYAAOSwHoFXsJ-k/s-l300.jpg
p22
sa(dp23
g19
Vhttp://i.ebayimg.com/images/g/~ZwAAOSw-itXsJ--/s-l1600.jpg
p24
sg21
Vhttp://i.ebayimg.com/images/g/~ZwAAOSw-itXsJ--/s-l300.jpg
p25
sa(dp26
g19
Vhttp://i.ebayimg.com/images/g/AYAAAOSwaB5XsJ-h/s-l1600.jpg
p27
sg21
Vhttp://i.ebayimg.com/images/g/AYAAAOSwaB5XsJ-h/s-l300.jpg
p28
sa(dp29
g19
Vhttp://i.ebayimg.com/images/g/E8wAAOSwMtxXsJ-n/s-l1600.jpg
p30
sg21
Vhttp://i.ebayimg.com/images/g/E8wAAOSwMtxXsJ-n/s-l300.jpg
p31
sa(dp32
g19
Vhttp://i.ebayimg.com/images/g/AnsAAOSwaB5XsJ-r/s-l1600.jpg
p33
sg21
Vhttp://i.ebayimg.com/images/g/AnsAAOSwaB5XsJ-r/s-l300.jpg
p34
sa(dp35
g19
Vhttp://i.ebayimg.com/images/g/M-AAAOSwU-pXsJ-u/s-l1600.jpg
p36
sg21
Vhttp://i.ebayimg.com/images/g/M-AAAOSwU-pXsJ-u/s-l300.jpg
p37
sa(dp38
g19
Vhttp://i.ebayimg.com/images/g/kXkAAOSwZVlXsJ-z/s-l1600.jpg
p39
sg21
Vhttp://i.ebayimg.com/images/g/kXkAAOSwZVlXsJ-z/s-l300.jpg
p40
sa(dp41
g19
Vhttp://i.ebayimg.com/images/g/NPIAAOSwU-pXsJ-2/s-l1600.jpg
p42
sg21
Vhttp://i.ebayimg.com/images/g/NPIAAOSwU-pXsJ-2/s-l300.jpg
p43
sa(dp44
g19
Vhttp://i.ebayimg.com/images/g/4scAAOSw6n5XsJ-6/s-l1600.jpg
p45
sg21
Vhttp://i.ebayimg.com/images/g/4scAAOSw6n5XsJ-6/s-l300.jpg
p46
sasS'shipping_info'
p47
(dp48
S'item_location'
p49
(lp50
V\u000aLake Worth, Florida, United States
p51
asS'delivery'
p52
(lp53
VVaries
p54
asS'posts_to'
p55
(lp56
VUnited States
p57
assS'id'
p58
S'122510002059'
p59
s.