(dp1
S'title'
p2
Vnew. brioni steel blue 100% python leather bomber jacket size 50/40 r $35,000
p3
sS'url'
p4
S'http://www.ebay.com/itm/New-BRIONI-Steel-Blue-100-Python-Leather-Bomber-Jacket-Size-50-40-R-35-000-/222481056584?hash=item33cce78348:g:2cQAAOSwWWxY948j'
p5
sS'price'
p6
(lp7
sS'seller'
p8
(dp9
g4
Vhttp://www.ebay.com/usr/nymilan?_trksid=p2047675.l2559
p10
sS'name'
p11
V nymilan
p12
ssS'description_links'
p13
(lp14
Vhttp://vi.vipr.ebaydesc.com/ws/eBayISAPI.dll?ViewItemDescV4&item=222481056584&t=1492721063000&tid=10&category=57988&seller=nymilan&excSoj=1&excTrk=1&lsite=0&ittenable=false&domain=ebay.com&descgauge=1
p15
asS'images'
p16
(lp17
(dp18
S'maxImageUrl'
p19
Vhttp://i.ebayimg.com/images/g/2cQAAOSwWWxY948j/s-l1600.jpg
p20
sS'displayImgUrl'
p21
Vhttp://i.ebayimg.com/images/g/2cQAAOSwWWxY948j/s-l300.jpg
p22
sa(dp23
g19
Vhttp://i.ebayimg.com/images/g/sI8AAOSw5UZY948m/s-l1600.jpg
p24
sg21
Vhttp://i.ebayimg.com/images/g/sI8AAOSw5UZY948m/s-l300.jpg
p25
sa(dp26
g19
Vhttp://i.ebayimg.com/images/g/YbUAAOSwkShY948p/s-l1600.jpg
p27
sg21
Vhttp://i.ebayimg.com/images/g/YbUAAOSwkShY948p/s-l300.jpg
p28
sa(dp29
g19
Vhttp://i.ebayimg.com/images/g/ZRwAAOSw53NY948t/s-l1600.jpg
p30
sg21
Vhttp://i.ebayimg.com/images/g/ZRwAAOSw53NY948t/s-l300.jpg
p31
sa(dp32
g19
Vhttp://i.ebayimg.com/images/g/NjEAAOSwIWVY948v/s-l1600.jpg
p33
sg21
Vhttp://i.ebayimg.com/images/g/NjEAAOSwIWVY948v/s-l300.jpg
p34
sa(dp35
g19
Vhttp://i.ebayimg.com/images/g/s7gAAOSw5UZY948z/s-l1600.jpg
p36
sg21
Vhttp://i.ebayimg.com/images/g/s7gAAOSw5UZY948z/s-l300.jpg
p37
sa(dp38
g19
Vhttp://i.ebayimg.com/images/g/m8MAAOSwvKtY9481/s-l1600.jpg
p39
sg21
Vhttp://i.ebayimg.com/images/g/m8MAAOSwvKtY9481/s-l300.jpg
p40
sa(dp41
g19
Vhttp://i.ebayimg.com/images/g/Y7sAAOSwkShY9483/s-l1600.jpg
p42
sg21
Vhttp://i.ebayimg.com/images/g/Y7sAAOSwkShY9483/s-l300.jpg
p43
sa(dp44
g19
Vhttp://i.ebayimg.com/images/g/jcYAAOSwRUhY9489/s-l1600.jpg
p45
sg21
Vhttp://i.ebayimg.com/images/g/jcYAAOSwRUhY9489/s-l300.jpg
p46
sasS'shipping_info'
p47
(dp48
S'item_location'
p49
(lp50
V\u000aBrooklyn, New York, United States
p51
asS'delivery'
p52
(lp53
VVaries
p54
asS'posts_to'
p55
(lp56
VWorldwide
p57
assS'id'
p58
S'222481056584'
p59
s.