(dp1
S'title'
p2
VKara Ross Small Shirt Cuff  Lt Grey Python Crystal 14k Y Gold Plate NEW $330
p3
sS'url'
p4
Vhttp://www.ecrater.com/p/23119138/kara-ross-small-shirt-cuff?keywords=python
p5
sS'price'
p6
V$219.99
p7
sS'seller'
p8
Vhttp://luxebuster.ecrater.com
p9
sS'description_links'
p10
VeCRATER template Kara Ross Small Shirt Cuff  Lt Grey Python Crystal 14k Y Gold Plate NEW $330                   Click the preview button to view more images.Ad # 37174Item Description:Be sure to check our shipping calculator for the best shipping costs!KaraRoss Small Shirt Cuff Bracelet Pale Grey Python Crystals 14k YellowGold Plated***NewWithout Tag***Retail:$330Designer:Kara RossCollection:Small ShirtModel#: BB0027000200Item:Bracelet - CuffClasp:MagneticDescription:Hinged, brightly polished 14k yellow gold plated brass cuff with paleto dark gray python skin inlay and two 6mm diameter \u201cballs\u201d ofpave crystals on either side of the claspComposition:14k Yellow Gold Plated BrassTotalWeight, Grams: 103.0Measurements:6.75\u201d interior circumference, 29mm wide, 4.5mm thickMarkings:KARA, Kara RossGuaranteedauthentic, or your money back. This will appropriately packed toensure safe arrival. QUESTIONS? FEEL FREE TO EMAIL US! or CALL US, 773 523 4900Return to top Use our Shipping Calculator to see a selection of shipping methods and costs.To get a real-time shipping quote to your destination, enter your country and zip / postal code information into the shipping calculator and click "Get Rate". Select Destination Country and ServiceUnited States Canada USPS Priority Mail InternationalMexico USPS Priority Mail InternationalOther USPS Priority Mail InternationalShipping CostAdditional Item ShippingPowers Your Online MarketplaceMake inventory management a breeze with Kyozou eCRATER Inventory Management Software
p11
sS'images'
p12
(lp13
Vhttp://s.ecrater.com/stores/342561/55c6c4de66e94_342561b.jpg
p14
asS'shipping_info'
p15
(lp16
VOnly 1 available
p17
aVShipping:US-Mainland: free(more destinations)
p18
aVCondition: Used
p19
asS'id'
p20
V23119138
p21
s.