(dp1
S'title'
p2
VNEW NANETTE LEPORE 8 M  python suede stilettos heels shoes black ruffled
p3
sS'url'
p4
Vhttp://www.ecrater.com/p/24368947/nanette-lepore-8-m-python-suede-stilettos?keywords=python
p5
sS'price'
p6
V$149.99
p7
sS'seller'
p8
Vhttp://jenifersdesignercloset.ecrater.com
p9
sS'description_links'
p10
VAuthenticNanette LeporePython Print Suede and Leather Stiletto SandalsStunningly sexy yet subtly girly stiletto sandals feature snakeskin printed suede and leather exterior, abstract suede petal detail and adjustable ankle strap for perfect fit4.5-inch heelBrand NewRetail Price: $345.00Size-8See pics! Check out my other high-end designer items too! High-end designer items at Blow-Out prices! Payment   International ShippingAlthough other sellers have discontinued shipping internationally altogether due to increased cost, we have decided to keep this option for you, but please understand that we do not set this rate and we do not profit. This rate is set by the Postal Service. We also offer discounts on shipping for multiple items that are paid and shipped together. International buyer -Please Note*Please do not ask me to change the shipping price after you have won an item as I will not.* I will NOT falsify customs forms. It is against the law andif asked to do so I will reportit to eCRATER and cancel the transaction. It is the buyer's responsibility to pay customs fees, duties, import taxes, and related charges.*Import Duties, taxes and charges are NOT INCLUDED in the item price or shipping charges. These charges are the buyers responsibility.*Please check with your country's customs office to determine if these apply and what these additional costs will be prior to looking/buying.*These charges are normally collected at delivery-Do not confuse them for additional shipping charges. * I am not responsible for transit delays resulting from customs or carrier.I combine shipping for more than 1 item! *Designer size tags vary in actual size. It is your responsibility to know how the item/ designer fits you. My measurements are there as a guide only. I will not be held responsible if the item does not fit. Feedback:Please leave feedback when you receive your item to let us know you havereceived your purchase. We review our feedback nightly and gladly reciprocate. Paypal Verified:We are VERIFIED through paypal and have over 8000 positive successful transactions.Wealso have100 % positive feedback (listed with eCRATER since 2000) so buy with confidence.   Analyzing "Smart Counters" only @ inkFrog.com Powered by eCRATER . List your items fast and easy and manage your active items.              FREE!  Sellers: Add a FREE map to your listings. FREE! inkFrog Analytics
p11
sS'images'
p12
(lp13
sS'shipping_info'
p14
(lp15
VOnly 1 available
p16
aVShipping:US-Mainland: free(more destinations)
p17
aVCondition: Brand new
p18
asS'id'
p19
V24368947
p20
s.