(dp1
S'title'
p2
VMichael Kors Astrid Large Satchel Angora Beige Python-embossed
p3
sS'url'
p4
Vhttp://www.ecrater.com/p/25047782/michael-kors-astrid-large-satchel?keywords=python
p5
sS'price'
p6
V$169.00
p7
sS'seller'
p8
Vhttp://zali.ecrater.com
p9
sS'description_links'
p10
Vaddress before you pay.All items will be declared as gift. MICHAEL Michael Kors Astrid Large Satchel Angora Beige Python-embossedItems Description* Angora (beige) python-embossed leather.* Golden hardware.* Tubular top handles.* Adjustable shoulder strap.* Hanging logo tag.* Turn-lock close with Michael Kors engraved at top.* 11 1/2"H x 13"W x 5"D.* Imported
p11
sS'images'
p12
(lp13
Vhttp://s.ecrater.com/stores/355732/579d61768daef_355732b.jpg
p14
asS'shipping_info'
p15
(lp16
VMore than 10 available
p17
aVShipping:US-Mainland: free(more destinations)
p18
aVCondition: Brand new
p19
asS'id'
p20
V25047782
p21
s.