(dp1
S'title'
p2
VBalenciaga Arena Python Hi-top Sneakers Lbslm30 Black Boots
p3
sS'url'
p4
Vhttp://www.ecrater.com/p/25914837/balenciaga-arena-python-hi-top?keywords=python
p5
sS'price'
p6
V$779.00
p7
sS'seller'
p8
Vhttp://bagriculture.ecrater.com
p9
sS'description_links'
p10
VBalenciaga Arena Black Python Hi-Top SneakersThis item will ship immediately!!Previously owned.Men's Size: 43Signs of Wear: New, no signs of wear.This item comes with dust bag and box.Please review photos for more details.Color appearance may vary depending on your monitor settings.
p11
sS'images'
p12
(lp13
Vhttp://s.ecrater.com/stores/395073/5847fde6dd434_395073b.jpg
p14
asS'shipping_info'
p15
(lp16
VOnly 1 available
p17
aVShipping:US-Mainland: free(more destinations)
p18
aVSales Tax: New York: 8.88%
p19
aVCondition: New other, see desc
p20
asS'id'
p21
V25914837
p22
s.