(dp1
S'title'
p2
VDonald Pliner $595 WESTERN COUTURE HAND PAINTED GENUINE PYTHON Mule Shoe NIB 6 7
p3
sS'url'
p4
Vhttp://www.ecrater.com/p/25941647/donald-pliner-595-western-couture-hand?keywords=python
p5
sS'price'
p6
V$350.00
p7
sS'seller'
p8
Vhttp://edensgarden.ecrater.com
p9
sS'description_links'
p10
VDONALD PLINERWESTERN COUTURESHOW STOPPINGEYE CATCHINGYUMMY.......SEXY........WEAR ALL YEAR.........STUNNING~HAND PAINTED GENUINE PYTHON~LUSCIOUSSADDLE / BRONZE CRUSH ANTIQUE METALLIC2"WESTERN WEDGE HEELMULE / SHOE/ BOOTEXTRA COMFYPADDED LEATHERFOOT BEDNON-SKID LEATHER ROSETTESOLEFABULOUS FORDANCING, WORK, GETTING NOTICED, PARTY, EVENT, VACATION OR GIFTNEWWITH BOXRETAIL $595.00 + TAX**sold out EVERYWHERE**YOU WON'T SEE THESE COMING & GOINGGET NOTICED NOW, IN ANY SEASONITEM IN PICTURE #1 - #5OTHER ITEMS LISTED OR AVAILABLE, JUST ASKIF FIT IS AN ISSUE, I AM HAPPY TO EXCHANGE FOR A DIFFERENT SIZE / STYLEFABULOUS FOR YOU OR A GIFT FOR THAT SOMEONE SPECIAL..~THE RIGHT SHOE CAN CHANGE YOUR LIFE!~CINDERELLAUP FOR product, ONLY THE FINEST FOOTWEAR ON EARTH. DONALD J. PLIER, HANDMADE IN THE MOUNTAINS OF ITALY.STUNNING, SEXY, SHOW STOPPING & OH SOSOLD OUT,WESTERN COUTURE~HAND PAINTED PYTHON~IN COLORSOFSADDLE / BRONZECRUSH ANTIQUE METALLIC. PADDED LEATHER FOOT BED. FABULOUSDONALD J PLINER DESIGN & COMFORT.ONLY DONALD PLINER FEELS LIKE A GLOVE WHEN YOU SLIDE THEM ON. THERE IS NEVER A "BREAK IN" PERIOD. THESE BEAUTIES, AS WELL AS ALL OTHER DONALD J. PLINER TOP OF THE LINE, DESIGNER, HANDMADE ITEMS ARE WORLD CLASS & WORLD QUALITY CRAFTSMANSHIP!THESE BRAND NEWWITH BOX ,RETAIL FOR $595.00, IF YOU COULD FIND THEM. THIS IS YOUR OPPORTUNITY TO BENEFIT FROM MY DESIGNER AT A DISCOUNT BUYING STYLE. I LOVE TO SHOP & BUY!!GET THESE AT A FRACTION OF RETAIL.DRESS THESE BEAUTIES UP OR WHO KNOWS, FUN W/ JEANS. YEAR ROUND STYLE & COMFORT. GREAT FOR EVERYDAY OR SPECIAL OCCASIONS.YOU WILL BE THRILLED WITH THESE. DON'T LET THEM SLIP BY YOU!! buy NOW!!I HAVE LOTS OF WONDERFUL DESIGNER ITEMS LISTED. Check out my other items!Be sure to add me to your favorites list! YOU WILL BE GLAD YOU DID.PLEASE ASK ALL QUESTIONS PRIOR TO looking. IF YOU NEED ADDITIONAL PICTURES OR SIZING JUST ASK.buy WITH CONFIDENCE.I AM PAYPAL VERIFIED. CHECK MY FEEDBACK.INSURANCE IS OFFERED AS OPTIONAL. BUYER IS RESPONSIBLE FOR ITEMS LOST OR DAMAGED AFTER SHIPPING/MAILING.ALL SALES FINAL. IF FIT IS AN ISSUE, I AM HAPPY TO EXCHANGE FOR ANOTHER SIZE / STYLE.THANKS FOR looking & BEING HERE! HAVE A GREAT DAY!!
p11
sS'images'
p12
(lp13
sS'shipping_info'
p14
(lp15
VOnly 1 available
p16
aVShipping:US-Mainland: free(more destinations)
p17
aVCondition: Used
p18
asS'id'
p19
V25941647
p20
s.