(dp1
S'title'
p2
VBottega Veneta BVSL01 Python Zip Around Wallet
p3
sS'url'
p4
Vhttp://www.ecrater.com/p/25972582/bottega-veneta-bvsl01-python-zip?keywords=python
p5
sS'price'
p6
V$287.00
p7
sS'seller'
p8
Vhttp://bagriculture.ecrater.com
p9
sS'description_links'
p10
VThis item will ship immediately!!Previously owned.Made In: ItalyMeasurements: Length: 7 Width: 1 Height: 4Signs of wear: Discoloration due to dirt and staining, and scratches on the hardware.This item does not come with any other extra accessories.Please review measurements and photos to see if this is the perfect item for you.Please keep in mind that measurements are provided only as a guide and are approximate.Please review photos for more details.Color appearance may vary depending on your monitor settings.
p11
sS'images'
p12
(lp13
Vhttp://s.ecrater.com/stores/395073/585269e2af9ac_395073b.jpg
p14
asS'shipping_info'
p15
(lp16
VOnly 1 available
p17
aVShipping:US-Mainland: free(more destinations)
p18
aVSales Tax: New York: 8.88%
p19
aVCondition: Used
p20
asS'id'
p21
V25972582
p22
s.