(dp1
S'title'
p2
VChanel Jeweled Python Classic Flap ( W/ Box & Dust ) 211701 BROWN Satchel
p3
sS'url'
p4
Vhttp://www.ecrater.com/p/26048082/chanel-jeweled-python-classic-flap-w?keywords=python
p5
sS'price'
p6
V$2,360.40
p7
sS'seller'
p8
Vhttp://bagriculture.ecrater.com
p9
sS'description_links'
p10
VThis item will ship immediately!!Previously owned.Date Code: 8228605Made In: ItalyMeasurements: Length: 7.2" Width: 1.7" Height: 4.1"Handle Drop: 3.5"Signs of Wear: Scuffs on the surface of the bag. Light scratches on the hardware. Minor discoloration and scratches on the interior. Dust bag and box included.OVERALL EXCELLENTThis item does not come with any other extra accessories.Please review measurements and photos to see if this is the perfect item for you.Please keep in mind that measurements are provided only as a guide and are approximate.Please review photos for more details.Color appearance may vary depending on your monitor settings.SKU : 211701
p11
sS'images'
p12
(lp13
Vhttp://s.ecrater.com/stores/395073/5863985bded99_395073b.jpg
p14
asS'shipping_info'
p15
(lp16
VOnly 1 available
p17
aVShipping:US-Mainland: free(more destinations)
p18
aVSales Tax: New York: 8.88%
p19
aVCondition: Used
p20
asS'id'
p21
V26048082
p22
s.