(dp1
S'title'
p2
VChanel Python CC Wallet 213287
p3
sS'url'
p4
Vhttp://www.ecrater.com/p/26132078/chanel-python-cc-wallet-213287?keywords=python
p5
sS'price'
p6
V$464.00
p7
sS'seller'
p8
Vhttp://bagriculture.ecrater.com
p9
sS'description_links'
p10
VThis item will ship immediately!!Previously owned.Made In: ItalyMeasurements: Length: 4,1" Width: 0.7" Height: 7.2"OVERALL GOOD CONDITION 2 = GoodVisible signs of wear on the exterior, ie scuffs on the scales. Scuffs and wear of the edges both on the interior and exterior. Considerable discoloration of the interior. Darkening of the interior pockets. 5 =New4= Excellent3= Very Good2= Good 1= Fair 0=Needs WorkThis item does not come with any other extra accessories.Please review measurements and photos to see if this is the perfect item for you.Please keep in mind that measurements are provided only as a guide and are approximate.Please review photos for more details.Color appearance may vary depending on your monitor settings.SKU : 213287
p11
sS'images'
p12
(lp13
Vhttp://s.ecrater.com/stores/395073/5875cd6e216fc_395073b.jpg
p14
asS'shipping_info'
p15
(lp16
VOnly 1 available
p17
aVShipping:US-Mainland: free(more destinations)
p18
aVSales Tax: New York: 8.88%
p19
aVCondition: Used
p20
asS'id'
p21
V26132078
p22
s.