(dp1
S'title'
p2
Vceline medium python trapeze bag
p3
sS'url'
p4
S'http://www.ebay.com/itm/Celine-Medium-Python-Trapeze-Bag-/262998412149?hash=item3d3bed4b75:g:HNwAAOSwhQhY4mxw'
p5
sS'price'
p6
VUS $17,500.00
p7
sS'seller'
p8
(dp9
g4
Vhttp://www.ebay.com/usr/us_alabu?_trksid=p2047675.l2559
p10
sS'name'
p11
V us_alabu
p12
ssS'description_links'
p13
(lp14
Vhttp://vi.vipr.ebaydesc.com/ws/eBayISAPI.dll?ViewItemDescV4&item=262998412149&t=1495474770000&tid=10&category=63852&seller=us_alabu&excSoj=1&excTrk=1&lsite=0&ittenable=false&domain=ebay.com&descgauge=1
p15
asS'images'
p16
(lp17
(dp18
S'maxImageUrl'
p19
Vhttp://i.ebayimg.com/images/g/HNwAAOSwhQhY4mxw/s-l1600.jpg
p20
sS'displayImgUrl'
p21
Vhttp://i.ebayimg.com/images/g/HNwAAOSwhQhY4mxw/s-l300.jpg
p22
sa(dp23
g19
Vhttp://i.ebayimg.com/images/g/ivQAAOSw3utY4mx1/s-l1600.jpg
p24
sg21
Vhttp://i.ebayimg.com/images/g/ivQAAOSw3utY4mx1/s-l300.jpg
p25
sa(dp26
g19
Vhttp://i.ebayimg.com/images/g/YfAAAOSwuLZY4mx4/s-l1600.jpg
p27
sg21
Vhttp://i.ebayimg.com/images/g/YfAAAOSwuLZY4mx4/s-l300.jpg
p28
sa(dp29
g19
Vhttp://i.ebayimg.com/images/g/jEEAAOSw3utY4mx8/s-l1600.jpg
p30
sg21
Vhttp://i.ebayimg.com/images/g/jEEAAOSw3utY4mx8/s-l300.jpg
p31
sa(dp32
g19
Vhttp://i.ebayimg.com/images/g/tpIAAOSwmgJY4mx~/s-l1600.jpg
p33
sg21
Vhttp://i.ebayimg.com/images/g/tpIAAOSwmgJY4mx~/s-l300.jpg
p34
sa(dp35
g19
Vhttp://i.ebayimg.com/images/g/jYwAAOSwol5Y4myC/s-l1600.jpg
p36
sg21
Vhttp://i.ebayimg.com/images/g/jYwAAOSwol5Y4myC/s-l300.jpg
p37
sa(dp38
g19
Vhttp://i.ebayimg.com/images/g/jLwAAOSwA29Y4myE/s-l1600.jpg
p39
sg21
Vhttp://i.ebayimg.com/images/g/jLwAAOSwA29Y4myE/s-l300.jpg
p40
sa(dp41
g19
Vhttp://i.ebayimg.com/images/g/gPkAAOSww3tY4myK/s-l1600.jpg
p42
sg21
Vhttp://i.ebayimg.com/images/g/gPkAAOSww3tY4myK/s-l300.jpg
p43
sa(dp44
g19
Vhttp://i.ebayimg.com/images/g/17kAAOSwdGFY4myN/s-l1600.jpg
p45
sg21
Vhttp://i.ebayimg.com/images/g/17kAAOSwdGFY4myN/s-l300.jpg
p46
sa(dp47
g19
Vhttp://i.ebayimg.com/images/g/2BsAAOSwdGFY4myP/s-l1600.jpg
p48
sg21
Vhttp://i.ebayimg.com/images/g/2BsAAOSwdGFY4myP/s-l300.jpg
p49
sa(dp50
g19
Vhttp://i.ebayimg.com/images/g/WukAAOSwXYtY4myR/s-l1600.jpg
p51
sg21
Vhttp://i.ebayimg.com/images/g/WukAAOSwXYtY4myR/s-l300.jpg
p52
sa(dp53
g19
Vhttp://i.ebayimg.com/images/g/VxcAAOSwTM5Y4myT/s-l1600.jpg
p54
sg21
Vhttp://i.ebayimg.com/images/g/VxcAAOSwTM5Y4myT/s-l300.jpg
p55
sasS'shipping_info'
p56
(dp57
S'item_location'
p58
(lp59
V\u000aAstoria, New York, United States
p60
asS'delivery'
p61
(lp62
VVaries
p63
asS'posts_to'
p64
(lp65
VUnited States
p66
assS'id'
p67
S'262998412149'
p68
s.