(dp1
S'title'
p2
VJimmy Choo Python 37jca3917 Boots
p3
sS'url'
p4
Vhttp://www.ecrater.com/p/26690880/jimmy-choo-python-37jca3917-boots?keywords=python
p5
sS'price'
p6
V$226.00
p7
sS'seller'
p8
Vhttp://bagriculture.ecrater.com
p9
sS'description_links'
p10
VThis item will ship immediately!!Previously owned.Made In: ItalySize: 39 1/2OVERALL VERY GOOD - CONDITION 2.5 = VERY GOOD - Signs of Wear: Visible discoloration/yellowing of the left-side boot. Rub marks on both boots. Signs of wear on the soles and insoles. Damaged box included.5 =New4= Excellent3= Very Good2= Good 1= Fair 0=Needs WorkThis item does not come with any extra accessories.Please review photos for more details.Color appearance may vary depending on your monitor settings.SKU : 37jca3917
p11
sS'images'
p12
(lp13
Vhttp://s.ecrater.com/stores/395073/58c292fb80cf2_395073b.jpg
p14
asS'shipping_info'
p15
(lp16
VOnly 1 available
p17
aVShipping:US-Mainland: free(more destinations)
p18
aVSales Tax: New York: 8.88%
p19
aVCondition: Used
p20
asS'id'
p21
V26690880
p22
s.