(dp1
S'title'
p2
V100%  Genuine/Real python skin leather bifold  wallets purse  Men/Women, Luxury quality men wal
p3
sS'url'
p4
Vhttp://www.ecrater.com/p/26991338/100-genuine-real-python-skin-leather?keywords=python
p5
sS'price'
p6
V$300.00
p7
sS'seller'
p8
Vhttp://shopforman.ecrater.com
p9
sS'description_links'
p10
Vwallet case for iphone 4 on sale at reasonable prices, buy 100%  Genuine/Real python skin leather bifold  wallets purse  Men/Women, Luxury quality men wallet +Free shipping
p11
sS'images'
p12
(lp13
Vhttp://s.ecrater.com/stores/403558/58ec6e24358af_403558b.jpg
p14
asS'shipping_info'
p15
(lp16
V5 available
p17
aVShipping:US-Mainland: free(more destinations)
p18
aVCondition: Brand new
p19
asS'id'
p20
V26991338
p21
s.