(dp1
S'title'
p2
V\u000aBalmain Gray Asymmetric Python-skin Bomber Jacket - New\u000a
p3
sS'url'
p4
Vhttp://www.ioffer.com/i/balmain-gray-asymmetric-python-skin-bomber-jacket-new-595600986
p5
sS'price'
p6
V$1,300.00
p7
sS'seller'
p8
(lp9
sS'description_links'
p10
VBalmain Gray Asymmetric Python-skin Bomber Jacket 100% REAL PYTHON LEATHER Brand New SIZE CHART  Size chart is in inches and cms. Adult Men's Jacket Size Table  Jacket Sizes in Inches  XXS XS S M L XL  Arm Length (from shoulder to the cuff)  26" 66.50cm 26.25" 67cm 26.50" 67.50cm 26.75" 68cm 27" 68.50cm 27.25" 69cm  Body (height from back)  22" 57.50cm 22.50"58cm 23.50"59.50cm 24"61cm 24.50"62.50cm 25"64cm  Chest measurement of the jacket  36"91.5cm 38"96.5cm 40" 101.5cm 42" 106.5cm 44" 111.5cm 46"116.5cm  Bottom of the jacket or waist  34"86.50cm 36"91.50cm 38"96.50cm 40"101.50cm 42"106.50cm Shoulders  16.50" 17.15" 18" 18.75" 19.50"  THIS ITEM IS MADE ACCORDING TO THE "SIZE CHART" ABOVE OR YOUR CUSTOM SIZES WITHOUT ANY EXTRA CHARGES, WITHIN 4-5 DAYS.  \uf0fc GUARANTEED LOWEST PRICE! Retail Price: $9999.99  ITEM NOBalmain python asymetric CONDITIONBRAND NEW FABRIC100% Python Leather COLORS  SIZEBlack or Brown or any color SIZE - ANY SIZE AS PER SIZE CHART SHIPPING$39 BY DHL WORLDWIDE  \u2022Water-resistant lining \u2022Discreet Pockets with hidden zippers for keys, wallets - 2 outside and 2 inside pockets and a cell pocket \u2022Highest quality materials and craftmanship \u2022120mm Side zippers on wrists and heavy duty grade front zipper all top YKK brand  SHIPPING INFORMATION We will ship to worldwide. all of our orders are usually shipped within 5 days after the payment is received. We are not responsible for any customs/taxes your country may charge you. Items will be professionally packed and shipped to all countries using the following :  DHL EXPRESS  ALL ITEMS ARE SHIPPED THROUGH DHL AND SHIPPING INCLUDES IN THE PRICE, TRACKING NO. WILL BE SENT AS WELL FOR DHL.  Combine shipping is allowed, each additional item to the same address is half off. T E R M S - Payment is expected within 5 days .. Zero rating users are welcome but please note that you are bidding to buy, no refunds at this price, restocking fees for exchanges, no local pickup..we try to keep the prices as low as possible. Non-insured orders are shipped at the customer`s risk and are not guaranteed against damage/loss. No return for the customized orders. P A Y M E N T - For Payment, We Will Accept all major credit cards and western union.
p11
sS'images'
p12
(lp13
Vhttp://cdn.iofferphoto.com/img3/item/595/600/986/t_balmain-gray-asymmetric-python-skin-bomber-jacket-new-d42c.jpg
p14
aVhttp://cdn.iofferphoto.com/img3/item/595/600/986/t_balmain-gray-asymmetric-python-skin-bomber-jacket-new-9738.jpg
p15
aVhttp://cdn.iofferphoto.com/img3/item/595/600/986/t_balmain-gray-asymmetric-python-skin-bomber-jacket-new-21de.jpg
p16
aVhttp://cdn.iofferphoto.com/img3/item/595/600/986/t_balmain-gray-asymmetric-python-skin-bomber-jacket-new-2f43.jpg
p17
aVhttp://cdn.iofferphoto.com/img3/item/595/600/986/t_balmain-gray-asymmetric-python-skin-bomber-jacket-new-f8ee.jpg
p18
aVhttp://cdn.iofferphoto.com/img3/item/595/600/986/t_balmain-gray-asymmetric-python-skin-bomber-jacket-new-18f4.jpg
p19
asS'shipping_info'
p20
VAvailable ColorsAvailable SizesSizesX-SmallSmallMediumLargeX-LargeEstimated Shipping15 - 20 Days
p21
sS'id'
p22
V595600986_1497071255
p23
s.