(dp1
S'title'
p2
V\u000aRed Python Snake Leather Flap Handbag Bag Purse Bags\u000a
p3
sS'url'
p4
Vhttp://www.ioffer.com/i/red-python-snake-leather-flap-handbag-bag-purse-bags-596872948
p5
sS'price'
p6
V$690.00
p7
sS'seller'
p8
(lp9
sS'description_links'
p10
VDescription:  Item Size : W25 x H16 x D7 CM Comes with: Authentic card , care booklet , Dust Bag Payment : We Accept Money Gram .Western Union .MasterCard .VISA Shipping : Uually we are use ESM ,The DHL shipping cost very expensive . so if you want by DHL , please tell me.  1.Europe About 10 days by EMS 2.USA About 8 days by EMS 3.Other countries and regions About 12 days
p11
sS'images'
p12
(lp13
Vhttp://cdn.iofferphoto.com/img3/item/596/872/948/t_red-python-snake-leather-flap-handbag-bag-purse-bags-c9ab.jpg
p14
aVhttp://cdn.iofferphoto.com/img3/item/596/872/948/t_red-python-snake-leather-flap-handbag-bag-purse-bags-f9c7.jpg
p15
aVhttp://cdn.iofferphoto.com/img3/item/596/872/948/t_red-python-snake-leather-flap-handbag-bag-purse-bags-50b1.jpg
p16
aVhttp://cdn.iofferphoto.com/img3/item/596/872/948/t_red-python-snake-leather-flap-handbag-bag-purse-bags-a5af.jpg
p17
aVhttp://cdn.iofferphoto.com/img3/item/596/872/948/t_red-python-snake-leather-flap-handbag-bag-purse-bags-180a.jpg
p18
aVhttp://cdn.iofferphoto.com/img3/item/596/872/948/t_red-python-snake-leather-flap-handbag-bag-purse-bags-862a.jpg
p19
aVhttp://cdn.iofferphoto.com/img3/item/596/872/948/t_red-python-snake-leather-flap-handbag-bag-purse-bags-bf99.jpg
p20
aVhttp://cdn.iofferphoto.com/img3/item/596/872/948/t_red-python-snake-leather-flap-handbag-bag-purse-bags-fd2d.jpg
p21
aVhttp://cdn.iofferphoto.com/img3/item/596/872/948/t_red-python-snake-leather-flap-handbag-bag-purse-bags-7171.jpg
p22
asS'shipping_info'
p23
VAvailable SizesSizesMediumEstimated Shipping5 - 10 Days
p24
sS'id'
p25
V596872948_1497071348
p26
s.