(dp1
S'title'
p2
V\u000aReally Python Snake Leather Flap Handbag Bag Purse Bags\u000a
p3
sS'url'
p4
Vhttp://www.ioffer.com/i/really-python-snake-leather-flap-handbag-bag-purse-bags-596985496
p5
sS'price'
p6
V$690.00
p7
sS'seller'
p8
(lp9
sS'description_links'
p10
VDescription:  Item Size : W28 x H17 x D8 CM Comes with: Authentic card , care booklet , Dust Bag Payment : We Accept Money Gram .Western Union .MasterCard .VISA Shipping : Uually we are use ESM ,The DHL shipping cost very expensive . so if you want by DHL , please tell me.  1.Europe About 10 days by EMS 2.USA About 8 days by EMS 3.Other countries and regions About 12 days
p11
sS'images'
p12
(lp13
Vhttp://cdn.iofferphoto.com/img3/item/596/985/496/t_really-python-snake-leather-flap-handbag-bag-purse-bags-071a.jpg
p14
aVhttp://cdn.iofferphoto.com/img3/item/596/985/496/t_really-python-snake-leather-flap-handbag-bag-purse-bags-3adc.jpg
p15
aVhttp://cdn.iofferphoto.com/img3/item/596/985/496/t_really-python-snake-leather-flap-handbag-bag-purse-bags-bb3b.jpg
p16
aVhttp://cdn.iofferphoto.com/img3/item/596/985/496/t_really-python-snake-leather-flap-handbag-bag-purse-bags-cae4.jpg
p17
aVhttp://cdn.iofferphoto.com/img3/item/596/985/496/t_really-python-snake-leather-flap-handbag-bag-purse-bags-0341.jpg
p18
aVhttp://cdn.iofferphoto.com/img3/item/596/985/496/t_really-python-snake-leather-flap-handbag-bag-purse-bags-1666.jpg
p19
aVhttp://cdn.iofferphoto.com/img3/item/596/985/496/t_really-python-snake-leather-flap-handbag-bag-purse-bags-d2a0.jpg
p20
aVhttp://cdn.iofferphoto.com/img3/item/596/985/496/t_really-python-snake-leather-flap-handbag-bag-purse-bags-4027.jpg
p21
aVhttp://cdn.iofferphoto.com/img3/item/596/985/496/t_really-python-snake-leather-flap-handbag-bag-purse-bags-a0e4.jpg
p22
asS'shipping_info'
p23
VAvailable SizesSizesMediumEstimated Shipping5 - 10 Days
p24
sS'id'
p25
V596985496_1497071363
p26
s.