(dp1
S'title'
p2
V\u000apython junmpo chain bag 30cm purple blue\u000a
p3
sS'url'
p4
Vhttp://www.ioffer.com/i/python-junmpo-chain-bag-30cm-purple-blue-636882462
p5
sS'price'
p6
V$895.00
p7
sS'seller'
p8
(lp9
sS'description_links'
p10
Vmore detailed pho-tos availalbe,price can be negotiable for serious buyer,other size or colour available,pls ask question before buy
p11
sS'images'
p12
(lp13
Vhttp://cdn.iofferphoto.com/img/item/636/882/462/t_dIzQpython-junmpo-chain-bag-30cm-purple-blue.jpg
p14
aVhttp://cdn.iofferphoto.com/img/item/636/882/462/t_Y0xmpython-junmpo-chain-bag-30cm-purple-blue.jpg
p15
aVhttp://cdn.iofferphoto.com/img/item/636/882/462/t_MzwKpython-junmpo-chain-bag-30cm-purple-blue.jpg
p16
asS'shipping_info'
p17
(lp18
sS'id'
p19
V636882462_1497071330
p20
s.