(dp1
S'title'
p2
V\u000areal snakeskin python bieorkin shoulder bag \u000a
p3
sS'url'
p4
Vhttp://www.ioffer.com/i/real-snakeskin-python-bieorkin-shoulder-bag-636880663
p5
sS'price'
p6
V$1,065.00
p7
sS'seller'
p8
(lp9
sS'description_links'
p10
VOnly take paypal, no credit card,size same as authentic size,mirror image authentic quality, What you see is what you will get, guarantee you will receive the items shown in the pics, ship by dhl, no custom problems,hope you buy more from our store.
p11
sS'images'
p12
(lp13
Vhttp://cdn.iofferphoto.com/img3/item/636/880/663/t_f7Pzreal-snakeskin-python-bieorkin-shoulder-bag.jpg
p14
aVhttp://cdn.iofferphoto.com/img3/item/636/880/663/t_xta8real-snakeskin-python-bieorkin-shoulder-bag.jpg
p15
aVhttp://cdn.iofferphoto.com/img3/item/636/880/663/t_NhEureal-snakeskin-python-bieorkin-shoulder-bag.jpg
p16
asS'shipping_info'
p17
(lp18
sS'id'
p19
V636880663_1497071303
p20
s.