(dp1
S'title'
p2
V\u000aNEW Black python Women's High Heels Pump shoes\u000a
p3
sS'url'
p4
Vhttp://www.ioffer.com/i/new-black-python-women-s-high-heels-pump-shoes-637210830
p5
sS'price'
p6
V$160.00
p7
sS'seller'
p8
(lp9
sS'description_links'
p10
(lp11
sS'images'
p12
(lp13
Vhttp://cdn.iofferphoto.com/img3/item/637/210/830/t_new-black-python-women-s-high-heels-pump-shoes-ca89.jpg
p14
aVhttp://cdn.iofferphoto.com/img3/item/637/210/830/t_new-black-python-women-s-high-heels-pump-shoes-34e1.jpg
p15
aVhttp://cdn.iofferphoto.com/img3/item/637/210/830/t_new-black-python-women-s-high-heels-pump-shoes-d76b.jpg
p16
aVhttp://cdn.iofferphoto.com/img3/item/637/210/830/t_new-black-python-women-s-high-heels-pump-shoes-94a9.jpg
p17
aVhttp://cdn.iofferphoto.com/img3/item/637/210/830/t_new-black-python-women-s-high-heels-pump-shoes-ce7a.jpg
p18
aVhttp://cdn.iofferphoto.com/img3/item/637/210/830/t_new-black-python-women-s-high-heels-pump-shoes-f7eb.jpg
p19
aVhttp://cdn.iofferphoto.com/img3/item/637/210/830/t_new-black-python-women-s-high-heels-pump-shoes-3de3.jpg
p20
aVhttp://cdn.iofferphoto.com/img3/item/637/210/830/t_new-black-python-women-s-high-heels-pump-shoes-b5f9.jpg
p21
aVhttp://cdn.iofferphoto.com/img3/item/637/210/830/t_new-black-python-women-s-high-heels-pump-shoes-fb32.jpg
p22
asS'shipping_info'
p23
VAvailable ColorsAvailable SizesWomen's Shoe SizesUSA44.555.566.577.588.599.5UK22.533.544.555.566.577.5European34.53535.53636.53737.53838.53939.540Japan2020.52121.52222.52324.52525.52626.5Estimated Shipping1 - 3 Days
p24
sS'id'
p25
V637210830_1497071322
p26
s.