(dp1
S'title'
p2
VPewter Python Vertebra
p3
sS'url'
p4
Vhttp://www.boneroom.com/store/p2274/Pewter_Python_Vertebra.html
p5
sS'price'
p6
V$5.00
p7
sS'seller'
p8
(lp9
sS'description_links'
p10
VThese Python Vertebra are cast in pewter and can easily be strung on a chain or cord. When placed together, they mimic the skeletal structure of a python!
p11
sS'images'
p12
(lp13
Vhttp://www.boneroom.com//uploads/4/8/1/1/48118243/s521972503441136676_p2274_i1_w640.jpeg
p14
asS'shipping_info'
p15
(lp16
sS'id'
p17
Vp2274_1497071375
p18
s.