(dp1
S'title'
p2
V\u000a2016 MICHAEL KOR WATCHES WOMENS MENS MK_ WATCH DIAMOND\u000a
p3
sS'url'
p4
Vhttp://www.ioffer.com/i/2016-michael-kor-watches-womens-mens-mk_-watch-diamond-615416256
p5
sS'price'
p6
V$9.50
p7
sS'seller'
p8
(lp9
sS'description_links'
p10
VHello friend, The best price, best products, please rest assured purchase, thank you, I accept credit card payments, accept western union. If it is not a credit card payment, please don't buy, Don't accept paypal
p11
sS'images'
p12
(lp13
Vhttp://cdn.iofferphoto.com/img/item/615/416/256/t_2016-michael-kor-watches-womens-mens-mk_-watch-diamond-b90e.jpg
p14
aVhttp://cdn.iofferphoto.com/img/item/615/416/256/t_2016-michael-kor-watches-womens-mens-mk_-watch-diamond-c54e.jpg
p15
aVhttp://cdn.iofferphoto.com/img/item/615/416/256/t_2016-michael-kor-watches-womens-mens-mk_-watch-diamond-052a.jpg
p16
aVhttp://cdn.iofferphoto.com/img/item/615/416/256/t_2016-michael-kor-watches-womens-mens-mk_-watch-diamond-f98d.jpg
p17
asS'shipping_info'
p18
VAvailable ColorsEstimated Shipping15 - 20 Days
p19
sS'id'
p20
V615416256_1497083932
p21
s.