(dp1
S'title'
p2
VFLEETWOOD MAC TUSK REMIX RADIO SAMPLER 12" LP PROMO
p3
sS'url'
p4
Vhttp://www.ecrater.com/p/11791558/fleetwood-mac-tusk-remix-radio?keywords=tusk
p5
sS'price'
p6
V$19.99
p7
sS'seller'
p8
Vhttp://retrorecordsorlando.ecrater.com
p9
sS'description_links'
p10
VPLEASE NOTE WE WILL NOT BE SHIPPING TO ITALY BUT WILL DELIVER TO REST OF EUROPE NETHERLANDS INCLUDED-----RARECLASICROCK RECORD ----FLEETWOOD MAC SPECIAL RADIO SAMPLER FROM THE TUSK ALBUM (REMIX-REMIXED SONGS) LP THISIs theRARE PROMO RELEASE---made inU.S.A. . 1979 release .. . ..PRO-A-866 --WARNER BROTHERSRECORDS  RELEASE--- SONGS ARE---WHAT MAKES YOU THINK YOU'RE THE ONE, THAT'S ALL FOR EVERYONE (REMIX), THINK ABOUT ME (REMIX), I KNOW I'M NOT WRONG, HONEY HI, SISTERS FO THE MOON (REMIX)---COVERHAS OLD GLUE RESIDUE TOP RIGHT CORNER AND IS IN VG+ CONDITION // RECORD IS IN VG++ OR BETTERCONDITION--PLEASE ADD $4.00 FOR MEDIA RATE- $8.00 FOR PRIORITY IF SHIPPING WITHIN U.S.A// SHIPPING TO CANADA IS $8.00////rest of the world it is $15.00 for shipping and handling... .We have been in business since 1980 here in Orlando Retro Records Is just little east of downtown and now finally we are catching up with the computer/internet age and nowgoing on the web .If any questions please ask before looking and we will be happy to assist you.Thank you and good luck..
p11
sS'images'
p12
(lp13
sS'shipping_info'
p14
(lp15
VOnly 1 available
p16
aVShipping:US-Mainland: $4.00(more destinations)
p17
aVCondition: Used
p18
asS'id'
p19
V11791558
p20
s.