(dp1
S'title'
p2
VMANGO GROOVE - ANOTHER COUNTRY CD 1993 TUSK / 24HR POST
p3
sS'url'
p4
Vhttp://www.ecrater.com/p/13556537/mango-groove-another-country-cd-1993?keywords=tusk
p5
sS'price'
p6
V$15.46
p7
sS'seller'
p8
Vhttp://astrodisc-cds.ecrater.com
p9
sS'description_links'
p10
VYour browser does not support JavaScript.To view this page, enable JavaScript if it is disabled or upgrade your browser.    Click Here.  Double your traffic.  Get Vendio Gallery - Now FREE!ALL ITEMS IN STOCK. ALL ITEMS POSTED WITHIN 24 HOURS OF RECEIVING PAYMENT [MON -FRI]GOOD CONDITION [ SIGNS OF NORMAL WEAR ]MANGO GROOVE - ANOTHER COUNTRY CD 1993 TUSKRECORDS/ ONE WORLD ENTERTAINMENT WOND 120 MADE IN SOUTH AFRICA1Nice To See You 2Keep On Dancing 3Follow My Mind 4We Don't Need A Miracle 5Shake! 6Another Country 7Kindest Part Of Love 8Sometimes 9Tropical Rain 10Sweet Sorrow 11A New Kind Of Love 12Love Will Find A Way 13Dream Softly NotesWOND120 Tusk Music (c) 1993 Status Music LTD. Management: Run Run Artists One World Entertainment Made in South Africa Barcode and Other IdentifiersBarcode: 601491294927Your browser does not support JavaScript.To view this page, enable JavaScript if it is disabled or upgrade your browser.
p11
sS'images'
p12
(lp13
sS'shipping_info'
p14
(lp15
VOnly 1 available
p16
aVShipping:USPS calculated - check
p17
aVCondition: Used
p18
asS'id'
p19
V13556537
p20
s.