(dp1
S'title'
p2
VVintage Chunky Large Bone Ivory Tusk Bangle Bracelet Wood Teak Inlay
p3
sS'url'
p4
Vhttp://www.ecrater.com/p/15038906/vintage-chunky-large-bone-ivory?keywords=tusk
p5
sS'price'
p6
V$45.00
p7
sS'seller'
p8
Vhttp://victorianrose.ecrater.com
p9
sS'description_links'
p10
VVintage Bangle Bracelet!Quality Handcrafted Vintage Stone Bracelet. Looks like it could be Bone, Ivory, or maybe tusk. Really Pretty! Nice Piece of Vintage Jewelry. It is 1"W. The Thickness is 1/4". The inside opening is 2 9/16", with a wooden teak Inlay. Made well, in very good condition.\u2022Vintage Bangle Bracelet\u2022Width: 1"\u2022Inside Opening: 2 9/16"\u2022Thickness: 1/4"\u2022Handcrafted \u2022Condition: Very Good Delivery Confirmation is included in the S/h price. All Sales are Final, No Returns! If you would like to purchase multiple items, S/h can be combined as long as you Email us first to get the Discounted Rate. Any questions, Just ask. Thank you so much for visiting our store!
p11
sS'images'
p12
(lp13
Vhttp://s.ecrater.com/stores/25127/53b9d23a8608b_25127b.jpg
p14
asS'shipping_info'
p15
(lp16
VOnly 1 available
p17
aVShipping:US-Mainland: $5.50(more destinations)
p18
aVCondition: Used
p19
asS'id'
p20
V15038906
p21
s.