(dp1
S'title'
p2
VBath Shower Curtain mammoth skull tusk Ice Age extinct head
p3
sS'url'
p4
Vhttp://www.ecrater.com/p/15149868/bath-shower-curtain-mammoth-skull?keywords=tusk
p5
sS'price'
p6
V$70.00
p7
sS'seller'
p8
Vhttp://eternalart.ecrater.com
p9
sS'description_links'
p10
VYou are purchasing a Brand New White polyester shower curtain, with a hand painted Black design. All shower curtains are hand painted by me! The curtain is waterproof and machine washable, and is the standard size of 70x70 inches.  No local pick up. I only accept payments through Paypal. 7 day money back guarantee. Please feel free to have a look around! If you don't see the right design for your bathroom, just let me know, because I'd love to work on a custom design for you! Other shower curtain colours are available! Thank you and have a great day!
p11
sS'images'
p12
(lp13
Vhttp://s.ecrater.com/stores/260062/4fcee07cde14f_260062b.jpg
p14
asS'shipping_info'
p15
(lp16
VOnly 1 available
p17
aVShipping:US-Mainland: free(more destinations)
p18
aVCondition: Brand new
p19
asS'id'
p20
V15149868
p21
s.