(dp1
S'title'
p2
VAmerican Brilliant Period Cut Glass Antique juice glass tusks
p3
sS'url'
p4
Vhttp://www.ecrater.com/p/17544099/american-brilliant-period-cut-glass?keywords=tusk
p5
sS'price'
p6
V$59.00
p7
sS'seller'
p8
Vhttp://orourke.ecrater.com
p9
sS'description_links'
p10
VUp for productare theseABP Cut Glass Antique JUICE glass. In good condition, never repaired3.25"Tall 2.5" AT TOP RIMI accept checks and credit cards by phone 724 547 3488Stop by our storefront located at402 E. Main Street Mount Pleasant, PA 15666 to see all of the new arrivals! For the past 43 years I have specialized in Hand cutting glass. We deal in Quality glass and do our own repairs and cleaning work. You can buy with confidence that you are going to receive your item in good condition. We ship several packages of glass each day, each item is packed with great care to reach you safely. We will combine items if we think it is safe to do so.Member of ACGAno refund on shipping costs unless we misrepresent item Froo www.froo.com | Froo Cross Sell, Free Cross Sell, Cross promote, eCRATER Marketing, eCRATER listing Apps, eCRATER Apps, eCRATER Application
p11
sS'images'
p12
(lp13
sS'shipping_info'
p14
(lp15
VOnly 1 available
p16
aVShipping:USPS calculated - check
p17
aVCondition: Used
p18
asS'id'
p19
V17544099
p20
s.