(dp1
S'title'
p2
VM1A2 SEP Abrams TUSK II (Plastic model)
p3
sS'url'
p4
Vhttp://www.ecrater.com/p/23535578/m1a2-sep-abrams-tusk-ii?keywords=tusk
p5
sS'price'
p6
V$64.39
p7
sS'seller'
p8
Vhttp://j-subculture.ecrater.com
p9
sS'description_links'
p10
VSKU : JSEC075891
p11
sS'images'
p12
(lp13
sS'shipping_info'
p14
(lp15
V3 available
p16
aVShipping:US-Mainland: free(more destinations)
p17
aVCondition: Brand new
p18
asS'id'
p19
V23535578
p20
s.