(dp1
S'title'
p2
VSaltwater reef fish tank with Live Corals and Fish
p3
sS'url'
p4
Vhttps://bakersfield.craigslist.org/for/6157755106.html
p5
sS'price'
p6
V$1000
p7
sS'seller'
p8
Vhttps://bakersfield.craigslist.org/reply/bak/for/6157755106
p9
sS'description_links'
p10
VQR Code Link to This PostSaltwater reef fish tank with lots of Livestock, equipment and FurnitureMore pictures herehttps://www.dropbox.com/sh/pgd9hy68fl8rvjv/AADiXWUax-S_NDzAW-udRnKXa?dl=0Includes:110gal Tank Plexiglas, 18x60x24", 1/2" thick, no ugly corners, this tank is a bent single piece Plexiglas.Wood standElectronic chillerPumpSkimmerSumpSeveral pounds of natural live rockAquaripure filter, double200w led lamps (two 50w Blue and two 50W White)A bunch of stuff for the tank, calcium, tests, meters, etc. etc.LivestockTons of live corals (I may be wrong on the names)About 50 Neon tree corals, from 1" to 30"4 Elephant ear corals from 4" to 20"1 Polyp plate coral about 10"around 1,000 Brown polypsabout 100 yellow polypsaround 60Lbs of live rock naturalaround 10Lbs of fake live rock50" Plastic Ship Decoration full of real live corals1 Skull 15"6 Percula clown fish 2 blue damsels.FoodAround $7,000 value.
p11
sS'images'
p12
(lp13
Vhttps://images.craigslist.org/00M0M_4cXMt9FN76o_50x50c.jpg
p14
aVhttps://images.craigslist.org/00808_8gSFd7InyFM_50x50c.jpg
p15
aVhttps://images.craigslist.org/00Z0Z_3vRDzXKqACT_50x50c.jpg
p16
aVhttps://images.craigslist.org/00q0q_5WtwzoSTPU6_50x50c.jpg
p17
aVhttps://images.craigslist.org/00X0X_h5jVy7a4Ym1_50x50c.jpg
p18
aVhttps://images.craigslist.org/00Y0Y_2tpEbv9IoIy_50x50c.jpg
p19
aVhttps://images.craigslist.org/00707_d8BH1OymQs8_50x50c.jpg
p20
aVhttps://images.craigslist.org/00X0X_h5jVy7a4Ym1_50x50c.jpg
p21
aVhttps://images.craigslist.org/00Y0Y_2tpEbv9IoIy_50x50c.jpg
p22
aVhttps://images.craigslist.org/00101_flyXBdmbhMZ_50x50c.jpg
p23
aVhttps://images.craigslist.org/00q0q_6uXjEPWqUvV_50x50c.jpg
p24
aVhttps://images.craigslist.org/00G0G_6PHHy428u9g_50x50c.jpg
p25
aVhttps://images.craigslist.org/00k0k_aYYdlbJxAIn_50x50c.jpg
p26
aVhttps://images.craigslist.org/00V0V_9jH8lrfFBvG_50x50c.jpg
p27
aVhttps://images.craigslist.org/00x0x_aWUFYnqUUmW_50x50c.jpg
p28
aVhttps://images.craigslist.org/00C0C_8G81CAegbQX_50x50c.jpg
p29
aVhttps://images.craigslist.org/01515_4ID7zuv5NSj_50x50c.jpg
p30
aVhttps://images.craigslist.org/00D0D_dSVeqzX3wcb_50x50c.jpg
p31
aVhttps://images.craigslist.org/00I0I_53VWTbxpoCZ_50x50c.jpg
p32
aVhttps://images.craigslist.org/00P0P_actUJ9gntT8_50x50c.jpg
p33
aVhttps://images.craigslist.org/00m0m_b22uK7YwC4f_50x50c.jpg
p34
asS'shipping_info'
p35
(lp36
sS'id'
p37
V6157755106_1497619062
p38
s.