(dp1
S'title'
p2
VSet unique Elephants
p3
sS'url'
p4
Vhttps://visalia.craigslist.org/for/6176050159.html
p5
sS'price'
p6
V$25
p7
sS'seller'
p8
Vhttps://bakersfield.craigslist.org/reply/vis/for/6176050159
p9
sS'description_links'
p10
VQR Code Link to This PostHighly unusual. Real fur tails. Could be mom and child, pop and child, elephant friends.Ps I check messages every few hours. I do not use phone to see every message pop up so be patient
p11
sS'images'
p12
(lp13
Vhttps://images.craigslist.org/01616_dxeq0MXbExn_50x50c.jpg
p14
aVhttps://images.craigslist.org/00K0K_exJRa2sXSTN_50x50c.jpg
p15
aVhttps://images.craigslist.org/00w0w_lVcOSvRCUxg_50x50c.jpg
p16
aVhttps://images.craigslist.org/00303_gHdFUyMgxlw_50x50c.jpg
p17
asS'shipping_info'
p18
(lp19
sS'id'
p20
V6176050159_1497752185
p21
s.