(dp1
S'title'
p2
VPlants #elephant ears
p3
sS'url'
p4
Vhttps://bakersfield.craigslist.org/grd/6177112266.html
p5
sS'price'
p6
V$13
p7
sS'seller'
p8
Vhttps://bakersfield.craigslist.org/reply/bak/grd/6177112266
p9
sS'description_links'
p10
VQR Code Link to This PostSelling plants $13 each call at  show contact info
p11
sS'images'
p12
(lp13
Vhttps://images.craigslist.org/00h0h_f4N7xVEoaq9_600x450.jpg
p14
asS'shipping_info'
p15
(lp16
sS'id'
p17
V6177112266_1497619543
p18
s.