(dp1
S'title'
p2
V\u000aRhinoceros Animal SPOTSOUND MASCOT COSTUME UK Mascot Co\u000a
p3
sS'url'
p4
Vhttp://www.ioffer.com/i/rhinoceros-animal-spotsound-mascot-costume-uk-mascot-co-600047432
p5
sS'price'
p6
V$549.00
p7
sS'seller'
p8
(lp9
sS'description_links'
p10
VRhinoceros Animal SPOTSOUND MASCOT COSTUME  UK Mascot Costume Wearing A Yellow And Red Vest And Hat. This mascot is very nice for a marketing event or a private party. FREE SHIPPING around the globe, 7 size to choose and customized options and accessories available on our website. SpotSound is a company represented in Europe and in North America with a reactive customer service. Don't wait, come to play with your future mascot costume !
p11
sS'images'
p12
(lp13
Vhttp://cdn.iofferphoto.com/img3/item/600/047/432/t_v7Tyrhinoceros-animal-spotsound-mascot-costume-uk-mascot-co.jpg
p14
aVhttp://cdn.iofferphoto.com/img3/item/600/047/432/t_yZSBrhinoceros-animal-spotsound-mascot-costume-uk-mascot-co.jpg
p15
asS'shipping_info'
p16
(lp17
sS'id'
p18
V600047432_1497058947
p19
s.