(dp1
S'title'
p2
VRhinoceros Iguana Skull Cast
p3
sS'url'
p4
Vhttp://www.boneroom.com/store/p1497/Rhinoceros_Iguana_Skull_Cast.html
p5
sS'price'
p6
V$159.00
p7
sS'seller'
p8
(lp9
sS'description_links'
p10
VCyclura cornutia5.0" in length
p11
sS'images'
p12
(lp13
Vhttp://www.boneroom.com//uploads/4/8/1/1/48118243/s521972503441136676_p1497_i1_w326.jpeg
p14
asS'shipping_info'
p15
(lp16
sS'id'
p17
Vp1497_1497058951
p18
s.