(dp1
S'title'
p2
VMASTODON 22k Gold First Day Cover Replica Postage Stamp
p3
sS'url'
p4
Vhttp://www.ecrater.com/p/26321806/mastodon-22k-gold-first-day?keywords=mastodon
p5
sS'price'
p6
V$18.50
p7
sS'seller'
p8
Vhttp://junkmarketstop.ecrater.com
p9
sS'description_links'
p10
V*ITEM:   MASTODON 22k Gold First Day Cover Replica Postage Stamp*MANUFACTURER: USPS Capex Station - Toronto, Canada*MEASURES: Approx. 7 1/2 L  X  4 1/4 W*CONDITION:  Evelope has a couple of minor marks on it. Other than that it is in good condition.*FEATURES: 22k gold replica stamp + .32 cent regular postage stamp.*This item will be sold "as-is" in used condition. No warranties or guarantees come with the purchase.*Buyer is responsible for making sure all is correct with the item and the item will suit the buyers needs and expectations before purchase. Buyer is responsible for making sure purchase of this item is not a mistake.*Items sold are inspected and photographed at different angles before being boxed up and shipped to the buyer. Any attempts to return broken items in exchange for what's been shipped to the buyer, make the purchase and exchange parts that are needed then send unit back for a refund, extort partial refunds or get a refund due to a mistake made by the buyer in the purchase of the item will be reported  immediately.*****SHIPPING DETAILS:The shipping weight will be 12 oz and .75 cents for delivery confirmation. Insurance is the buyers responsibility to add at checkout if wanted. A handling fee is charged to cover the time and any expenses associated with the packing and shipping of packages. Anything left is put towards the selling fee's. SORRY, NO LOCAL PICKUPSA JUNKEE SHOPPE1.0P537B37707HP2320#1 A Junkee Shoppe Online Junk Store
p11
sS'images'
p12
(lp13
Vhttp://s.ecrater.com/stores/341648/589cf210c9814_341648b.jpg
p14
asS'shipping_info'
p15
(lp16
VOnly 1 available
p17
aVShipping:USPS calculated - check
p18
aVCondition: Used
p19
asS'id'
p20
V26321806
p21
s.