(dp1
S'title'
p2
VWOW MASTODON TOUR 2017 BLACK TEE S-3XL ASTR
p3
sS'url'
p4
Vhttp://www.ecrater.com/p/26431358/wow-mastodon-tour-2017-black-tee-s?keywords=mastodon
p5
sS'price'
p6
V$28.55
p7
sS'seller'
p8
Vhttp://tutistore.ecrater.com
p9
sS'description_links'
p10
VATTENTION!PLEASE LEAVE YOUR SIZE and GENDER (MEN OR WOMEN) AFTER YOU MAKE A PAYMENTVIA PayPal NOTE OR MESSAGE US VIA  ECRATER  MESSAGE SERVICENOT SERVE Tracking NumberMENSIZECHESTLENGTHSMALL36-38\u201d (91.4cm \u2013 96.5cm25.5\u201d (64.8cm)MEDIUM39-41\u201d (99.1cm \u2013 104.1cm)26\u201d (66cm)LARGE42-44\u201d (106.7cm - 111.8cm)27\u201d (68.6cm)X-LARGE45-46\u201d (114.3cm \u2013 116.8cm)28\u201d (71.1cm)2X-LARGE47-48\u201d (119.4cm - 121.9cm)29\u201d (73.7cm)3X-LARGE49-50\u201d (124.5cm \u2013 127cm30\u201d (76.2cm)WOMENSIZEBUSTLENGTHSMALL34\u201d (86.4cm)23\u201d (58.4cm)MEDIUM35\u201d (88.9cm)23.5\u201d (59.7cm)LARGE36\u201d (91.4cm)24\u201d (61cm)X-LARGE38\u201d (96.5cm)24.5\u201d (62.2cm)2X-LARGE40\u201d (101.6cm)25\u201d (63.5cm)DESCRIPTION\u2022T-shirt is made of 100% preshunk cotton, high-quality and heavyweight. Standard fit. Our t-shirt will be printed using high performance digital printing technology in full color with durable photo quality reproduction.\u20226.1oz 100% cotton, standard fit, heavyweight t-shirt.\u2022Very Comfortable and Looks Great with a pair of Jeans\u2022Custom T-shirt Only ( Not an Original T-shirt )PAYMENT \u2022We accept paypal only.\u2022Once payment is received, your order will be processed and shipped.SHIPMENT \u2022Ship to worldwide.\u2022All items will be shipped out within 5 working days/bussines day (handling time) after payment received. \u2022Shipping time will takes about 18- 30 working days/business days for delivery for all international order. But sometimes, it may take up to 30 working days. Specified time not including the handling time for 5 business days after payment. \u2022The shipping time varies, depending on receiver's location. It can take up to - 30 working days if your country has strict custom rules (Italy, France, Spain, Brazil, South America & Eastern Europe). \u2022For Holiday Period (eg: Christmas, Chinese New Year and etc), shipping will - take more longer time to reach. Please be patient when awaiting shipment. \u2022Delivery dates are not guaranteed and may include extra transit time because of unforeseen delays such as holidays and extreme weather conditions. Late deliveries are always a possibility. Please be advised.\u2022If you fail to receive item within 30 working days, please contact your local post office and custom first, if still no response, please contact me immediately. \u2022Not responsible for customs duties, taxes, fees or delays.CONTACT US\u2022Please write to us and give us chance to resolve any issues or problems encountered before you leave any neutral or negative feedback. If item(s) arrive in satisfactory condition, please support us by leaving feedback so we know that the item(s) arrive in good condition. You will receive positive feedback in return. DISCLAIMER\u2022The logo/picture is trademark of their respective companies. This product is not licensed, defined, sponsored, endorsed or manufactured by this Company. All import duties/taxes are the buyer's responsibility, we are not responsibility for any import duties/taxes or customs costs. All products price is not include import duties/taxes, you have to consult your local customs for more information about import duties/taxes. FEEDBACK \u2022Positive Feedback is greatly appreciated and I will do the same in return. If you are not satisfied for any reasons, please do not leave Negative or Neutral Feedback, please allow me the opportunity to resolve any issue and I will do my best for it. \u2022Feel free to contact me if you have any question.(Please Use Contact Seller Option)
p11
sS'images'
p12
(lp13
Vhttp://s.ecrater.com/stores/361103/58ad38b8e236a_361103b.jpg
p14
asS'shipping_info'
p15
(lp16
V10 available
p17
aVShipping:US-Mainland: free(more destinations)
p18
aVCondition: Brand new
p19
asS'id'
p20
V26431358
p21
s.