(dp1
S'title'
p2
VMastodon - Eagles Of Death Metal Tour 2017 Black T shirt S M L XL 2XL 3XL Men's tee STS 2
p3
sS'url'
p4
Vhttp://www.ecrater.com/p/26913049/mastodon-eagles-of-death-metal-tour-2017?keywords=mastodon
p5
sS'price'
p6
V$25.99
p7
sS'seller'
p8
Vhttp://setteeshop.ecrater.com
p9
sS'description_links'
p10
VPLEASE MENTION YOUR SIZE(S) AND MODEL(S) ON MESSAGE BOXEXAMPLE:MENS SHIRT, MEDIUM SIZEAVAILABLE FOR MENS & WOMENS SHIRTAVAILABLE ALL SIZE (S,M,L,XL,2XL)Size Chart : Men's Apparel                                      Chest            Length    * Small                       36-38"            25.5"    * Medium                   39-41"            26"    * Large                      42-44"            27"    * X-Large                   45-46"            28"    * 2X-Large                 47-48"            29"    * 3X-Large                 49-50"            30"Size Chart : Women's Apparel                                      Chest            Length    * Small                          34"               23"    * Medium                      35"             23.5"    * Large                         36"              24"    * X-Large                      38"             24.5"    * 2X-Large                    40"              25"Description:\u2022  T-shirt is made of 100% preshrunk cotton, high-quality and   heavyweight. Standard fit. Our t-shirt will be printed using high   performance digital printing technology in full color with durable photo   quality reproduction.\u2022  6.1oz 100% cotton, Standard fit, Heavyweight T-Shirt.  Payment:\u2022  We accept PAYPAL only\u2022  Once payment is received, your order will be processed and shippedShipment:\u2022  Ship to WORLDWIDE\u2022  From the date your payment, it takes about 15-25 business days for   shipment arrival to your address by post office, some areas/country   sometimes will take a little longer.\u2022  Not responsible for customs duties, taxes, fees or delays.Return Policy:\u2022  If you are not fully satisfied with your purchase because you feel the item   is not what was described or for any reason, please contact me   immediately, so that I can try to resolve your concerns.\u2022  We will guarantee 30 days your money back
p11
sS'images'
p12
(lp13
Vhttp://s.ecrater.com/stores/368249/58df3cfd5f928_368249b.jpg
p14
asS'shipping_info'
p15
(lp16
V10 available
p17
aVShipping:US-Mainland: free(more destinations)
p18
aVCondition: Brand new
p19
asS'id'
p20
V26913049
p21
s.