(dp1
S'title'
p2
VMASTODON - EAGLES OF DEATH METAL - RUSSIAN CIRCLE TOUR 2017 BLACK T SHIRT S M L XL 2XL TEE
p3
sS'url'
p4
Vhttp://www.ecrater.com/p/26933046/mastodon-eagles-of-death-metal-russian?keywords=mastodon
p5
sS'price'
p6
V$18.99
p7
sS'seller'
p8
Vhttp://ahdiyatshop.ecrater.com
p9
sS'description_links'
p10
VPLEASE MENTION YOUR SIZE ON PAYPAL MESSAGE BOX FOR ORDERREAD THE SIZE CHART CAREFULLY TO AVOID MISMATCH SIZE.Description:Size Chart :                                       Chest            Length    * Small                     36"                   28"    * Medium                 40"                   29"    * Large                     44"                   30"    * X-Large                 48"                   31"    * 2X-Large               52"                   32"    * 3X-Large               56"                   33"Description:\u2022  T-shirt is made of 100% preshrunk cotton, high-quality and   heavyweight. Standard fit. Our t-shirt will be printed using high   performance digital printing technology in full color with durable photo   quality reproduction.\u2022  6.1oz 100% cotton, Standard fit, Heavyweight T-Shirt.Payment\u2022  We accept paypal only\u2022  Once payment is received, your order will be processed and shippedShipment\u2022  Ship to worldwide\u2022  Item will be shipped from Indonesia Post office in registered mail (RLN) with tracking number\u2022  From the date your payment, it takes about 15-30 business days for   shipment arrival to your address by post office, some areas/country   sometimes will take a little longer.\u2022  We will ship the item within 2 business days once payment is cleared on paypal\u2022  Not responsible for customs duties, taxes, fees or delays.Return Policy\u2022  If you are not fully satisfied with your purchase because you feel the item   is not what was described or for any reason, please contact me   immediately, so that I can try to resolve your concerns.\u2022  We will guarantee 30 days your money back
p11
sS'images'
p12
(lp13
Vhttp://s.ecrater.com/stores/392266/58e12963a2d94_392266b.jpg
p14
asS'shipping_info'
p15
(lp16
V10 available
p17
aVShipping:US-Mainland: $7.50(more destinations)
p18
aVCondition: Brand new
p19
asS'id'
p20
V26933046
p21
s.