(dp1
S'title'
p2
Vsigned mastodon autographed guitar w/pics
p3
sS'url'
p4
S'http://www.ebay.com/itm/SIGNED-MASTODON-AUTOGRAPHED-GUITAR-W-PICS-/330737456695?hash=item4d017d1637:m:m-Pb3mgQjISanemhuVseqHg'
p5
sS'price'
p6
VUS $750.00
p7
sS'seller'
p8
(dp9
g4
Vhttp://www.ebay.com/usr/kitts_kollect?_trksid=p2047675.l2559
p10
sS'name'
p11
V kitts_kollect
p12
ssS'description_links'
p13
(lp14
Vhttp://vi.vipr.ebaydesc.com/ws/eBayISAPI.dll?ViewItemDescV4&item=330737456695&t=1484601967000&tid=10&category=104408&seller=kitts_kollect&excSoj=1&excTrk=1&lsite=0&ittenable=false&domain=ebay.com&descgauge=1
p15
asS'images'
p16
(lp17
(dp18
S'maxImageUrl'
p19
Vhttp://i.ebayimg.com/images/a/(KGrHqNHJCUE-gJtNpEOBPvEdY6bvw~~/s-l1600.jpg
p20
sS'displayImgUrl'
p21
Vhttp://i.ebayimg.com/images/a/(KGrHqNHJCUE-gJtNpEOBPvEdY6bvw~~/s-l300.jpg
p22
sa(dp23
g19
Vhttp://i.ebayimg.com/images/a/(KGrHqJHJFcE-lwk9D7HBPvEd,Bitw~~/s-l1600.jpg
p24
sg21
Vhttp://i.ebayimg.com/images/a/(KGrHqJHJFcE-lwk9D7HBPvEd,Bitw~~/s-l300.jpg
p25
sa(dp26
g19
Vhttp://i.ebayimg.com/images/a/(KGrHqRHJBYE-hOvikZ4BPvEdYyvVg~~/s-l1600.jpg
p27
sg21
Vhttp://i.ebayimg.com/images/a/(KGrHqRHJBYE-hOvikZ4BPvEdYyvVg~~/s-l300.jpg
p28
sasS'shipping_info'
p29
(dp30
S'item_location'
p31
(lp32
V\u000aCleveland, Ohio, United States
p33
asS'delivery'
p34
(lp35
VVaries
p36
asS'posts_to'
p37
(lp38
VWorldwide
p39
assS'id'
p40
S'330737456695'
p41
s.