(dp1
S'title'
p2
V\u000aMIRROR Rick Owens Mastodon Pro calfskin+sheepskin 38-43\u000a
p3
sS'url'
p4
Vhttp://www.ioffer.com/i/mirror-rick-owens-mastodon-pro-calfskin-sheepskin-38-43-627330609
p5
sS'price'
p6
V$140.00
p7
sS'seller'
p8
(lp9
sS'description_links'
p10
V1:1 MIRROR COPYOUTSIDE USE CALFSKIN.INSIDE USE SHEEPSKIN. EUR Size:38 39 40 41 42 43  Colour: 1, white/black2, white3, black
p11
sS'images'
p12
(lp13
Vhttp://cdn.iofferphoto.com/img/item/627/330/609/t_mirror-rick-owens-mastodon-pro-calfskin-sheepskin-38-43-5f48.jpg
p14
aVhttp://cdn.iofferphoto.com/img/item/627/330/609/t_mirror-rick-owens-mastodon-pro-calfskin-sheepskin-38-43-cf00.jpg
p15
aVhttp://cdn.iofferphoto.com/img/item/627/330/609/t_mirror-rick-owens-mastodon-pro-calfskin-sheepskin-38-43-f4a8.jpg
p16
asS'shipping_info'
p17
VAvailable ColorsAvailable SizesSizesMediumEstimated Shipping15 - 20 Days
p18
sS'id'
p19
V627330609_1497056582
p20
s.