(dp1
S'title'
p2
VBASS GUITAR March 2006 Magazine SLIPKNOTS PAUL GRAY Mike Dirnt Mastodon Aerosmith
p3
sS'url'
p4
Vhttp://www.ecrater.com/p/6360228/bass-guitar-march-2006-magazine-slipknots?keywords=mastodon
p5
sS'price'
p6
V$9.95
p7
sS'seller'
p8
Vhttp://sophiesophieshops.ecrater.com
p9
sS'description_links'
p10
VHere is BASS GUITAR Magazine March 2006 published by GUITAR WORLD.Issue is used, fair - good condition, light edge/handling wear and rubbing, no address label, small damaged area on back cover,  clean, complete, unmarked, 98 pp.   M129FEATURES:SLIPKNOTS PAUL GRAY In the studio with Mike Dirnt Mastodon AerosmithTranscriptions:System of a Down 'Sugar'AEROSMITH 'Walk This Way'Wilson Pickett 'In the Midnight Hour'more....Shipping by Media Mail; 7-16 day delivery time. Please contact before ordering if you desire to upgrade to Priority Mail for $6. AK, HI, and Canada shipping is by Priority Mail.
p11
sS'images'
p12
(lp13
sS'shipping_info'
p14
(lp15
VOnly 1 available
p16
aVShipping:US-Mainland: $4.00(more destinations)
p17
aVCondition: Used
p18
asS'id'
p19
V6360228
p20
s.