(dp1
S'title'
p2
V\u000aRICK OWENS MASTODON PRO HIGH TOP LEATHER SNEAKERS SHOES\u000a
p3
sS'url'
p4
Vhttp://www.ioffer.com/i/rick-owens-mastodon-pro-high-top-leather-sneakers-shoes-636665446
p5
sS'price'
p6
V$78.50
p7
sS'seller'
p8
(lp9
sS'description_links'
p10
VWelcome to my shop Matters needing attention Note:Uk size and US size only help you choose. We will send you right size in Europe size. Please tell me the EUR size. Payment : 1.Credit Card\uff08VISA MASTER JCB\uff09 2.Western union . 3.Paypal  All pictures are our own pictures, what you see that what you will get!  shipping:  Send by air mail, usually need 20 to 30 days to reach!  If you want use EMS or DHL, please tell me.  Return Policy If you want to exchange the items received, you must contact us within 7 days of the receipt of your order. And you should pay the additional shipping fees incurred and the items returned should be kept in their original status.  Feedback Since your feedback is very important to our store development, we sincerely invite you to leave positive feedback for us if you are satisfied with our product and service. It will just take you 1 minute. Thank you!
p11
sS'images'
p12
(lp13
Vhttp://cdn.iofferphoto.com/img3/item/636/665/446/t_rick-owens-mastodon-pro-high-top-leather-sneakers-shoes-8e7a.jpg
p14
aVhttp://cdn.iofferphoto.com/img3/item/636/665/446/t_rick-owens-mastodon-pro-high-top-leather-sneakers-shoes-5ece.jpg
p15
aVhttp://cdn.iofferphoto.com/img3/item/636/665/446/t_rick-owens-mastodon-pro-high-top-leather-sneakers-shoes-3f33.jpg
p16
aVhttp://cdn.iofferphoto.com/img3/item/636/665/446/t_rick-owens-mastodon-pro-high-top-leather-sneakers-shoes-143c.jpg
p17
aVhttp://cdn.iofferphoto.com/img3/item/636/665/446/t_rick-owens-mastodon-pro-high-top-leather-sneakers-shoes-e303.jpg
p18
asS'shipping_info'
p19
VAvailable ColorsAvailable SizesMen's Shoe SizesUSA6789101112UK5.56.57.58.59.510.511.5European39404142434445Japan24252627282930Estimated Shipping3 - 5 Days
p20
sS'id'
p21
V636665446_1497056607
p22
s.