(dp1
S'title'
p2
VPrehistoric Animals Mastodon, Saber-tooth Cat, Eohippus, Horse Ancestor, Woolly Mammoth First Issue
p3
sS'url'
p4
Vhttp://www.ecrater.com/p/973077/prehistoric-animals-mastodon-saber-tooth?keywords=mastodon
p5
sS'price'
p6
V$3.95
p7
sS'seller'
p8
Vhttp://stampartusa.ecrater.com
p9
sS'description_links'
p10
VUnited States  Postage Stamps Prehistoric Animals, Mastodon, Saber-tooth Cat, Eohippus, Horse Ancestor,Woolly Mammoth,Issued June 8, 1996 at USPS Service CAPEX Station, Toronto, Canada, First Day of Issue Cover, FDC, House of Farnam Engraving Cachet, Unaddressed, Ideal for Display or Framing,Cover in Removable Transparent Poly Sleeve and Mailed With Protection,Made in the USAGenuine First Day of  Stamp Issued Cover Cancelled on the First Day of Issue Date by the U.S. Postal Service,
p11
sS'images'
p12
(lp13
sS'shipping_info'
p14
(lp15
VOnly 1 available
p16
aVShipping:US-Mainland: $1.00(more destinations)
p17
aVCondition: Brand new
p18
asS'id'
p19
V973077
p20
s.