(dp1
S'title'
p2
VWalker, John. A Certain Curve Of Horn: The Hundred-Year Quest for the Giant Sable Antelope of Angola
p3
sS'url'
p4
Vhttp://www.ecrater.com/p/16198930/walker-john-a-certain-curve-of-horn?keywords=sable+antelope
p5
sS'price'
p6
V$14.95
p7
sS'seller'
p8
Vhttp://hartmannbooks.ecrater.com
p9
sS'description_links'
p10
V(026036) Walker, John Frederick. A Certain Curve Of Horn: The Hundred-Year Quest for the Giant Sable Antelope of Angola. New York: Atlantic Monthly Press, 2002. 1st Edition. Hardcover. 8vo. 477 pages. Fine in Fine DJ. B&W; Photographs ISBN: 0871138581 (Sable Antelope, Angola, Antelope Hunting)
p11
sS'images'
p12
(lp13
sS'shipping_info'
p14
(lp15
VOnly 1 available
p16
aVShipping:US-Mainland: $4.50(more destinations)
p17
aVSales Tax: North Carolina: 6.75%
p18
aVCondition: Used
p19
asS'id'
p20
V16198930
p21
s.