(dp1
S'title'
p2
V\u000aNEW NORDIC SNOW ANTELOPE CLASSIC BAG LEATHER WOMEN\u000a
p3
sS'url'
p4
Vhttp://www.ioffer.com/i/new-nordic-snow-antelope-classic-bag-leather-women-627037275
p5
sS'price'
p6
V$388.00
p7
sS'seller'
p8
(lp9
sS'description_links'
p10
VSize:25CMWelcome to my storeYou see is what you are going to get100% identical products and imagesIt comes:serial number, dust bag, card, booklet, All markings and accessories are exact. it is mirror image 1:1 quality 7 star Top quality AAA++++============paymentPaypal paymentAccept credit cardWestern union payment= = = = = = = = =This project from China The United States, Britain, Australia, Canada, France, Russia,We will through the EMS shipping your projectTime of arrival in 7-12 days============================ Other countriesWe through the China air parcel shipping your projectThe Time of arrivals from the in 10 to 25 days============================================== We support the fast shipping your projectThrough DHL, fedex,But the transportation cost need paid by youIf you need please contact us============================ Every order we all dojo.provide a valid tracking number====================================================== International shipping requires more complicated procedures (such as both countries customs, transit stations etc.)Your project may need more timeThank you for your understand=========================== Here you can view the logistics informationhttp://www.17track.net/zh-cn/= = = = = = = = = = = = = =  Refund policyIf you receive a satisfied with our products, please give us a good platform, it is important to me, thank you very muchIf you are not satisfied with our products, we support a refund,Please within three days after receipt of the product, please contact us= = = = = = = = = = = = = = = = = = = = = = = = = wholesaleWe support, if you buy a lot of big orderPlease contact usWe will give you the biggest discount
p11
sS'images'
p12
(lp13
Vhttp://cdn.iofferphoto.com/img3/item/627/037/275/t_new-nordic-snow-antelope-classic-bag-leather-women-f2f0.jpg
p14
aVhttp://cdn.iofferphoto.com/img3/tmp/item_images/467/402/17/t_6c32.jpg
p15
asS'shipping_info'
p16
VAvailable ColorsAvailable SizesSizesMediumEstimated Shipping1 - 3 Days
p17
sS'id'
p18
V627037275_1497068437
p19
s.