(dp1
S'title'
p2
VBLACK-DYED SABLE/PINE MARTEN PELT - ALASKAN
p3
sS'url'
p4
Vhttp://www.glacierwear.com/black-dyed-sable-pine-marten-pelt-alaskan.html
p5
sS'price'
p6
V129.95
p7
sS'seller'
p8
(lp9
sS'description_links'
p10
V- Alaskan Sable/Pine Marten Pelts- Select Quality: Heavy Fur - Pelts Do Not Have Tails- Dyed Black in Color - Fresh Commercial Garment Tanned- Soft & Stretchy Leather
p11
sS'images'
p12
(lp13
Vhttp://www.glacierwear.com/media/catalog/product/cache/1/thumbnail/500x/17f82f742ffe127f42dca9de82fb58b1/i/m/image002_79_21.png
p14
asS'shipping_info'
p15
VFree Shipping on $100.00+
p16
sS'id'
p17
Valaskan_1497068359
p18
s.