(dp1
S'title'
p2
VAntelope - Pronghorn
p3
sS'url'
p4
Vhttp://store.yahoo.com/yhst-66562580642243/antelope-reference-photo-disc.html
p5
sS'price'
p6
(lp7
sS'seller'
p8
(lp9
sS'description_links'
p10
VPronghorn Antelope Photo Reference Cd
p11
sS'images'
p12
(lp13
Vhttp://ep.yimg.com/ca/I/yhst-66562580642243_2251_837888
p14
asS'shipping_info'
p15
(lp16
sS'id'
p17
Vantelope-reference-photo-disc_1497068385
p18
s.