(dp1
S'title'
p2
VSABLE FUR PILL BOX HAT
p3
sS'url'
p4
Vhttp://www.glacierwear.com/sable-fur-pill-box-hat.html
p5
sS'price'
p6
V529.99
p7
sS'seller'
p8
(lp9
sS'description_links'
p10
Vhts1551\u2022 A Classic and Fashionable Choice\u2022 Made Famous by the Likes of Jacqueline Kennedy and Kate Middleton\u2022 An All Fur Hat\u2022 Crafted from Select Sable Fur\u2022 Bridal Satin Lining for Added Warmth and Comfort
p11
sS'images'
p12
(lp13
Vhttp://www.glacierwear.com/media/catalog/product/cache/1/thumbnail/500x/17f82f742ffe127f42dca9de82fb58b1/i/m/img_0559.jpg
p14
asS'shipping_info'
p15
VFree Shipping on $100.00+
p16
sS'id'
p17
Vhat_1497068344
p18
s.