(dp1
S'title'
p2
VSABLE PAW KEYCHAIN
p3
sS'url'
p4
Vhttp://www.glacierwear.com/sable-paw-keychain.html
p5
sS'price'
p6
V5.95
p7
sS'seller'
p8
(lp9
sS'description_links'
p10
Vsbl-1600-kcGenuine Sable Paw Keychain. Approx. 5" long.
p11
sS'images'
p12
(lp13
Vhttp://www.glacierwear.com/media/catalog/product/cache/1/thumbnail/500x/17f82f742ffe127f42dca9de82fb58b1/i/m/img_0606.jpg
p14
asS'shipping_info'
p15
VFree Shipping on $100.00+
p16
sS'id'
p17
Vkeychain_1497068381
p18
s.