(dp1
S'title'
p2
Vles c. kouba&#039;s national waterfowl conservation stamp print signed collector&#039;s ed
p3
sS'url'
p4
S'http://www.ebay.com/itm/Les-C-Koubas-National-Waterfowl-Conservation-Stamp-Print-Signed-Collectors-Ed-/111613003710?hash=item19fca747be:g:oNYAAOSwEeFU9ns~'
p5
sS'price'
p6
VUS $599.99
p7
sS'seller'
p8
(dp9
g4
Vhttp://www.ebay.com/usr/zasknk?_trksid=p2047675.l2559
p10
sS'name'
p11
V zasknk
p12
ssS'description_links'
p13
(lp14
Vhttp://vi.vipr.ebaydesc.com/ws/eBayISAPI.dll?ViewItemDescV4&item=111613003710&t=1472331799000&tid=10&category=360&seller=zasknk&excSoj=1&excTrk=1&lsite=0&ittenable=false&domain=ebay.com&descgauge=1
p15
asS'images'
p16
(lp17
(dp18
S'maxImageUrl'
p19
Vhttp://i.ebayimg.com/images/g/oNYAAOSwEeFU9ns~/s-l1600.jpg
p20
sS'displayImgUrl'
p21
Vhttp://i.ebayimg.com/images/g/oNYAAOSwEeFU9ns~/s-l300.jpg
p22
sa(dp23
g19
Vhttp://i.ebayimg.com/images/g/QcMAAOSwPYZU9ntE/s-l1600.jpg
p24
sg21
Vhttp://i.ebayimg.com/images/g/QcMAAOSwPYZU9ntE/s-l300.jpg
p25
sa(dp26
g19
Vhttp://i.ebayimg.com/images/g/9U8AAOSwBLlU9ntK/s-l1600.jpg
p27
sg21
Vhttp://i.ebayimg.com/images/g/9U8AAOSwBLlU9ntK/s-l300.jpg
p28
sa(dp29
g19
Vhttp://i.ebayimg.com/images/g/fXQAAOSwpDdU9ntN/s-l1600.jpg
p30
sg21
Vhttp://i.ebayimg.com/images/g/fXQAAOSwpDdU9ntN/s-l300.jpg
p31
sa(dp32
g19
Vhttp://i.ebayimg.com/images/g/VuUAAOSweW5U9ntS/s-l1600.jpg
p33
sg21
Vhttp://i.ebayimg.com/images/g/VuUAAOSweW5U9ntS/s-l300.jpg
p34
sa(dp35
g19
Vhttp://i.ebayimg.com/images/g/vI0AAOSwrklU9ntX/s-l1600.jpg
p36
sg21
Vhttp://i.ebayimg.com/images/g/vI0AAOSwrklU9ntX/s-l300.jpg
p37
sa(dp38
g19
Vhttp://i.ebayimg.com/images/g/XOwAAOSwPhdU9nte/s-l1600.jpg
p39
sg21
Vhttp://i.ebayimg.com/images/g/XOwAAOSwPhdU9nte/s-l300.jpg
p40
sa(dp41
g19
Vhttp://i.ebayimg.com/images/g/gN4AAOSwZjJU9ntl/s-l1600.jpg
p42
sg21
Vhttp://i.ebayimg.com/images/g/gN4AAOSwZjJU9ntl/s-l300.jpg
p43
sa(dp44
g19
Vhttp://i.ebayimg.com/images/g/fQQAAOSwv0tU9ntq/s-l1600.jpg
p45
sg21
Vhttp://i.ebayimg.com/images/g/fQQAAOSwv0tU9ntq/s-l300.jpg
p46
sa(dp47
g19
Vhttp://i.ebayimg.com/images/g/XhcAAOSwPhdU9ntv/s-l1600.jpg
p48
sg21
Vhttp://i.ebayimg.com/images/g/XhcAAOSwPhdU9ntv/s-l300.jpg
p49
sa(dp50
g19
Vhttp://i.ebayimg.com/images/g/SbkAAOSwBahU9nt0/s-l1600.jpg
p51
sg21
Vhttp://i.ebayimg.com/images/g/SbkAAOSwBahU9nt0/s-l300.jpg
p52
sa(dp53
g19
Vhttp://i.ebayimg.com/images/g/I~8AAOSwe-FU9nt5/s-l1600.jpg
p54
sg21
Vhttp://i.ebayimg.com/images/g/I~8AAOSwe-FU9nt5/s-l300.jpg
p55
sasS'shipping_info'
p56
(dp57
S'item_location'
p58
(lp59
V\u000aCedar Park, Texas, United States
p60
asS'delivery'
p61
(lp62
VVaries
p63
asS'posts_to'
p64
(lp65
VWorldwide
p66
assS'id'
p67
S'111613003710'
p68
s.