(dp1
S'title'
p2
VMathewson, Worth. Waterfowling: Best Days
p3
sS'url'
p4
Vhttp://www.ecrater.com/p/14141414/mathewson-worth-waterfowling-best-days?keywords=waterfowl
p5
sS'price'
p6
V$39.95
p7
sS'seller'
p8
Vhttp://hartmannbooks.ecrater.com
p9
sS'description_links'
p10
V(031234) Mathewson, Worth. Waterfowling: Best Days. Amity, OR: Sand Lake Press, 2010. 1st Edition?. Hardcover. 8vo. 436 pages. Very Good+ in Fine DJ. B&W; Photographs. Inscribed by the author on half-title with a real duck feather attached to the page by a small, round gold sticker. Ink owner name, date and comment on front endpaper. He comments that it was from the author, Christmas, 2010, and shows the date when he finished reading the book. The author wrote articles for Wildfowl magazine and has traveled all over the world to hunt waterfowl ISBN: 0971187207 (Hunting, Waterfowl)
p11
sS'images'
p12
(lp13
sS'shipping_info'
p14
(lp15
VOnly 1 available
p16
aVShipping:US-Mainland: $4.50(more destinations)
p17
aVSales Tax: North Carolina: 6.75%
p18
aVCondition: Used
p19
asS'id'
p20
V14141414
p21
s.