(dp1
S'title'
p2
VAnnie's Attic Crochet Waterfowl Sea Gull Pattern 87W13
p3
sS'url'
p4
Vhttp://www.ecrater.com/p/15793337/annies-attic-crochet-waterfowl-sea?keywords=waterfowl
p5
sS'price'
p6
V$8.00
p7
sS'seller'
p8
Vhttp://craftsnstuff.ecrater.com
p9
sS'description_links'
p10
VAnnie's Pattern Club Crochet Waterfowl Sea Gull. 87W13, 5 page foldout leaflet. Copyright 1983 Annie's Pattern Club. The leaflet is used in very good condition.This leaflet has one pattern - Sea Gull.7" tall.
p11
sS'images'
p12
(lp13
Vhttp://s.ecrater.com/stores/89253/50303b1c0ff29_89253b.jpg
p14
asS'shipping_info'
p15
(lp16
VOnly 1 available
p17
aVShipping:US-Mainland: $2.75(more destinations)
p18
aVCondition: Used
p19
asS'id'
p20
V15793337
p21
s.