(dp1
S'title'
p2
VWaterfowl Festival, Inc. Waterfowl Festival: Easton, Maryland, November 9,10,11 1984
p3
sS'url'
p4
Vhttp://www.ecrater.com/p/22645335/waterfowl-festival-inc-easton-maryland?keywords=waterfowl
p5
sS'price'
p6
V$9.95
p7
sS'seller'
p8
Vhttp://hartmannbooks.ecrater.com
p9
sS'description_links'
p10
V(034313) Waterfowl Festival, Inc. Waterfowl Festival: Easton, Maryland, November 9,10,11 1984. Easton, MD: Waterfowl Festival, 1984. 1st Edition. Paperback. Oblong 12mo. 152 pages. Fine with no DJ. B&W; and Color Photographs. Heavily illustrated book showing profiles of various waterfowl artists and their art as well as other activities during the yearly Waterfowl Festival  (Waterfowl In Art, Birds In Art)
p11
sS'images'
p12
(lp13
sS'shipping_info'
p14
(lp15
VOnly 1 available
p16
aVShipping:US-Mainland: $4.00(more destinations)
p17
aVSales Tax: North Carolina: 6.75%
p18
aVCondition: Used
p19
asS'id'
p20
V22645335
p21
s.