(dp1
S'title'
p2
VReece, Maynard. The Waterfowl Art Of Maynard Reece
p3
sS'url'
p4
Vhttp://www.ecrater.com/p/23878809/reece-maynard-the-waterfowl-art-of?keywords=waterfowl
p5
sS'price'
p6
V$24.95
p7
sS'seller'
p8
Vhttp://hartmannbooks.ecrater.com
p9
sS'description_links'
p10
V(034640) Reece, Maynard. The Waterfowl Art Of Maynard Reece. New York: Harry N. Abrams, 1985. 1st Edition. Hardcover. Square 4to. 179 pages. Fine in Near Fine DJ. Color Illustrations. DJ has a 1/2 inch closed tear at top of spine. Introduction by Roger Tory Peterson ISBN: 0810917971  (Reece, Maynard, Waterfowl In Art)
p11
sS'images'
p12
(lp13
sS'shipping_info'
p14
(lp15
VOnly 1 available
p16
aVShipping:US-Mainland: $5.50(more destinations)
p17
aVSales Tax: North Carolina: 6.75%
p18
aVCondition: Used
p19
asS'id'
p20
V23878809
p21
s.