(dp1
S'title'
p2
Vducks unlimited 50th anniversary waterfowl of north america 44 signed print book
p3
sS'url'
p4
S'http://www.ebay.com/itm/Ducks-Unlimited-50th-Anniversary-Waterfowl-of-North-America-44-Signed-print-book-/252982762110?hash=item3ae6f29a7e:g:WYYAAOSwPWRZOlxk'
p5
sS'price'
p6
VUS $600.00
p7
sS'seller'
p8
(dp9
g4
Vhttp://www.ebay.com/usr/bund57carl?_trksid=p2047675.l2559
p10
sS'name'
p11
V bund57carl
p12
ssS'description_links'
p13
(lp14
Vhttp://vi.vipr.ebaydesc.com/ws/eBayISAPI.dll?ViewItemDescV4&item=252982762110&t=0&tid=10&category=360&seller=bund57carl&excSoj=1&excTrk=1&lsite=0&ittenable=false&domain=ebay.com&descgauge=1
p15
asS'images'
p16
(lp17
(dp18
S'maxImageUrl'
p19
Vhttp://i.ebayimg.com/images/g/WYYAAOSwPWRZOlxk/s-l1600.jpg
p20
sS'displayImgUrl'
p21
Vhttp://i.ebayimg.com/images/g/WYYAAOSwPWRZOlxk/s-l300.jpg
p22
sa(dp23
g19
Vhttp://i.ebayimg.com/images/g/gswAAOSwyltZOlx9/s-l1600.jpg
p24
sg21
Vhttp://i.ebayimg.com/images/g/gswAAOSwyltZOlx9/s-l300.jpg
p25
sa(dp26
g19
Vhttp://i.ebayimg.com/images/g/k0gAAOSwnK9ZOlye/s-l1600.jpg
p27
sg21
Vhttp://i.ebayimg.com/images/g/k0gAAOSwnK9ZOlye/s-l300.jpg
p28
sa(dp29
g19
Vhttp://i.ebayimg.com/images/g/iIUAAOSwN2VZOly~/s-l1600.jpg
p30
sg21
Vhttp://i.ebayimg.com/images/g/iIUAAOSwN2VZOly~/s-l300.jpg
p31
sa(dp32
g19
Vhttp://i.ebayimg.com/images/g/8yAAAOSw1BlZOmYt/s-l1600.jpg
p33
sg21
Vhttp://i.ebayimg.com/images/g/8yAAAOSw1BlZOmYt/s-l300.jpg
p34
sa(dp35
g19
Vhttp://i.ebayimg.com/images/g/6R0AAOSwPWRZOmZG/s-l1600.jpg
p36
sg21
Vhttp://i.ebayimg.com/images/g/6R0AAOSwPWRZOmZG/s-l300.jpg
p37
sa(dp38
g19
Vhttp://i.ebayimg.com/images/g/zQ4AAOSw-89ZOmky/s-l1600.jpg
p39
sg21
Vhttp://i.ebayimg.com/images/g/zQ4AAOSw-89ZOmky/s-l300.jpg
p40
sa(dp41
g19
Vhttp://i.ebayimg.com/images/g/my0AAOSwwvZZOmlB/s-l1600.jpg
p42
sg21
Vhttp://i.ebayimg.com/images/g/my0AAOSwwvZZOmlB/s-l300.jpg
p43
sa(dp44
g19
Vhttp://i.ebayimg.com/images/g/GjkAAOSwPWRZOmlM/s-l1600.jpg
p45
sg21
Vhttp://i.ebayimg.com/images/g/GjkAAOSwPWRZOmlM/s-l300.jpg
p46
sa(dp47
g19
Vhttp://i.ebayimg.com/images/g/3t4AAOSw-29ZOmlu/s-l1600.jpg
p48
sg21
Vhttp://i.ebayimg.com/images/g/3t4AAOSw-29ZOmlu/s-l300.jpg
p49
sasS'shipping_info'
p50
(dp51
S'item_location'
p52
(lp53
V\u000aEvanston, Illinois, United States
p54
asS'delivery'
p55
(lp56
VVaries
p57
asS'posts_to'
p58
(lp59
VUnited States
p60
assS'id'
p61
S'252982762110'
p62
s.