(dp1
S'title'
p2
V\u000aPottery Teal Drake Hen Duck Ducklings Bird Waterfowl Cu\u000a
p3
sS'url'
p4
Vhttp://www.ioffer.com/i/pottery-teal-drake-hen-duck-ducklings-bird-waterfowl-cu-602253790
p5
sS'price'
p6
V$22.47
p7
sS'seller'
p8
(lp9
sS'description_links'
p10
V
sS'images'
p11
(lp12
Vhttp://cdn.iofferphoto.com/img3/item/602/253/790/t_BJ4zpottery-teal-drake-hen-duck-ducklings-bird-waterfowl-cu.jpg
p13
aVhttp://cdn.iofferphoto.com/img3/item/602/253/790/t_h8fJpottery-teal-drake-hen-duck-ducklings-bird-waterfowl-cu.jpg
p14
aVhttp://cdn.iofferphoto.com/img3/item/602/253/790/t_c8Xbpottery-teal-drake-hen-duck-ducklings-bird-waterfowl-cu.jpg
p15
aVhttp://cdn.iofferphoto.com/img3/item/602/253/790/t_EeMupottery-teal-drake-hen-duck-ducklings-bird-waterfowl-cu.jpg
p16
aVhttp://cdn.iofferphoto.com/img3/item/602/253/790/t_Sb9fpottery-teal-drake-hen-duck-ducklings-bird-waterfowl-cu.jpg
p17
asS'shipping_info'
p18
(lp19
sS'id'
p20
V602253790_1497076643
p21
s.