(dp1
S'title'
p2
V\u000aHandpainted Waterfowl Mallard Hen Duck Duckling on Pond\u000a
p3
sS'url'
p4
Vhttp://www.ioffer.com/i/handpainted-waterfowl-mallard-hen-duck-duckling-on-pond-603840554
p5
sS'price'
p6
V$25.97
p7
sS'seller'
p8
(lp9
sS'description_links'
p10
V
sS'images'
p11
(lp12
Vhttp://cdn.iofferphoto.com/img3/item/603/840/554/t_iBk9handpainted-waterfowl-mallard-hen-duck-duckling-on-pond.jpg
p13
aVhttp://cdn.iofferphoto.com/img3/item/603/840/554/t_y261handpainted-waterfowl-mallard-hen-duck-duckling-on-pond.jpg
p14
aVhttp://cdn.iofferphoto.com/img3/item/603/840/554/t_jz1Uhandpainted-waterfowl-mallard-hen-duck-duckling-on-pond.jpg
p15
asS'shipping_info'
p16
(lp17
sS'id'
p18
V603840554_1497076635
p19
s.