(dp1
S'title'
p2
V\u000aWaterfowl Duck Bird Plastic Desk Office Letter Opener V\u000a
p3
sS'url'
p4
Vhttp://www.ioffer.com/i/waterfowl-duck-bird-plastic-desk-office-letter-opener-v-603841080
p5
sS'price'
p6
V$24.51
p7
sS'seller'
p8
(lp9
sS'description_links'
p10
V
sS'images'
p11
(lp12
Vhttp://cdn.iofferphoto.com/img3/item/603/841/080/t_2QlNwaterfowl-duck-bird-plastic-desk-office-letter-opener-v.jpg
p13
aVhttp://cdn.iofferphoto.com/img3/item/603/841/080/t_kCREwaterfowl-duck-bird-plastic-desk-office-letter-opener-v.jpg
p14
aVhttp://cdn.iofferphoto.com/img3/item/603/841/080/t_xlfCwaterfowl-duck-bird-plastic-desk-office-letter-opener-v.jpg
p15
aVhttp://cdn.iofferphoto.com/img3/item/603/841/080/t_j2b3waterfowl-duck-bird-plastic-desk-office-letter-opener-v.jpg
p16
aVhttp://cdn.iofferphoto.com/img3/item/603/841/080/t_cUoPwaterfowl-duck-bird-plastic-desk-office-letter-opener-v.jpg
p17
asS'shipping_info'
p18
(lp19
sS'id'
p20
V603841080_1497076657
p21
s.