(dp1
S'title'
p2
V\u000aWondermugs Waterfowl GOOSE Geese Moose Hunter Gone Hunt\u000a
p3
sS'url'
p4
Vhttp://www.ioffer.com/i/wondermugs-waterfowl-goose-geese-moose-hunter-gone-hunt-613241684
p5
sS'price'
p6
V$24.97
p7
sS'seller'
p8
(lp9
sS'description_links'
p10
V
sS'images'
p11
(lp12
Vhttp://cdn.iofferphoto.com/img3/item/613/241/684/t_IqSKwondermugs-waterfowl-goose-geese-moose-hunter-gone-hunt.jpg
p13
aVhttp://cdn.iofferphoto.com/img3/item/613/241/684/t_yNtNwondermugs-waterfowl-goose-geese-moose-hunter-gone-hunt.jpg
p14
aVhttp://cdn.iofferphoto.com/img3/item/613/241/684/t_TroBwondermugs-waterfowl-goose-geese-moose-hunter-gone-hunt.jpg
p15
aVhttp://cdn.iofferphoto.com/img3/item/613/241/684/t_J1G7wondermugs-waterfowl-goose-geese-moose-hunter-gone-hunt.jpg
p16
aVhttp://cdn.iofferphoto.com/img3/item/613/241/684/t_Mt0Swondermugs-waterfowl-goose-geese-moose-hunter-gone-hunt.jpg
p17
asS'shipping_info'
p18
(lp19
sS'id'
p20
V613241684_1497076639
p21
s.