(dp1
S'title'
p2
V\u000aHunting Ashtray Mallard Drake Hen Duck Waterfowl Large \u000a
p3
sS'url'
p4
Vhttp://www.ioffer.com/i/hunting-ashtray-mallard-drake-hen-duck-waterfowl-large-613249460
p5
sS'price'
p6
V$49.97
p7
sS'seller'
p8
(lp9
sS'description_links'
p10
V
sS'images'
p11
(lp12
Vhttp://cdn.iofferphoto.com/img3/item/613/249/460/t_hKh0hunting-ashtray-mallard-drake-hen-duck-waterfowl-large.jpg
p13
aVhttp://cdn.iofferphoto.com/img3/item/613/249/460/t_PwQMhunting-ashtray-mallard-drake-hen-duck-waterfowl-large.jpg
p14
aVhttp://cdn.iofferphoto.com/img3/item/613/249/460/t_Ojuehunting-ashtray-mallard-drake-hen-duck-waterfowl-large.jpg
p15
aVhttp://cdn.iofferphoto.com/img3/item/613/249/460/t_vhcKhunting-ashtray-mallard-drake-hen-duck-waterfowl-large.jpg
p16
aVhttp://cdn.iofferphoto.com/img3/item/613/249/460/t_yLRXhunting-ashtray-mallard-drake-hen-duck-waterfowl-large.jpg
p17
aVhttp://cdn.iofferphoto.com/img3/item/613/249/460/t_VOayhunting-ashtray-mallard-drake-hen-duck-waterfowl-large.jpg
p18
asS'shipping_info'
p19
(lp20
sS'id'
p21
V613249460_1497076617
p22
s.