(dp1
S'title'
p2
VMandarin Duck Skeleton
p3
sS'url'
p4
Vhttp://www.skullsunlimited.com/record_variant.php?id=10125
p5
sS'price'
p6
V$299.00
p7
sS'seller'
p8
(lp9
sS'description_links'
p10
VThe mandarin duck, or just mandarin, is a perching duck species found in East Asia. The adult male is a striking and unmistakable bird. It has a red bill, large white crescent above the eye and reddish face and "whiskers". The breast is purple with two vertical white bars, and the flanks ruddy, with two orange "sails" at the back.This skeleton exhibits no damage.
p11
sS'images'
p12
(lp13
Vhttp://www.skullsunlimited.com/userfiles/image/variants_10125.jpg
p14
asS'shipping_info'
p15
(lp16
sS'id'
p17
V10125_1497031573
p18
s.