(dp1
S'title'
p2
VMasked Shrew Study Skin
p3
sS'url'
p4
Vhttp://www.skullsunlimited.com/record_variant.php?id=10555
p5
sS'price'
p6
V$125.00                                                     This item can ship for only $5.95* (*Within the contiguous United States only.)
p7
sS'seller'
p8
(lp9
sS'description_links'
p10
VThe cinereus shrew or masked shrew (Sorex cinereus) is a small shrew found in Alaska, Canada, and within the northern United States. This is the most widely distributed shrew in North America, where it is also known as the common shrew. It is grey-brown in color with a light grey underside and a pointed snout. It has a long tail which is brown on top and pale underneath with a dark tip. Its body is about 9 cm in length including a 4 cm long tail. It has darker coloring than other shrews. Masked shrews can live up to two years, but averagely only survive eighteen months.This specimen is from an old veterinary anatomist's private collection. These specimens are being sold as-is with no further cleaning. To view the rest of the collection, click here.This skin shows no damage, please see photos for details. Call with any questions.
p11
sS'images'
p12
(lp13
Vhttp://www.skullsunlimited.com/userfiles/image/variants_10555.jpg
p14
asS'shipping_info'
p15
(lp16
sS'id'
p17
V10555_1497029683
p18
s.