(dp1
S'title'
p2
VWhite-footed Mouse- Partial Skeleton
p3
sS'url'
p4
Vhttp://www.skullsunlimited.com/record_variant.php?id=10691
p5
sS'price'
p6
V$125.00                                                     This item can ship for only $5.95* (*Within the contiguous United States only.)
p7
sS'seller'
p8
(lp9
sS'description_links'
p10
VWhite-footed mice are omnivorous, and eat seeds and insects. It is timid and generally avoids humans, but they occasionally take up residence in ground-floor walls of homes and apartments where they build nests and store food.This specimen is from an old veterinary anatomist's private collection. These specimens are being sold as-is with no further cleaning. To view the rest of the collection, click here.This skin shows no damage and does include a partial skeleton. Please see photos for details and feel free to call with any questions.
p11
sS'images'
p12
(lp13
Vhttp://www.skullsunlimited.com/userfiles/image/variants_10691.jpg
p14
asS'shipping_info'
p15
(lp16
sS'id'
p17
V10691_1497031395
p18
s.