(dp1
S'title'
p2
VPeccary Skeleton
p3
sS'url'
p4
Vhttp://www.skullsunlimited.com/record_variant.php?id=10800
p5
sS'price'
p6
V$799.00
p7
sS'seller'
p8
(lp9
sS'description_links'
p10
VAlthough the Peccary, also known as the Javelina may appear somewhat pig-like externally, they actually belong to their own family the Tayassuidae. The name javelina is Spanish and comes from their long, sharp, javelin-like canines. Peccaries use these sharp tusks to fight off many predators. This peccary skeleton is a great example of the species. This dis-articulated skeleton would make a Product Type: Disarticulated Skeleton and SkullNotes: Missing -Right and left foot- 1 proximal, medial, and distalMissing -Right hand- 2 proximal, medial, and distal; 1 metacarpalMissing -Left hand- 2 proximal, medial, and distalPlease see photos for details and call with any questions.
p11
sS'images'
p12
(lp13
Vhttp://www.skullsunlimited.com/userfiles/image/variants_10800.jpg
p14
asS'shipping_info'
p15
(lp16
sS'id'
p17
V10800_1497031552
p18
s.