(dp1
S'title'
p2
VAmerican Opossum Skeleton
p3
sS'url'
p4
Vhttp://www.skullsunlimited.com/record_variant.php?id=10919
p5
sS'price'
p6
V
sS'seller'
p7
(lp8
sS'description_links'
p9
VThe American Opossum ranges in North America, from Central America and Mexico in the south, through the United States east of the Rocky Mountains and north into southwestern Ontario. They have a long head with a pointed snout and long whiskers. All opossums have long, prehensile tails with a scaly appearance. Opossums are omnivores with a wide diet including fruits, grains, insects and carrion.Product Type: Complete skeleton and skullNotes: Damaged left hand distal (natural)Nice quality large malePlease see photos for details and call with any questions.
p10
sS'images'
p11
(lp12
Vhttp://www.skullsunlimited.com/userfiles/image/variants_10919.jpg
p13
asS'shipping_info'
p14
(lp15
sS'id'
p16
V10919_1497030418
p17
s.