(dp1
S'title'
p2
VLeopard Tortoise Shell and Skeleton
p3
sS'url'
p4
Vhttp://www.skullsunlimited.com/record_variant.php?id=10929
p5
sS'price'
p6
V$499.00
p7
sS'seller'
p8
(lp9
sS'description_links'
p10
VThe Leopard Tortoise is a grazing species of tortoise that favors semi-arid, thorny to grassland habitats, although some leopard tortoises have been found in rainier areas. They may dwell in abandoned fox, jackal, or anteater holes. Leopard tortoises do not dig other than to make nests in which to lay eggs.Product Type: Shell, skull, and skeletonNotes:Left zygomatic arch brokenOne ulna brokenShell has damage on the top and insidePlease see photos for details and call with any questions.
p11
sS'images'
p12
(lp13
Vhttp://www.skullsunlimited.com/userfiles/image/variants_10929.jpg
p14
asS'shipping_info'
p15
(lp16
sS'id'
p17
V10929_1497030405
p18
s.