(dp1
S'title'
p2
VBig Hand Carved Ox Bone Sterling Silver Buddha Pendant
p3
sS'url'
p4
Vhttp://www.ecrater.com/p/10983888/big-hand-carved-ox-bone?keywords=ox+bone
p5
sS'price'
p6
V$34.00
p7
sS'seller'
p8
Vhttp://diversions.ecrater.com
p9
sS'description_links'
p10
VBig, 2 x 1.5", carved bone Buddha with sterling siver mounting and large sterling silver bale.  Very well done.  Buyer pays $3. post and pack in USA.  Credit card OK via Paypal.Powered by eCRATER . List your items fast and easy and manage your active items.
p11
sS'images'
p12
(lp13
sS'shipping_info'
p14
(lp15
VOnly 1 available
p16
aVShipping:US-Mainland: $3.00(more destinations)
p17
aVCondition: Brand new
p18
asS'id'
p19
V10983888
p20
s.