(dp1
S'title'
p2
VDomestic Ram Skull
p3
sS'url'
p4
Vhttp://www.skullsunlimited.com/record_variant.php?id=11071
p5
sS'price'
p6
V$245.00
p7
sS'seller'
p8
(lp9
sS'description_links'
p10
VMale domestic sheep, called rams, can clearly be distinguished from females, or ewes, by their massive horns. When establishing territory and dominance, rams will battle with a series of "ramming" head-butts.Product Type: Skull onlyNotes:Missing premaxillary boneMandible not includedPlease see photos for details and call with any questions.
p11
sS'images'
p12
(lp13
Vhttp://www.skullsunlimited.com/userfiles/image/variants_11071.jpg
p14
asS'shipping_info'
p15
(lp16
sS'id'
p17
V11071_1497030538
p18
s.