(dp1
S'title'
p2
VLlama Skull
p3
sS'url'
p4
Vhttp://www.skullsunlimited.com/record_variant.php?id=11080
p5
sS'price'
p6
V$249.00
p7
sS'seller'
p8
(lp9
sS'description_links'
p10
VThe llama is a domesticated South American camelid, widely used as a meat and pack animal by Andean cultures. This animal has been raised for this purpose since pre-Hispanic times.Product Type: Skull OnlyNotes: Natural drying crack on both sides of the temporal bonePlease see photos for details and call with any questions.
p11
sS'images'
p12
(lp13
Vhttp://www.skullsunlimited.com/userfiles/image/variants_11080.jpg
p14
asS'shipping_info'
p15
(lp16
sS'id'
p17
V11080_1497030533
p18
s.