(dp1
S'title'
p2
VReal Human Tibia   Real Human Tibia B- Quality
p3
sS'url'
p4
Vhttp://www.skullsunlimited.com/record_variant.php?id=11544
p5
sS'price'
p6
V$250.00
p7
sS'seller'
p8
(lp9
sS'description_links'
p10
V
sS'images'
p11
(lp12
sS'shipping_info'
p13
(lp14
sS'id'
p15
V11544_1497030125
p16
s.