(dp1
S'title'
p2
VOx Bone Carved Christian Cross Skeletone Pendant Necklace 50mm*30mm  T0281
p3
sS'url'
p4
Vhttp://www.ecrater.com/p/12370836/ox-bone-carved-christian-cross?keywords=ox+bone
p5
sS'price'
p6
V$5.85
p7
sS'seller'
p8
Vhttp://attjade.ecrater.com
p9
sS'description_links'
p10
VOx Bone Carved Christian Cross Skeletone Pendant NecklaceSize:50mm x 30mmFree Jewelry Pouch Free Silk Cord To Make NecklaceWe Will Ship Your Item On The Next Day After Receive Your Payment.It Will Come From Hong Kong.It Normally Takes About 20~30 Days For International Delivery.
p11
sS'images'
p12
(lp13
sS'shipping_info'
p14
(lp15
VOnly 1 available
p16
aVShipping:US-Mainland: free(more destinations)
p17
aVCondition: Brand new
p18
asS'id'
p19
V12370836
p20
s.