(dp1
S'title'
p2
V12mm Ox Bone Carved Skull Beads Tibet Buddhist Prayer Bracelet Wrist Mala  T0629
p3
sS'url'
p4
Vhttp://www.ecrater.com/p/12886625/12mm-ox-bone-carved-skull?keywords=ox+bone
p5
sS'price'
p6
V$7.85
p7
sS'seller'
p8
Vhttp://attjade.ecrater.com
p9
sS'description_links'
p10
VOx Bone Carved Skull Beads Tibet Buddhist Prayer Bracelet Wrist Mala Beads Size:12mmDiameter Size:75mmElastic CordFree Jewelry PouchShip To WorldwideWe Will Ship Your Item On The Next Day After Receive Your Payment.It Will Come From Hong Kong.It Normally Takes About 20~30 Days For International Delivery.
p11
sS'images'
p12
(lp13
Vhttp://s.ecrater.com/stores/117902/4ec1c9f1279b5_117902b.jpg
p14
asS'shipping_info'
p15
(lp16
VOnly 1 available
p17
aVShipping:US-Mainland: free(more destinations)
p18
aVCondition: Brand new
p19
asS'id'
p20
V12886625
p21
s.