(dp1
S'title'
p2
V10mm Ox Bone Skull Beads Tibet Buddhist Prayer Rosary Mala Necklace  ZZ133
p3
sS'url'
p4
Vhttp://www.ecrater.com/p/13280815/10mm-ox-bone-skull-beads?keywords=ox+bone
p5
sS'price'
p6
V$23.85
p7
sS'seller'
p8
Vhttp://attjade.ecrater.com
p9
sS'description_links'
p10
VOx Bone Skull Beads Tibet Buddhist Prayer Rosary Mala NecklaceBeads Size:10mmFree Jewelry PouchWe Will Ship Your Item On The Next Day After Receive Your Payment.It Will Come From Hong Kong.It Normally Takes About 20~30 Days For International Delivery.
p11
sS'images'
p12
(lp13
Vhttp://s.ecrater.com/stores/117902/4eec43fb0c5ef_117902b.jpg
p14
asS'shipping_info'
p15
(lp16
VOnly 1 available
p17
aVShipping:US-Mainland: free(more destinations)
p18
aVCondition: Brand new
p19
asS'id'
p20
V13280815
p21
s.