(dp1
S'title'
p2
VLarge Hand Crafted 925 Silver Ox Bone Pendant w /Amethyst GDP-1135-KT
p3
sS'url'
p4
Vhttp://www.ecrater.com/p/23644732/large-hand-crafted-925-silver-ox?keywords=ox+bone
p5
sS'price'
p6
V$57.99
p7
sS'seller'
p8
Vhttp://globalsilverfactory.ecrater.com
p9
sS'description_links'
p10
VUnique hand crafted 925 sterling silver ox bone face pendant. This outstanding pendant crafted carefully by our skill artisan. This pendant features carved ox bone face set with genuine gemstones. Length: 7.4cm  ---- 2 15/16"(with bale)Width: 3.7cm ---- 1 7/16"Weight: 23.4gEach of our ox bone pendant are unique and crafted using solid 925 sterling silver and genuine gemstones. Each face might be different because is handcrafted, if you need the face to be eaxct please contact us. In most cases we can change the gemstones to suit your requirements.
p11
sS'images'
p12
(lp13
sS'shipping_info'
p14
(lp15
VMore than 10 available
p16
aVShipping:US-Mainland: $8.00(more destinations)
p17
aVCondition: Brand new
p18
asS'id'
p19
V23644732
p20
s.