(dp1
S'title'
p2
VBurrowing Owl Skull
p3
sS'url'
p4
Vhttp://www.skullsunlimited.com/record_variant.php?id=3127
p5
sS'price'
p6
V$120.00                                                     This item can ship for only $5.95* (*Within the contiguous United States only.)
p7
sS'seller'
p8
(lp9
sS'description_links'
p10
VBurrowing Owl Skull - The Burrowing owl gets its name from dwelling in underground burrows, usually made by ground squirrels. This species inhabits grasslands from Canada to southern Mexico. The burrowing owls diet consists of small mammals and insects. This species is on the decline due to loss of natural habitat.This original specimen resides in the Museum of Osteology collection.
p11
sS'images'
p12
(lp13
Vhttp://www.skullsunlimited.com/userfiles/image/variants_3127.jpg
p14
asS'shipping_info'
p15
(lp16
sS'id'
p17
V3127_1497026973
p18
s.