(dp1
S'title'
p2
VGiant Anteater  Skull
p3
sS'url'
p4
Vhttp://www.skullsunlimited.com/record_variant.php?id=3388
p5
sS'price'
p6
V$160.00
p7
sS'seller'
p8
(lp9
sS'description_links'
p10
VGiant Anteater Skull - The giant anteater, as its name suggests, is an insectivore, eating a variety of insects including termites and ants. This species has evolved a long sticky tongue that is specialized for lapping its small prey from within their mounds.
p11
sS'images'
p12
(lp13
Vhttp://www.skullsunlimited.com/userfiles/image/variants_3388.jpg
p14
asS'shipping_info'
p15
(lp16
sS'id'
p17
V3388_1497027167
p18
s.