(dp1
S'title'
p2
VHorned Puffin  Skull
p3
sS'url'
p4
Vhttp://www.skullsunlimited.com/record_variant.php?id=3541
p5
sS'price'
p6
V$158.00                                                     This item can ship for only $5.95* (*Within the contiguous United States only.)
p7
sS'seller'
p8
(lp9
sS'description_links'
p10
VHorned Puffin Skull - The horned puffin is native to the north Pacific. This species has a characteristically colorful beak giving them a clown-like appearance. Puffins are generally solitary except when congregating at breeding and nesting sites. Puffins are carnivores with a diet consisting primarily of fish and smaller birds. A puffins body is adapted for flight as well as diving and swimming making it a formidable predator in the air and water.This original specimen resides in the Museum of Osteology collection.
p11
sS'images'
p12
(lp13
Vhttp://www.skullsunlimited.com/userfiles/image/variants_3541.jpg
p14
asS'shipping_info'
p15
(lp16
sS'id'
p17
V3541_1497028614
p18
s.