(dp1
S'title'
p2
VKit Fox Skull
p3
sS'url'
p4
Vhttp://www.skullsunlimited.com/record_variant.php?id=3659
p5
sS'price'
p6
V$82.00                                                     This item can ship for only $5.95* (*Within the contiguous United States only.)
p7
sS'seller'
p8
(lp9
sS'description_links'
p10
VKit Fox Skull - The kit fox, very similar in outward appearances to the swift fox, is a small nocturnal, canid native to arid desert regions of the southwestern United Sates and parts of northern Mexico. The kit fox is mostly carnivorous and dines on rabbits, small rodents, birds, reptiles and insects.
p11
sS'images'
p12
(lp13
Vhttp://www.skullsunlimited.com/userfiles/image/variants_3659.jpg
p14
asS'shipping_info'
p15
(lp16
sS'id'
p17
V3659_1497029212
p18
s.