(dp1
S'title'
p2
V\u2020 La Ferassie Skull
p3
sS'url'
p4
Vhttp://www.skullsunlimited.com/record_variant.php?id=3847
p5
sS'price'
p6
V$280.00
p7
sS'seller'
p8
(lp9
sS'description_links'
p10
VLa Ferassie 1- The La Ferassie skull, discovered in France in 1909, is considered to be the "classic Neanderthal" representative. It has the low, long cranial vault, weak chin and double brow ridges indicative of this species. This skull dates from 50,000 years ago.
p11
sS'images'
p12
(lp13
Vhttp://www.skullsunlimited.com/userfiles/image/variants_3847.jpg
p14
asS'shipping_info'
p15
(lp16
sS'id'
p17
V3847_1497028100
p18
s.