(dp1
S'title'
p2
V\u2020 Teshik-Tash Child Skull with Stand
p3
sS'url'
p4
Vhttp://www.skullsunlimited.com/record_variant.php?id=3850
p5
sS'price'
p6
V$318.00
p7
sS'seller'
p8
(lp9
sS'description_links'
p10
VTeshik-Tash Child - The Teshik-Tash skull, discovered in 1938 and estimated be 70,000 years old, is believed to have been from a nine year old boy. This specimen was excavated in Uzbekistan and represents the eastern most range of the Neanderthals. This specimen was reconstructed from over 150 individual skull fragments.
p11
sS'images'
p12
(lp13
Vhttp://www.skullsunlimited.com/userfiles/image/variants_3850.jpg
p14
asS'shipping_info'
p15
(lp16
sS'id'
p17
V3850_1497028110
p18
s.