(dp1
S'title'
p2
VPacu Skull
p3
sS'url'
p4
Vhttp://www.skullsunlimited.com/record_variant.php?id=3905
p5
sS'price'
p6
V$295.00
p7
sS'seller'
p8
(lp9
sS'description_links'
p10
VThe Pacu, or Tambaqui, is native to the Amazon and Orinoco river systems of South America. A relative of the piranha, this species feeds on seeds and fruits that fall into the water, using its flat grinding teeth to crush its meals. This species has been known to grow to a length of 4 feet (1.2 M). A skull Display Stand is included with this specimen.
p11
sS'images'
p12
(lp13
Vhttp://www.skullsunlimited.com/userfiles/image/variants_3905.jpg
p14
asS'shipping_info'
p15
(lp16
sS'id'
p17
V3905_1497028071
p18
s.