(dp1
S'title'
p2
VRaccoon  Baculum (13cm)
p3
sS'url'
p4
Vhttp://www.skullsunlimited.com/record_variant.php?id=4005
p5
sS'price'
p6
V$6.00                                                     This item can ship for only $3.95*
p7
sS'seller'
p8
(lp9
sS'description_links'
p10
VRaccoon Skull - Raccoons are probably best known for their black bandit like masked and ringed tail. Raccoons are lively, nocturnal omnivores found from southern Canada to Panama. The raccoon's diet consist of crayfish, crabs, frogs, fish, nuts seeds and berries.
p11
sS'images'
p12
(lp13
Vhttp://www.skullsunlimited.com/userfiles/image/variants_4005.jpg
p14
asS'shipping_info'
p15
(lp16
sS'id'
p17
V4005_1497029155
p18
s.