(dp1
S'title'
p2
VWallaby Skull
p3
sS'url'
p4
Vhttp://www.skullsunlimited.com/record_variant.php?id=4468
p5
sS'price'
p6
V$180.00
p7
sS'seller'
p8
(lp9
sS'description_links'
p10
VWallaby Skull - The wallaby is member of the family Macropodidea. The wallaby resembles a small kangaroo, with a strong tail and the ability to leap great distances. Wallabies are nocturnal herbivores and consume mostly grasses. The wallaby inhabits Australia, New Zealand, and Papua New Guinea.
p11
sS'images'
p12
(lp13
Vhttp://www.skullsunlimited.com/userfiles/image/variants_4468.jpg
p14
asS'shipping_info'
p15
(lp16
sS'id'
p17
V4468_1497028713
p18
s.