(dp1
S'title'
p2
V\u2020 Hominid Skull Set of Six
p3
sS'url'
p4
Vhttp://www.skullsunlimited.com/record_variant.php?id=4504
p5
sS'price'
p6
V$1,500.00
p7
sS'seller'
p8
(lp9
sS'description_links'
p10
VHominid Skull Set of Six- The popular Hominid Skull Set of Six includes six fossil recreations of historical finds from the hominid evolutionary tree. Set includes: BH-038 Homo erectus - Peking Man, BH-07 Australopithicus africanus - STS-5 "Mrs Ples", BH-09 Neandertal - La Chapelle-aux Saints, BH-12 Homo ergaster - KNM-WT-1500 "Nariokotome Boy", BH-15 Australopithicus boisei - KNM 05 "Zinjanthropus", and BH-21T Australopithicus afarensis - "Lucy".
p11
sS'images'
p12
(lp13
Vhttp://www.skullsunlimited.com/userfiles/image/variants_4504.jpg
p14
asS'shipping_info'
p15
(lp16
sS'id'
p17
V4504_1497027637
p18
s.