(dp1
S'title'
p2
VDomestic Dog & puppy Set
p3
sS'url'
p4
Vhttp://www.skullsunlimited.com/record_variant.php?id=4623
p5
sS'price'
p6
V$133.00
p7
sS'seller'
p8
(lp9
sS'description_links'
p10
VFeaturing one adult and one sub-adult dog skull, this set is perfect for teaching the development of the canid or mammalian skull. An excellent visual aid in any veterinary practice or classroom.Some natural bone 'A' quality dog specimens may exhibit signs of an underbite, overbite or minor imperfections to the canines. Please call with anything questions or concerns.
p11
sS'images'
p12
(lp13
Vhttp://www.skullsunlimited.com/userfiles/image/variants_4623.jpg
p14
asS'shipping_info'
p15
(lp16
sS'id'
p17
V4623_1497029121
p18
s.