(dp1
S'title'
p2
VDog & Cat Skull Special
p3
sS'url'
p4
Vhttp://www.skullsunlimited.com/record_variant.php?id=4773
p5
sS'price'
p6
V$170.00
p7
sS'seller'
p8
(lp9
sS'description_links'
p10
VThis dog and cat skull set is by far our most popular veterinary item. Perfect for client demonstration at your office, practice specimens for dental x-ray technicians or study as a student. "A" quality are near perfect specimens but may have some natural imperfections such as naturally missing or slightly worn teeth. "B" quality specimens may be missing some teeth or may have slight damage to the bone.Domestic dog and cat skulls are currently low on stock and may have delayed shipping. Please call with any questions.
p11
sS'images'
p12
(lp13
Vhttp://www.skullsunlimited.com/userfiles/image/variants_4773.jpg
p14
asS'shipping_info'
p15
(lp16
sS'id'
p17
V4773_1497029131
p18
s.