(dp1
S'title'
p2
VHorse Spine & Pelvis
p3
sS'url'
p4
Vhttp://www.skullsunlimited.com/record_variant.php?id=5250
p5
sS'price'
p6
V$999.00
p7
sS'seller'
p8
(lp9
sS'description_links'
p10
VComplete unassembled horse spine with pelvis.
p11
sS'images'
p12
(lp13
Vhttp://www.skullsunlimited.com/userfiles/image/variants_5250.jpg
p14
asS'shipping_info'
p15
(lp16
sS'id'
p17
V5250_1497030123
p18
s.