(dp1
S'title'
p2
VMiniature Horse Neck
p3
sS'url'
p4
Vhttp://www.skullsunlimited.com/record_variant.php?id=5267
p5
sS'price'
p6
V$199.00
p7
sS'seller'
p8
(lp9
sS'description_links'
p10
VThis complete disarticulated miniature horse neck measures roughly 18 inches long.
p11
sS'images'
p12
(lp13
Vhttp://www.skullsunlimited.com/userfiles/image/variants_5267.jpg
p14
asS'shipping_info'
p15
(lp16
sS'id'
p17
V5267_1497030115
p18
s.