(dp1
S'title'
p2
VEuropean Stoat Skull
p3
sS'url'
p4
Vhttp://www.skullsunlimited.com/record_variant.php?id=5400
p5
sS'price'
p6
V$59.00
p7
sS'seller'
p8
(lp9
sS'description_links'
p10
VThe stoat or ermine can be found almost everywhere throughout the northern temperate, subarctic and Arctic regions, of Europe, Asia, and North America.
p11
sS'images'
p12
(lp13
Vhttp://www.skullsunlimited.com/userfiles/image/variants_5400.jpg
p14
asS'shipping_info'
p15
(lp16
sS'id'
p17
V5400_1497029976
p18
s.