(dp1
S'title'
p2
VReal Human Fibula
p3
sS'url'
p4
Vhttp://www.skullsunlimited.com/record_variant.php?id=5421
p5
sS'price'
p6
V$79.00
p7
sS'seller'
p8
(lp9
sS'description_links'
p10
V
sS'images'
p11
(lp12
Vhttp://www.skullsunlimited.com/userfiles/image/variants_5421.jpg
p13
asS'shipping_info'
p14
(lp15
sS'id'
p16
V5421_1497030141
p17
s.