(dp1
S'title'
p2
VCommon Loon Egg (84mm)
p3
sS'url'
p4
Vhttp://www.skullsunlimited.com/record_variant.php?id=5506
p5
sS'price'
p6
V$32.00                                                     This item can ship for only $5.95* (*Within the contiguous United States only.)
p7
sS'seller'
p8
(lp9
sS'description_links'
p10
VThe Common Loon, or Great northern loon is a large member of the loon, or diver, family of birds. On average, adults can grow up to 35 inches in length with a 4-5 foot wingspan. Often nesting on small islands, on aquatic vegetation or very close to the water.
p11
sS'images'
p12
(lp13
Vhttp://www.skullsunlimited.com/userfiles/image/category5_species_2768.jpg
p14
asS'shipping_info'
p15
(lp16
sS'id'
p17
V5506_1497027760
p18
s.