(dp1
S'title'
p2
V\u2020 Sabertooth Cat, South American (Smilodon populator) Skull
p3
sS'url'
p4
Vhttp://www.skullsunlimited.com/record_variant.php?id=5766
p5
sS'price'
p6
V$310.00
p7
sS'seller'
p8
(lp9
sS'description_links'
p10
VSmilodon populator is the largest of its species. Found in the eastern part of South America.
p11
sS'images'
p12
(lp13
Vhttp://www.skullsunlimited.com/userfiles/image/variants_5766.jpg
p14
asS'shipping_info'
p15
(lp16
sS'id'
p17
V5766_1497027817
p18
s.