(dp1
S'title'
p2
VSulphur-crested Cockatoo Skeleton
p3
sS'url'
p4
Vhttp://www.skullsunlimited.com/record_variant.php?id=6094
p5
sS'price'
p6
V$450.00
p7
sS'seller'
p8
(lp9
sS'description_links'
p10
VThe Sulphur-crested Cockatoo, is a relatively large white cockatoo found in wooded habitats in Australia and New Guinea. This beautiful  cockatoo skeleton has a small hole on the back of the skull and a naturally repaired break to one femur. Please see photos for detail.
p11
sS'images'
p12
(lp13
Vhttp://www.skullsunlimited.com/userfiles/image/variants_6094.jpg
p14
asS'shipping_info'
p15
(lp16
sS'id'
p17
V6094_1497029981
p18
s.