(dp1
S'title'
p2
VRice Field Rat Skull
p3
sS'url'
p4
Vhttp://www.skullsunlimited.com/record_variant.php?id=6143
p5
sS'price'
p6
V$39.00                                                     This item can ship for only $5.95* (*Within the contiguous United States only.)
p7
sS'seller'
p8
(lp9
sS'description_links'
p10
VThe Rice-field Rat is a medium-sized rat that lives in large groups consists of dominant male and high ranking female. When attacked or disturbed, they will make squeals and whistles sound.
p11
sS'images'
p12
(lp13
Vhttp://www.skullsunlimited.com/userfiles/image/variants_6143.jpg
p14
asS'shipping_info'
p15
(lp16
sS'id'
p17
V6143_1497029963
p18
s.