(dp1
S'title'
p2
VBag-O-Reticulated Python Snake Vertebra
p3
sS'url'
p4
Vhttp://www.skullsunlimited.com/record_variant.php?id=6281
p5
sS'price'
p6
V$79.00                                                     This item can ship for only $5.95* (*Within the contiguous United States only.)
p7
sS'seller'
p8
(lp9
sS'description_links'
p10
VThese limited quantity bags of reticulated python snake vertebra each contain approximately 25 randomly sized vertebra. Each bag of vertebra will differ is size and appearance.Perfect for arts and craft projects.
p11
sS'images'
p12
(lp13
Vhttp://www.skullsunlimited.com/userfiles/image/variants_6281.jpg
p14
asS'shipping_info'
p15
(lp16
sS'id'
p17
V6281_1497029870
p18
s.