(dp1
S'title'
p2
VMalayan Box Turtle Shell and Skull
p3
sS'url'
p4
Vhttp://www.skullsunlimited.com/record_variant.php?id=6298
p5
sS'price'
p6
V$49.00
p7
sS'seller'
p8
(lp9
sS'description_links'
p10
VThese turtles have blackish-brown to olive brown colored shells that are not as ornate as many other box turtles. All have a blackish olive head with three yellow stripes on the side.These limited quanitity turtle shells and skull measure 11 to 12 cms long on average. Each shell and skull may have some minor imperfections or scoots missing. Size and appearance will vary slightly from that pictured.
p11
sS'images'
p12
(lp13
Vhttp://www.skullsunlimited.com/userfiles/image/variants_6298.jpg
p14
asS'shipping_info'
p15
(lp16
sS'id'
p17
V6298_1497029883
p18
s.