(dp1
S'title'
p2
VCockatiel Bird Skull
p3
sS'url'
p4
Vhttp://www.skullsunlimited.com/record_variant.php?id=6830
p5
sS'price'
p6
V$45.00                                                     This item can ship for only $5.95* (*Within the contiguous United States only.)
p7
sS'seller'
p8
(lp9
sS'description_links'
p10
VThe Cockatiel is  the smallest cockatoo endemic to Australia. These easy to breed birds are prized as  household pets and are a companion parrot throughout the world. Cockatiels are native to the outback regions of inland Australia, and favour the Australian wetlands, scrublands, and bush lands.These limited quanitity Cockatiel skulls measure on average 3.5 cms long.
p11
sS'images'
p12
(lp13
Vhttp://www.skullsunlimited.com/userfiles/image/variants_6830.jpg
p14
asS'shipping_info'
p15
(lp16
sS'id'
p17
V6830_1497029935
p18
s.