(dp1
S'title'
p2
VReal Oriental Garden Lizard Skeleton in Acrylic Block
p3
sS'url'
p4
Vhttp://www.skullsunlimited.com/record_variant.php?id=6943
p5
sS'price'
p6
V$60.00
p7
sS'seller'
p8
(lp9
sS'description_links'
p10
VGet this amazing lizard skeleton  preserved indefinitely in an attractive acrylic display . This amazing specimen  will make a great desk decoration.Specimen and packaging may vary slightly from shown.Acrylic Display Measures: Nearly 6.25 inches wide, 3 inches tall, and 1 inch thick.Calotes versicolar
p11
sS'images'
p12
(lp13
Vhttp://www.skullsunlimited.com/userfiles/image/variants_6943.jpg
p14
asS'shipping_info'
p15
(lp16
sS'id'
p17
V6943_1497029032
p18
s.