(dp1
S'title'
p2
VReal Bat in Acrylic Block - Medium
p3
sS'url'
p4
Vhttp://www.skullsunlimited.com/record_variant.php?id=6975
p5
sS'price'
p6
V$50.00                                                     This item can ship for only $5.95* (*Within the contiguous United States only.)
p7
sS'seller'
p8
(lp9
sS'description_links'
p10
VGet this amazing bat specimen preserved indefinitely in an attractive acrylic display . This amazing species will make a great desk decoration. Display measures 5.75 inches wide, 2.75 inches tall, and 1 inch thick.Bat specimen will vary slightly from shown.
p11
sS'images'
p12
(lp13
Vhttp://www.skullsunlimited.com/userfiles/image/variants_6975.jpg
p14
asS'shipping_info'
p15
(lp16
sS'id'
p17
V6975_1497029030
p18
s.