(dp1
S'title'
p2
VAcrylic Dome with Bat
p3
sS'url'
p4
Vhttp://www.skullsunlimited.com/record_variant.php?id=7062
p5
sS'price'
p6
V$25.00                                                     This item can ship for only $5.95* (*Within the contiguous United States only.)
p7
sS'seller'
p8
(lp9
sS'description_links'
p10
VThis amazing specimen comes complete in an attractive acrylic dome.Measures 4inches wide.
p11
sS'images'
p12
(lp13
Vhttp://www.skullsunlimited.com/userfiles/image/category5_species_4068.jpg
p14
asS'shipping_info'
p15
(lp16
sS'id'
p17
V7062_1497028933
p18
s.