(dp1
S'title'
p2
VYellow-headed Amazon Bird Skull
p3
sS'url'
p4
Vhttp://www.skullsunlimited.com/record_variant.php?id=7322
p5
sS'price'
p6
V$175.00
p7
sS'seller'
p8
(lp9
sS'description_links'
p10
VThis yellow-headed amazon skull has no damage and is a perfect specimen.
p11
sS'images'
p12
(lp13
Vhttp://www.skullsunlimited.com/userfiles/image/variants_7322.jpg
p14
asS'shipping_info'
p15
(lp16
sS'id'
p17
V7322_1497030972
p18
s.