(dp1
S'title'
p2
VHinge-back Tortoise Shell - Large
p3
sS'url'
p4
Vhttp://www.skullsunlimited.com/record_variant.php?id=7455
p5
sS'price'
p6
V$195.00
p7
sS'seller'
p8
(lp9
sS'description_links'
p10
VThese limited quantity Hinge-back tortoise shells and skulls will differ slightly is size and appearance from that pictured.
p11
sS'images'
p12
(lp13
Vhttp://www.skullsunlimited.com/userfiles/image/variants_7455.jpg
p14
asS'shipping_info'
p15
(lp16
sS'id'
p17
V7455_1497030156
p18
s.