(dp1
S'title'
p2
VNorthern Jumping Mouse
p3
sS'url'
p4
Vhttp://www.skullsunlimited.com/record_variant.php?id=9245
p5
sS'price'
p6
V$20.00
p7
sS'seller'
p8
(lp9
sS'description_links'
p10
VThe woodland jumping mouse is a species of jumping mouse found in North America. It can hop surprisingly long distances, given its small size. This mouse, like most rodents is a food source for several carnivores in the northern region of North America. This skull exhibits no damage and is a very unique species of mouse. Please see photos for details.Call with any questions.
p11
sS'images'
p12
(lp13
Vhttp://www.skullsunlimited.com/userfiles/image/variants_9245.jpg
p14
asS'shipping_info'
p15
(lp16
sS'id'
p17
V9245_1497029842
p18
s.