(dp1
S'title'
p2
VHuman Leg
p3
sS'url'
p4
Vhttp://www.skullsunlimited.com/record_variant.php?id=9612
p5
sS'price'
p6
V$675.00
p7
sS'seller'
p8
(lp9
sS'description_links'
p10
VThis human leg skeleton is wire mounted. The leg is slightly flexible through toes and ankle joint. Please see photos for details. Call with any questions.
p11
sS'images'
p12
(lp13
Vhttp://www.skullsunlimited.com/userfiles/image/variants_9612.jpg
p14
asS'shipping_info'
p15
(lp16
sS'id'
p17
V9612_1497031070
p18
s.