(dp1
S'title'
p2
VBlack-browed Albatross
p3
sS'url'
p4
Vhttp://www.skullsunlimited.com/record_variant.php?id=9848
p5
sS'price'
p6
V$150.00
p7
sS'seller'
p8
(lp9
sS'description_links'
p10
VThe black-browed albatross, also known as the black-browed mollymawk, is a large seabird of the albatross family.
p11
sS'images'
p12
(lp13
Vhttp://www.skullsunlimited.com/userfiles/image/variants_9848.jpg
p14
asS'shipping_info'
p15
(lp16
sS'id'
p17
V9848_1497027529
p18
s.