(dp1
S'title'
p2
VWestern Tree Hyrax
p3
sS'url'
p4
Vhttp://www.skullsunlimited.com/record_variant.php?id=9931
p5
sS'price'
p6
V$149.00
p7
sS'seller'
p8
(lp9
sS'description_links'
p10
VThe western tree hyrax tends to be solitary, and only occasionally is found in groups of two or three. They are nocturnal and generally feed at night. Common predators of the western tree hyrax are eagles, leopards, hawks, servals, pythons, and golden cats.This skull shows slightly chipped incisors.Please see photos for details.
p11
sS'images'
p12
(lp13
Vhttp://www.skullsunlimited.com/userfiles/image/variants_9931.jpg
p14
asS'shipping_info'
p15
(lp16
sS'id'
p17
V9931_1497031622
p18
s.