(dp1
S'title'
p2
VMusk Ox Horn Slice
p3
sS'url'
p4
Vhttp://www.boneroom.com/store/p2027/Musk_Ox_Horn_Slice.html
p5
sS'price'
p6
V$150.00
p7
sS'seller'
p8
(lp9
sS'description_links'
p10
VThis genuine horn slice measures approximately 8" at its widest point.
p11
sS'images'
p12
(lp13
Vhttp://www.boneroom.com//uploads/4/8/1/1/48118243/s521972503441136676_p2027_i1_w640.jpeg
p14
asS'shipping_info'
p15
(lp16
sS'id'
p17
Vp2027_1497032051
p18
s.