(dp1
S'title'
p2
V\u000aJeffree Star Skin Frost Eyeshadow high-light powder 1pc\u000a
p3
sS'url'
p4
Vhttp://www.ioffer.com/i/jeffree-star-skin-frost-eyeshadow-high-light-powder-1pc-627557891
p5
sS'price'
p6
V$5.50
p7
sS'seller'
p8
(lp9
sS'description_links'
p10
Vcolour:1#SO FUCKING GOLD,2#PEACH GODDESS,3#DARK HORSE,4#ICE COLD,5#MINT CONDITION6#LAVENDER SNOW,7#DEEP FREEZE,8#KING TUT,Friends, you can choose your favorite color, and timely contact us, if not in a timely manner with our contact, we will randomly send the color, thank you.
p11
sS'images'
p12
(lp13
Vhttp://cdn.iofferphoto.com/img3/item/627/557/891/t_jeffree-star-skin-frost-eyeshadow-high-light-powder-1pc-8718.jpg
p14
aVhttp://cdn.iofferphoto.com/img3/item/627/557/891/t_jeffree-star-skin-frost-eyeshadow-high-light-powder-1pc-97c2.jpg
p15
aVhttp://cdn.iofferphoto.com/img3/item/627/557/891/t_jeffree-star-skin-frost-eyeshadow-high-light-powder-1pc-88db.jpg
p16
aVhttp://cdn.iofferphoto.com/img3/item/627/557/891/t_jeffree-star-skin-frost-eyeshadow-high-light-powder-1pc-824d.jpg
p17
aVhttp://cdn.iofferphoto.com/img3/item/627/557/891/t_jeffree-star-skin-frost-eyeshadow-high-light-powder-1pc-b7c7.jpg
p18
aVhttp://cdn.iofferphoto.com/img3/tmp/item_images/471/405/23/t_8718.jpg
p19
aVhttp://cdn.iofferphoto.com/img3/item/627/557/891/t_jeffree-star-skin-frost-eyeshadow-high-light-powder-1pc-e05a.jpg
p20
aVhttp://cdn.iofferphoto.com/img3/item/627/557/891/t_jeffree-star-skin-frost-eyeshadow-high-light-powder-1pc-4a46.jpg
p21
aVhttp://cdn.iofferphoto.com/img3/item/627/557/891/t_jeffree-star-skin-frost-eyeshadow-high-light-powder-1pc-b6ec.jpg
p22
aVhttp://cdn.iofferphoto.com/img3/item/627/557/891/t_jeffree-star-skin-frost-eyeshadow-high-light-powder-1pc-9f1a.jpg
p23
aVhttp://cdn.iofferphoto.com/img3/item/627/557/891/t_jeffree-star-skin-frost-eyeshadow-high-light-powder-1pc-1481.jpg
p24
aVhttp://cdn.iofferphoto.com/img3/item/627/557/891/t_jeffree-star-skin-frost-eyeshadow-high-light-powder-1pc-ef33.jpg
p25
asS'shipping_info'
p26
VEstimated Shipping1 - 3 Days
p27
sS'id'
p28
V627557891_1497059256
p29
s.