(dp1
S'title'
p2
V*NEW* Sea Turtle Vinyl Wall Sticker Decal
p3
sS'url'
p4
Vhttp://www.ecrater.com/p/11821429/sea-turtle-vinyl-wall-sticker?keywords=sea+turtle
p5
sS'price'
p6
V$24.99
p7
sS'seller'
p8
Vhttp://blackfingraphics.ecrater.com
p9
sS'description_links'
p10
VDescription: Sea Turtle removable vinyl decalSize: 22"h X 30"w Size is approximate to keep proportions accurate.Material: Removable 2 year outdoor / 20 year indoor vinylNotes:Vinyl adheres to most surfaces including flat and slightly textured walls, glass, metal, mirrors, wood & plastic. Make sure decal is aligned on wall correctly. It is removable, but will lose tackiness if repositioned.-Instructions included with order-Some larger items will be shipped in multiple pieces for easy installation-Florida Residents please add 7% Sales Tax-Please Email us with any questions***Please indicate color of decal in Paypal comment box when ordering.***
p11
sS'images'
p12
(lp13
Vhttp://s.ecrater.com/stores/201986/4e1bde82ef4a1_201986b.jpg
p14
asS'shipping_info'
p15
(lp16
V5 available
p17
aVShipping:USPS calculated - check
p18
aVSales Tax: Florida: 7%
p19
aVCondition: Brand new
p20
asS'id'
p21
V11821429
p22
s.