(dp1
S'title'
p2
V925 STERLING SILVER SOLID LADIES SEA TURTLE AQUAMARINE LADIES PENDANT
p3
sS'url'
p4
Vhttp://www.ecrater.com/p/14629654/925-sterling-silver-solid-ladies-sea?keywords=sea+turtle
p5
sS'price'
p6
V$32.95
p7
sS'seller'
p8
Vhttp://bikerjewelry.ecrater.com
p9
sS'description_links'
p10
VSTERLING 925 SILVER SOLID LADIES SEATURTLE PENDANTweight:6.9 gramsMeasurements: 1.25" x 1.375" Highest quality 100% solid sterling silver stamped 925, not plated. Extremely toughring. 100% Handmade. Amazing design. Highest attention to details. Made to last. Extremely unique and rare. Absolutely beautiful engraves. Meticulously made by the most skillful silversmiths. First class item. Big andheavy. Brand new.Nicely polished. Satisfaction guaranteed. Makes a perfect gift.Free ShippingWe ship Worldwide - FREE !by registered Airmail7 to 28 days depending on locationcomes with a 22.25 inche leahter Strap w. silver ends.Certain images/photos incorporated into this template are the royalty free property of JupiterImages.
p11
sS'images'
p12
(lp13
sS'shipping_info'
p14
(lp15
VOnly 1 available
p16
aVShipping:US-Mainland: free(more destinations)
p17
aVCondition: Brand new
p18
asS'id'
p19
V14629654
p20
s.