(dp1
S'title'
p2
VSet of Four ~ Sea Turtle Cute Ocean Sea ~ Custom Mini Christmas Ornaments
p3
sS'url'
p4
Vhttp://www.ecrater.com/p/19447259/set-of-four-sea-turtle-cute?keywords=sea+turtle
p5
sS'price'
p6
V$99.99
p7
sS'seller'
p8
Vhttp://interestingornamentals.ecrater.com
p9
sS'description_links'
p10
VSet of Four ~ Sea TurtleMini OrnamentsThis set includesfour cute mini sea turtles. Each ornament measuresabout 1 1/4" long. Thesesea turtlesmake a wonderful gift for that special someone and will last for years to come!Each ornament is new and ready to hang on your tree.Fast Shipping!Item iscustom made from purchased items.
p11
sS'images'
p12
(lp13
Vhttp://s.ecrater.com/stores/300418/52f1b4258059c_300418b.jpg
p14
asS'shipping_info'
p15
(lp16
VOnly 1 available
p17
aVShipping:US-Mainland: free(more destinations)
p18
aVCondition: Used
p19
asS'id'
p20
V19447259
p21
s.