(dp1
S'title'
p2
Vrobert wyland-&#034;sea turtle reef&#034; limited artists proof of 100 lucite sculpture!
p3
sS'url'
p4
S'http://www.ebay.com/itm/Robert-Wyland-Sea-Turtle-Reef-Limited-Artists-Proof-of-100-Lucite-Sculpture-/231607741192?hash=item35ece5ab08:g:sxcAAOSwHnFVh3qB'
p5
sS'price'
p6
VUS $7,690.00
p7
sS'seller'
p8
(dp9
g4
Vhttp://www.ebay.com/usr/groupimage?_trksid=p2047675.l2559
p10
sS'name'
p11
V groupimage
p12
ssS'description_links'
p13
(lp14
Vhttp://vi.vipr.ebaydesc.com/ws/eBayISAPI.dll?ViewItemDescV4&item=231607741192&t=1494119826000&tid=10&category=60442&seller=groupimage&excSoj=1&excTrk=1&lsite=0&ittenable=false&domain=ebay.com&descgauge=1
p15
asS'images'
p16
(lp17
(dp18
S'maxImageUrl'
p19
Vhttp://i.ebayimg.com/images/g/sxcAAOSwHnFVh3qB/s-l1600.jpg
p20
sS'displayImgUrl'
p21
Vhttp://i.ebayimg.com/images/g/sxcAAOSwHnFVh3qB/s-l300.jpg
p22
sa(dp23
g19
Vhttp://i.ebayimg.com/images/g/364AAOSwe7BW0pXm/s-l1600.jpg
p24
sg21
Vhttp://i.ebayimg.com/images/g/364AAOSwe7BW0pXm/s-l300.jpg
p25
sa(dp26
g19
Vhttp://i.ebayimg.com/images/g/m0cAAOSwjVVVh3qb/s-l1600.jpg
p27
sg21
Vhttp://i.ebayimg.com/images/g/m0cAAOSwjVVVh3qb/s-l300.jpg
p28
sa(dp29
g19
Vhttp://i.ebayimg.com/images/g/5eUAAOSwLVZVh3rF/s-l1600.jpg
p30
sg21
Vhttp://i.ebayimg.com/images/g/5eUAAOSwLVZVh3rF/s-l300.jpg
p31
sa(dp32
g19
Vhttp://i.ebayimg.com/images/g/uxcAAOSw9N1Vh3rj/s-l1600.jpg
p33
sg21
Vhttp://i.ebayimg.com/images/g/uxcAAOSw9N1Vh3rj/s-l300.jpg
p34
sa(dp35
g19
Vhttp://i.ebayimg.com/images/g/mQsAAOSw-vlVh3s9/s-l1600.jpg
p36
sg21
Vhttp://i.ebayimg.com/images/g/mQsAAOSw-vlVh3s9/s-l300.jpg
p37
sa(dp38
g19
Vhttp://i.ebayimg.com/images/g/mboAAOSw-vlVh3tM/s-l1600.jpg
p39
sg21
Vhttp://i.ebayimg.com/images/g/mboAAOSw-vlVh3tM/s-l300.jpg
p40
sa(dp41
g19
Vhttp://i.ebayimg.com/images/g/pewAAOSwjVVVh3tp/s-l1600.jpg
p42
sg21
Vhttp://i.ebayimg.com/images/g/pewAAOSwjVVVh3tp/s-l300.jpg
p43
sa(dp44
g19
Vhttp://i.ebayimg.com/images/g/wL0AAOSwHnFVh3t4/s-l1600.jpg
p45
sg21
Vhttp://i.ebayimg.com/images/g/wL0AAOSwHnFVh3t4/s-l300.jpg
p46
sa(dp47
g19
Vhttp://i.ebayimg.com/images/g/y-YAAOSwMmBVh3uE/s-l1600.jpg
p48
sg21
Vhttp://i.ebayimg.com/images/g/y-YAAOSwMmBVh3uE/s-l300.jpg
p49
sa(dp50
g19
Vhttp://i.ebayimg.com/images/g/0gMAAOSwjVVVh5La/s-l1600.jpg
p51
sg21
Vhttp://i.ebayimg.com/images/g/0gMAAOSwjVVVh5La/s-l300.jpg
p52
sa(dp53
g19
Vhttp://i.ebayimg.com/images/g/0r0AAOSwjVVVh5Lm/s-l1600.jpg
p54
sg21
Vhttp://i.ebayimg.com/images/g/0r0AAOSwjVVVh5Lm/s-l300.jpg
p55
sasS'shipping_info'
p56
(dp57
S'item_location'
p58
(lp59
V\u000aLakemont, Georgia, United States
p60
asS'delivery'
p61
(lp62
VVaries
p63
asS'posts_to'
p64
(lp65
VUnited States
p66
assS'id'
p67
S'231607741192'
p68
s.