(dp1
S'title'
p2
VGem Unc Silver Niue 2015 $2.00~Sea Turtle~Excellent~Free Shipping
p3
sS'url'
p4
Vhttp://www.ecrater.com/p/24915128/gem-unc-silver-niue-2015-200sea?keywords=sea+turtle
p5
sS'price'
p6
V$28.95
p7
sS'seller'
p8
Vhttp://coin5555.ecrater.com
p9
sS'description_links'
p10
VCOIN5555 U.S. AND FOREIGN RARE COINS~SPECIAL OFFERING~* Gem Unc Silver Niue 2015 $2.00 Featuring a Sea Turtle On The Reverse.* Check Our Store For Silver And Thousands Of High Quality Coins/Notes. * Search OurInventory For All Your Collecting Needs And AfterPressing Buy It Now For Each ItemYou Wish To Purchase, Check Out ByThen Pressing ThePay Now Button(after The Last Item)To Pay For All Items Combined OnThe SameInvoice And All Shipped Together.* If You Want More Then 1 Weeks Time To Check Our Inventory For Additional Items Before You Check Out Please Contact Us ThruThe Message Board.* Free Domestic Shipping.* All Coins Are Handled With Cloth Gloves And Packaged In a 2X2 Protection Holder.* Your Satisfaction Is Guaranteed Or Your Money Back.~SHIPPING~* We Ship Fast As Our Customers Know, In Most Cases Your Order Will Be Processed And On The Way To You Within One Business Day.* All Items Are Packaged Professionally And With Extreme Care, Secure Shipping Is Our Standard.* International Orders Are Shipped Either 1st Class International Or Global Priority Mail.~PAYMENT~* We Accept All Major Credit Cards Thru Paypal.Powered by eCRATER . List your items fast and easy and manage your active items.
p11
sS'images'
p12
(lp13
sS'shipping_info'
p14
(lp15
VOnly 1 available
p16
aVShipping:US-Mainland: free(more destinations)
p17
aVCondition: Used
p18
asS'id'
p19
V24915128
p20
s.