(dp1
S'title'
p2
V14K TWO- TONE WHITE & YELLOW GOLD SMALL SEA TURTLE CHAIN SLIDE PENDANT CHARM
p3
sS'url'
p4
Vhttp://www.ecrater.com/p/25103523/14k-two-tone-white-yellow?keywords=sea+turtle
p5
sS'price'
p6
V$123.47
p7
sS'seller'
p8
Vhttp://rockbottomcollections.ecrater.com
p9
sS'description_links'
p10
VJewelry Type: Pendant/Charm CHAIN SLIDE PENDANT Average Weight:1.44 grams Metal: Two-ToneGold Metal Purity: 14K Charm Length: 21 mm or 0.8 INCH Charm Width: 18 mm or 0.7 INCHFREE GIFT BOX WITH PURCHASEVisit Our eCRATER Store: RockBottomCollectionsAdd us to your Favorites list
p11
sS'images'
p12
(lp13
sS'shipping_info'
p14
(lp15
VOnly 1 available
p16
aVShipping:USPS calculated - check
p17
aVCondition: Used
p18
asS'id'
p19
V25103523
p20
s.