(dp1
S'title'
p2
Vturtle sea turtle tortoise ring jewelry 14k gold diamond ruby kinetic motion
p3
sS'url'
p4
S'http://www.ebay.com/itm/Turtle-Sea-Turtle-Tortoise-Ring-Jewelry-14K-Gold-Diamond-Ruby-Kinetic-Motion-/262778321102?hash=item3d2ecef8ce:g:mvMAAOSw241YYNOW'
p5
sS'price'
p6
VAU $6,187.00
p7
sS'seller'
p8
(dp9
g4
Vhttp://www.ebay.com/usr/jewelry_secrets?_trksid=p2047675.l2559
p10
sS'name'
p11
V jewelry_secrets
p12
ssS'description_links'
p13
(lp14
Vhttp://vi.vipr.ebaydesc.com/ws/eBayISAPI.dll?ViewItemDescV4&item=262778321102&t=0&tid=-1&category=48579&seller=jewelry_secrets&excSoj=1&excTrk=1&lsite=15&ittenable=false&domain=ebay.com&descgauge=1
p15
asS'images'
p16
(lp17
(dp18
S'maxImageUrl'
p19
Vhttp://i.ebayimg.com/images/g/mvMAAOSw241YYNOW/s-l1600.jpg
p20
sS'displayImgUrl'
p21
Vhttp://i.ebayimg.com/images/g/mvMAAOSw241YYNOW/s-l300.jpg
p22
sa(dp23
g19
Vhttp://i.ebayimg.com/images/g/wUcAAOSwUKxYYNOZ/s-l1600.jpg
p24
sg21
Vhttp://i.ebayimg.com/images/g/wUcAAOSwUKxYYNOZ/s-l300.jpg
p25
sa(dp26
g19
Vhttp://i.ebayimg.com/images/g/GIkAAOSwa~BYYNOa/s-l1600.jpg
p27
sg21
Vhttp://i.ebayimg.com/images/g/GIkAAOSwa~BYYNOa/s-l300.jpg
p28
sa(dp29
g19
Vhttp://i.ebayimg.com/images/g/-R4AAOSwux5YYNOh/s-l1600.jpg
p30
sg21
Vhttp://i.ebayimg.com/images/g/-R4AAOSwux5YYNOh/s-l300.jpg
p31
sa(dp32
g19
Vhttp://i.ebayimg.com/images/g/dkQAAOSwZQRYYNOj/s-l1600.jpg
p33
sg21
Vhttp://i.ebayimg.com/images/g/dkQAAOSwZQRYYNOj/s-l300.jpg
p34
sa(dp35
g19
Vhttp://i.ebayimg.com/images/g/m8QAAOSw241YYNOn/s-l1600.jpg
p36
sg21
Vhttp://i.ebayimg.com/images/g/m8QAAOSw241YYNOn/s-l300.jpg
p37
sa(dp38
g19
Vhttp://i.ebayimg.com/images/g/ONkAAOSwJ7RYYNOp/s-l1600.jpg
p39
sg21
Vhttp://i.ebayimg.com/images/g/ONkAAOSwJ7RYYNOp/s-l300.jpg
p40
sa(dp41
g19
Vhttp://i.ebayimg.com/images/g/ufMAAOSwEzxYYNOt/s-l1600.jpg
p42
sg21
Vhttp://i.ebayimg.com/images/g/ufMAAOSwEzxYYNOt/s-l300.jpg
p43
sa(dp44
g19
Vhttp://i.ebayimg.com/images/g/kMMAAOSw5cNYYNO6/s-l1600.jpg
p45
sg21
Vhttp://i.ebayimg.com/images/g/kMMAAOSw5cNYYNO6/s-l300.jpg
p46
sa(dp47
g19
Vhttp://i.ebayimg.com/images/g/d34AAOSwZQRYYNO9/s-l1600.jpg
p48
sg21
Vhttp://i.ebayimg.com/images/g/d34AAOSwZQRYYNO9/s-l300.jpg
p49
sa(dp50
g19
Vhttp://i.ebayimg.com/images/g/eo4AAOSw-0xYYNPF/s-l1600.jpg
p51
sg21
Vhttp://i.ebayimg.com/images/g/eo4AAOSw-0xYYNPF/s-l300.jpg
p52
sasS'shipping_info'
p53
(dp54
S'item_location'
p55
(lp56
V\u000aSydney, Australia
p57
asS'delivery'
p58
(lp59
VEstimated between Thu. Jun. 22 and Wed. Jul. 5\u000aPlease note the delivery estimate is greater than 7 business days.
p60
aVEstimated between Thu. Jun. 22 and Wed. Jul. 5\u000aSeller ships within 3 days after receiving cleared payment - opens in a new window or tab.
p61
asS'posts_to'
p62
(lp63
VWorldwide
p64
assS'id'
p65
S'262778321102'
p66
s.