(dp1
S'title'
p2
V\u000ahot sale real leather sea turtle printing handbag 30cm\u000a
p3
sS'url'
p4
Vhttp://www.ioffer.com/i/hot-sale-real-leather-sea-turtle-printing-handbag-30cm-614758724
p5
sS'price'
p6
V$595.00
p7
sS'seller'
p8
(lp9
sS'description_links'
p10
Vfashion woman's genuine leather  sea turtle printing handbag 30cm We are accept western union only for now . It is because of our Paypal account always restricted by Paypal company. It is so hard to apply new account now ( We did apply many account and restricted). we have to give up use Paypal.But we are make very low price for all our items now . it is for long term, stably and reliably business for us.We trust you as you trust us , please try to make change. Thank you. If you have any questions and i'm not online here, please add my Skype  cwenj01 .  thank you and wish you have very happy experience here.
p11
sS'images'
p12
(lp13
Vhttp://cdn.iofferphoto.com/img3/item/614/758/724/t_hot-sale-real-leather-sea-turtle-printing-handbag-30cm-177f.jpg
p14
aVhttp://cdn.iofferphoto.com/img3/item/614/758/724/t_hot-sale-real-leather-sea-turtle-printing-handbag-30cm-e0bc.jpg
p15
aVhttp://cdn.iofferphoto.com/img3/item/614/758/724/t_hot-sale-real-leather-sea-turtle-printing-handbag-30cm-9c63.jpg
p16
aVhttp://cdn.iofferphoto.com/img3/item/614/758/724/t_hot-sale-real-leather-sea-turtle-printing-handbag-30cm-203c.jpg
p17
aVhttp://cdn.iofferphoto.com/img3/item/614/758/724/t_hot-sale-real-leather-sea-turtle-printing-handbag-30cm-32b1.jpg
p18
aVhttp://cdn.iofferphoto.com/img3/item/614/758/724/t_hot-sale-real-leather-sea-turtle-printing-handbag-30cm-eb56.jpg
p19
aVhttp://cdn.iofferphoto.com/img3/item/614/758/724/t_hot-sale-real-leather-sea-turtle-printing-handbag-30cm-122d.jpg
p20
asS'shipping_info'
p21
VAvailable ColorsAvailable SizesSizesMediumEstimated Shipping15 - 20 Days
p22
sS'id'
p23
V614758724_1497071935
p24
s.