(dp1
S'title'
p2
V\u000aMonterey Bay Aquarium California Sea Turtle Shark Otter\u000a
p3
sS'url'
p4
Vhttp://www.ioffer.com/i/monterey-bay-aquarium-california-sea-turtle-shark-otter-618286280
p5
sS'price'
p6
V$42.99
p7
sS'seller'
p8
(lp9
sS'description_links'
p10
V
sS'images'
p11
(lp12
Vhttp://cdn.iofferphoto.com/img/item/618/286/280/t_dCBBmonterey-bay-aquarium-california-sea-turtle-shark-otter.jpg
p13
aVhttp://cdn.iofferphoto.com/img/item/618/286/280/t_dsSJmonterey-bay-aquarium-california-sea-turtle-shark-otter.jpg
p14
aVhttp://cdn.iofferphoto.com/img/item/618/286/280/t_ExeBmonterey-bay-aquarium-california-sea-turtle-shark-otter.jpg
p15
aVhttp://cdn.iofferphoto.com/img/item/618/286/280/t_KmRtmonterey-bay-aquarium-california-sea-turtle-shark-otter.jpg
p16
aVhttp://cdn.iofferphoto.com/img/item/618/286/280/t_tMHGmonterey-bay-aquarium-california-sea-turtle-shark-otter.jpg
p17
aVhttp://cdn.iofferphoto.com/img/item/618/286/280/t_kIAYmonterey-bay-aquarium-california-sea-turtle-shark-otter.jpg
p18
aVhttp://cdn.iofferphoto.com/img/item/618/286/280/t_HqYOmonterey-bay-aquarium-california-sea-turtle-shark-otter.jpg
p19
aVhttp://cdn.iofferphoto.com/img/item/618/286/280/t_o5z2monterey-bay-aquarium-california-sea-turtle-shark-otter.jpg
p20
aVhttp://cdn.iofferphoto.com/img/item/618/286/280/t_RaTAmonterey-bay-aquarium-california-sea-turtle-shark-otter.jpg
p21
aVhttp://cdn.iofferphoto.com/img/item/618/286/280/t_RTgamonterey-bay-aquarium-california-sea-turtle-shark-otter.jpg
p22
asS'shipping_info'
p23
(lp24
sS'id'
p25
V618286280_1497071993
p26
s.