(dp1
S'title'
p2
VSterling Silver Hawaiian Sea Turtle Honu Anklet from Hawaii
p3
sS'url'
p4
Vhttp://www.ecrater.com/p/6530631/sterling-silver-hawaiian-sea-turtle?keywords=sea+turtle
p5
sS'price'
p6
V$58.95
p7
sS'seller'
p8
Vhttp://hawaiianjewelry.ecrater.com
p9
sS'description_links'
p10
VDescription - Sterling Silver Hawaiian Sea Turtle Honu Anklet Length: 9" with small lobster clasp hingEach turtle width: 3/8"Solid Sterling Silver finished with Rhodium to avoid tarnishingOrder Number: SA-23RETURN POLICY:Full refund or exchange within 30 days for this item.SHIPPING AND DELIVERY TIMES:U.S. Orders: USPS Priority Mail Insured with Delivery Confirmation and you will receive your order in 7-10 days.International Orders: USPS Insured International Mail and you will receive your order in 12-14 days.SHIPPING FEES FOR MORE THAN ONE ITEM:The shipping fee is a one time flat rate fee with no extra shipping charges if you purchase more than one item.QUESTIONS?Our email customer support team is standing by to answer your questions 7:00am - 11:00pm everyday.For more Hawaiian Jewelry and Gifts visit our stores:www.hawaiianjewelry.ecrater.comwww.HawaiiCity.com
p11
sS'images'
p12
(lp13
sS'shipping_info'
p14
(lp15
VMore than 10 available
p16
aVShipping:US-Mainland: $5.95(more destinations)
p17
aVCondition: Brand new
p18
asS'id'
p19
V6530631
p20
s.