(dp1
S'title'
p2
VLeatherback Turtle Skeleton Cast
p3
sS'url'
p4
Vhttp://www.boneroom.com/store/p1510/Leatherback_Turtle_Skeleton_Cast.html
p5
sS'price'
p6
V$4,165.00
p7
sS'seller'
p8
(lp9
sS'description_links'
p10
VDermochelys coriacea
p11
sS'images'
p12
(lp13
Vhttp://www.boneroom.com//uploads/4/8/1/1/48118243/s521972503441136676_p1510_i1_w500.jpeg
p14
asS'shipping_info'
p15
(lp16
sS'id'
p17
Vp1510_1497072035
p18
s.