(dp1
S'title'
p2
VMatamata Turtle Skull Cast
p3
sS'url'
p4
Vhttp://www.boneroom.com/store/p1512/Matamata_Turtle_Skull_Cast.html
p5
sS'price'
p6
V$114.00
p7
sS'seller'
p8
(lp9
sS'description_links'
p10
VChelus fimbriatus7.5" in length
p11
sS'images'
p12
(lp13
Vhttp://www.boneroom.com//uploads/4/8/1/1/48118243/s521972503441136676_p1512_i1_w600.jpeg
p14
asS'shipping_info'
p15
(lp16
sS'id'
p17
Vp1512_1497072041
p18
s.