(dp1
S'title'
p2
VAntique Caviar Server Silver plate from France ,3 pieces !
p3
sS'url'
p4
Vhttp://www.ecrater.com/p/22370476/antique-caviar-server-silver-plate-from?keywords=caviar
p5
sS'price'
p6
V$465.00
p7
sS'seller'
p8
Vhttp://stuffest.ecrater.com
p9
sS'description_links'
p10
VReally cool Caviar Server designed to be filled with shaved ice.The Caviar sits in the small bowl atop the shaved ice and specialVodka sit in the Ice.We found this one in Metz, France and can trace it back to a wedding Gift for 1920.The ice bucket base measures 10" in diameter and the actualCaviar tray measures 4.5" in diameter. The three pointed rack That suspends the Caviar tray sit just .5" outside the base piece At three positions.Happy to send more photos.
p11
sS'images'
p12
(lp13
Vhttp://s.ecrater.com/stores/301030/55314e5d4430e_301030b.jpg
p14
asS'shipping_info'
p15
(lp16
VOnly 1 available
p17
aVShipping:US-Mainland: free(more destinations)
p18
aVCondition: Used
p19
asS'id'
p20
V22370476
p21
s.