(dp1
S'title'
p2
VChanel Quilted Pearl Caviar Hobo 206484 Shoulder Bag
p3
sS'url'
p4
Vhttp://www.ecrater.com/p/25904883/chanel-quilted-pearl-caviar-hobo-206484?keywords=caviar
p5
sS'price'
p6
V$387.00
p7
sS'seller'
p8
Vhttp://bagriculture.ecrater.com
p9
sS'description_links'
p10
VThis item will ship immediately!!Previously owned.Date Code: 10580148Made In: France Measurements: Length: 12" Width: 3" Height: 9"Strap Drop: 12.25"Zipper works well.Signs of Wear: Exterior shows few scratches and color fading due to abrasion and wear. Edges show abrasion. Exposed piping. Interior shows some marks and stains. Hardware shows scratches and slight tarnishing. This item does not come with any other extra accessories.Please review measurements and photos to see if this is the perfect item for you.Please keep in mind that measurements are provided only as a guide and are approximate.Please review photos for more details.Color appearance may vary depending on your monitor settings.
p11
sS'images'
p12
(lp13
Vhttp://s.ecrater.com/stores/395073/58469ea7d3bb8_395073b.jpg
p14
asS'shipping_info'
p15
(lp16
VOnly 1 available
p17
aVShipping:US-Mainland: free(more destinations)
p18
aVSales Tax: New York: 8.88%
p19
aVCondition: Used
p20
asS'id'
p21
V25904883
p22
s.