(dp1
S'title'
p2
VChanel Caviar Tote 208732 Shoulder Bag
p3
sS'url'
p4
Vhttp://www.ecrater.com/p/25958990/chanel-caviar-tote-208732-shoulder-bag?keywords=caviar
p5
sS'price'
p6
V$420.00
p7
sS'seller'
p8
Vhttp://bagriculture.ecrater.com
p9
sS'description_links'
p10
VThis item will ship immediately!!Previously owned.Date Code: 5358128Made In: FranceMeasurements: Length: 11" Width: 3" Height: 8"Handle Drop: 10.25"Signs of Wear: Exterior shows light creases, few small light marks and minor discoloration due to wear. Edges by zipper lining shows glue exposure. Corners show minor abrasion. Interior lining and pockets show few pen marks and slight discoloration due to wear. Zipper needs repair. One of the base hardware foot came off, needs repair. Hardware shows light scratches and tarnishing. This item does not come with any other extra accessories.Please review measurements and photos to see if this is the perfect item for you.Please keep in mind that measurements are provided only as a guide and are approximate.Please review photos for more details.Color appearance may vary depending on your monitor settings.
p11
sS'images'
p12
(lp13
Vhttp://s.ecrater.com/stores/395073/584fd5de26c43_395073b.jpg
p14
asS'shipping_info'
p15
(lp16
VOnly 1 available
p17
aVShipping:US-Mainland: free(more destinations)
p18
aVSales Tax: New York: 8.88%
p19
aVCondition: Used
p20
asS'id'
p21
V25958990
p22
s.