(dp1
S'title'
p2
VChanel Cc Logo Caviar Hobo 213068 Shoulder Bag
p3
sS'url'
p4
Vhttp://www.ecrater.com/p/26178296/chanel-cc-logo-caviar-hobo-213068?keywords=caviar
p5
sS'price'
p6
V$946.00
p7
sS'seller'
p8
Vhttp://bagriculture.ecrater.com
p9
sS'description_links'
p10
VThis item will ship immediately!!Previously owned.Date Code: 9075176Made In: FranceMeasurements: Length: 10.7" Width: 5.4" Height: 9"Handle Drop: 7.5"Zipper works well.Signs of Wear: Rubbing on the exterior, especially on the bottom of the bag. Aging of the hardware. Light marks on the interior. This item does not come with any other extra accessories.Please review measurements and photos to see if this is the perfect item for you.Please keep in mind that measurements are provided only as a guide and are approximate.Please review photos for more details.Color appearance may vary depending on your monitor settings.SKU : 213068
p11
sS'images'
p12
(lp13
Vhttp://s.ecrater.com/stores/395073/5886e8f478f0f_395073b.jpg
p14
asS'shipping_info'
p15
(lp16
VOnly 1 available
p17
aVShipping:US-Mainland: free(more destinations)
p18
aVSales Tax: New York: 8.88%
p19
aVCondition: Used
p20
asS'id'
p21
V26178296
p22
s.