(dp1
S'title'
p2
VChanel Caviar Mobile Phone Case 213105
p3
sS'url'
p4
Vhttp://www.ecrater.com/p/26495524/chanel-caviar-mobile-phone-case-213105?keywords=caviar
p5
sS'price'
p6
V$226.00
p7
sS'seller'
p8
Vhttp://bagriculture.ecrater.com
p9
sS'description_links'
p10
VThis item will ship immediately!!Previously owned.Made In: FranceMeasurements: Length: 3.5" Width: 0.5" Height: 6.1"OVERALL VERY GOOD - CONDITION 2.5 = VERY GOOD - Signs of Wear: Minor rubbing on edges. Slight aging of the hardware. Minor aging of the leather. Shopping bag included.5 =New4= Excellent3= Very Good2= Good 1= Fair 0=Needs WorkThis item does not come with any extra accessories.Please review photos for more details.Color appearance may vary depending on your monitor settings.SKU : 213105
p11
sS'images'
p12
(lp13
Vhttp://s.ecrater.com/stores/395073/58b3b646d1ef5_395073b.jpg
p14
asS'shipping_info'
p15
(lp16
VOnly 1 available
p17
aVShipping:US-Mainland: free(more destinations)
p18
aVSales Tax: New York: 8.88%
p19
aVCondition: Used
p20
asS'id'
p21
V26495524
p22
s.