(dp1
S'title'
p2
V\u000a20995 GST BLUE LEATHER BAG HANDBAG GLOD CAVIAR HW\u000a
p3
sS'url'
p4
Vhttp://www.ioffer.com/i/20995-gst-blue-leather-bag-handbag-glod-caviar-hw-635998396
p5
sS'price'
p6
V$328.05
p7
sS'seller'
p8
(lp9
sS'description_links'
p10
VSIZE: W34H25D14cmWelcome your arrivalPayment:1: (credit card)2: (Western Union)3: (Paypal payment)New projects such as imagesOur products are absolutely newWe strive each sales 100% complete customer for satisfaction.If for any reason, you are satisfied your purchase, please contact us. with notUpon receipt your payment 1-3 days of delivery,You will a international tracking ticket have numberHere you query the tracking information: can http://www.17track.net/zh-cn/The project will shipped post mail within 48 hours after payment confirmation. be air byIt take about 7 to 15 days (UK, CA, Au, USA).Other countries 12- will 25days.International shipping more complicated procedures (such as countries customs, transit stations etc.) (both requires),For your may take to reach the final project longer destination.Thank you your understanding on this for matter.If you fast shipping, please contact us wantFast shipping is not our shop sell commodity fee in pricesRefund policyIf you the product not satisfied, please contact within 5 days us receive,We support refund change, but the cost you and shipping pay.We support big order, big order big the discount
p11
sS'images'
p12
(lp13
Vhttp://cdn.iofferphoto.com/img3/item/635/998/396/t_20995-gst-blue-leather-bag-handbag-glod-caviar-hw-3aa7.jpg
p14
aVhttp://cdn.iofferphoto.com/img3/item/635/998/396/t_20995-gst-blue-leather-bag-handbag-glod-caviar-hw-9640.jpg
p15
asS'shipping_info'
p16
VAvailable SizesSizesX-SmallEstimated Shipping1 - 3 Days
p17
sS'id'
p18
V635998396_1497046785
p19
s.