(dp1
S'title'
p2
VMolecular Gastronomy - Spherification Juice Caviar Maker Plus Value Bundle
p3
sS'url'
p4
Vhttp://www.ecrater.com/p/8578217/molecular-gastronomy-spherification-juice-caviar?keywords=caviar
p5
sS'price'
p6
V$200.00
p7
sS'seller'
p8
Vhttp://trufflina.ecrater.com
p9
sS'description_links'
p10
VBUNDLE INCLUDES:1 - Juice Caviar Maker Plus1 - Refill PackJUICE CAVIAR MAKER PLUS INCLUDES:1 - Acrylic Dispensing Fixture w/Tray [11\u2033X7\u2033X7\u2033]9 - 30mL Syringe Dispensers9 - Dampening Gaskets1 - Acrylic Depressor Plate1 - Acrylic ContainerREFILL PACK INCLUDES:1 - 3 Oz. Sodium Alginate1 - 3 Oz. Sodium Citrate1 - 3 Oz. Calcium Chloride(For approx. 2.5 gallons of caviar)VIDEO DEMONSTRATION:http://youtu.be/7u5O0MTX9vg
p11
sS'images'
p12
(lp13
sS'shipping_info'
p14
(lp15
VMore than 10 available
p16
aVShipping:US-Mainland: free(more destinations)
p17
aVSales Tax: California: 8.75%
p18
aVCondition: Brand new
p19
asS'id'
p20
V8578217
p21
s.