(dp1
S'title'
p2
VNEW CAVIAR RIMLESS SUNGLASSES GOLD  SWAROVSKI CRYSTAL
p3
sS'url'
p4
Vhttp://www.ecrater.com/p/9674458/caviar-rimless-sunglasses-gold-swarovski?keywords=caviar
p5
sS'price'
p6
V$229.00
p7
sS'seller'
p8
Vhttp://vintageeyewear.ecrater.com
p9
sS'description_links'
p10
VYour browser does not support JavaScript.To view this page, enable JavaScript if it is disabled or upgrade your browser.    Click Here.  Double your traffic.  Get Vendio Gallery - Now FREE!NEWCAVIAR MOD.6829Designer SUNGLASSESColor:GOLD WITH SWAROVSKI CRYSTALSLENSES:GRADIENT BROWN WITH 100% UV PROTECTIONCondition: NEWAuthentic ORIGINALCAVIAR designer SUNGLASSES,MADE IN ITALYEYE SIZE:59MMBRIDGE:16MMTEMPLES:130MMTHE SIZE ACROSS THE FRAME: 135MMI attempt to describe all items as accurately as possible and will answer any questions you may have. Please examine pictures as they can show an item much better than I can usually say in wordsGOOD LUCK lookingIF YOU NEED A PRESCRIPTION FILED FOR YOU GLASSES OR SUNGLASSES I CAN DO IT FOR A FRACTION OF THE COST WHAT YOU WILL BE CHARGED ANYWHERE ELSE.PLEASE E-MAIL ME YOUR PRESCRIPTION FOR A QUOTETOLSTY GUARANTEETOLSTY strives forFIVE STAR SERVICE *****and stands by his product 100%!! If you are not satisfied with your purchase for any reason, juste-mailmeTHROUGH THE eCRATER MESSAGING SYSTEMwithin7 days of receiptof item, and I'll take it back -No Questions Asked- and provide you with a100% refund!! If you have any questions regarding your item, please e-mail me before leaving feedback. I take my customer service very seriously. I always answer e-mails within 12 hours, and often as soon as 30 minutes. Thank you again for your business, and God Bless.Be sure to add me to yourfavorites list!Check out myother items!Your browser does not support JavaScript.To view this page, enable JavaScript if it is disabled or upgrade your browser.
p11
sS'images'
p12
(lp13
sS'shipping_info'
p14
(lp15
VOnly 1 available
p16
aVShipping:USPS calculated - check
p17
aVCondition: Brand new
p18
asS'id'
p19
V9674458
p20
s.