(dp1
S'title'
p2
V18KT SOLID YELLOW WHITE GOLD EMERALD 9.90 CARAT RING 2 DIAMONDS 1.50 CARAT SZ 6
p3
sS'url'
p4
Vhttp://www.ecrater.com/p/22864232/18kt-solid-yellow-white-gold?keywords=white+gold
p5
sS'price'
p6
V$89,995.00
p7
sS'seller'
p8
Vhttp://morningstarsjewelers.ecrater.com
p9
sS'description_links'
p10
VMorningstarJewelers Store                                                                                                                                           18KT SOLID YELLOW WHITE GOLD EMERALD 9.90 CARAT RING 2 DIAMONDS 1.50 CARAT SZ 6        3c0,RcmdId ViewItemDescV4,RlogId p4%60bo7%60jtb9%3Feog4d71f%2B%3E3c0-14e2501b5f8-0x10e-->
p11
sS'images'
p12
(lp13
sS'shipping_info'
p14
(lp15
VOnly 1 available
p16
aVShipping:US-Mainland: $100.00(more destinations)
p17
aVCondition: Used
p18
asS'id'
p19
V22864232
p20
s.