(dp1
S'title'
p2
Vestate 38.74ct diamond &amp; 46.13ct ruby 18k white gold necklace
p3
sS'url'
p4
S'http://www.ebay.com/itm/Estate-38-74ct-Diamond-46-13ct-Ruby-18K-White-Gold-Necklace-/282109526342?hash=item41af09c146:g:z5gAAOSwSv1Xkk47'
p5
sS'price'
p6
VUS $220,000.00
p7
sS'seller'
p8
(dp9
g4
Vhttp://www.ebay.com/usr/en47ddc?_trksid=p2047675.l2559
p10
sS'name'
p11
V en47ddc
p12
ssS'description_links'
p13
(lp14
Vhttp://vi.vipr.ebaydesc.com/ws/eBayISAPI.dll?ViewItemDescV4&item=282109526342&t=1469203130000&tid=10&category=165042&seller=en47ddc&excSoj=1&excTrk=1&lsite=0&ittenable=false&domain=ebay.com&descgauge=1
p15
asS'images'
p16
(lp17
(dp18
S'maxImageUrl'
p19
Vhttp://i.ebayimg.com/images/g/z5gAAOSwSv1Xkk47/s-l1600.jpg
p20
sS'displayImgUrl'
p21
Vhttp://i.ebayimg.com/images/g/z5gAAOSwSv1Xkk47/s-l300.jpg
p22
sa(dp23
g19
Vhttp://i.ebayimg.com/images/g/VqsAAOSwqfNXkk49/s-l1600.jpg
p24
sg21
Vhttp://i.ebayimg.com/images/g/VqsAAOSwqfNXkk49/s-l300.jpg
p25
sa(dp26
g19
Vhttp://i.ebayimg.com/images/g/JmsAAOSwRgJXkk5A/s-l1600.jpg
p27
sg21
Vhttp://i.ebayimg.com/images/g/JmsAAOSwRgJXkk5A/s-l300.jpg
p28
sa(dp29
g19
Vhttp://i.ebayimg.com/images/g/JrMAAOSwRgJXkk5C/s-l1600.jpg
p30
sg21
Vhttp://i.ebayimg.com/images/g/JrMAAOSwRgJXkk5C/s-l300.jpg
p31
sa(dp32
g19
Vhttp://i.ebayimg.com/images/g/J4wAAOSwhMFXkk5D/s-l1600.jpg
p33
sg21
Vhttp://i.ebayimg.com/images/g/J4wAAOSwhMFXkk5D/s-l300.jpg
p34
sa(dp35
g19
Vhttp://i.ebayimg.com/images/g/IqgAAOSwbsBXkk5F/s-l1600.jpg
p36
sg21
Vhttp://i.ebayimg.com/images/g/IqgAAOSwbsBXkk5F/s-l300.jpg
p37
sa(dp38
g19
Vhttp://i.ebayimg.com/images/g/BnwAAOSwsTxXkk5O/s-l1600.jpg
p39
sg21
Vhttp://i.ebayimg.com/images/g/BnwAAOSwsTxXkk5O/s-l300.jpg
p40
sa(dp41
g19
Vhttp://i.ebayimg.com/images/g/Qm8AAOSw0fhXkk5P/s-l1600.jpg
p42
sg21
Vhttp://i.ebayimg.com/images/g/Qm8AAOSw0fhXkk5P/s-l300.jpg
p43
sa(dp44
g19
Vhttp://i.ebayimg.com/images/g/0mIAAOSwSv1Xkk5R/s-l1600.jpg
p45
sg21
Vhttp://i.ebayimg.com/images/g/0mIAAOSwSv1Xkk5R/s-l300.jpg
p46
sa(dp47
g19
Vhttp://i.ebayimg.com/images/g/~SEAAOSwIgNXkk5S/s-l1600.jpg
p48
sg21
Vhttp://i.ebayimg.com/images/g/~SEAAOSwIgNXkk5S/s-l300.jpg
p49
sa(dp50
g19
Vhttp://i.ebayimg.com/images/g/FwEAAOSwdzVXkk5V/s-l1600.jpg
p51
sg21
Vhttp://i.ebayimg.com/images/g/FwEAAOSwdzVXkk5V/s-l300.jpg
p52
sa(dp53
g19
Vhttp://i.ebayimg.com/images/g/~ZsAAOSwIgNXkk5X/s-l1600.jpg
p54
sg21
Vhttp://i.ebayimg.com/images/g/~ZsAAOSwIgNXkk5X/s-l300.jpg
p55
sasS'shipping_info'
p56
(dp57
S'item_location'
p58
(lp59
V\u000aNew York, New York, United States
p60
asS'delivery'
p61
(lp62
VVaries
p63
asS'posts_to'
p64
(lp65
VWorldwide
p66
assS'id'
p67
S'282109526342'
p68
s.