(dp1
S'title'
p2
V\u000a$5500 14k White Yellow Gold 71ct Natural Solitaire Bril\u000a
p3
sS'url'
p4
Vhttp://www.ioffer.com/i/5500-14k-white-yellow-gold-71ct-natural-solitaire-bril-619721773
p5
sS'price'
p6
V$3,500.00
p7
sS'seller'
p8
(lp9
sS'description_links'
p10
V
sS'images'
p11
(lp12
Vhttp://cdn.iofferphoto.com/img/item/619/721/773/t_mSIX5500-14k-white-yellow-gold-71ct-natural-solitaire-bril.jpg
p13
aVhttp://cdn.iofferphoto.com/img/item/619/721/773/t_S1EP5500-14k-white-yellow-gold-71ct-natural-solitaire-bril.jpg
p14
aVhttp://cdn.iofferphoto.com/img/item/619/721/773/t_ZmSS5500-14k-white-yellow-gold-71ct-natural-solitaire-bril.jpg
p15
aVhttp://cdn.iofferphoto.com/img/item/619/721/773/t_Q6Zf5500-14k-white-yellow-gold-71ct-natural-solitaire-bril.jpg
p16
aVhttp://cdn.iofferphoto.com/img/item/619/721/773/t_rGRf5500-14k-white-yellow-gold-71ct-natural-solitaire-bril.jpg
p17
asS'shipping_info'
p18
(lp19
sS'id'
p20
V619721773_1497033903
p21
s.