(dp1
S'title'
p2
V\u000aPiaget Rose Bracelet in 18k white gold set with diamond\u000a
p3
sS'url'
p4
Vhttp://www.ioffer.com/i/piaget-rose-bracelet-in-18k-white-gold-set-with-diamond-619882797
p5
sS'price'
p6
V$7,000.00
p7
sS'seller'
p8
(lp9
sS'description_links'
p10
VAuthentic Brand new Piaget Rose Bracelet in 18k white gold set with 190 brilliant-cut diamonds (approx.1.32ct). REAL GOLD and DIAMONDS! Serious Buyer Only. Come with package and papers.
p11
sS'images'
p12
(lp13
Vhttp://cdn.iofferphoto.com/img3/item/619/882/797/t_piaget-rose-bracelet-in-18k-white-gold-set-with-diamond-b5e9.jpg
p14
aVhttp://cdn.iofferphoto.com/img3/item/619/882/797/t_piaget-rose-bracelet-in-18k-white-gold-set-with-diamond-5123.jpg
p15
aVhttp://cdn.iofferphoto.com/img3/item/619/882/797/t_piaget-rose-bracelet-in-18k-white-gold-set-with-diamond-af65.jpg
p16
aVhttp://cdn.iofferphoto.com/img3/item/619/882/797/t_piaget-rose-bracelet-in-18k-white-gold-set-with-diamond-7dc4.jpg
p17
asS'shipping_info'
p18
VAvailable ColorsEstimated Shipping5 - 10 Days
p19
sS'id'
p20
V619882797_1497033873
p21
s.