(dp1
S'title'
p2
VGreater White Fronted Goose 
p3
sS'url'
p4
Vhttp://store.yahoo.com/yhst-66562580642243/greater-white-fronted-goose-reference-photo-disc1.html
p5
sS'price'
p6
(lp7
sS'seller'
p8
(lp9
sS'description_links'
p10
VGreater White Fronted Goose Photo Reference Cd
p11
sS'images'
p12
(lp13
Vhttp://ep.yimg.com/ca/I/yhst-66562580642243_2251_121637046
p14
asS'shipping_info'
p15
(lp16
sS'id'
p17
Vgreater-white-fronted-goose-reference-photo-disc1_1497033851
p18
s.