(dp1
S'title'
p2
VBlack and White Spoonwing
p3
sS'url'
p4
Vhttp://www.boneroom.com/store/p167/Black_and_White_Spoonwing.html
p5
sS'price'
p6
V$55.00
p7
sS'seller'
p8
(lp9
sS'description_links'
p10
VNemoptera sinuata12.5 cm x 12.5 cm x 3.5 cm Origin: Eastern Europe*International Restrictions May Apply
p11
sS'images'
p12
(lp13
Vhttp://www.boneroom.com//uploads/4/8/1/1/48118243/s521972503441136676_p167_i2_w640.jpeg
p14
asS'shipping_info'
p15
(lp16
sS'id'
p17
Vp167_1497033938
p18
s.