(dp1
S'title'
p2
VYellow & White Howlite Skull Beads
p3
sS'url'
p4
Vhttp://www.boneroom.com/store/p3041/Yellow_%26_White_Howlite_Skull_Beads.html
p5
sS'price'
p6
V$10.00
p7
sS'seller'
p8
(lp9
sS'description_links'
p10
VPrice is for 17 beads
p11
sS'images'
p12
(lp13
Vhttp://www.boneroom.com//uploads/4/8/1/1/48118243/s521972503441136676_p3041_i1_w640.jpeg
p14
asS'shipping_info'
p15
(lp16
sS'id'
p17
Vp3041_1497033941
p18
s.