(dp1
S'title'
p2
VWhite Tail Deer - E
p3
sS'url'
p4
Vhttp://www.boneroom.com/store/p3120/White_Tail_Deer_-_E.html
p5
sS'price'
p6
V$175.00
p7
sS'seller'
p8
(lp9
sS'description_links'
p10
VWithout mandibleOdocoileus virginianus
p11
sS'images'
p12
(lp13
Vhttp://www.boneroom.com//uploads/4/8/1/1/48118243/s521972503441136676_p3120_i1_w480.jpeg
p14
asS'shipping_info'
p15
(lp16
sS'id'
p17
Vp3120_1497033927
p18
s.