(dp1
S'title'
p2
VWhite Tailed Deer Antler-B
p3
sS'url'
p4
Vhttp://www.boneroom.com/store/p3129/White_Tailed_Deer_Antler-B.html
p5
sS'price'
p6
V$40.00
p7
sS'seller'
p8
(lp9
sS'description_links'
p10
VSingle antlerOdocoileus virginianus
p11
sS'images'
p12
(lp13
Vhttp://www.boneroom.com//uploads/4/8/1/1/48118243/s521972503441136676_p3129_i1_w480.jpeg
p14
asS'shipping_info'
p15
(lp16
sS'id'
p17
Vp3129_1497033916
p18
s.