(dp1
S'title'
p2
VBrown and White Spiral Cone
p3
sS'url'
p4
Vhttp://www.boneroom.com/store/p517/Brown_and_White_Spiral_Cone.html
p5
sS'price'
p6
V$2.00
p7
sS'seller'
p8
(lp9
sS'description_links'
p10
Vapprox 3.5''
p11
sS'images'
p12
(lp13
Vhttp://www.boneroom.com//uploads/4/8/1/1/48118243/s521972503441136676_p517_i1_w640.jpeg
p14
asS'shipping_info'
p15
(lp16
sS'id'
p17
Vp517_1497033936
p18
s.