(dp1
S'title'
p2
VFallow Deer - White
p3
sS'url'
p4
Vhttp://store.yahoo.com/yhst-66562580642243/white-fallow-deer-reference-photo-disc.html
p5
sS'price'
p6
(lp7
sS'seller'
p8
(lp9
sS'description_links'
p10
VWhite Fallow Deer Photo Reference Cd
p11
sS'images'
p12
(lp13
Vhttp://ep.yimg.com/ca/I/yhst-66562580642243_2251_100540021
p14
asS'shipping_info'
p15
(lp16
sS'id'
p17
Vwhite-fallow-deer-reference-photo-disc_1497033856
p18
s.