(dp1
S'title'
p2
V2010 bmw m3 base sedan 4-door
p3
sS'url'
p4
S'http://www.ebay.com/itm/2010-BMW-M3-Base-Sedan-4-Door-/112331999578?hash=item1a2782495a:g:Vz0AAOSwax5YxGgP&vxp=mtr'
p5
sS'price'
p6
VUS $26,111.00
p7
sS'seller'
p8
(dp9
g4
Vhttp://www.ebay.com/usr/chicagoautoplace?_trksid=p2047675.l2559
p10
sS'name'
p11
V chicagoautoplace
p12
ssS'description_links'
p13
(lp14
Vhttp://vi.vipr.ebaydesc.com/ws/eBayISAPI.dll?ViewItemDescV4&item=112331999578&t=0&tid=10&category=6131&seller=chicagoautoplace&excSoj=1&excTrk=1&lsite=100&ittenable=false&domain=ebay.com&descgauge=1
p15
asS'images'
p16
(lp17
(dp18
S'maxImageUrl'
p19
Vhttp://i.ebayimg.com/images/g/Vz0AAOSwax5YxGgP/s-l1600.jpg
p20
sS'displayImgUrl'
p21
Vhttp://i.ebayimg.com/images/g/Vz0AAOSwax5YxGgP/s-l300.jpg
p22
sasS'shipping_info'
p23
(dp24
S'item_location'
p25
(lp26
sS'delivery'
p27
(lp28
sS'posts_to'
p29
(lp30
VLocal pick-up only
p31
assS'id'
p32
S'112331999578'
p33
s.