(dp1
S'title'
p2
Vchristian dior fox cape "one of a kind" retail:$49790 -65%
p3
sS'url'
p4
S'http://www.ebay.com/itm/Christian-Dior-Fox-Cape-One-Of-A-Kind-Retail-49790-65-/122506616229?hash=item1c85f69da5:g:fIQAAOSwDmBY5t8~'
p5
sS'price'
p6
VUS $22,150.00
p7
sS'seller'
p8
(dp9
g4
Vhttp://www.ebay.com/usr/jgiiva8?_trksid=p2047675.l2559
p10
sS'name'
p11
V jgiiva8
p12
ssS'description_links'
p13
(lp14
Vhttp://vi.vipr.ebaydesc.com/ws/eBayISAPI.dll?ViewItemDescV4&item=122506616229&t=0&tid=10&category=63862&seller=jgiiva8&excSoj=1&excTrk=1&lsite=0&ittenable=false&domain=ebay.com&descgauge=1
p15
asS'images'
p16
(lp17
(dp18
S'maxImageUrl'
p19
Vhttp://i.ebayimg.com/images/g/fIQAAOSwDmBY5t8~/s-l1600.jpg
p20
sS'displayImgUrl'
p21
Vhttp://i.ebayimg.com/images/g/fIQAAOSwDmBY5t8~/s-l300.jpg
p22
sa(dp23
g19
Vhttp://i.ebayimg.com/images/g/EyoAAOSwzgBY2-IT/s-l1600.jpg
p24
sg21
Vhttp://i.ebayimg.com/images/g/EyoAAOSwzgBY2-IT/s-l300.jpg
p25
sa(dp26
g19
Vhttp://i.ebayimg.com/images/g/tBoAAOSwXYtY2-IP/s-l1600.jpg
p27
sg21
Vhttp://i.ebayimg.com/images/g/tBoAAOSwXYtY2-IP/s-l300.jpg
p28
sa(dp29
g19
Vhttp://i.ebayimg.com/images/g/tGYAAOSwXYtY2-IR/s-l1600.jpg
p30
sg21
Vhttp://i.ebayimg.com/images/g/tGYAAOSwXYtY2-IR/s-l300.jpg
p31
sa(dp32
g19
Vhttp://i.ebayimg.com/images/g/yBwAAOSwsW9Y2-IX/s-l1600.jpg
p33
sg21
Vhttp://i.ebayimg.com/images/g/yBwAAOSwsW9Y2-IX/s-l300.jpg
p34
sa(dp35
g19
Vhttp://i.ebayimg.com/images/g/-XAAAOSwuxFY2-IZ/s-l1600.jpg
p36
sg21
Vhttp://i.ebayimg.com/images/g/-XAAAOSwuxFY2-IZ/s-l300.jpg
p37
sa(dp38
g19
Vhttp://i.ebayimg.com/images/g/S0AAAOSwZLhY2-IN/s-l1600.jpg
p39
sg21
Vhttp://i.ebayimg.com/images/g/S0AAAOSwZLhY2-IN/s-l300.jpg
p40
sa(dp41
g19
Vhttp://i.ebayimg.com/images/g/yYUAAOSwsW9Y2-If/s-l1600.jpg
p42
sg21
Vhttp://i.ebayimg.com/images/g/yYUAAOSwsW9Y2-If/s-l300.jpg
p43
sa(dp44
g19
Vhttp://i.ebayimg.com/images/g/ng0AAOSw2gxY2-Ih/s-l1600.jpg
p45
sg21
Vhttp://i.ebayimg.com/images/g/ng0AAOSw2gxY2-Ih/s-l300.jpg
p46
sa(dp47
g19
Vhttp://i.ebayimg.com/images/g/DskAAOSwjDZYeijl/s-l1600.jpg
p48
sg21
Vhttp://i.ebayimg.com/images/g/DskAAOSwjDZYeijl/s-l300.jpg
p49
sa(dp50
g19
Vhttp://i.ebayimg.com/images/g/DywAAOSwjDZYeijn/s-l1600.jpg
p51
sg21
Vhttp://i.ebayimg.com/images/g/DywAAOSwjDZYeijn/s-l300.jpg
p52
sa(dp53
g19
Vhttp://i.ebayimg.com/images/g/yCEAAOSwnHZYeijp/s-l1600.jpg
p54
sg21
Vhttp://i.ebayimg.com/images/g/yCEAAOSwnHZYeijp/s-l300.jpg
p55
sasS'shipping_info'
p56
(dp57
S'item_location'
p58
(lp59
V\u000aHallandale, Florida, United States
p60
asS'delivery'
p61
(lp62
VVaries
p63
asS'posts_to'
p64
(lp65
VUnited States
p66
assS'id'
p67
S'122506616229'
p68
s.