(dp1
S'title'
p2
Vdisney black diamond classic vhs the fox & the hound + all orig inserts great! 765362041039
p3
sS'url'
p4
S'http://www.ebay.com/itm/DISNEY-BLACK-DIAMOND-CLASSIC-VHS-THE-FOX-THE-HOUND-ALL-ORIG-INSERTS-GREAT-/182408366256?hash=item2a7862c8b0:g:xpEAAOSwnHZYauH0'
p5
sS'price'
p6
VUS $19,999.99
p7
sS'seller'
p8
(dp9
g4
Vhttp://www.ebay.com/usr/ladikmk?_trksid=p2047675.l2559
p10
sS'name'
p11
V ladikmk
p12
ssS'description_links'
p13
(lp14
Vhttp://vi.vipr.ebaydesc.com/ws/eBayISAPI.dll?ViewItemDescV4&item=182408366256&t=1483404370000&tid=10&category=309&seller=ladikmk&excSoj=1&excTrk=1&lsite=0&ittenable=false&domain=ebay.com&descgauge=1
p15
asS'images'
p16
(lp17
(dp18
S'maxImageUrl'
p19
Vhttp://i.ebayimg.com/images/g/xpEAAOSwnHZYauH0/s-l1600.jpg
p20
sS'displayImgUrl'
p21
Vhttp://i.ebayimg.com/images/g/xpEAAOSwnHZYauH0/s-l300.jpg
p22
sa(dp23
g19
Vhttp://i.ebayimg.com/images/g/p9sAAOSw-0xYauIx/s-l1600.jpg
p24
sg21
Vhttp://i.ebayimg.com/images/g/p9sAAOSw-0xYauIx/s-l300.jpg
p25
sa(dp26
g19
Vhttp://i.ebayimg.com/images/g/yJYAAOSwEzxYauJB/s-l1600.jpg
p27
sg21
Vhttp://i.ebayimg.com/images/g/yJYAAOSwEzxYauJB/s-l300.jpg
p28
sa(dp29
g19
Vhttp://i.ebayimg.com/images/g/BRYAAOSwa~BYauKB/s-l1600.jpg
p30
sg21
Vhttp://i.ebayimg.com/images/g/BRYAAOSwa~BYauKB/s-l300.jpg
p31
sa(dp32
g19
Vhttp://i.ebayimg.com/images/g/e44AAOSwUKxYauKT/s-l1600.jpg
p33
sg21
Vhttp://i.ebayimg.com/images/g/e44AAOSwUKxYauKT/s-l300.jpg
p34
sa(dp35
g19
Vhttp://i.ebayimg.com/images/g/sgIAAOSw-0xYauKk/s-l1600.jpg
p36
sg21
Vhttp://i.ebayimg.com/images/g/sgIAAOSw-0xYauKk/s-l300.jpg
p37
sa(dp38
g19
Vhttp://i.ebayimg.com/images/g/6qEAAOSw5cNYauK8/s-l1600.jpg
p39
sg21
Vhttp://i.ebayimg.com/images/g/6qEAAOSw5cNYauK8/s-l300.jpg
p40
sa(dp41
g19
Vhttp://i.ebayimg.com/images/g/uRcAAOSwnHZYauF0/s-l1600.jpg
p42
sg21
Vhttp://i.ebayimg.com/images/g/uRcAAOSwnHZYauF0/s-l300.jpg
p43
sa(dp44
g19
Vhttp://i.ebayimg.com/images/g/1ioAAOSw9GhYauF4/s-l1600.jpg
p45
sg21
Vhttp://i.ebayimg.com/images/g/1ioAAOSw9GhYauF4/s-l300.jpg
p46
sa(dp47
g19
Vhttp://i.ebayimg.com/images/g/WUQAAOSwUKxYauFK/s-l1600.jpg
p48
sg21
Vhttp://i.ebayimg.com/images/g/WUQAAOSwUKxYauFK/s-l300.jpg
p49
sa(dp50
g19
Vhttp://i.ebayimg.com/images/g/i3cAAOSw44BYauFE/s-l1600.jpg
p51
sg21
Vhttp://i.ebayimg.com/images/g/i3cAAOSw44BYauFE/s-l300.jpg
p52
sasS'shipping_info'
p53
(dp54
S'item_location'
p55
(lp56
V\u000aSunbury, Ohio, United States
p57
asS'delivery'
p58
(lp59
VVaries
p60
asS'posts_to'
p61
(lp62
VUnited States
p63
assS'id'
p64
S'182408366256'
p65
s.