(dp1
S'title'
p2
Vjohn galliano christian dior givenchy mink fox fur coat museum collectors brown
p3
sS'url'
p4
S'http://www.ebay.com/itm/JOHN-GALLIANO-CHRISTIAN-DIOR-GIVENCHY-MINK-FOX-FUR-COAT-MUSEUM-COLLECTORS-BROWN-/192013588516?hash=item2cb4e6d824:g:NgsAAOSwbqpT4GUv'
p5
sS'price'
p6
VUS $14,999.99
p7
sS'seller'
p8
(dp9
g4
Vhttp://www.ebay.com/usr/nmpark1?_trksid=p2047675.l2559
p10
sS'name'
p11
V nmpark1
p12
ssS'description_links'
p13
(lp14
Vhttp://vi.vipr.ebaydesc.com/ws/eBayISAPI.dll?ViewItemDescV4&item=192013588516&t=1407288735000&tid=10&category=63862&seller=nmpark1&excSoj=1&excTrk=1&lsite=0&ittenable=false&domain=ebay.com&descgauge=1
p15
asS'images'
p16
(lp17
(dp18
S'maxImageUrl'
p19
Vhttp://i.ebayimg.com/images/g/NgsAAOSwbqpT4GUv/s-l1600.jpg
p20
sS'displayImgUrl'
p21
Vhttp://i.ebayimg.com/images/g/NgsAAOSwbqpT4GUv/s-l300.jpg
p22
sa(dp23
g19
Vhttp://i.ebayimg.com/images/g/qK0AAOSwd4tT4GUy/s-l1600.jpg
p24
sg21
Vhttp://i.ebayimg.com/images/g/qK0AAOSwd4tT4GUy/s-l300.jpg
p25
sa(dp26
g19
Vhttp://i.ebayimg.com/images/g/p7QAAOSwEK9T4GUz/s-l1600.jpg
p27
sg21
Vhttp://i.ebayimg.com/images/g/p7QAAOSwEK9T4GUz/s-l300.jpg
p28
sa(dp29
g19
Vhttp://i.ebayimg.com/images/g/qKcAAOSwd4tT4GUx/s-l1600.jpg
p30
sg21
Vhttp://i.ebayimg.com/images/g/qKcAAOSwd4tT4GUx/s-l300.jpg
p31
sa(dp32
g19
Vhttp://i.ebayimg.com/images/g/0PEAAOSwDk5T4GUz/s-l1600.jpg
p33
sg21
Vhttp://i.ebayimg.com/images/g/0PEAAOSwDk5T4GUz/s-l300.jpg
p34
sa(dp35
g19
Vhttp://i.ebayimg.com/images/g/sXUAAOSwxH1T4GU1/s-l1600.jpg
p36
sg21
Vhttp://i.ebayimg.com/images/g/sXUAAOSwxH1T4GU1/s-l300.jpg
p37
sa(dp38
g19
Vhttp://i.ebayimg.com/images/g/sXwAAOSwxH1T4GU1/s-l1600.jpg
p39
sg21
Vhttp://i.ebayimg.com/images/g/sXwAAOSwxH1T4GU1/s-l300.jpg
p40
sa(dp41
g19
Vhttp://i.ebayimg.com/images/g/p8UAAOSwEK9T4GU1/s-l1600.jpg
p42
sg21
Vhttp://i.ebayimg.com/images/g/p8UAAOSwEK9T4GU1/s-l300.jpg
p43
sa(dp44
g19
Vhttp://i.ebayimg.com/images/g/qN4AAOSwd4tT4GU4/s-l1600.jpg
p45
sg21
Vhttp://i.ebayimg.com/images/g/qN4AAOSwd4tT4GU4/s-l300.jpg
p46
sa(dp47
g19
Vhttp://i.ebayimg.com/images/g/ncAAAOSwxCxT4GU4/s-l1600.jpg
p48
sg21
Vhttp://i.ebayimg.com/images/g/ncAAAOSwxCxT4GU4/s-l300.jpg
p49
sa(dp50
g19
Vhttp://i.ebayimg.com/images/g/~pMAAOSwGvhT4GU3/s-l1600.jpg
p51
sg21
Vhttp://i.ebayimg.com/images/g/~pMAAOSwGvhT4GU3/s-l300.jpg
p52
sa(dp53
g19
Vhttp://i.ebayimg.com/images/g/nc0AAOSwxCxT4GU6/s-l1600.jpg
p54
sg21
Vhttp://i.ebayimg.com/images/g/nc0AAOSwxCxT4GU6/s-l300.jpg
p55
sasS'shipping_info'
p56
(dp57
S'item_location'
p58
(lp59
V\u000aSnoqualmie, Washington, United States
p60
asS'delivery'
p61
(lp62
VVaries
p63
asS'posts_to'
p64
(lp65
VAmericas, Europe, Asia, Australia
p66
assS'id'
p67
S'192013588516'
p68
s.