(dp1
S'title'
p2
VAntique Pair of Hubley Smooth Fox Terrior Doorstops
p3
sS'url'
p4
Vhttp://www.ecrater.com/p/22054584/antique-pair-of-hubley-smooth-fox?keywords=fox
p5
sS'price'
p6
V$595.00
p7
sS'seller'
p8
Vhttp://stuffest.ecrater.com
p9
sS'description_links'
p10
VVery Cool Pair of Cast Iron Hubley Puppies !Beautiful Smooth Coat Fox Terriors weighing over 7 pounds each and are 8.5" tall at the head.One is slotted as a bank, both are prepared to be great door stops or some other decorative usage.Highly collectable, here is a great opportunity to rescue two at once!They're in great shape with expected wear and patina..
p11
sS'images'
p12
(lp13
Vhttp://s.ecrater.com/stores/301030/54eb934d3306e_301030b.jpg
p14
asS'shipping_info'
p15
(lp16
VOnly 1 available
p17
aVShipping:US-Mainland: $18.00(more destinations)
p18
aVCondition: Used
p19
asS'id'
p20
V22054584
p21
s.