(dp1
S'title'
p2
Vladies Sheared Mink Coat  with Fox fur, mink fur coat ,fox fur coa
p3
sS'url'
p4
Vhttp://www.ecrater.com/p/23201368/ladies-sheared-mink-coat-with-fox?keywords=fox
p5
sS'price'
p6
V$845.00
p7
sS'seller'
p8
Vhttp://rubyleather.ecrater.com
p9
sS'description_links'
p10
VDescription:                        Sheared Mink Coat  with Fox furStyling                                  Mahogany Tone Mink Body  \u2013 Golden Fox wide Shawl Collar \u2013 Golden Fox Cuff \u2013 2 Side Pocket \u2013 Mink Tie BeltMaterial:                        Real Mink and Fox Linning and Accessories:               New Fur Origin:                                        EuropeanManufacturing:                               Sizes:                                   Europen Sizes from (XS \u2013 4XL) Tailoring Spec:             As per Customer\u2019s provided ...................................measurements
p11
sS'images'
p12
(lp13
Vhttp://s.ecrater.com/stores/228241/55d83eb248a90_228241b.jpg
p14
asS'shipping_info'
p15
(lp16
VOnly 1 available
p17
aVShipping:US-Mainland: free(more destinations)
p18
aVCondition: Brand new
p19
asS'id'
p20
V23201368
p21
s.