(dp1
S'title'
p2
VBrown Fox Fur Full Length (#02)
p3
sS'url'
p4
Vhttp://www.ecrater.com/p/23349631/brown-fox-fur-full-length-02?keywords=fox
p5
sS'price'
p6
V$450.00
p7
sS'seller'
p8
Vhttp://used-furs.ecrater.com
p9
sS'description_links'
p10
VFull Length Brown Fox Fur coat.Size:    28 inches .. Center of Collar across the shoulder, to the end of the sleeve.                       (this doubled will give you arm span)    34 inches .. Bust    42 inches .. Waist    50 inches ..  Length  (center of collar seam to hem at back)    52 inches .. Sweep
p11
sS'images'
p12
(lp13
Vhttp://s.ecrater.com/stores/365461/55f988196bc60_365461b.jpg
p14
asS'shipping_info'
p15
(lp16
VOnly 1 available
p17
aVShipping:US-Mainland: $20.00(more destinations)
p18
aVCondition: Used
p19
asS'id'
p20
V23349631
p21
s.