(dp1
S'title'
p2
VFull Length Red Fox Fur Coat (#77)
p3
sS'url'
p4
Vhttp://www.ecrater.com/p/23582962/full-length-red-fox-fur?keywords=fox
p5
sS'price'
p6
V$450.00
p7
sS'seller'
p8
Vhttp://used-furs.ecrater.com
p9
sS'description_links'
p10
VRed Fox Fur Coat.  Has 2 pockets.
p11
sS'images'
p12
(lp13
Vhttp://s.ecrater.com/stores/365461/561ec0efa5ba9_365461b.jpg
p14
asS'shipping_info'
p15
(lp16
VOnly 1 available
p17
aVShipping:US-Mainland: $20.00(more destinations)
p18
aVCondition: Used
p19
asS'id'
p20
V23582962
p21
s.