(dp1
S'title'
p2
VFox FOXSCT02B Stealth, "Make An Offer"- All Offers Considered!
p3
sS'url'
p4
Vhttp://www.ecrater.com/p/25479434/fox-foxsct02b-stealth-make-an-offer-all?keywords=fox
p5
sS'price'
p6
V$589.95
p7
sS'seller'
p8
Vhttp://cvoptics.ecrater.com
p9
sS'description_links'
p10
VYou are purchasing a brand new factory sealed  Fox FOXSCT02B Stealth . Be a Warrior!- Buy NOW!! Save NOW!! GET IT HERE FIRST! FAST RELIABLE SHIPPING TO YOUR DESTINATION!10 3/4" overall. 5 1/2" partially serrated blade. The blade is manufactured using an inner core blank of BETA Titanium with external layers of carbon fiber that are bonded together using special resins in a vacuum process. The end result is a blade that is very flexible with minimal vibration. The Titanium and Carbon Fiber are completely non-magnetic and rust resistant and are ideal components for EOD and diving purposes. Black Forprene handles. Molded black Kydex M.O.L.L.E. compatible sheath.We are an authorized distributor for all brands listed and each purchase is backed by a full manufacturers warranty.Please note pics and descriptions are from the manufacturer.Delivery in the U.S. will take between 4 to 6 business days. Shipping is FREE within the United States via UPS. Most orders ship within 3 to 4 business days of purchase with tracking. We accept Paypal and all major credit cards via a merchant account. Items will only be shipped to confirmed Paypal addresses. NO EXCEPTIONS! Email us for any additional info or special order requests.Customer Service 1-(315)941-3429Monday-Friday 9am to 6pm eastern time
p11
sS'images'
p12
(lp13
Vhttp://s.ecrater.com/stores/95210/5802dfa8a6917_95210b.jpg
p14
asS'shipping_info'
p15
(lp16
V5 available
p17
aVShipping:US-Mainland: free(more destinations)
p18
aVCondition: Brand new
p19
asS'id'
p20
V25479434
p21
s.