(dp1
S'title'
p2
VMichael J Fox Signed Spalding NBA Indoor/Outdoor Basketball
p3
sS'url'
p4
Vhttp://www.ecrater.com/p/27246563/michael-j-fox-signed-spalding-nba?keywords=fox
p5
sS'price'
p6
V$489.00
p7
sS'seller'
p8
Vhttp://powersautographs4.ecrater.com
p9
sS'description_links'
p10
VMichael J. Fox signed Spalding NBA indoor/outdoor basketball.  In the movie Teen Wolf, Michael J. Fox played a star basketball player.  Item comes with a JSA (James Spence Authentication) tamper evident numbered sticker and matching Certificate of Authenticity which can be verified online.
p11
sS'images'
p12
(lp13
Vhttp://s.ecrater.com/stores/406576/59212876e7d8b_406576b.jpg
p14
asS'shipping_info'
p15
(lp16
V2 available
p17
aVShipping:US-Mainland: free(more destinations)
p18
aVSales Tax: Missouri: 7.85%
p19
aVCondition: Brand new
p20
asS'id'
p21
V27246563
p22
s.