(dp1
S'title'
p2
VAfrican Cape Fox  Skull
p3
sS'url'
p4
Vhttp://www.skullsunlimited.com/record_variant.php?id=2890
p5
sS'price'
p6
V$76.00
p7
sS'seller'
p8
(lp9
sS'description_links'
p10
VCape Fox Skull - The African Cape fox is native to the arid savannas and semi-desert scrub of sub-Saharan Africa. This nocturnal species is primarily solitary but sometimes den communally. The cape fox will cache food to eat later. Their diet consists of small vertebrates, insects and carrion.
p11
sS'images'
p12
(lp13
Vhttp://www.skullsunlimited.com/userfiles/image/variants_2890.jpg
p14
asS'shipping_info'
p15
(lp16
sS'id'
p17
V2890_1497062533
p18
s.