(dp1
S'title'
p2
V1995 muller martini 321 fox 6 pocket saddle stitcher with apollo stacker
p3
sS'url'
p4
S'http://www.ebay.com/itm/1995-Muller-Martini-321-Fox-6-Pocket-Saddle-Stitcher-with-Apollo-Stacker-/292129802900?hash=item44044b0a94:g:L9gAAOSwKytZJ0~g'
p5
sS'price'
p6
VUS $19,500.00
p7
sS'seller'
p8
(dp9
g4
Vhttp://www.ebay.com/usr/btunink1986?_trksid=p2047675.l2559
p10
sS'name'
p11
V btunink1986
p12
ssS'description_links'
p13
(lp14
Vhttp://vi.vipr.ebaydesc.com/ws/eBayISAPI.dll?ViewItemDescV4&item=292129802900&t=0&tid=10&category=26243&seller=btunink1986&excSoj=1&excTrk=1&lsite=0&ittenable=false&domain=ebay.com&descgauge=1
p15
asS'images'
p16
(lp17
(dp18
S'maxImageUrl'
p19
Vhttp://i.ebayimg.com/images/g/L9gAAOSwKytZJ0~g/s-l1600.jpg
p20
sS'displayImgUrl'
p21
Vhttp://i.ebayimg.com/images/g/L9gAAOSwKytZJ0~g/s-l300.jpg
p22
sa(dp23
g19
Vhttp://i.ebayimg.com/images/g/hn0AAOSww5hZJ0~g/s-l1600.jpg
p24
sg21
Vhttp://i.ebayimg.com/images/g/hn0AAOSww5hZJ0~g/s-l300.jpg
p25
sa(dp26
g19
Vhttp://i.ebayimg.com/images/g/RiYAAOSwlY1ZJ0~g/s-l1600.jpg
p27
sg21
Vhttp://i.ebayimg.com/images/g/RiYAAOSwlY1ZJ0~g/s-l300.jpg
p28
sa(dp29
g19
Vhttp://i.ebayimg.com/images/g/4zYAAOSwJH1ZJ0~g/s-l1600.jpg
p30
sg21
Vhttp://i.ebayimg.com/images/g/4zYAAOSwJH1ZJ0~g/s-l300.jpg
p31
sa(dp32
g19
Vhttp://i.ebayimg.com/images/g/HuUAAOSwYlRZJ0~g/s-l1600.jpg
p33
sg21
Vhttp://i.ebayimg.com/images/g/HuUAAOSwYlRZJ0~g/s-l300.jpg
p34
sa(dp35
g19
Vhttp://i.ebayimg.com/images/g/IUgAAOSwIaFZJ0~h/s-l1600.jpg
p36
sg21
Vhttp://i.ebayimg.com/images/g/IUgAAOSwIaFZJ0~h/s-l300.jpg
p37
sa(dp38
g19
Vhttp://i.ebayimg.com/images/g/ZDsAAOSw1WJZJ1Eb/s-l1600.jpg
p39
sg21
Vhttp://i.ebayimg.com/images/g/ZDsAAOSw1WJZJ1Eb/s-l300.jpg
p40
sasS'shipping_info'
p41
(dp42
S'item_location'
p43
(lp44
V\u000aLancaster, Pennsylvania, United States
p45
asS'delivery'
p46
(lp47
VVaries
p48
asS'posts_to'
p49
(lp50
VLocal pick-up only
p51
assS'id'
p52
S'292129802900'
p53
s.