(dp1
S'title'
p2
Voriginal oil painting of fox by listed artist bruno lilgefors dated 1903 18&#034;x 29
p3
sS'url'
p4
S'http://www.ebay.com/itm/ORIGINAL-OIL-PAINTING-OF-FOX-BY-LISTED-ARTIST-BRUNO-LILGEFORS-DATED-1903-18-x-29-/391733707554?hash=item5b35260322:g:r3MAAOSw4YdYzrbO'
p5
sS'price'
p6
VUS $29,990.00
p7
sS'seller'
p8
(dp9
g4
Vhttp://www.ebay.com/usr/banner61?_trksid=p2047675.l2559
p10
sS'name'
p11
V banner61
p12
ssS'description_links'
p13
(lp14
Vhttp://vi.vipr.ebaydesc.com/ws/eBayISAPI.dll?ViewItemDescV4&item=391733707554&t=1496091782000&tid=10&category=551&seller=banner61&excSoj=1&excTrk=1&lsite=0&ittenable=false&domain=ebay.com&descgauge=1
p15
asS'images'
p16
(lp17
(dp18
S'maxImageUrl'
p19
Vhttp://i.ebayimg.com/images/g/r3MAAOSw4YdYzrbO/s-l1600.jpg
p20
sS'displayImgUrl'
p21
Vhttp://i.ebayimg.com/images/g/r3MAAOSw4YdYzrbO/s-l300.jpg
p22
sa(dp23
g19
Vhttp://i.ebayimg.com/images/g/AKoAAOSwYXVYzrbc/s-l1600.jpg
p24
sg21
Vhttp://i.ebayimg.com/images/g/AKoAAOSwYXVYzrbc/s-l300.jpg
p25
sa(dp26
g19
Vhttp://i.ebayimg.com/images/g/s38AAOSw4YdYzrbt/s-l1600.jpg
p27
sg21
Vhttp://i.ebayimg.com/images/g/s38AAOSw4YdYzrbt/s-l300.jpg
p28
sa(dp29
g19
Vhttp://i.ebayimg.com/images/g/ARYAAOSwWxNYzrcK/s-l1600.jpg
p30
sg21
Vhttp://i.ebayimg.com/images/g/ARYAAOSwWxNYzrcK/s-l300.jpg
p31
sa(dp32
g19
Vhttp://i.ebayimg.com/images/g/BAUAAOSwWxNYzrca/s-l1600.jpg
p33
sg21
Vhttp://i.ebayimg.com/images/g/BAUAAOSwWxNYzrca/s-l300.jpg
p34
sa(dp35
g19
Vhttp://i.ebayimg.com/images/g/F4cAAOSw32lYzrck/s-l1600.jpg
p36
sg21
Vhttp://i.ebayimg.com/images/g/F4cAAOSw32lYzrck/s-l300.jpg
p37
sa(dp38
g19
Vhttp://i.ebayimg.com/images/g/bOgAAOSwhQhYzrzK/s-l1600.jpg
p39
sg21
Vhttp://i.ebayimg.com/images/g/bOgAAOSwhQhYzrzK/s-l300.jpg
p40
sa(dp41
g19
Vhttp://i.ebayimg.com/images/g/zhgAAOSw2gxYzrzb/s-l1600.jpg
p42
sg21
Vhttp://i.ebayimg.com/images/g/zhgAAOSw2gxYzrzb/s-l300.jpg
p43
sa(dp44
g19
Vhttp://i.ebayimg.com/images/g/wWsAAOSwCU1Yzrzo/s-l1600.jpg
p45
sg21
Vhttp://i.ebayimg.com/images/g/wWsAAOSwCU1Yzrzo/s-l300.jpg
p46
sa(dp47
g19
Vhttp://i.ebayimg.com/images/g/CT0AAOSw4A5Yzr9f/s-l1600.jpg
p48
sg21
Vhttp://i.ebayimg.com/images/g/CT0AAOSw4A5Yzr9f/s-l300.jpg
p49
sa(dp50
g19
Vhttp://i.ebayimg.com/images/g/MfkAAOSwXYtYzr9N/s-l1600.jpg
p51
sg21
Vhttp://i.ebayimg.com/images/g/MfkAAOSwXYtYzr9N/s-l300.jpg
p52
sa(dp53
g19
Vhttp://i.ebayimg.com/images/g/LegAAOSwOgdYzr8y/s-l1600.jpg
p54
sg21
Vhttp://i.ebayimg.com/images/g/LegAAOSwOgdYzr8y/s-l300.jpg
p55
sasS'shipping_info'
p56
(dp57
S'item_location'
p58
(lp59
V\u000aTemecula, California, United States
p60
asS'delivery'
p61
(lp62
VVaries
p63
asS'posts_to'
p64
(lp65
VWorldwide
p66
assS'id'
p67
S'391733707554'
p68
s.