(dp1
S'title'
p2
V\u000aGenuine Women's Silver Fox Fur Coats Fox Fur Jacket H75\u000a
p3
sS'url'
p4
Vhttp://www.ioffer.com/i/genuine-women-s-silver-fox-fur-coats-fox-fur-jacket-h75-502727770
p5
sS'price'
p6
V$2,115.00
p7
sS'seller'
p8
(lp9
sS'description_links'
p10
VNet imports of silver fox clothes the entire leather production in Finland. Awesome upper body is definitely the focus, temperament is outstanding, wild and stylish. Fox plump soft, quality very good oh! Fox is the natural color due to production, every color of the fox is not exactly the same, so perhaps a little color.  Origin from Fox's top category, all collected from customers for raw materials, 100% natural colors not stained People love the feel and color! Not the general category the fox Cross fighting technology products The charm of its own needs a discerning eye color found. Import prices soared this year, 50% of the fox, the price is really value the  Size Description: Fur has a certain thickness, and relatively soft, tile size for reference only,  If you are unsure choose the size you can consult our professional customer service staff will give you the size recommended, thank you  S / M / L / XL  Tile Size in detail as follows:  S code - Bust 83, Shoulder 38, Length 62, Sleeve Length 46 cm  Code M - Bust 88, Shoulder 39, Length 62, Sleeve Length 46 cm  Code L - Bust 93, Shoulder 40, Length 64, Sleeve Length 47 cm  XL Size - Bust 98, Shoulder 40 Length 65, Sleeve Length 48 cm  (Note: In order to avoid affecting the clothing effect, length dimension, are measuring the length of the external hair, not lining the length of the measurement)
p11
sS'images'
p12
(lp13
Vhttp://cdn.iofferphoto.com/img3/item/502/727/770/t_genuine-women-s-silver-fox-fur-coats-fox-fur-jacket-h75-ec63.jpg
p14
aVhttp://cdn.iofferphoto.com/img3/item/502/727/770/t_genuine-women-s-silver-fox-fur-coats-fox-fur-jacket-h75-5234.jpg
p15
aVhttp://cdn.iofferphoto.com/img3/item/502/727/770/t_genuine-women-s-silver-fox-fur-coats-fox-fur-jacket-h75-59f0.jpg
p16
aVhttp://cdn.iofferphoto.com/img3/item/502/727/770/t_genuine-women-s-silver-fox-fur-coats-fox-fur-jacket-h75-cdce.jpg
p17
aVhttp://cdn.iofferphoto.com/img3/item/502/727/770/t_genuine-women-s-silver-fox-fur-coats-fox-fur-jacket-h75-6f8d.jpg
p18
aVhttp://cdn.iofferphoto.com/img3/item/502/727/770/t_genuine-women-s-silver-fox-fur-coats-fox-fur-jacket-h75-a4bf.jpg
p19
aVhttp://cdn.iofferphoto.com/img3/item/502/727/770/t_genuine-women-s-silver-fox-fur-coats-fox-fur-jacket-h75-0c6d.jpg
p20
aVhttp://cdn.iofferphoto.com/img3/item/502/727/770/t_genuine-women-s-silver-fox-fur-coats-fox-fur-jacket-h75-f423.jpg
p21
aVhttp://cdn.iofferphoto.com/img3/item/502/727/770/t_genuine-women-s-silver-fox-fur-coats-fox-fur-jacket-h75-79a2.jpg
p22
aVhttp://cdn.iofferphoto.com/img3/item/502/727/770/t_genuine-women-s-silver-fox-fur-coats-fox-fur-jacket-h75-ee8e.jpg
p23
aVhttp://cdn.iofferphoto.com/img3/item/502/727/770/t_genuine-women-s-silver-fox-fur-coats-fox-fur-jacket-h75-582a.jpg
p24
aVhttp://cdn.iofferphoto.com/img3/item/502/727/770/t_genuine-women-s-silver-fox-fur-coats-fox-fur-jacket-h75-8f0f.jpg
p25
aVhttp://cdn.iofferphoto.com/img3/item/502/727/770/t_genuine-women-s-silver-fox-fur-coats-fox-fur-jacket-h75-24e7.jpg
p26
aVhttp://cdn.iofferphoto.com/img3/item/502/727/770/t_genuine-women-s-silver-fox-fur-coats-fox-fur-jacket-h75-491e.jpg
p27
aVhttp://cdn.iofferphoto.com/img3/item/502/727/770/t_genuine-women-s-silver-fox-fur-coats-fox-fur-jacket-h75-6821.jpg
p28
aVhttp://cdn.iofferphoto.com/img3/item/502/727/770/t_genuine-women-s-silver-fox-fur-coats-fox-fur-jacket-h75-1164.jpg
p29
aVhttp://cdn.iofferphoto.com/img3/item/502/727/770/t_genuine-women-s-silver-fox-fur-coats-fox-fur-jacket-h75-6190.jpg
p30
asS'shipping_info'
p31
(lp32
sS'id'
p33
V502727770_1497063179
p34
s.