(dp1
S'title'
p2
V\u000aGenuine Women's White Fox Fur Vests Fox Fur Vests H78\u000a
p3
sS'url'
p4
Vhttp://www.ioffer.com/i/genuine-women-s-white-fox-fur-vests-fox-fur-vests-h78-502729874
p5
sS'price'
p6
V$2,815.00
p7
sS'seller'
p8
(lp9
sS'description_links'
p10
VNet imports of clothes, the whole fox skin production, not the kind of leather inlay of Oh, Awesome upper body is definitely the focus, temperament is outstanding, wild and stylish. Fox plump soft, quality very good oh! Fox is the natural color due to production, every color of the fox is not exactly the same, so perhaps a little color. The import of this beautiful white fox Pima a whole, not very loud white kind of drift Oh, very natural colors, like the kind of bare white in fashion this year, the entire skin of a pure, small vest style, Awesome upper body, definitely the focus, temperament is outstanding, wild and stylish. Fox plump soft, quality very good oh! Beauty on film like it, no Choudao process, no stitching! Golden Island Fox has a natural sense of mystery with its unique golden hairs soft abundant hair staggered out of the gas is very modern unique Lingren Gui beautiful. Origin from Fox's top category, all collected from customers for raw materials, 100% natural colors not stained People love the feel and color! Not the general category the fox Cross fighting technology products The charm of its own needs a discerning eye color found.  Size Description: Fur has a certain thickness, and relatively soft, tile size for reference only,  If you are unsure choose the size you can consult our professional customer service staff will give you the size recommended, thank you  S / M / L / XL  Tile Size in detail as follows:  S code - Bust 83, Shoulder 37 Length 75,  Code M - Bust 88, Shoulder 38, Length 76,  Code L - Bust 93, Shoulder 39, Length 76,  XL code --- Bust 98, Shoulder 40 Length 77,
p11
sS'images'
p12
(lp13
Vhttp://cdn.iofferphoto.com/img3/item/502/729/874/t_genuine-women-s-white-fox-fur-vests-fox-fur-vests-h78-81d3.jpg
p14
aVhttp://cdn.iofferphoto.com/img3/item/502/729/874/t_genuine-women-s-white-fox-fur-vests-fox-fur-vests-h78-4186.jpg
p15
aVhttp://cdn.iofferphoto.com/img3/item/502/729/874/t_genuine-women-s-white-fox-fur-vests-fox-fur-vests-h78-1ec5.jpg
p16
aVhttp://cdn.iofferphoto.com/img3/item/502/729/874/t_genuine-women-s-white-fox-fur-vests-fox-fur-vests-h78-7c24.jpg
p17
aVhttp://cdn.iofferphoto.com/img3/item/502/729/874/t_genuine-women-s-white-fox-fur-vests-fox-fur-vests-h78-da9a.jpg
p18
aVhttp://cdn.iofferphoto.com/img3/item/502/729/874/t_genuine-women-s-white-fox-fur-vests-fox-fur-vests-h78-4158.jpg
p19
aVhttp://cdn.iofferphoto.com/img3/item/502/729/874/t_genuine-women-s-white-fox-fur-vests-fox-fur-vests-h78-34df.jpg
p20
aVhttp://cdn.iofferphoto.com/img3/item/502/729/874/t_genuine-women-s-white-fox-fur-vests-fox-fur-vests-h78-ad6f.jpg
p21
aVhttp://cdn.iofferphoto.com/img3/item/502/729/874/t_genuine-women-s-white-fox-fur-vests-fox-fur-vests-h78-6d0d.jpg
p22
aVhttp://cdn.iofferphoto.com/img3/item/502/729/874/t_genuine-women-s-white-fox-fur-vests-fox-fur-vests-h78-6317.jpg
p23
aVhttp://cdn.iofferphoto.com/img3/item/502/729/874/t_genuine-women-s-white-fox-fur-vests-fox-fur-vests-h78-13cb.jpg
p24
aVhttp://cdn.iofferphoto.com/img3/item/502/729/874/t_genuine-women-s-white-fox-fur-vests-fox-fur-vests-h78-4862.jpg
p25
aVhttp://cdn.iofferphoto.com/img3/item/502/729/874/t_genuine-women-s-white-fox-fur-vests-fox-fur-vests-h78-a1e4.jpg
p26
aVhttp://cdn.iofferphoto.com/img3/item/502/729/874/t_genuine-women-s-white-fox-fur-vests-fox-fur-vests-h78-b555.jpg
p27
aVhttp://cdn.iofferphoto.com/img3/item/502/729/874/t_genuine-women-s-white-fox-fur-vests-fox-fur-vests-h78-c2ac.jpg
p28
asS'shipping_info'
p29
(lp30
sS'id'
p31
V502729874_1497063146
p32
s.