(dp1
S'title'
p2
V\u000aGenuine Women's Fox Fur Coat Fox Coat Black H83\u000a
p3
sS'url'
p4
Vhttp://www.ioffer.com/i/genuine-women-s-fox-fur-coat-fox-coat-black-h83-502733486
p5
sS'price'
p6
V$3,215.00
p7
sS'seller'
p8
(lp9
sS'description_links'
p10
VVery beautiful long coat fox imports, This section uses Choudao craft clothes, set the first layer of lamb whole fox fur thong, out of a perfect pattern Awesome upper body is definitely the focus, temperament is outstanding, wild and stylish. Fox plump soft, quality very good oh! Recently due to rising prices fox, fox, especially high-quality sheets, with little more expensive! But we always maintain the quality! Fur has a certain thickness, and relatively soft, tile size for reference only,  If you are unsure choose the size you can consult our professional customer service staff will give you the size recommended, thank you  S / M / L  Tile Size in detail as follows:  S code - Bust 88, Shoulder 37 Length 78, Sleeve 48,  Code M - Bust 93, Shoulder 38, Length 80, Sleeve 50,  Code L - Bust 98, Shoulder 39, Length 80, Sleeve 50,  (Note: In order to avoid affecting the clothing effect, length dimension, are measuring the length of the external hair, not lining the length of the measurement)
p11
sS'images'
p12
(lp13
Vhttp://cdn.iofferphoto.com/img3/item/502/733/486/t_genuine-women-s-fox-fur-coat-fox-coat-black-h83-7bcd.jpg
p14
aVhttp://cdn.iofferphoto.com/img3/item/502/733/486/t_genuine-women-s-fox-fur-coat-fox-coat-black-h83-7e0e.jpg
p15
aVhttp://cdn.iofferphoto.com/img3/item/502/733/486/t_genuine-women-s-fox-fur-coat-fox-coat-black-h83-e36f.jpg
p16
aVhttp://cdn.iofferphoto.com/img3/item/502/733/486/t_genuine-women-s-fox-fur-coat-fox-coat-black-h83-c7d1.jpg
p17
aVhttp://cdn.iofferphoto.com/img3/item/502/733/486/t_genuine-women-s-fox-fur-coat-fox-coat-black-h83-174f.jpg
p18
aVhttp://cdn.iofferphoto.com/img3/item/502/733/486/t_genuine-women-s-fox-fur-coat-fox-coat-black-h83-82b7.jpg
p19
aVhttp://cdn.iofferphoto.com/img3/item/502/733/486/t_genuine-women-s-fox-fur-coat-fox-coat-black-h83-51ec.jpg
p20
aVhttp://cdn.iofferphoto.com/img3/item/502/733/486/t_genuine-women-s-fox-fur-coat-fox-coat-black-h83-d7f5.jpg
p21
aVhttp://cdn.iofferphoto.com/img3/item/502/733/486/t_genuine-women-s-fox-fur-coat-fox-coat-black-h83-7fbf.jpg
p22
aVhttp://cdn.iofferphoto.com/img3/item/502/733/486/t_genuine-women-s-fox-fur-coat-fox-coat-black-h83-2835.jpg
p23
aVhttp://cdn.iofferphoto.com/img3/item/502/733/486/t_genuine-women-s-fox-fur-coat-fox-coat-black-h83-1563.jpg
p24
aVhttp://cdn.iofferphoto.com/img3/item/502/733/486/t_genuine-women-s-fox-fur-coat-fox-coat-black-h83-434f.jpg
p25
aVhttp://cdn.iofferphoto.com/img3/item/502/733/486/t_genuine-women-s-fox-fur-coat-fox-coat-black-h83-5399.jpg
p26
aVhttp://cdn.iofferphoto.com/img3/item/502/733/486/t_genuine-women-s-fox-fur-coat-fox-coat-black-h83-6e2b.jpg
p27
asS'shipping_info'
p28
(lp29
sS'id'
p30
V502733486_1497063118
p31
s.