(dp1
S'title'
p2
V\u000aGenuine Women's Silver Fox Fur Vests Fox Fur Vests H77\u000a
p3
sS'url'
p4
Vhttp://www.ioffer.com/i/genuine-women-s-silver-fox-fur-vests-fox-fur-vests-h77-502729354
p5
sS'price'
p6
V$2,365.00
p7
sS'seller'
p8
(lp9
sS'description_links'
p10
VKind shown in the new! In-kind shooting ~!  Import the whole silver fox skin leather production, large lapels, a grade, without leather or fur of articles, fur and feel good, upper body is very beautiful and noble, shall vest with the highly, not to mention warm , a very thick plush ~! Can be customized ~!  \u3010Material\u3011: Import fox  Color: Figure true colors  [Size]; length 60 cm  (Buyer can choose to provide their own size, shoot numbers before you ask whether the goods dispensers)
p11
sS'images'
p12
(lp13
Vhttp://cdn.iofferphoto.com/img3/item/502/729/354/t_genuine-women-s-silver-fox-fur-vests-fox-fur-vests-h77-f730.jpg
p14
aVhttp://cdn.iofferphoto.com/img3/item/502/729/354/t_genuine-women-s-silver-fox-fur-vests-fox-fur-vests-h77-0178.jpg
p15
aVhttp://cdn.iofferphoto.com/img3/item/502/729/354/t_genuine-women-s-silver-fox-fur-vests-fox-fur-vests-h77-8fb2.jpg
p16
aVhttp://cdn.iofferphoto.com/img3/item/502/729/354/t_genuine-women-s-silver-fox-fur-vests-fox-fur-vests-h77-9f8a.jpg
p17
aVhttp://cdn.iofferphoto.com/img3/item/502/729/354/t_genuine-women-s-silver-fox-fur-vests-fox-fur-vests-h77-4ee5.jpg
p18
asS'shipping_info'
p19
(lp20
sS'id'
p21
V502729354_1497063158
p22
s.