(dp1
S'title'
p2
V\u000aGenuine Women's Fox Fur Coat Fox Coat Black H81\u000a
p3
sS'url'
p4
Vhttp://www.ioffer.com/i/genuine-women-s-fox-fur-coat-fox-coat-black-h81-502732034
p5
sS'price'
p6
V$2,815.00
p7
sS'seller'
p8
(lp9
sS'description_links'
p10
VNet imports of the whole fox skin clothing production, not the kind of leather inlay of Oh, Awesome upper body is definitely the focus, temperament is outstanding, wild and stylish. Fox plump soft, quality very good oh! Part 4 sleeve V-inlay of flowers, like the beauty on film it,  Origin from Fox's top category, all collected from customers for raw materials, People love the feel and color! Not the general category the fox Cross fighting technology products The charm of its own needs a discerning eye color found. Import prices soared this year, 50% of the fox, the price is really value the Fur has a certain thickness, and relatively soft, tile size for reference only,  If you are unsure choose the size you can consult our professional customer service staff will give you the size recommended, thank you  S / M / L / XL  Detailed tile sizes are as follows (imported black jacket):  S code - Bust 88, Shoulder 37 Length 58, Sleeve 52,  Code M - Bust 93, Shoulder 38, Length 60, Sleeve 52,  Code L - Bust 98, Shoulder 39, Length 60, Sleeve 52,
p11
sS'images'
p12
(lp13
Vhttp://cdn.iofferphoto.com/img3/item/502/732/034/t_genuine-women-s-fox-fur-coat-fox-coat-black-h81-b42d.jpg
p14
aVhttp://cdn.iofferphoto.com/img3/item/502/732/034/t_genuine-women-s-fox-fur-coat-fox-coat-black-h81-595d.jpg
p15
aVhttp://cdn.iofferphoto.com/img3/item/502/732/034/t_genuine-women-s-fox-fur-coat-fox-coat-black-h81-36be.jpg
p16
aVhttp://cdn.iofferphoto.com/img3/item/502/732/034/t_genuine-women-s-fox-fur-coat-fox-coat-black-h81-232d.jpg
p17
aVhttp://cdn.iofferphoto.com/img3/item/502/732/034/t_genuine-women-s-fox-fur-coat-fox-coat-black-h81-c9fa.jpg
p18
aVhttp://cdn.iofferphoto.com/img3/item/502/732/034/t_genuine-women-s-fox-fur-coat-fox-coat-black-h81-0338.jpg
p19
aVhttp://cdn.iofferphoto.com/img3/item/502/732/034/t_genuine-women-s-fox-fur-coat-fox-coat-black-h81-bb5c.jpg
p20
aVhttp://cdn.iofferphoto.com/img3/item/502/732/034/t_genuine-women-s-fox-fur-coat-fox-coat-black-h81-8a46.jpg
p21
aVhttp://cdn.iofferphoto.com/img3/item/502/732/034/t_genuine-women-s-fox-fur-coat-fox-coat-black-h81-dc35.jpg
p22
aVhttp://cdn.iofferphoto.com/img3/item/502/732/034/t_genuine-women-s-fox-fur-coat-fox-coat-black-h81-15cf.jpg
p23
aVhttp://cdn.iofferphoto.com/img3/item/502/732/034/t_genuine-women-s-fox-fur-coat-fox-coat-black-h81-4f14.jpg
p24
aVhttp://cdn.iofferphoto.com/img3/item/502/732/034/t_genuine-women-s-fox-fur-coat-fox-coat-black-h81-28c9.jpg
p25
aVhttp://cdn.iofferphoto.com/img3/item/502/732/034/t_genuine-women-s-fox-fur-coat-fox-coat-black-h81-42cf.jpg
p26
aVhttp://cdn.iofferphoto.com/img3/item/502/732/034/t_genuine-women-s-fox-fur-coat-fox-coat-black-h81-5e97.jpg
p27
aVhttp://cdn.iofferphoto.com/img3/item/502/732/034/t_genuine-women-s-fox-fur-coat-fox-coat-black-h81-0f9b.jpg
p28
aVhttp://cdn.iofferphoto.com/img3/item/502/732/034/t_genuine-women-s-fox-fur-coat-fox-coat-black-h81-effd.jpg
p29
aVhttp://cdn.iofferphoto.com/img3/item/502/732/034/t_genuine-women-s-fox-fur-coat-fox-coat-black-h81-1cd2.jpg
p30
aVhttp://cdn.iofferphoto.com/img3/item/502/732/034/t_genuine-women-s-fox-fur-coat-fox-coat-black-h81-84ca.jpg
p31
aVhttp://cdn.iofferphoto.com/img3/item/502/732/034/t_genuine-women-s-fox-fur-coat-fox-coat-black-h81-968f.jpg
p32
aVhttp://cdn.iofferphoto.com/img3/item/502/732/034/t_genuine-women-s-fox-fur-coat-fox-coat-black-h81-397d.jpg
p33
aVhttp://cdn.iofferphoto.com/img3/item/502/732/034/t_genuine-women-s-fox-fur-coat-fox-coat-black-h81-6c92.jpg
p34
aVhttp://cdn.iofferphoto.com/img3/item/502/732/034/t_genuine-women-s-fox-fur-coat-fox-coat-black-h81-72bd.jpg
p35
aVhttp://cdn.iofferphoto.com/img3/item/502/732/034/t_genuine-women-s-fox-fur-coat-fox-coat-black-h81-7fb7.jpg
p36
aVhttp://cdn.iofferphoto.com/img3/item/502/732/034/t_genuine-women-s-fox-fur-coat-fox-coat-black-h81-ebdb.jpg
p37
aVhttp://cdn.iofferphoto.com/img3/item/502/732/034/t_genuine-women-s-fox-fur-coat-fox-coat-black-h81-0a29.jpg
p38
aVhttp://cdn.iofferphoto.com/img3/item/502/732/034/t_genuine-women-s-fox-fur-coat-fox-coat-black-h81-ef4c.jpg
p39
aVhttp://cdn.iofferphoto.com/img3/item/502/732/034/t_genuine-women-s-fox-fur-coat-fox-coat-black-h81-7ec0.jpg
p40
aVhttp://cdn.iofferphoto.com/img3/item/502/732/034/t_genuine-women-s-fox-fur-coat-fox-coat-black-h81-5c6f.jpg
p41
aVhttp://cdn.iofferphoto.com/img3/item/502/732/034/t_genuine-women-s-fox-fur-coat-fox-coat-black-h81-9e56.jpg
p42
aVhttp://cdn.iofferphoto.com/img3/item/502/732/034/t_genuine-women-s-fox-fur-coat-fox-coat-black-h81-1572.jpg
p43
aVhttp://cdn.iofferphoto.com/img3/item/502/732/034/t_genuine-women-s-fox-fur-coat-fox-coat-black-h81-4b3e.jpg
p44
aVhttp://cdn.iofferphoto.com/img3/item/502/732/034/t_genuine-women-s-fox-fur-coat-fox-coat-black-h81-8cfa.jpg
p45
aVhttp://cdn.iofferphoto.com/img3/item/502/732/034/t_genuine-women-s-fox-fur-coat-fox-coat-black-h81-4d11.jpg
p46
aVhttp://cdn.iofferphoto.com/img3/item/502/732/034/t_genuine-women-s-fox-fur-coat-fox-coat-black-h81-e940.jpg
p47
aVhttp://cdn.iofferphoto.com/img3/item/502/732/034/t_genuine-women-s-fox-fur-coat-fox-coat-black-h81-c999.jpg
p48
asS'shipping_info'
p49
(lp50
sS'id'
p51
V502732034_1497063150
p52
s.