(dp1
S'title'
p2
V\u000aWomen's Red Fox Fur & Sheepskin Coats Jackets SE150\u000a
p3
sS'url'
p4
Vhttp://www.ioffer.com/i/women-s-red-fox-fur-sheepskin-coats-jackets-se150-535355284
p5
sS'price'
p6
V$2,295.00
p7
sS'seller'
p8
(lp9
sS'description_links'
p10
VSize: Shoulder - Bust - Length \u005c S: 31 CM - 90 CM - 74 CM \u005c  M: 32 CM - 96 CM - 75 CM \u005c  L: 43 CM - 104 CM - 76 CM \u005c Material:Red Fox Fur & Sheepskin  Color:Natural Color Style:Collarless, sleeveless, long vest models (Length about 75 cm)Whether outside pockets: (2)Inside pocket: (1)Yes Belt: within Drawstring Ingredients: SAGA FURSLining:Lining Material Color: SILK, BlackThe neckline: no collarWhether the cap:Deduction: 4 haspPractices: red fox primaries to fight black light leather cross
p11
sS'images'
p12
(lp13
Vhttp://cdn.iofferphoto.com/img3/item/535/355/284/t_women-s-red-fox-fur-sheepskin-coats-jackets-se150-b1d1.jpg
p14
aVhttp://cdn.iofferphoto.com/img3/item/535/355/284/t_women-s-red-fox-fur-sheepskin-coats-jackets-se150-db91.jpg
p15
aVhttp://cdn.iofferphoto.com/img3/item/535/355/284/t_women-s-red-fox-fur-sheepskin-coats-jackets-se150-579e.jpg
p16
aVhttp://cdn.iofferphoto.com/img3/item/535/355/284/t_women-s-red-fox-fur-sheepskin-coats-jackets-se150-2563.jpg
p17
aVhttp://cdn.iofferphoto.com/img3/item/535/355/284/t_women-s-red-fox-fur-sheepskin-coats-jackets-se150-2eb1.jpg
p18
aVhttp://cdn.iofferphoto.com/img3/item/535/355/284/t_women-s-red-fox-fur-sheepskin-coats-jackets-se150-0925.jpg
p19
aVhttp://cdn.iofferphoto.com/img3/item/535/355/284/t_women-s-red-fox-fur-sheepskin-coats-jackets-se150-1af7.jpg
p20
aVhttp://cdn.iofferphoto.com/img3/item/535/355/284/t_women-s-red-fox-fur-sheepskin-coats-jackets-se150-3c39.jpg
p21
aVhttp://cdn.iofferphoto.com/img3/item/535/355/284/t_women-s-red-fox-fur-sheepskin-coats-jackets-se150-db6c.jpg
p22
aVhttp://cdn.iofferphoto.com/img3/item/535/355/284/t_women-s-red-fox-fur-sheepskin-coats-jackets-se150-407b.jpg
p23
aVhttp://cdn.iofferphoto.com/img3/item/535/355/284/t_women-s-red-fox-fur-sheepskin-coats-jackets-se150-5e3f.jpg
p24
aVhttp://cdn.iofferphoto.com/img3/item/535/355/284/t_women-s-red-fox-fur-sheepskin-coats-jackets-se150-57fa.jpg
p25
aVhttp://cdn.iofferphoto.com/img3/item/535/355/284/t_women-s-red-fox-fur-sheepskin-coats-jackets-se150-3996.jpg
p26
aVhttp://cdn.iofferphoto.com/img3/item/535/355/284/t_women-s-red-fox-fur-sheepskin-coats-jackets-se150-3634.jpg
p27
aVhttp://cdn.iofferphoto.com/img3/item/535/355/284/t_women-s-red-fox-fur-sheepskin-coats-jackets-se150-4339.jpg
p28
aVhttp://cdn.iofferphoto.com/img3/item/535/355/284/t_women-s-red-fox-fur-sheepskin-coats-jackets-se150-9e26.jpg
p29
aVhttp://cdn.iofferphoto.com/img3/item/535/355/284/t_women-s-red-fox-fur-sheepskin-coats-jackets-se150-878c.jpg
p30
aVhttp://cdn.iofferphoto.com/img3/item/535/355/284/t_women-s-red-fox-fur-sheepskin-coats-jackets-se150-e08c.jpg
p31
aVhttp://cdn.iofferphoto.com/img3/item/535/355/284/t_women-s-red-fox-fur-sheepskin-coats-jackets-se150-1131.jpg
p32
aVhttp://cdn.iofferphoto.com/img3/item/535/355/284/t_women-s-red-fox-fur-sheepskin-coats-jackets-se150-af37.jpg
p33
aVhttp://cdn.iofferphoto.com/img3/item/535/355/284/t_women-s-red-fox-fur-sheepskin-coats-jackets-se150-bff2.jpg
p34
aVhttp://cdn.iofferphoto.com/img3/item/535/355/284/t_women-s-red-fox-fur-sheepskin-coats-jackets-se150-9ce4.jpg
p35
asS'shipping_info'
p36
VAvailable ColorsAvailable SizesWomen's Jackets & Suit SizesUSA61014UK81216European364044Japan91317SizesSMLEstimated Shipping3 - 5 Days
p37
sS'id'
p38
V535355284_1497063163
p39
s.