(dp1
S'title'
p2
V\u000aCross Mink Fur Fur Vests Coats Jackets Fox Fur SE159\u000a
p3
sS'url'
p4
Vhttp://www.ioffer.com/i/cross-mink-fur-fur-vests-coats-jackets-fox-fur-se159-535439816
p5
sS'price'
p6
V$2,915.00
p7
sS'seller'
p8
(lp9
sS'description_links'
p10
VMaterial (TEXTURE): Finland SAGA Cross minkColor (COLOR): Cross mink natural colorStyle (STYLE): a small standing collar vest (Length 49CM about)S / M / L, selectableFur have a certain thickness, the tile size is large, in fact, the body is not, Cikuan Cross mink for leisure, the large armhole given Bust appropriate looseness, there is no lack of fashion casual Casual, upper body is very effective. Model height 178 measurements 84,64,88, usually the shooting of SM, wearing M code can refer to If you do not know the size can consult our customer service staff will give you professional size recommended, thank you Detailed tile size as follows: S - Bust 86, Shoulder 36, Length 48 M - Bust 90, Shoulder 37, Length 49 L - Bust 94, Shoulder 38, Length 47France ordersFinland SAGA Cross MinkCikuan Cross mink charm is its large area of \u200b\u200bnatural black guard hairs bloomingProliferation of a large area of clear black guard hairsPlus hair quality hair texture carved brightImported Cross mink Diamond texture visibleCross mink refined version of the typeCan wear a very high degree of practical style Still chosen SAGA Cross minkCikuan Cross mink charm is its large area of \u200b\u200bnatural black guard hairs bloomingClear a large area of a black guard hairs spreadPlus hair quality hair texture carved brightImported Cross mink Diamond texture visible The double hair feeling assembled black and white tone soft stitchingAt the same time bring a powerful and unique sense of designClassic practical style does not pick figureUpper body unfetteredSuper fashion sense with leather or leather pants revealing infinite
p11
sS'images'
p12
(lp13
Vhttp://cdn.iofferphoto.com/img3/item/535/439/816/t_cross-mink-fur-fur-vests-coats-jackets-fox-fur-se159-550c.jpg
p14
aVhttp://cdn.iofferphoto.com/img3/item/535/439/816/t_cross-mink-fur-fur-vests-coats-jackets-fox-fur-se159-ec46.jpg
p15
aVhttp://cdn.iofferphoto.com/img3/item/535/439/816/t_cross-mink-fur-fur-vests-coats-jackets-fox-fur-se159-b9a0.jpg
p16
aVhttp://cdn.iofferphoto.com/img3/item/535/439/816/t_cross-mink-fur-fur-vests-coats-jackets-fox-fur-se159-8a10.jpg
p17
aVhttp://cdn.iofferphoto.com/img3/item/535/439/816/t_cross-mink-fur-fur-vests-coats-jackets-fox-fur-se159-f753.jpg
p18
aVhttp://cdn.iofferphoto.com/img3/item/535/439/816/t_cross-mink-fur-fur-vests-coats-jackets-fox-fur-se159-afae.jpg
p19
aVhttp://cdn.iofferphoto.com/img3/item/535/439/816/t_cross-mink-fur-fur-vests-coats-jackets-fox-fur-se159-8b1f.jpg
p20
aVhttp://cdn.iofferphoto.com/img3/item/535/439/816/t_cross-mink-fur-fur-vests-coats-jackets-fox-fur-se159-3541.jpg
p21
aVhttp://cdn.iofferphoto.com/img3/item/535/439/816/t_cross-mink-fur-fur-vests-coats-jackets-fox-fur-se159-2e3e.jpg
p22
aVhttp://cdn.iofferphoto.com/img3/item/535/439/816/t_cross-mink-fur-fur-vests-coats-jackets-fox-fur-se159-b39f.jpg
p23
aVhttp://cdn.iofferphoto.com/img3/item/535/439/816/t_cross-mink-fur-fur-vests-coats-jackets-fox-fur-se159-7558.jpg
p24
aVhttp://cdn.iofferphoto.com/img3/item/535/439/816/t_cross-mink-fur-fur-vests-coats-jackets-fox-fur-se159-f736.jpg
p25
aVhttp://cdn.iofferphoto.com/img3/item/535/439/816/t_cross-mink-fur-fur-vests-coats-jackets-fox-fur-se159-4064.jpg
p26
aVhttp://cdn.iofferphoto.com/img3/item/535/439/816/t_cross-mink-fur-fur-vests-coats-jackets-fox-fur-se159-e5f9.jpg
p27
aVhttp://cdn.iofferphoto.com/img3/item/535/439/816/t_cross-mink-fur-fur-vests-coats-jackets-fox-fur-se159-619a.jpg
p28
asS'shipping_info'
p29
VAvailable SizesWomen's Jackets & Suit SizesUSA10UK12European40Japan13SizesMEstimated Shipping3 - 5 Days
p30
sS'id'
p31
V535439816_1497063131
p32
s.