(dp1
S'title'
p2
V\u000aGolden Island Fox Fur SAGA Mink Fur Coats Jackets SE184\u000a
p3
sS'url'
p4
Vhttp://www.ioffer.com/i/golden-island-fox-fur-saga-mink-fur-coats-jackets-se184-535813612
p5
sS'price'
p6
V$4,681.00
p7
sS'seller'
p8
(lp9
sS'description_links'
p10
VMaterial:Golden Island Fox Fur + SAGA Mink Fur  Color:Natural Color Style:V-neck ( Length about 48 cm )Size: Shoulder - Bust - Sleeve - Length \u005c S: 37 CM - 90 CM - 49 CM - 47 CM \u005c  M: 38 CM - 96 CM - 50 CM - 48 CM \u005c  L: 39 CM - 102 CM - 51 CM - 49 CM \u005c
p11
sS'images'
p12
(lp13
Vhttp://cdn.iofferphoto.com/img3/item/535/813/612/t_golden-island-fox-fur-saga-mink-fur-coats-jackets-se184-388d.jpg
p14
aVhttp://cdn.iofferphoto.com/img3/item/535/813/612/t_golden-island-fox-fur-saga-mink-fur-coats-jackets-se184-7181.jpg
p15
aVhttp://cdn.iofferphoto.com/img3/item/535/813/612/t_golden-island-fox-fur-saga-mink-fur-coats-jackets-se184-f456.jpg
p16
aVhttp://cdn.iofferphoto.com/img3/item/535/813/612/t_golden-island-fox-fur-saga-mink-fur-coats-jackets-se184-9a17.jpg
p17
aVhttp://cdn.iofferphoto.com/img3/item/535/813/612/t_golden-island-fox-fur-saga-mink-fur-coats-jackets-se184-55b1.jpg
p18
aVhttp://cdn.iofferphoto.com/img3/item/535/813/612/t_golden-island-fox-fur-saga-mink-fur-coats-jackets-se184-12da.jpg
p19
aVhttp://cdn.iofferphoto.com/img3/item/535/813/612/t_golden-island-fox-fur-saga-mink-fur-coats-jackets-se184-da64.jpg
p20
aVhttp://cdn.iofferphoto.com/img3/item/535/813/612/t_golden-island-fox-fur-saga-mink-fur-coats-jackets-se184-a3a4.jpg
p21
asS'shipping_info'
p22
VAvailable SizesWomen's Jackets & Suit SizesUSA61014UK81216European364044Japan91317SizesSMLEstimated Shipping3 - 5 Days
p23
sS'id'
p24
V535813612_1497063087
p25
s.