(dp1
S'title'
p2
V\u000aSAGA Mink Cashmere Fur Coats Silver fox sleeves SE187\u000a
p3
sS'url'
p4
Vhttp://www.ioffer.com/i/saga-mink-cashmere-fur-coats-silver-fox-sleeves-se187-535815138
p5
sS'price'
p6
V$4,681.00
p7
sS'seller'
p8
(lp9
sS'description_links'
p10
VMaterial:AGA Mink Cashmere Fur + Silver fox fur  Color:Natural ColorSize: Shoulder - Bust - Sleeve - Length \u005c S: 36 CM - 90 CM - 52 CM - 46 CM \u005c  M: 37 CM - 94 CM - 53 CM - 47 CM \u005c  L: 38 CM - 98 CM - 54 CM - 48 CM \u005c
p11
sS'images'
p12
(lp13
Vhttp://cdn.iofferphoto.com/img3/item/535/815/138/t_saga-mink-cashmere-fur-coats-silver-fox-sleeves-se187-7133.jpg
p14
aVhttp://cdn.iofferphoto.com/img3/item/535/815/138/t_saga-mink-cashmere-fur-coats-silver-fox-sleeves-se187-dc78.jpg
p15
aVhttp://cdn.iofferphoto.com/img3/item/535/815/138/t_saga-mink-cashmere-fur-coats-silver-fox-sleeves-se187-2c69.jpg
p16
aVhttp://cdn.iofferphoto.com/img3/item/535/815/138/t_saga-mink-cashmere-fur-coats-silver-fox-sleeves-se187-bdd7.jpg
p17
aVhttp://cdn.iofferphoto.com/img3/item/535/815/138/t_saga-mink-cashmere-fur-coats-silver-fox-sleeves-se187-cd3e.jpg
p18
aVhttp://cdn.iofferphoto.com/img3/item/535/815/138/t_saga-mink-cashmere-fur-coats-silver-fox-sleeves-se187-a132.jpg
p19
aVhttp://cdn.iofferphoto.com/img3/item/535/815/138/t_saga-mink-cashmere-fur-coats-silver-fox-sleeves-se187-2de0.jpg
p20
aVhttp://cdn.iofferphoto.com/img3/item/535/815/138/t_saga-mink-cashmere-fur-coats-silver-fox-sleeves-se187-6e2b.jpg
p21
asS'shipping_info'
p22
VAvailable ColorsAvailable SizesWomen's Jackets & Suit SizesUSA61014UK81216European364044Japan91317SizesSMLEstimated Shipping3 - 5 Days
p23
sS'id'
p24
V535815138_1497063092
p25
s.