(dp1
S'title'
p2
V\u000aSAGA Mink Fur Golden Island Fox Fur Vests Coats SE190\u000a
p3
sS'url'
p4
Vhttp://www.ioffer.com/i/saga-mink-fur-golden-island-fox-fur-vests-coats-se190-536050022
p5
sS'price'
p6
V$4,713.00
p7
sS'seller'
p8
(lp9
sS'description_links'
p10
VMaterial:Finland SAGAS Mink Fur + Golden Island Fox Fur Color:Natural Color The detailed tile sizes are as follows: (The money is for Vest Shoulder unrestricted)S - Bust 88 Reference Shoulder 37, Length 69M - Bust 94, reference Shoulder 38, Length 70L - Bust 100, Reference Shoulder 39, Length 71
p11
sS'images'
p12
(lp13
Vhttp://cdn.iofferphoto.com/img3/item/536/050/022/t_saga-mink-fur-golden-island-fox-fur-vests-coats-se190-1301.jpg
p14
aVhttp://cdn.iofferphoto.com/img3/item/536/050/022/t_saga-mink-fur-golden-island-fox-fur-vests-coats-se190-3148.jpg
p15
aVhttp://cdn.iofferphoto.com/img3/item/536/050/022/t_saga-mink-fur-golden-island-fox-fur-vests-coats-se190-4c4c.jpg
p16
aVhttp://cdn.iofferphoto.com/img3/item/536/050/022/t_saga-mink-fur-golden-island-fox-fur-vests-coats-se190-dfb2.jpg
p17
aVhttp://cdn.iofferphoto.com/img3/item/536/050/022/t_saga-mink-fur-golden-island-fox-fur-vests-coats-se190-5d0d.jpg
p18
aVhttp://cdn.iofferphoto.com/img3/item/536/050/022/t_saga-mink-fur-golden-island-fox-fur-vests-coats-se190-3db5.jpg
p19
aVhttp://cdn.iofferphoto.com/img3/item/536/050/022/t_saga-mink-fur-golden-island-fox-fur-vests-coats-se190-4a11.jpg
p20
asS'shipping_info'
p21
VAvailable ColorsAvailable SizesWomen's Jackets & Suit SizesUSA61014UK81216European364044Japan91317SizesSMLEstimated Shipping3 - 5 Days
p22
sS'id'
p23
V536050022_1497063083
p24
s.