(dp1
S'title'
p2
V\u000aFinland Silver Fox Fur SAGA Mink Fur Coats Jackets SE19\u000a
p3
sS'url'
p4
Vhttp://www.ioffer.com/i/finland-silver-fox-fur-saga-mink-fur-coats-jackets-se19-536052340
p5
sS'price'
p6
V$5,015.00
p7
sS'seller'
p8
(lp9
sS'description_links'
p10
(lp11
sS'images'
p12
(lp13
Vhttp://cdn.iofferphoto.com/img3/item/536/052/340/t_finland-silver-fox-fur-saga-mink-fur-coats-jackets-se19-298e.jpg
p14
aVhttp://cdn.iofferphoto.com/img3/item/536/052/340/t_finland-silver-fox-fur-saga-mink-fur-coats-jackets-se19-e659.jpg
p15
aVhttp://cdn.iofferphoto.com/img3/item/536/052/340/t_finland-silver-fox-fur-saga-mink-fur-coats-jackets-se19-3740.jpg
p16
aVhttp://cdn.iofferphoto.com/img3/item/536/052/340/t_finland-silver-fox-fur-saga-mink-fur-coats-jackets-se19-51b0.jpg
p17
aVhttp://cdn.iofferphoto.com/img3/item/536/052/340/t_finland-silver-fox-fur-saga-mink-fur-coats-jackets-se19-1e28.jpg
p18
aVhttp://cdn.iofferphoto.com/img3/item/536/052/340/t_finland-silver-fox-fur-saga-mink-fur-coats-jackets-se19-792e.jpg
p19
asS'shipping_info'
p20
VAvailable SizesSizesSmallMediumLargeEstimated Shipping3 - 5 Days
p21
sS'id'
p22
V536052340_1497063071
p23
s.