(dp1
S'title'
p2
V\u000aSAGA Mink FurCoat Golden Island Fox Fur Collar SE201\u000a
p3
sS'url'
p4
Vhttp://www.ioffer.com/i/saga-mink-furcoat-golden-island-fox-fur-collar-se201-536175888
p5
sS'price'
p6
V$5,065.00
p7
sS'seller'
p8
(lp9
sS'description_links'
p10
VS  36  88  /  46  47 M  37  92  /  47  48 L  38  96  /  48  49 Detailed descriptionsWhether outside pockets: (2)Inside pocket: (1)Belt: noBrand:Ingredients: SAGA FURSLining:Lining Material Color: SILK BlackNeckline: NoneWhether the cap:Is there a buckle: 3 hook buckle
p11
sS'images'
p12
(lp13
Vhttp://cdn.iofferphoto.com/img3/item/536/175/888/t_saga-mink-furcoat-golden-island-fox-fur-collar-se201-ae07.jpg
p14
aVhttp://cdn.iofferphoto.com/img3/item/536/175/888/t_saga-mink-furcoat-golden-island-fox-fur-collar-se201-691c.jpg
p15
asS'shipping_info'
p16
VAvailable ColorsAvailable SizesWomen's Jackets & Suit SizesUSA61014UK81216European364044Japan91317SizesSMLEstimated Shipping3 - 5 Days
p17
sS'id'
p18
V536175888_1497063067
p19
s.