(dp1
S'title'
p2
VSilver Fox Fur Comforter 96x108
p3
sS'url'
p4
Vhttp://www.glacierwear.com/silver-fox-fur-comforter-96x108.html
p5
sS'price'
p6
V7999.95
p7
sS'seller'
p8
(lp9
sS'description_links'
p10
Vfxx-300-sv-96x108Silver Fox Fur Comforter 96x108All fur, full pelt, (not pieces,) Silver Fox Blanket. Made just like a quilt with batting between layers. Backed with Satin. (All sizes are approx.) MADE IN USA!
p11
sS'images'
p12
(lp13
Vhttp://www.glacierwear.com/media/catalog/product/cache/1/image/9df78eab33525d08d6e5fb8d27136e95/f/x/fxx-300-sv-96x108-lg_1.jpg
p14
asS'shipping_info'
p15
VFree Shipping on $100.00+
p16
sS'id'
p17
V96x108_1497062964
p18
s.