(dp1
S'title'
p2
VGOLDEN ISLAND FOX FUR BLANKET 60" x 72" 
p3
sS'url'
p4
Vhttp://www.glacierwear.com/golden-island-fox-fur-blanket.html
p5
sS'price'
p6
V5999.95
p7
sS'seller'
p8
(lp9
sS'description_links'
p10
Vfxx300gldGolden Island Fox Fur Blanket 60" x 72"Made from #1, Select Quality Ranch Raised Golden Island Fox. X Heavy, X Silky. Imported from Finland. These Fox are SAGA ROYALS, (Best Quality in the World.) You Cannot Find a Better Quality Hide or Larger Golden Island Fox in the World. All fur, full pelt, (not pieces,) Golden Island Fox Fur Blanket. Made just like a quilt with batting between layers. Backed with Satin. (All sizes are approx.) MADE IN USA!
p11
sS'images'
p12
(lp13
Vhttp://www.glacierwear.com/media/catalog/product/cache/1/thumbnail/500x/17f82f742ffe127f42dca9de82fb58b1/g/o/golden_island_fox_fur_blanket.jpg
p14
asS'shipping_info'
p15
VFree Shipping on $100.00+
p16
sS'id'
p17
Vblanket_1497062965
p18
s.