(dp1
S'title'
p2
VGray Fox
p3
sS'url'
p4
Vhttp://store.yahoo.com/yhst-66562580642243/gray-fox--new.html
p5
sS'price'
p6
(lp7
sS'seller'
p8
(lp9
sS'description_links'
p10
VGray Fox Photo Reference Cd
p11
sS'images'
p12
(lp13
Vhttp://ep.yimg.com/ca/I/yhst-66562580642243_2251_114691926
p14
asS'shipping_info'
p15
(lp16
sS'id'
p17
Vgray-fox--new_1497063041
p18
s.