(dp1
S'title'
p2
VWOMEN'S SILVER FOX FUR VEST WITH HOOD
p3
sS'url'
p4
Vhttp://www.glacierwear.com/women-s-silver-fox-fur-vest-with-hood.html
p5
sS'price'
p6
V1199.95
p7
sS'seller'
p8
(lp9
sS'description_links'
p10
V- Women's Silver Fox Fur Vest- Crafted from Super Select Silver Fox Fur- Two Exterior Pockets- Silk/Satin Lining- Hook and Eye or Zipper Closure- Attached Hood for Warmth- Vest Color May Vary Slightly from Photo
p11
sS'images'
p12
(lp13
Vhttp://www.glacierwear.com/media/catalog/product/cache/1/thumbnail/500x/17f82f742ffe127f42dca9de82fb58b1/1/-/1-img_8685_1.jpg
p14
asS'shipping_info'
p15
VFree Shipping on $100.00+
p16
sS'id'
p17
Vhood_1497063005
p18
s.