(dp1
S'title'
p2
V925 sterling silver wild boar cufflinks cuff links animal jewelry jewellery pig
p3
sS'url'
p4
S'http://www.ebay.com/itm/925-Sterling-Silver-Wild-Boar-Cufflinks-Cuff-Links-Animal-Jewelry-Jewellery-Pig-/162152619053?hash=item25c10c9c2d:g:cNcAAOSwARZXm7OL'
p5
sS'price'
p6
VUS $499.99
p7
sS'seller'
p8
(dp9
g4
Vhttp://www.ebay.com/usr/mavastylejewelry?_trksid=p2047675.l2559
p10
sS'name'
p11
V mavastylejewelry
p12
ssS'description_links'
p13
(lp14
Vhttp://vi.vipr.ebaydesc.com/ws/eBayISAPI.dll?ViewItemDescV4&item=162152619053&t=1494167810000&tid=10&category=137843&seller=mavastylejewelry&excSoj=1&excTrk=1&lsite=0&ittenable=false&domain=ebay.com&descgauge=1
p15
asS'images'
p16
(lp17
(dp18
S'maxImageUrl'
p19
Vhttp://i.ebayimg.com/images/g/cNcAAOSwARZXm7OL/s-l1600.jpg
p20
sS'displayImgUrl'
p21
Vhttp://i.ebayimg.com/images/g/cNcAAOSwARZXm7OL/s-l300.jpg
p22
sa(dp23
g19
Vhttp://i.ebayimg.com/images/g/xegAAOSw-YVXm7OO/s-l1600.jpg
p24
sg21
Vhttp://i.ebayimg.com/images/g/xegAAOSw-YVXm7OO/s-l300.jpg
p25
sa(dp26
g19
Vhttp://i.ebayimg.com/images/g/DioAAOSwPRlXm7OQ/s-l1600.jpg
p27
sg21
Vhttp://i.ebayimg.com/images/g/DioAAOSwPRlXm7OQ/s-l300.jpg
p28
sa(dp29
g19
Vhttp://i.ebayimg.com/images/g/ccMAAOSwARZXm7OS/s-l1600.jpg
p30
sg21
Vhttp://i.ebayimg.com/images/g/ccMAAOSwARZXm7OS/s-l300.jpg
p31
sa(dp32
g19
Vhttp://i.ebayimg.com/images/g/uLsAAOSwqfNXm7OU/s-l1600.jpg
p33
sg21
Vhttp://i.ebayimg.com/images/g/uLsAAOSwqfNXm7OU/s-l300.jpg
p34
sasS'shipping_info'
p35
(dp36
S'item_location'
p37
(lp38
V\u000aMontreal, Canada
p39
asS'delivery'
p40
(lp41
VVaries
p42
aVVaries
p43
asS'posts_to'
p44
(lp45
VWorldwide
p46
assS'id'
p47
S'162152619053'
p48
s.