(dp1
S'title'
p2
VBabirusa Pig Skull Cast
p3
sS'url'
p4
Vhttp://www.boneroom.com/store/p1210/Babirusa_Pig_Skull_Cast.html
p5
sS'price'
p6
V$286.00
p7
sS'seller'
p8
(lp9
sS'description_links'
p10
VBabyrousa babyrussa11.8" Long
p11
sS'images'
p12
(lp13
Vhttp://www.boneroom.com//uploads/4/8/1/1/48118243/s521972503441136676_p1210_i1_w640.jpeg
p14
asS'shipping_info'
p15
(lp16
sS'id'
p17
Vp1210_1497052689
p18
s.