(dp1
S'title'
p2
VAfrican Bush Pig Skull Cast
p3
sS'url'
p4
Vhttp://www.boneroom.com/store/p1251/African_Bush_Pig_Skull_Cast.html
p5
sS'price'
p6
V$309.00
p7
sS'seller'
p8
(lp9
sS'description_links'
p10
VPotamochoerus porcusMale
p11
sS'images'
p12
(lp13
Vhttp://www.boneroom.com//uploads/4/8/1/1/48118243/s521972503441136676_p1251_i1_w500.jpeg
p14
asS'shipping_info'
p15
(lp16
sS'id'
p17
Vp1251_1497052692
p18
s.