(dp1
S'title'
p2
Vladawri daytona (replaced the victress) fiberglass sports car body kit car
p3
sS'url'
p4
S'http://www.ebay.com/itm/LaDawri-Daytona-Replaced-The-Victress-Fiberglass-Sports-Car-Body-Kit-Car-/121875995547?hash=item1c60601b9b:g:-XgAAOSwm8VUsLJC&vxp=mtr'
p5
sS'price'
p6
VUS $9,995.00
p7
sS'seller'
p8
(dp9
g4
Vhttp://www.ebay.com/usr/toysanyone?_trksid=p2047675.l2559
p10
sS'name'
p11
V toysanyone
p12
ssS'description_links'
p13
(lp14
Vhttp://vi.vipr.ebaydesc.com/ws/eBayISAPI.dll?ViewItemDescV4&item=121875995547&t=1451540621000&tid=10&category=34204&seller=toysanyone&excSoj=1&excTrk=1&lsite=100&ittenable=false&domain=ebay.com&descgauge=1
p15
asS'images'
p16
(lp17
(dp18
S'maxImageUrl'
p19
Vhttp://i.ebayimg.com/images/g/-XgAAOSwm8VUsLJC/s-l1600.jpg
p20
sS'displayImgUrl'
p21
Vhttp://i.ebayimg.com/images/g/-XgAAOSwm8VUsLJC/s-l300.jpg
p22
sa(dp23
g19
Vhttp://i.ebayimg.com/images/g/ryEAAOSwzrxUsLI3/s-l1600.jpg
p24
sg21
Vhttp://i.ebayimg.com/images/g/ryEAAOSwzrxUsLI3/s-l300.jpg
p25
sa(dp26
g19
Vhttp://i.ebayimg.com/images/g/EaMAAOSwWKtUsLJR/s-l1600.jpg
p27
sg21
Vhttp://i.ebayimg.com/images/g/EaMAAOSwWKtUsLJR/s-l300.jpg
p28
sa(dp29
g19
Vhttp://i.ebayimg.com/images/g/sBMAAOSwzrxUsLJI/s-l1600.jpg
p30
sg21
Vhttp://i.ebayimg.com/images/g/sBMAAOSwzrxUsLJI/s-l300.jpg
p31
sa(dp32
g19
Vhttp://i.ebayimg.com/images/g/tsUAAOSwa39UsLJM/s-l1600.jpg
p33
sg21
Vhttp://i.ebayimg.com/images/g/tsUAAOSwa39UsLJM/s-l300.jpg
p34
sa(dp35
g19
Vhttp://i.ebayimg.com/images/g/zikAAOSw2s1UsLI~/s-l1600.jpg
p36
sg21
Vhttp://i.ebayimg.com/images/g/zikAAOSw2s1UsLI~/s-l300.jpg
p37
sa(dp38
g19
Vhttp://i.ebayimg.com/images/g/tw8AAOSwa39UsLJR/s-l1600.jpg
p39
sg21
Vhttp://i.ebayimg.com/images/g/tw8AAOSwa39UsLJR/s-l300.jpg
p40
sa(dp41
g19
Vhttp://i.ebayimg.com/images/g/z6MAAOSw2s1UsLJZ/s-l1600.jpg
p42
sg21
Vhttp://i.ebayimg.com/images/g/z6MAAOSw2s1UsLJZ/s-l300.jpg
p43
sa(dp44
g19
Vhttp://i.ebayimg.com/images/g/c8QAAOSwmrlUsLJe/s-l1600.jpg
p45
sg21
Vhttp://i.ebayimg.com/images/g/c8QAAOSwmrlUsLJe/s-l300.jpg
p46
sa(dp47
g19
Vhttp://i.ebayimg.com/images/g/t0QAAOSwa39UsLJU/s-l1600.jpg
p48
sg21
Vhttp://i.ebayimg.com/images/g/t0QAAOSwa39UsLJU/s-l300.jpg
p49
sa(dp50
g19
Vhttp://i.ebayimg.com/images/g/-vMAAOSwm8VUsLJj/s-l1600.jpg
p51
sg21
Vhttp://i.ebayimg.com/images/g/-vMAAOSwm8VUsLJj/s-l300.jpg
p52
sa(dp53
g19
Vhttp://i.ebayimg.com/images/g/~mcAAOSwk5FUsVqk/s-l1600.jpg
p54
sg21
Vhttp://i.ebayimg.com/images/g/~mcAAOSwk5FUsVqk/s-l300.jpg
p55
sasS'shipping_info'
p56
(dp57
S'item_location'
p58
(lp59
V\u000aBozeman, Montana, United States
p60
asS'delivery'
p61
(lp62
VVaries
p63
asS'posts_to'
p64
(lp65
VLocal pick-up only
p66
assS'id'
p67
S'121875995547'
p68
s.