(dp1
S'title'
p2
Vtiger cheetah boom mower low hour clean machine
p3
sS'url'
p4
S'http://www.ebay.com/itm/TIGER-CHEETAH-BOOM-MOWER-LOW-HOUR-CLEAN-MACHINE-/152571058021?hash=item2385f19765:g:kZoAAOSwZ4dZMdj0'
p5
sS'price'
p6
VUS $8,299.00
p7
sS'seller'
p8
(dp9
g4
Vhttp://www.ebay.com/usr/npwparts?_trksid=p2047675.l2559
p10
sS'name'
p11
V npwparts
p12
ssS'description_links'
p13
(lp14
Vhttp://vi.vipr.ebaydesc.com/ws/eBayISAPI.dll?ViewItemDescV4&item=152571058021&t=0&tid=10&category=11752&seller=npwparts&excSoj=1&excTrk=1&lsite=0&ittenable=false&domain=ebay.com&descgauge=1
p15
asS'images'
p16
(lp17
(dp18
S'maxImageUrl'
p19
Vhttp://i.ebayimg.com/images/g/kZoAAOSwZ4dZMdj0/s-l1600.jpg
p20
sS'displayImgUrl'
p21
Vhttp://i.ebayimg.com/images/g/kZoAAOSwZ4dZMdj0/s-l300.jpg
p22
sa(dp23
g19
Vhttp://i.ebayimg.com/images/g/SrQAAOSwIQdZMdj8/s-l1600.jpg
p24
sg21
Vhttp://i.ebayimg.com/images/g/SrQAAOSwIQdZMdj8/s-l300.jpg
p25
sa(dp26
g19
Vhttp://i.ebayimg.com/images/g/w5sAAOSw42JZMdkG/s-l1600.jpg
p27
sg21
Vhttp://i.ebayimg.com/images/g/w5sAAOSw42JZMdkG/s-l300.jpg
p28
sa(dp29
g19
Vhttp://i.ebayimg.com/images/g/VV4AAOSwlY1ZMdkO/s-l1600.jpg
p30
sg21
Vhttp://i.ebayimg.com/images/g/VV4AAOSwlY1ZMdkO/s-l300.jpg
p31
sa(dp32
g19
Vhttp://i.ebayimg.com/images/g/5xsAAOSwuMZZMdkb/s-l1600.jpg
p33
sg21
Vhttp://i.ebayimg.com/images/g/5xsAAOSwuMZZMdkb/s-l300.jpg
p34
sa(dp35
g19
Vhttp://i.ebayimg.com/images/g/dMUAAOSwYvFZMdkh/s-l1600.jpg
p36
sg21
Vhttp://i.ebayimg.com/images/g/dMUAAOSwYvFZMdkh/s-l300.jpg
p37
sa(dp38
g19
Vhttp://i.ebayimg.com/images/g/cmYAAOSw~y9ZMdkn/s-l1600.jpg
p39
sg21
Vhttp://i.ebayimg.com/images/g/cmYAAOSw~y9ZMdkn/s-l300.jpg
p40
sa(dp41
g19
Vhttp://i.ebayimg.com/images/g/YIoAAOSwY3BZMdkw/s-l1600.jpg
p42
sg21
Vhttp://i.ebayimg.com/images/g/YIoAAOSwY3BZMdkw/s-l300.jpg
p43
sa(dp44
g19
Vhttp://i.ebayimg.com/images/g/qm4AAOSwcB5ZMdk5/s-l1600.jpg
p45
sg21
Vhttp://i.ebayimg.com/images/g/qm4AAOSwcB5ZMdk5/s-l300.jpg
p46
sasS'shipping_info'
p47
(dp48
S'item_location'
p49
(lp50
V\u000aShelbyville, Tennessee, United States
p51
asS'delivery'
p52
(lp53
VVaries
p54
asS'posts_to'
p55
(lp56
VLocal pick-up only
p57
assS'id'
p58
S'152571058021'
p59
s.