(dp1
S'title'
p2
VChester Cheetah Mascot Costume Brand Advertising Character -New 2015
p3
sS'url'
p4
Vhttp://www.ecrater.com/p/22969476/chester-cheetah-mascot-costume-brand?keywords=cheetah
p5
sS'price'
p6
V$385.00
p7
sS'seller'
p8
Vhttp://everything-hollywood.ecrater.com
p9
sS'description_links'
p10
VName: Chester Cheetah Mascot Costume -Size : Adult S TO XLMaterial:Cotton, Polyester, PLUSHMascot Costume Details:All mascot costumes are Brand new, Made of soft knitted, and durable fabric, and includes the following\u2026Mascot head, full body, shoe covers, hand covers. Most mascots also include a internal cooling fan - Head material used is: POLYFOAM*SELECT A SIZE From below- Please indicate size in the message to seller box at checkout.S:160-170cm (5.2'-5.6')M:170-175cm (5.6'-5.7')L:175-180cm (5.7'-5.9')XL:180-185cm (5.9'-6')We recommend that you provide us with the persons height and weight to proper fitting of the costume.Size Chart pictured is recommended size options closest to your Weight and Height. Delivery of this product will require name, address and phone numberBuyer agrees to Terms and Ships via"INTL WHSE-CN- Thank you for Shopping Everything-Hollywood" Please allow sufficient Lead time as outlined in our terms\u2013 Tracking number will be emailed once item has shipped.
p11
sS'images'
p12
(lp13
Vhttp://s.ecrater.com/stores/350666/55a22f3078ca4_350666b.jpg
p14
asS'shipping_info'
p15
(lp16
V3 available
p17
aVShipping:US-Mainland: $14.00(more destinations)
p18
aVCondition: Brand new
p19
asS'id'
p20
V22969476
p21
s.