(dp1
S'title'
p2
VLori Bonn 212151QCHG Slide Charm Nobody Likes A Cheetah Gold/Blk Quartz 925 NEW
p3
sS'url'
p4
Vhttp://www.ecrater.com/p/23119223/lori-bonn-212151qchg-slide-charm?keywords=cheetah
p5
sS'price'
p6
V$99.99
p7
sS'seller'
p8
Vhttp://luxebuster.ecrater.com
p9
sS'description_links'
p10
VeCRATER template Lori Bonn 212151QCHG Slide Charm Nobody Likes A Cheetah Gold/Blk Quartz 925 NEW                 Click the preview button to view more images.Ad # 37276Item Description:Be sure to check our shipping calculator for the best shipping costs!LoriBonn 212151QCHG Slide Charm Nobody Likes A Cheetah Gold/Black QuartzSterling Silver ***NewWithout Tags***Retail:$118Designer:Bonn Bons by Lori BonnModel:212151QCHGItem:SlideCharmDescription:Sterling silver set with faceted clear quartz over a green/gold andblack cheetah patternComposition:Sterling SilverMeasurements:15mm by 15mm, 11mm thick, Ring: +4Markings:Lori Bonn, 925Condition:This piece is new, with the retail tag(s) removed. Guaranteedauthentic, or your money back. This will be appropriately packed toensure safe arrival. QUESTIONS? FEEL FREE TO EMAIL US! or CALL US, 773 523 4900Return to top Use our Shipping Calculator to see a selection of shipping methods and costs.To get a real-time shipping quote to your destination, enter your country and zip / postal code information into the shipping calculator and click "Get Rate". Select Destination Country and ServiceUnited States United States USPS Priority MailCanada Mexico Other Shipping CostAdditional Item ShippingPut your products on autopilot with Kyozou eCRATER product Management Software
p11
sS'images'
p12
(lp13
sS'shipping_info'
p14
(lp15
VOnly 1 available
p16
aVShipping:US-Mainland: $3.49(more destinations)
p17
aVCondition: Used
p18
asS'id'
p19
V23119223
p20
s.