(dp1
S'title'
p2
VFenton Glass Autumn Gold Satin LEOPARD CHEETAH MINI KITTEN & STYLIZED CAT Set QVC!
p3
sS'url'
p4
Vhttp://www.ecrater.com/p/24085697/fenton-glass-autumn-gold-satin?keywords=cheetah
p5
sS'price'
p6
V$139.00
p7
sS'seller'
p8
Vhttp://theeclecticcat.ecrater.com
p9
sS'description_links'
p10
VFENTON GLASS AUTUMN GOLD SATIN LEOPARD CHEETAH MINI KITTEN & STYLIZED CAT SetQVC Exclusives!Here is a beautiful autumn gold satin mini kitten and stylized cat figurine set made by the Fenton Art Glass Company of Williamstown, West Virginia in 2006.  They were sold exclusively on QVC and were not in Fenton's regular line.  They are handpainted in an adorable leopard or cheetah pattern.  Each is signed by the Fenton artist that painted it and they are in excellent condition with no chips, cracks or other damage  The stylized cat measures approximately 5" tall and the mini kitten measures approximately 2.75" tall .  They would make a great gift for your favorite Fenton collector or cat lover!Please see our other listings for more great Fenton glass including VIP event pieces, one of a kind items, samples and Fenton Gift Shop Exclusives, items from Frank's closet as well as other items for pets and pet lovers!We do combine shipping so please inquire if you have purchased more than one item.  Free delivery confirmation and tracking are provided for all shipments within the United States as well as International shipments using Priority Mail International.  Customs charges or duty taxes are the responsibility of the International buyer.Please feel free to contact us with any questions or concerns you may have.  Thank you!
p11
sS'images'
p12
(lp13
Vhttp://s.ecrater.com/stores/209534/56942b67edd78_209534b.jpg
p14
asS'shipping_info'
p15
(lp16
VOnly 1 available
p17
aVShipping:USPS calculated - check
p18
aVSales Tax: Minnesota: 7.38%
p19
aVCondition: Used
p20
asS'id'
p21
V24085697
p22
s.