(dp1
S'title'
p2
VSeat Cover For SUVs Beige TAN Leopard Cheetah Animal Print Design w/Floor Mats
p3
sS'url'
p4
Vhttp://www.ecrater.com/p/24751566/seat-cover-for-suvs-beige-tan?keywords=cheetah
p5
sS'price'
p6
V$86.99
p7
sS'seller'
p8
Vhttp://xtremegoods.ecrater.com
p9
sS'description_links'
p10
VSUV Seat Cover for Ford Escape Black w/Steering Wheel/Belt Pad/Head Rest H StyleCondition: NewProduct Code: 9710619*35147This part is compatible with 16 vehicle(s).YearMakeModelTrimEngine2016FordEscapeAllAll2015FordEscapeAllAll2014FordEscapeAllAll2013FordEscapeAllAll2012FordEscapeAllAll2011FordEscapeAllAll2010FordEscapeAllAll2009FordEscapeAllAll2008FordEscapeAllAll2007FordEscapeAllAll2006FordEscapeAllAll2005FordEscapeAllAll2004FordEscapeAllAll2003FordEscapeAllAll2002FordEscapeAllAll2001FordEscapeAllAllSKU: SCFC-S51A-BKUPC: 840345103840Dimensions: Front Seat: 21" x 19.5", Front Backrest: 27" x 21.5", Rear Bench: 52" x 25", Rear Backrest: 52" x 32"Color: BlackConfiguration: 17pcMaterial: MeshIncludes:Two (2) Two-Piece Low Back Seat CoversOne (1) Two-Piece Bench CoverOne Zipper Connector for Bench SplitFour (4) Belt PadsFive (5) Head Rest CoversOne (1) Steering Wheel CoverFeatures : Beautifully Styled With Striking Pattern H Striped DesignColor Matches Lycra Backing, Material Stretches for a Snug FitSoft Quality Synthetic Fabric. No Color Fade. BreathableNo Professional Installation RequiredDurable, Washable, Water Resistant
p11
sS'images'
p12
(lp13
sS'shipping_info'
p14
(lp15
V5 available
p16
aVShipping:US-Mainland: free(more destinations)
p17
aVSales Tax: Texas: 8.25%
p18
aVCondition: Brand new
p19
asS'id'
p20
V24751566
p21
s.