(dp1
S'title'
p2
VLARGE CLASSIC EQUINE LEGACY SYSTEM HORSE LEG NEOPRENE HIND BOOTS CHEETAH MINT
p3
sS'url'
p4
Vhttp://www.ecrater.com/p/24962841/large-classic-equine-legacy-system?keywords=cheetah
p5
sS'price'
p6
V$73.95
p7
sS'seller'
p8
Vhttp://hilason.ecrater.com
p9
sS'description_links'
p10
V
sS'images'
p11
(lp12
sS'shipping_info'
p13
(lp14
VOnly 1 available
p15
aVShipping:US-Mainland: free(more destinations)
p16
aVCondition: Used
p17
asS'id'
p18
V24962841
p19
s.