(dp1
S'title'
p2
VHILASON WESTERN LEATHER HORSE HEADSTALL BREAST COLLAR TURQUOISE BLACK CHEETAH
p3
sS'url'
p4
Vhttp://www.ecrater.com/p/24969113/hilason-western-leather-horse-headstall?keywords=cheetah
p5
sS'price'
p6
V$109.95
p7
sS'seller'
p8
Vhttp://hilason.ecrater.com
p9
sS'description_links'
p10
V
sS'images'
p11
(lp12
sS'shipping_info'
p13
(lp14
VOnly 1 available
p15
aVShipping:US-Mainland: free(more destinations)
p16
aVCondition: Used
p17
asS'id'
p18
V24969113
p19
s.