(dp1
S'title'
p2
VHILASON WESTERN LEATHER HORSE HEADSTALL BREAST COLLAR TAN CHEETAH TIGER INLAY
p3
sS'url'
p4
Vhttp://www.ecrater.com/p/24967818/hilason-western-leather-horse-headstall?keywords=cheetah
p5
sS'price'
p6
V$109.95
p7
sS'seller'
p8
Vhttp://hilason.ecrater.com
p9
sS'description_links'
p10
V
sS'images'
p11
(lp12
Vhttp://s.ecrater.com/stores/143460/577cffe678923_143460b.jpg
p13
asS'shipping_info'
p14
(lp15
VOnly 1 available
p16
aVShipping:US-Mainland: free(more destinations)
p17
aVCondition: Used
p18
asS'id'
p19
V24967818
p20
s.