(dp1
S'title'
p2
VHILASON WESTERN EXOTIC CHEETAH HAIR ON LEATHER HORSE HEADSTALL BREAST COLLAR
p3
sS'url'
p4
Vhttp://www.ecrater.com/p/24963842/hilason-western-exotic-cheetah-hair-on?keywords=cheetah
p5
sS'price'
p6
V$111.94
p7
sS'seller'
p8
Vhttp://hilason.ecrater.com
p9
sS'description_links'
p10
V
sS'images'
p11
(lp12
sS'shipping_info'
p13
(lp14
VOnly 1 available
p15
aVShipping:US-Mainland: free(more destinations)
p16
aVCondition: Used
p17
asS'id'
p18
V24963842
p19
s.