(dp1
S'title'
p2
VSchumacher Cheetah Accent Pillow
p3
sS'url'
p4
Vhttp://www.ecrater.com/p/25232612/schumacher-cheetah-accent-pillow?keywords=cheetah
p5
sS'price'
p6
V$189.50
p7
sS'seller'
p8
Vhttp://metrohousedesigns.ecrater.com
p9
sS'description_links'
p10
VBrand new for this season!Size: 22.0" x 22.0"Color: InkSame fabric on both sidesStain guard has been appliedDown feather inserts are includedHidden zipperETA: 2-3 Weeks from date of orderA 20% Re-Stocking fee appliesPriced per pillow
p11
sS'images'
p12
(lp13
Vhttp://s.ecrater.com/stores/124944/57cafa32b2424_124944b.jpg
p14
asS'shipping_info'
p15
(lp16
V10 available
p17
aVShipping:US-Mainland: $14.95(more destinations)
p18
aVCondition: Brand new
p19
asS'id'
p20
V25232612
p21
s.