(dp1
S'title'
p2
VFossil ZB5477989 Memoir Hobo Cheetah calfhair & leather purse top zip NWT^^
p3
sS'url'
p4
Vhttp://www.ecrater.com/p/25781834/fossil-zb5477989-memoir-hobo-cheetah?keywords=cheetah
p5
sS'price'
p6
V$108.29
p7
sS'seller'
p8
Vhttp://elisasa2zshop.ecrater.com
p9
sS'description_links'
p10
Vmariehgg Store        Hello, this is a new with tags Fossil Hobo, retail is 248.00. This bag may have marks from being in a retail store.A bag worth remembering, our new Memoir hobo is sleek in structure with a story to tell. Designed with classic lines in richly hued smooth leather & cheetah print, it can be two ways: cross body or over the shoulder.    Closure: ZipperDrop: Adjustable strap 20.5" and handle 7.5"Exterior Details: Back Zip PocketHandles / Straps: Detachable strap and handleInterior Details: 2 media pockets and zipper pocketInterior Material: Twill- 100% CottonMaterial:Haircalf & LeatherMeasurements: 13.5"L x 3.25"W x 11"HHardware: Antique BrassThanks for looking, I ship Mon Thru Sat so you get your items fast, please view my other listings and save with a combined shipping discount. I ship to your confirmed ship to address unless you contact me prior to shipment, thanks!Most of my items are here today and gone tomorrow! Thanks for adding them your watching list but remember: Even though I am always looking for more, what you see is what I have! When they're gone they are gone! I ship Daily!!!     On Jun-02-12 at 03:19:19 PDT, seller added the following information:           FREE!  Sellers: Add a FREE map to your listings. FREE!
p11
sS'images'
p12
(lp13
sS'shipping_info'
p14
(lp15
VOnly 1 available
p16
aVShipping:US-Mainland: free(more destinations)
p17
aVCondition: Used
p18
asS'id'
p19
V25781834
p20
s.