(dp1
S'title'
p2
Vscag cheetah 61" velocity deck commercial zero turn riding lawn mower 27hp
p3
sS'url'
p4
S'http://www.ebay.com/itm/SCAG-CHEETAH-61-Velocity-Deck-Commercial-Zero-Turn-Riding-Lawn-Mower-27Hp-/322525862254?hash=item4b180a196e:g:NnAAAOSwhdRYWo6G'
p5
sS'price'
p6
VUS $9,800.00
p7
sS'seller'
p8
(dp9
g4
Vhttp://www.ebay.com/usr/quailridgeoutfitters?_trksid=p2047675.l2559
p10
sS'name'
p11
V quailridgeoutfitters
p12
ssS'description_links'
p13
(lp14
Vhttp://vi.vipr.ebaydesc.com/ws/eBayISAPI.dll?ViewItemDescV4&item=322525862254&t=1497016861000&tid=10&category=177021&seller=quailridgeoutfitters&excSoj=1&excTrk=1&lsite=0&ittenable=false&domain=ebay.com&descgauge=1
p15
asS'images'
p16
(lp17
(dp18
S'maxImageUrl'
p19
Vhttp://i.ebayimg.com/images/g/NnAAAOSwhdRYWo6G/s-l1600.jpg
p20
sS'displayImgUrl'
p21
Vhttp://i.ebayimg.com/images/g/NnAAAOSwhdRYWo6G/s-l300.jpg
p22
sa(dp23
g19
Vhttp://i.ebayimg.com/images/g/M1wAAOSw6DtYWo5c/s-l1600.jpg
p24
sg21
Vhttp://i.ebayimg.com/images/g/M1wAAOSw6DtYWo5c/s-l300.jpg
p25
sa(dp26
g19
Vhttp://i.ebayimg.com/images/g/AkcAAOSwhdRYWozV/s-l1600.jpg
p27
sg21
Vhttp://i.ebayimg.com/images/g/AkcAAOSwhdRYWozV/s-l300.jpg
p28
sa(dp29
g19
Vhttp://i.ebayimg.com/images/g/9c0AAOSwJ7RYWozT/s-l1600.jpg
p30
sg21
Vhttp://i.ebayimg.com/images/g/9c0AAOSwJ7RYWozT/s-l300.jpg
p31
sa(dp32
g19
Vhttp://i.ebayimg.com/images/g/s3wAAOSwUsJYWo72/s-l1600.jpg
p33
sg21
Vhttp://i.ebayimg.com/images/g/s3wAAOSwUsJYWo72/s-l300.jpg
p34
sasS'shipping_info'
p35
(dp36
S'item_location'
p37
(lp38
V\u000aFranklin, Kentucky, United States
p39
asS'delivery'
p40
(lp41
VVaries
p42
asS'posts_to'
p43
(lp44
VLocal pick-up only
p45
assS'id'
p46
S'322525862254'
p47
s.