(dp1
S'title'
p2
V\u000aBRAND NEW INSPIRED BOMBER KANYE WEST CHEETAH JACKET\u000a
p3
sS'url'
p4
Vhttp://www.ioffer.com/i/brand-new-inspired-bomber-kanye-west-cheetah-jacket-527943878
p5
sS'price'
p6
V$220.00
p7
sS'seller'
p8
(lp9
sS'description_links'
p10
VEURO SIZING DESIGNER INSPIRED  SIZES, S,M,L SIZES 1 SIZE SMALLER THEN THE ACTUAL SIZE BUY NOW & GET A FREE GOODIE FEW LEFT ! GET YOURS TODAY 3 LEFT
p11
sS'images'
p12
(lp13
Vhttp://cdn.iofferphoto.com/img3/item/527/943/878/t_brand-new-inspired-bomber-kanye-west-cheetah-jacket-3c06.jpg
p14
aVhttp://cdn.iofferphoto.com/img3/item/527/943/878/t_brand-new-inspired-bomber-kanye-west-cheetah-jacket-3c70.jpg
p15
asS'shipping_info'
p16
VAvailable ColorsAvailable SizesSizesSmallMediumLargeEstimated Shipping3 - 5 Days
p17
sS'id'
p18
V527943878_1497067223
p19
s.