(dp1
S'title'
p2
V\u000aEco Friendly Stone Polishing Pad Cheetah 20 inch Kit\u000a
p3
sS'url'
p4
Vhttp://www.ioffer.com/i/eco-friendly-stone-polishing-pad-cheetah-20-inch-kit-553014394
p5
sS'price'
p6
V$629.95
p7
sS'seller'
p8
(lp9
sS'description_links'
p10
VEco Stone Diamond Stone Polishing Cheetah Pad 20" Kit Environmentally Friendly Also available Single pads  Set Include  Step 1 - Aggressive Grit, Step 2 - Moderate Grit, Step 3 - Light Grit, Step 4 - Finishing Grit, Step 5 - Finishing Touch EcoPad 11,000 Grit Buy now at www.flooringsupplyshop.com Floor Machines - 17" (175-350 rpm) The Fastest Stone Restoration System On The Planet!!! Polish like a pro Better than factory finish in less time, every timeVery easy To Use Up to 70% reduction in labor As much as 75% lower cost Work well on any floor buffer, orbital or planetary machine No heavy duty equipment required Extremely fast cutting No chemicals used, only water No acidic components Extreme concentration of micro abrasives Works incredibly well on ALL Marbles, Travertine, Limestone, Terrazzo and Polished Concrete Coming soon in 5\u201d, 8\u201d, 17\u201d, and 20"Chemical free Diamond pads are an Eco Friendly way to achieve a dull hone on Travertine, Marble, or Limestone Floors, countertops or walls. Use on floors walls or countertops with little to no lippage (uneven tiles). Pads remove wear and provide a variety of appearance levels from dull hone (no shine) to highly polished. Safe on all stones and tile, will not damage any stone Professional strength formula.Made in the U.S.A Eco Friendly Cheetah Pads FAQs How to get the most from your Cheetah Eco PadsEco Friendly Stone Polishing Pads Video's In stock - Same day shipping  Our store open to the public 5047 W Jefferson Blvd Los Angeles CA 90016Mon - Fri 7:00 am - 5:00pmSunday 12 noon - 4:00pm For more product visit our web site http://www.flooringsupplyshop.com/ Or call us at 323-731-8453
p11
sS'images'
p12
(lp13
Vhttp://cdn.iofferphoto.com/img3/item/553/014/394/t_eco-friendly-stone-polishing-pad-cheetah-20-inch-kit-a221.jpg
p14
aVhttp://cdn.iofferphoto.com/img3/item/553/014/394/t_kV5Leco-friendly-stone-polishing-pad-cheetah-20-inch-made-i.jpg
p15
aVhttp://cdn.iofferphoto.com/img3/item/553/014/394/t_dql3eco-friendly-stone-polishing-pad-cheetah-20-inch-made-i.jpg
p16
aVhttp://cdn.iofferphoto.com/img3/item/553/014/394/t_kCOgeco-friendly-stone-polishing-pad-cheetah-20-inch-made-i.jpg
p17
aVhttp://cdn.iofferphoto.com/img3/item/553/014/394/t_0peOeco-friendly-stone-polishing-pad-cheetah-20-inch-made-i.jpg
p18
aVhttp://cdn.iofferphoto.com/img3/item/553/014/394/t_hgs8eco-friendly-stone-polishing-pad-cheetah-20-inch-made-i.jpg
p19
aVhttp://cdn.iofferphoto.com/img3/item/553/014/394/t_5iHveco-friendly-stone-polishing-pad-cheetah-20-inch-made-i.jpg
p20
aVhttp://cdn.iofferphoto.com/img3/item/553/014/394/t_Utzmeco-friendly-stone-polishing-pad-cheetah-20-inch-made-i.jpg
p21
aVhttp://cdn.iofferphoto.com/img3/item/553/014/394/t_ejbNeco-friendly-stone-polishing-pad-cheetah-20-inch-made-i.jpg
p22
aVhttp://cdn.iofferphoto.com/img3/item/553/014/394/t_qZdbeco-friendly-stone-polishing-pad-cheetah-20-inch-made-i.jpg
p23
aVhttp://cdn.iofferphoto.com/img3/item/553/014/394/t_W6Wyeco-friendly-stone-polishing-pad-cheetah-20-inch-made-i.jpg
p24
aVhttp://cdn.iofferphoto.com/img3/item/553/014/394/t_p6Abeco-friendly-stone-polishing-pad-cheetah-20-inch-made-i.jpg
p25
aVhttp://cdn.iofferphoto.com/img3/item/553/014/394/t_wSLLeco-friendly-stone-polishing-pad-cheetah-20-inch-made-i.jpg
p26
asS'shipping_info'
p27
VBrandFlooring Supply ShopConditionNewCountry of manufactureUnited StatesModelCheetah PadsMpnCp020UseMarble,  Travertine, and  Limestone And TerrazzoEstimated Shipping1 - 3 Days
p28
sS'id'
p29
V553014394_1497067195
p30
s.