(dp1
S'title'
p2
V\u000aOriginal Cubot Cheetah 5.5 Inch FHD Screen Smartphone A\u000a
p3
sS'url'
p4
Vhttp://www.ioffer.com/i/original-cubot-cheetah-5-5-inch-fhd-screen-smartphone-a-631464891
p5
sS'price'
p6
V$182.66
p7
sS'seller'
p8
(lp9
sS'description_links'
p10
VOriginal Cubot Cheetah 5.5 Inch FHD Screen Smartphone Android 6.0 MTK6753A Octa Core Cell Phone 3GB RAM+32GB ROM Mobile Phone:Unlock Phones : YesGoogle Play : YesCubot Modle : CheetahTalk Time : 3-5 hoursBattery Type : Not DetachableDisplay Resolution : 1920x1080Release Date : 2016Language : Norwegian,Russian,Italian,German,French,Spanish,Polish,Turkish,Portuguese,English,OtherOperation System : AndroidDesign : BarCPU : Octa CoreFeature : MP3 Playback,GPRS,Touchscreen,Message,Bluetooth,Video Player,Front Camera,Wi-Fi,Memory Card Slots,EmailBrand Name : CubotThickness : Ultra Slim(t need pay for shipping fee, we cover2) in order all can safely arrive ,i will add tracking number for each order shipmentIt will be shipped within 2 working days after we receive your payment (except weekend and holiday). Shipment normally takes within 7-15 business days to arrive. Exact delivery days varies by different countries. Sometimes take a little longer , Due to Local dispatch or other reasons . It might goes more than 20 days , if you cannot get within 20 days since we ship out , please email us.If you have any questions regarding the transaction, please feel free to contact me.I will be within 24 hours give you a satisfactory answer !!
p11
sS'images'
p12
(lp13
Vhttp://cdn.iofferphoto.com/img/item/631/464/891/t_1WdCoriginal-cubot-cheetah-5-5-inch-fhd-screen-smartphone-a.jpg
p14
aVhttp://cdn.iofferphoto.com/img/item/631/464/891/t_PzWAoriginal-cubot-cheetah-5-5-inch-fhd-screen-smartphone-a.jpg
p15
aVhttp://cdn.iofferphoto.com/img/item/631/464/891/t_D7iBoriginal-cubot-cheetah-5-5-inch-fhd-screen-smartphone-a.jpg
p16
asS'shipping_info'
p17
(lp18
sS'id'
p19
V631464891_1497067230
p20
s.