(dp1
S'title'
p2
V\u000a5642401 HUGSIDEA C4432R 3D Cheetah's Eye Print Kitchen\u000a
p3
sS'url'
p4
Vhttp://www.ioffer.com/i/5642401-hugsidea-c4432r-3d-cheetah-s-eye-print-kitchen-637481285
p5
sS'price'
p6
V$22.88
p7
sS'seller'
p8
(lp9
sS'description_links'
p10
VHUGSIDEA C4432R 3D Cheetah's Eye Print Kitchen Cooking Apronauthentic / antifoulingClassification Product TypeAprons Aesthetic MaterialDacron Manufacturer BrandHUGSIDEA Package Package TypePlain Package Contents1*Apron Dimensions us | metricDepth1.3 mmHeight750 mmWidth670 mmProduct Weight140 gFastTechSKU5642401DATE LISTED8/24/2016      5642401
p11
sS'images'
p12
(lp13
Vhttps://img.fasttechcdn.com/564/5642401/5642401-1.jpg
p14
aVhttps://img.fasttechcdn.com/564/5642401/5642401-2.jpg
p15
aVhttps://img.fasttechcdn.com/564/5642401/5642401-3.jpg
p16
asS'shipping_info'
p17
(lp18
sS'id'
p19
V637481285_1497067248
p20
s.