(dp1
S'title'
p2
VRABBIT HIDES - STENCILED CHEETAH
p3
sS'url'
p4
Vhttp://www.glacierwear.com/rabbit-hides-stenciled-cheetah.html
p5
sS'price'
p6
V6.95
p7
sS'seller'
p8
(lp9
sS'description_links'
p10
V- Domestic European Rabbit Pelts- Select Quality Fur- Stenciled Color - Cheetah- Fresh Commercial Tanned- Super Soft and Stretchy Leather
p11
sS'images'
p12
(lp13
Vhttp://www.glacierwear.com/media/catalog/product/cache/1/thumbnail/500x/17f82f742ffe127f42dca9de82fb58b1/i/m/image002_59_15.png
p14
asS'shipping_info'
p15
VFree Shipping on $100.00+
p16
sS'id'
p17
Vcheetah_1497067189
p18
s.