(dp1
S'title'
p2
Vfrench c1900 silver overlay on bovine cow bone fan hand colored engraving
p3
sS'url'
p4
S'http://www.ebay.com/itm/French-c1900-Silver-Overlay-on-Bovine-Cow-Bone-FAN-Hand-Colored-engraving-/182178107551?hash=item2a6aa9509f:g:5hEAAOSw3YNXaDHj'
p5
sS'price'
p6
VUS $325.00
p7
sS'seller'
p8
(dp9
g4
Vhttp://www.ebay.com/usr/amphora_art_antiques?_trksid=p2047675.l2559
p10
sS'name'
p11
V amphora_art_antiques
p12
ssS'description_links'
p13
(lp14
Vhttp://vi.vipr.ebaydesc.com/ws/eBayISAPI.dll?ViewItemDescV4&item=182178107551&t=1475101066000&tid=10&category=2711&seller=amphora_art_antiques&excSoj=1&excTrk=1&lsite=0&ittenable=false&domain=ebay.com&descgauge=1
p15
asS'images'
p16
(lp17
(dp18
S'maxImageUrl'
p19
Vhttp://i.ebayimg.com/images/g/5hEAAOSw3YNXaDHj/s-l1600.jpg
p20
sS'displayImgUrl'
p21
Vhttp://i.ebayimg.com/images/g/5hEAAOSw3YNXaDHj/s-l300.jpg
p22
sa(dp23
g19
Vhttp://i.ebayimg.com/images/g/7hIAAOSwvg9XaDHw/s-l1600.jpg
p24
sg21
Vhttp://i.ebayimg.com/images/g/7hIAAOSwvg9XaDHw/s-l300.jpg
p25
sa(dp26
g19
Vhttp://i.ebayimg.com/images/g/r5gAAOSwMNxXaDIP/s-l1600.jpg
p27
sg21
Vhttp://i.ebayimg.com/images/g/r5gAAOSwMNxXaDIP/s-l300.jpg
p28
sasS'shipping_info'
p29
(dp30
S'item_location'
p31
(lp32
V\u000aBeverly Hills, California, United States
p33
asS'delivery'
p34
(lp35
VVaries
p36
asS'posts_to'
p37
(lp38
VWorldwide
p39
assS'id'
p40
S'182178107551'
p41
s.