(dp1
S'title'
p2
VMen's Black Leather Jacket with Fringed Western Cow Boy  with Bone and Beads
p3
sS'url'
p4
Vhttp://www.ecrater.com/p/23346957/mens-black-leather-jacket-with-fringed?keywords=cow+bone
p5
sS'price'
p6
V$199.99
p7
sS'seller'
p8
Vhttp://thaicollection.ecrater.com
p9
sS'description_links'
p10
VMen's Black Leather Jacket with Fringed Western Cow Boy with Bone and Beads 100 % Genuine Top Quality Suede LeatherWestern Jacket made of high quality genuine Suede leather .Features Bone,Beads , .hand sewn Patches over shoulders,YKK ZippersFine premium stitchingAll sizes and Colors Available 20$ will be extra for sizeabove thenXLMake sure to see the size chart before selecting yoursize.There will be slight difference in original product and the pictures shown onthe website.Accessories like zips etc could be different from images.Changes in design, color, leather type etc can be made on demand.Men\u2019s Leather Jacket Size Chart       Measurements in Inches          Size      Jacket Chest      Waist      Shoulders      Sleeves      Length        Extra Small      38"      35\u201d      17"      24"      24"        Small      40"      37\u201d      17.50"      25"      24"        Medium      42"      39\u201d      18"      25.50"      24.50"        Large      44"      41\u201d      18.50"      26"      25"        XL      46"      43\u201d      19"      26.50"      25"        2XL      48"      45\u201d      19.50"      27"      26"        3XL      50"      47\u201d      20"      27.50"      26.50"        4XL      52"      49\u201d      20.5"      27.50"      26.50"        5XL      54"      51\u201d      21.5"      27.50"      26.50"        6XL      56"      53\u201d      22"      27.50"      26.50"    Size:More than XL $20 will be charged please add 20$ into invoicebefore paying.Shipping:     Provider      Charges      Delivery Time        Fast Delivery For USA with Track number      $39.99      3  - 5 Working Days   You can buy as many products from combine shipping eligible items from ourstore. We offers $10 discount on each additional item purchase.Combine Shipping Policy:You can buy as many products from combine shipping eligible items from ourstore. We offers $10 discount on each additional item purchase.Payment Methods:We accept only PayPal Payments.Important Note:Please alsoread following important information carefully     We  will usually ship your winning item within 5 - 7 business days after  receiving the complete payment.        All our items are custom made upon receiving clear  payment.        Weight  and size of Jackets may still vary slightly from piece to piece due to  difference in calibration of weighing and measuring scales.        The  buyer is full responsible for any import customs duties and taxes in his  country. We do not have any control over these duties, taxes & etc.        In case of return, we charge 15% restocking fee   Contact:Please contact for further details and inquiry regardingthe products via eCRATER Message
p11
sS'images'
p12
(lp13
sS'shipping_info'
p14
(lp15
VOnly 1 available
p16
aVShipping:US-Mainland: $39.88(more destinations)
p17
aVCondition: Used
p18
asS'id'
p19
V23346957
p20
s.