(dp1
S'title'
p2
VBrown-headed Cowbird Egg (23mm)
p3
sS'url'
p4
Vhttp://www.skullsunlimited.com/record_variant.php?id=5505
p5
sS'price'
p6
V$20.00                                                     This item can ship for only $5.95* (*Within the contiguous United States only.)
p7
sS'seller'
p8
(lp9
sS'description_links'
p10
VThe Brown-headed Cowbird, is a small finch like bird found in the temperate to subtropical North America. A promiscuous and a brood parasite, eggs are laid in the nests of other bird species and the young reared by these hosts, sometimes at the expense of the host's young. Brown-headed Cowbird females can lay 36 eggs in a season, 144 different species of bird have been know to have raised young cowbirds.
p11
sS'images'
p12
(lp13
Vhttp://www.skullsunlimited.com/userfiles/image/category5_species_2767.jpg
p14
asS'shipping_info'
p15
(lp16
sS'id'
p17
V5505_1497032308
p18
s.