(dp1
S'title'
p2
VCOW LEATHER - CARAMEL
p3
sS'url'
p4
Vhttp://www.glacierwear.com/cow-leather-caramel.html
p5
sS'price'
p6
V221
p7
sS'seller'
p8
(lp9
sS'description_links'
p10
Vlth1146Cow Leather - Caramel in Color- Nappa Top Grain Finish - Suede Backside- Approximate Weight\u20142-3 oz. (1/32 inches thick)- Prime #2 Leather - Garment and Upholstery Quality- Natural Imperfections, Scarring and a Few Holes Visible Hole in Center - The Rest of Hide is Fine (Priced Accordingly)
p11
sS'images'
p12
(lp13
Vhttp://www.glacierwear.com/media/catalog/product/cache/1/thumbnail/500x/17f82f742ffe127f42dca9de82fb58b1/i/m/image002_60_140.png
p14
asS'shipping_info'
p15
VFree Shipping on $100.00+
p16
sS'id'
p17
Vcaramel_1497032505
p18
s.