(dp1
S'title'
p2
VCOW LEATHER - PALE GRAY (SIDES)
p3
sS'url'
p4
Vhttp://www.glacierwear.com/cow-leather-pale-gray-sides.html
p5
sS'price'
p6
V125
p7
sS'seller'
p8
(lp9
sS'description_links'
p10
Vlth1179Cow Leather - Pale Gray in Color- Nappa Top Grain Finish - Suede Backside- Approximate Weight\u20142-3 oz. (1 oz = 1/64 of an inch in thickness)- First Quality Leather - Garment and Upholstery Quality - Natural Imperfections, Scarring, and a Few Holes (No Center Holes)Sides Tend to be Long and Narrow (View Images)
p11
sS'images'
p12
(lp13
Vhttp://www.glacierwear.com/media/catalog/product/cache/1/thumbnail/500x/17f82f742ffe127f42dca9de82fb58b1/g/r/gre.jpg
p14
asS'shipping_info'
p15
VFree Shipping on $100.00+
p16
sS'id'
p17
Vsides_1497032511
p18
s.