(dp1
S'title'
p2
V1997 princess diana ty bear. brand new condition, always kept in case
p3
sS'url'
p4
S'http://www.ebay.com/itm/1997-princess-diana-TY-bear-brand-new-condition-always-kept-in-case-/181748250774?hash=item2a510a3896:g:ygUAAOSwNSxVWM1L'
p5
sS'price'
p6
VUS $100,000.00
p7
sS'seller'
p8
(dp9
g4
Vhttp://www.ebay.com/usr/bray_bray2012?_trksid=p2047675.l2559
p10
sS'name'
p11
V bray_bray2012
p12
ssS'description_links'
p13
(lp14
Vhttp://vi.vipr.ebaydesc.com/ws/eBayISAPI.dll?ViewItemDescV4&item=181748250774&t=0&tid=10&category=440&seller=bray_bray2012&excSoj=1&excTrk=1&lsite=0&ittenable=false&domain=ebay.com&descgauge=1
p15
asS'images'
p16
(lp17
(dp18
S'maxImageUrl'
p19
Vhttp://i.ebayimg.com/images/g/ygUAAOSwNSxVWM1L/s-l1600.jpg
p20
sS'displayImgUrl'
p21
Vhttp://i.ebayimg.com/images/g/ygUAAOSwNSxVWM1L/s-l300.jpg
p22
sa(dp23
g19
Vhttp://i.ebayimg.com/images/g/oq0AAOSwstxVWM2D/s-l1600.jpg
p24
sg21
Vhttp://i.ebayimg.com/images/g/oq0AAOSwstxVWM2D/s-l300.jpg
p25
sa(dp26
g19
Vhttp://i.ebayimg.com/images/g/sykAAOSwstxVWM4J/s-l1600.jpg
p27
sg21
Vhttp://i.ebayimg.com/images/g/sykAAOSwstxVWM4J/s-l300.jpg
p28
sa(dp29
g19
Vhttp://i.ebayimg.com/images/g/cMAAAOSwBahVWM5B/s-l1600.jpg
p30
sg21
Vhttp://i.ebayimg.com/images/g/cMAAAOSwBahVWM5B/s-l300.jpg
p31
sa(dp32
g19
Vhttp://i.ebayimg.com/images/g/UVQAAOSw3xJVWM6R/s-l1600.jpg
p33
sg21
Vhttp://i.ebayimg.com/images/g/UVQAAOSw3xJVWM6R/s-l300.jpg
p34
sasS'shipping_info'
p35
(dp36
S'item_location'
p37
(lp38
V\u000aEast Petersburg, Pennsylvania, United States
p39
asS'delivery'
p40
(lp41
VVaries
p42
asS'posts_to'
p43
(lp44
VUnited States
p45
assS'id'
p46
S'181748250774'
p47
s.