(dp1
S'title'
p2
Vty beanie baby, 1st edition Princess Diana bear.
p3
sS'url'
p4
Vhttp://www.ecrater.com/p/22824089/ty-beanie-baby-1st-edition?keywords=bear
p5
sS'price'
p6
V$899.99
p7
sS'seller'
p8
Vhttp://geraldsoddmentshop.ecrater.com
p9
sS'description_links'
p10
VOriginal Ty beanie baby, excellent condition, kept in climate controlled storage for the last 15 years.
p11
sS'images'
p12
(lp13
Vhttp://s.ecrater.com/stores/360591/5586dacce4897_360591b.jpg
p14
asS'shipping_info'
p15
(lp16
VOnly 1 available
p17
aVShipping:USPS calculated - check
p18
aVCondition: Brand new
p19
asS'id'
p20
V22824089
p21
s.