(dp1
S'title'
p2
V2016 jeep wrangler black bear 4x4 4dr suv
p3
sS'url'
p4
S'http://www.ebay.com/itm/2016-Jeep-Wrangler-Black-Bear-4x4-4dr-SUV-/252857297032?hash=item3adf782888:g:Il0AAOSwnF9Y7JZA&vxp=mtr'
p5
sS'price'
p6
VUS $54,999.00
p7
sS'seller'
p8
(dp9
g4
Vhttp://www.ebay.com/usr/soflojeeps?_trksid=p2047675.l2559
p10
sS'name'
p11
V soflojeeps
p12
ssS'description_links'
p13
(lp14
Vhttp://vi.vipr.ebaydesc.com/ws/eBayISAPI.dll?ViewItemDescV4&item=252857297032&t=1495035675000&tid=10&category=6285&seller=soflojeeps&excSoj=1&excTrk=1&lsite=100&ittenable=false&domain=ebay.com&descgauge=1
p15
asS'images'
p16
(lp17
(dp18
S'maxImageUrl'
p19
Vhttp://i.ebayimg.com/images/g/Il0AAOSwnF9Y7JZA/s-l1600.jpg
p20
sS'displayImgUrl'
p21
Vhttp://i.ebayimg.com/images/g/Il0AAOSwnF9Y7JZA/s-l300.jpg
p22
sa(dp23
g19
Vhttp://i.ebayimg.com/images/g/-MsAAOSwls5Y7JZA/s-l1600.jpg
p24
sg21
Vhttp://i.ebayimg.com/images/g/-MsAAOSwls5Y7JZA/s-l300.jpg
p25
sa(dp26
g19
Vhttp://i.ebayimg.com/images/g/1xcAAOSww3tY7JZA/s-l1600.jpg
p27
sg21
Vhttp://i.ebayimg.com/images/g/1xcAAOSww3tY7JZA/s-l300.jpg
p28
sa(dp29
g19
Vhttp://i.ebayimg.com/images/g/FaUAAOSwAANY7JZA/s-l1600.jpg
p30
sg21
Vhttp://i.ebayimg.com/images/g/FaUAAOSwAANY7JZA/s-l300.jpg
p31
sa(dp32
g19
Vhttp://i.ebayimg.com/images/g/DoMAAOSwB-1Y7JZA/s-l1600.jpg
p33
sg21
Vhttp://i.ebayimg.com/images/g/DoMAAOSwB-1Y7JZA/s-l300.jpg
p34
sa(dp35
g19
Vhttp://i.ebayimg.com/images/g/jaMAAOSw~CFY7JZA/s-l1600.jpg
p36
sg21
Vhttp://i.ebayimg.com/images/g/jaMAAOSw~CFY7JZA/s-l300.jpg
p37
sa(dp38
g19
Vhttp://i.ebayimg.com/images/g/PdYAAOSwpP9Y7JZA/s-l1600.jpg
p39
sg21
Vhttp://i.ebayimg.com/images/g/PdYAAOSwpP9Y7JZA/s-l300.jpg
p40
sa(dp41
g19
Vhttp://i.ebayimg.com/images/g/IlQAAOSwnF9Y7JZA/s-l1600.jpg
p42
sg21
Vhttp://i.ebayimg.com/images/g/IlQAAOSwnF9Y7JZA/s-l300.jpg
p43
sa(dp44
g19
Vhttp://i.ebayimg.com/images/g/DnEAAOSwB-1Y7JZA/s-l1600.jpg
p45
sg21
Vhttp://i.ebayimg.com/images/g/DnEAAOSwB-1Y7JZA/s-l300.jpg
p46
sa(dp47
g19
Vhttp://i.ebayimg.com/images/g/jZ8AAOSw~CFY7JZA/s-l1600.jpg
p48
sg21
Vhttp://i.ebayimg.com/images/g/jZ8AAOSw~CFY7JZA/s-l300.jpg
p49
sa(dp50
g19
Vhttp://i.ebayimg.com/images/g/wvoAAOSwU8hY7JZA/s-l1600.jpg
p51
sg21
Vhttp://i.ebayimg.com/images/g/wvoAAOSwU8hY7JZA/s-l300.jpg
p52
sa(dp53
g19
Vhttp://i.ebayimg.com/images/g/Ik0AAOSwnF9Y7JZA/s-l1600.jpg
p54
sg21
Vhttp://i.ebayimg.com/images/g/Ik0AAOSwnF9Y7JZA/s-l300.jpg
p55
sasS'shipping_info'
p56
(dp57
S'item_location'
p58
(lp59
sS'delivery'
p60
(lp61
sS'posts_to'
p62
(lp63
VLocal pick-up only
p64
assS'id'
p65
S'252857297032'
p66
s.