(dp1
S'title'
p2
VGreen thorn  f95 M390 Titanium Double row ceramic ball bearing folding outdoor camp hunt pocket
p3
sS'url'
p4
Vhttp://www.ecrater.com/p/26912966/green-thorn-f95-m390-titanium?keywords=bear
p5
sS'price'
p6
V$702.15
p7
sS'seller'
p8
Vhttp://vinatools.ecrater.com
p9
sS'description_links'
p10
Vtool knife on sale at reasonable prices, buy Green thorn 2017 f95 M390 Titanium Double row ceramic ball bearing folding outdoor camp hunt pocket fruit kitchen EDC tool knife  We promise the item will be 100% same the picture show . And the item be new, never used before.Tracking Number Provided.FEEDBACK and RETURN POLICY :Your Satisfaction is our goal , If you received the item, Please give us the good feedback . If you have any question. Please DO NOT leaves a negative feedback before contact us.We believe that all the problems can be fixed if you are working with us to solve the problem.Shipped by ePacket shipping which needs about 8-20 business days to arrive.(US)Others shipped by HK post air mail,needs about 15-28 days to arrive.Terms & Conditions- Please do not bids if you do not agree with all the terms and condition
p11
sS'images'
p12
(lp13
Vhttp://s.ecrater.com/stores/403289/58df3ab493fd6_403289b.jpg
p14
asS'shipping_info'
p15
(lp16
V5 available
p17
aVShipping:US-Mainland: free(more destinations)
p18
aVCondition: Brand new
p19
asS'id'
p20
V26912966
p21
s.