(dp1
S'title'
p2
VBrian Urlacher Signed Bears Custom Orange Matted Pro Helmet w/Monsters of the Midway
p3
sS'url'
p4
Vhttp://www.ecrater.com/p/27247777/brian-urlacher-signed-bears-custom?keywords=bear
p5
sS'price'
p6
V$809.00
p7
sS'seller'
p8
Vhttp://powersautographs4.ecrater.com
p9
sS'description_links'
p10
VBrian Urlacher signed Chicago Bears custom orange matted authentic pro helmet with 'Monsters of the Midway' inscription.  Item comes with a Schwartz Sports Memorabilia tamper-proof numbered hologram and Certificate of Authenticity which can be verified online.
p11
sS'images'
p12
(lp13
Vhttp://s.ecrater.com/stores/406576/59212afa87430_406576b.jpg
p14
asS'shipping_info'
p15
(lp16
VOnly 1 available
p17
aVShipping:US-Mainland: free(more destinations)
p18
aVSales Tax: Missouri: 7.85%
p19
aVCondition: Brand new
p20
asS'id'
p21
V27247777
p22
s.