(dp1
S'title'
p2
V1978, brown bear 1, auger backfiller
p3
sS'url'
p4
S'http://www.ebay.com/itm/1978-Brown-Bear-1-Auger-backfiller-/282216495109?hash=item41b569f805:g:u6IAAOSw-CpX~Xex'
p5
sS'price'
p6
VUS $62,500.00
p7
sS'seller'
p8
(dp9
g4
Vhttp://www.ebay.com/usr/postenfarms?_trksid=p2047675.l2559
p10
sS'name'
p11
V postenfarms
p12
ssS'description_links'
p13
(lp14
Vhttp://vi.vipr.ebaydesc.com/ws/eBayISAPI.dll?ViewItemDescV4&item=282216495109&t=1436115779000&tid=223353115&category=177643&seller=postenfarms&excSoj=1&excTrk=1&lsite=0&ittenable=false&domain=ebay.com&descgauge=1
p15
asS'images'
p16
(lp17
(dp18
S'maxImageUrl'
p19
Vhttp://i.ebayimg.com/images/g/u6IAAOSw-CpX~Xex/s-l1600.jpg
p20
sS'displayImgUrl'
p21
Vhttp://i.ebayimg.com/images/g/u6IAAOSw-CpX~Xex/s-l300.jpg
p22
sa(dp23
g19
Vhttp://i.ebayimg.com/images/g/S2cAAOSwzaJX~Xet/s-l1600.jpg
p24
sg21
Vhttp://i.ebayimg.com/images/g/S2cAAOSwzaJX~Xet/s-l300.jpg
p25
sa(dp26
g19
Vhttp://i.ebayimg.com/images/g/Lk4AAOSw8w1X~Xey/s-l1600.jpg
p27
sg21
Vhttp://i.ebayimg.com/images/g/Lk4AAOSw8w1X~Xey/s-l300.jpg
p28
sa(dp29
g19
Vhttp://i.ebayimg.com/images/g/vAwAAOSw-CpX~Xe0/s-l1600.jpg
p30
sg21
Vhttp://i.ebayimg.com/images/g/vAwAAOSw-CpX~Xe0/s-l300.jpg
p31
sa(dp32
g19
Vhttp://i.ebayimg.com/images/g/XrcAAOSw4shX~Xe4/s-l1600.jpg
p33
sg21
Vhttp://i.ebayimg.com/images/g/XrcAAOSw4shX~Xe4/s-l300.jpg
p34
sasS'shipping_info'
p35
(dp36
S'item_location'
p37
(lp38
V\u000aVillisca, Iowa, United States
p39
asS'delivery'
p40
(lp41
VVaries
p42
asS'posts_to'
p43
(lp44
VLocal pick-up only
p45
assS'id'
p46
S'282216495109'
p47
s.