(dp1
S'title'
p2
Vty beanie baby valentino bear  "with errors" very rare orange heart pvc pellets
p3
sS'url'
p4
S'http://www.ebay.com/itm/TY-BEANIE-BABY-VALENTINO-BEAR-WITH-ERRORS-VERY-RARE-ORANGE-HEART-PVC-PELLETS-/302342052846?hash=item4664fd9bee:g:MgEAAOSwax5YwCY-'
p5
sS'price'
p6
VUS $30,000.00
p7
sS'seller'
p8
(dp9
g4
Vhttp://www.ebay.com/usr/susanmg03?_trksid=p2047675.l2559
p10
sS'name'
p11
V susanmg03
p12
ssS'description_links'
p13
(lp14
Vhttp://vi.vipr.ebaydesc.com/ws/eBayISAPI.dll?ViewItemDescV4&item=302342052846&t=1489332236000&tid=10&category=440&seller=susanmg03&excSoj=1&excTrk=1&lsite=0&ittenable=false&domain=ebay.com&descgauge=1
p15
asS'images'
p16
(lp17
(dp18
S'maxImageUrl'
p19
Vhttp://i.ebayimg.com/images/g/MgEAAOSwax5YwCY-/s-l1600.jpg
p20
sS'displayImgUrl'
p21
Vhttp://i.ebayimg.com/images/g/MgEAAOSwax5YwCY-/s-l300.jpg
p22
sa(dp23
g19
Vhttp://i.ebayimg.com/images/g/EX4AAOSwTM5YwCZG/s-l1600.jpg
p24
sg21
Vhttp://i.ebayimg.com/images/g/EX4AAOSwTM5YwCZG/s-l300.jpg
p25
sa(dp26
g19
Vhttp://i.ebayimg.com/images/g/HvgAAOSwXYtYwCZO/s-l1600.jpg
p27
sg21
Vhttp://i.ebayimg.com/images/g/HvgAAOSwXYtYwCZO/s-l300.jpg
p28
sa(dp29
g19
Vhttp://i.ebayimg.com/images/g/4bwAAOSw4CFYwCZU/s-l1600.jpg
p30
sg21
Vhttp://i.ebayimg.com/images/g/4bwAAOSw4CFYwCZU/s-l300.jpg
p31
sa(dp32
g19
Vhttp://i.ebayimg.com/images/g/Xo8AAOSwol5YwCZg/s-l1600.jpg
p33
sg21
Vhttp://i.ebayimg.com/images/g/Xo8AAOSwol5YwCZg/s-l300.jpg
p34
sa(dp35
g19
Vhttp://i.ebayimg.com/images/g/-Y8AAOSw32lYwCZp/s-l1600.jpg
p36
sg21
Vhttp://i.ebayimg.com/images/g/-Y8AAOSw32lYwCZp/s-l300.jpg
p37
sa(dp38
g19
Vhttp://i.ebayimg.com/images/g/JOEAAOSwXYtYwCZr/s-l1600.jpg
p39
sg21
Vhttp://i.ebayimg.com/images/g/JOEAAOSwXYtYwCZr/s-l300.jpg
p40
sa(dp41
g19
Vhttp://i.ebayimg.com/images/g/CTAAAOSwdGFYwCZz/s-l1600.jpg
p42
sg21
Vhttp://i.ebayimg.com/images/g/CTAAAOSwdGFYwCZz/s-l300.jpg
p43
sasS'shipping_info'
p44
(dp45
S'item_location'
p46
(lp47
V\u000aMount Olivet, Kentucky, United States
p48
asS'delivery'
p49
(lp50
VVaries
p51
asS'posts_to'
p52
(lp53
VUnited States
p54
assS'id'
p55
S'302342052846'
p56
s.