(dp1
S'title'
p2
V2017 jeep wrangler sport big bear edition
p3
sS'url'
p4
S'http://www.ebay.com/itm/2017-Jeep-Wrangler-Sport-Big-Bear-Edition-/361997064694?hash=item5448b4d9f6:g:7DUAAOSwJH1ZMP0L&vxp=mtr'
p5
sS'price'
p6
VUS $36,376.00
p7
sS'seller'
p8
(dp9
g4
Vhttp://www.ebay.com/usr/kchydodge?_trksid=p2047675.l2559
p10
sS'name'
p11
V kchydodge
p12
ssS'description_links'
p13
(lp14
Vhttp://vi.vipr.ebaydesc.com/ws/eBayISAPI.dll?ViewItemDescV4&item=361997064694&t=1496414192000&tid=10&category=6285&seller=kchydodge&excSoj=1&excTrk=1&lsite=100&ittenable=false&domain=ebay.com&descgauge=1
p15
asS'images'
p16
(lp17
(dp18
S'maxImageUrl'
p19
Vhttp://i.ebayimg.com/images/g/7DUAAOSwJH1ZMP0L/s-l1600.jpg
p20
sS'displayImgUrl'
p21
Vhttp://i.ebayimg.com/images/g/7DUAAOSwJH1ZMP0L/s-l300.jpg
p22
sa(dp23
g19
Vhttp://i.ebayimg.com/images/g/ZEUAAOSwAPVZMP0N/s-l1600.jpg
p24
sg21
Vhttp://i.ebayimg.com/images/g/ZEUAAOSwAPVZMP0N/s-l300.jpg
p25
sa(dp26
g19
Vhttp://i.ebayimg.com/images/g/pz4AAOSwjL5ZMP0P/s-l1600.jpg
p27
sg21
Vhttp://i.ebayimg.com/images/g/pz4AAOSwjL5ZMP0P/s-l300.jpg
p28
sa(dp29
g19
Vhttp://i.ebayimg.com/images/g/nqcAAOSwcB5ZMP0R/s-l1600.jpg
p30
sg21
Vhttp://i.ebayimg.com/images/g/nqcAAOSwcB5ZMP0R/s-l300.jpg
p31
sa(dp32
g19
Vhttp://i.ebayimg.com/images/g/-MwAAOSw-K9ZMP0T/s-l1600.jpg
p33
sg21
Vhttp://i.ebayimg.com/images/g/-MwAAOSw-K9ZMP0T/s-l300.jpg
p34
sa(dp35
g19
Vhttp://i.ebayimg.com/images/g/ntEAAOSwcB5ZMP0W/s-l1600.jpg
p36
sg21
Vhttp://i.ebayimg.com/images/g/ntEAAOSwcB5ZMP0W/s-l300.jpg
p37
sa(dp38
g19
Vhttp://i.ebayimg.com/images/g/oJIAAOSwYvFZMP0Y/s-l1600.jpg
p39
sg21
Vhttp://i.ebayimg.com/images/g/oJIAAOSwYvFZMP0Y/s-l300.jpg
p40
sa(dp41
g19
Vhttp://i.ebayimg.com/images/g/0ngAAOSwlY1ZMP0a/s-l1600.jpg
p42
sg21
Vhttp://i.ebayimg.com/images/g/0ngAAOSwlY1ZMP0a/s-l300.jpg
p43
sa(dp44
g19
Vhttp://i.ebayimg.com/images/g/BY4AAOSw8HBZMP0c/s-l1600.jpg
p45
sg21
Vhttp://i.ebayimg.com/images/g/BY4AAOSw8HBZMP0c/s-l300.jpg
p46
sa(dp47
g19
Vhttp://i.ebayimg.com/images/g/6YMAAOSwjqVZMP0e/s-l1600.jpg
p48
sg21
Vhttp://i.ebayimg.com/images/g/6YMAAOSwjqVZMP0e/s-l300.jpg
p49
sa(dp50
g19
Vhttp://i.ebayimg.com/images/g/0sQAAOSwlY1ZMP0g/s-l1600.jpg
p51
sg21
Vhttp://i.ebayimg.com/images/g/0sQAAOSwlY1ZMP0g/s-l300.jpg
p52
sa(dp53
g19
Vhttp://i.ebayimg.com/images/g/IZYAAOSwn-tZMP0i/s-l1600.jpg
p54
sg21
Vhttp://i.ebayimg.com/images/g/IZYAAOSwn-tZMP0i/s-l300.jpg
p55
sasS'shipping_info'
p56
(dp57
S'item_location'
p58
(lp59
sS'delivery'
p60
(lp61
sS'posts_to'
p62
(lp63
VLocal pick-up only
p64
assS'id'
p65
S'361997064694'
p66
s.