(dp1
S'title'
p2
V\u000aZuni Fetish Native American Bear Fetish Necklace Harrie\u000a
p3
sS'url'
p4
Vhttp://www.ioffer.com/i/zuni-fetish-native-american-bear-fetish-necklace-harrie-601340786
p5
sS'price'
p6
V$777.05
p7
sS'seller'
p8
(lp9
sS'description_links'
p10
V
sS'images'
p11
(lp12
Vhttp://cdn.iofferphoto.com/img3/item/601/340/786/t_9BpCzuni-fetish-native-american-bear-fetish-necklace-harrie.jpg
p13
aVhttp://cdn.iofferphoto.com/img3/item/601/340/786/t_JJUAzuni-fetish-native-american-bear-fetish-necklace-harrie.jpg
p14
aVhttp://cdn.iofferphoto.com/img3/item/601/340/786/t_H3x1zuni-fetish-native-american-bear-fetish-necklace-harrie.jpg
p15
aVhttp://cdn.iofferphoto.com/img3/item/601/340/786/t_xTEmzuni-fetish-native-american-bear-fetish-necklace-harrie.jpg
p16
aVhttp://cdn.iofferphoto.com/img3/item/601/340/786/t_pSUrzuni-fetish-native-american-bear-fetish-necklace-harrie.jpg
p17
aVhttp://cdn.iofferphoto.com/img3/item/601/340/786/t_e5Amzuni-fetish-native-american-bear-fetish-necklace-harrie.jpg
p18
asS'shipping_info'
p19
(lp20
sS'id'
p21
V601340786_1497049819
p22
s.