(dp1
S'title'
p2
V\u000aICE BEAR PLUTO \u000a
p3
sS'url'
p4
Vhttp://www.ioffer.com/i/ice-bear-pluto-624379935
p5
sS'price'
p6
V$1,799.00
p7
sS'seller'
p8
(lp9
sS'description_links'
p10
VEngine TypeSingle Cylinder, 4-strokesCoolingAir CooledDrive SystemBELT/CHAINPiston Displacement49.5ccBore and Stroke1.51 inches x 1.63 inchesCompression Ratio10.5:1Maximum Power1.4/5500kw/r/minMaximum Torque2.0/4500N.m./rpmStarterElectric / KickLength81.4 inchesWidth40.1 inchesHeight41.3 inchesSeat Height28.7 inchesWheelbase59.4 inchesGround Clearance5.1 inchesFront BrakeDiscRear BrakeDiscFront Tire120/70-12Rear Tire205 x 50-10Front Rim12Rear Rim10IgnitionCDIEngine Oil Capacity0.75 QuartsMaximum Speed30mph, may vary depending on road condition, rider weight etc.Net Weight360 lbsGross Weight475 lbsWeight Capacity220 lbFrameSteelPacking Size69.7 inches x 34.2 inches x 32.6 inchesTowing Capacity66 lbsFuel Capacity1.6 galRear SuspensionDual ShockAccessories
p11
sS'images'
p12
(lp13
Vhttp://cdn.iofferphoto.com/img3/item/624/379/935/t_ice-bear-pluto-35ce.jpg
p14
aVhttp://cdn.iofferphoto.com/img3/item/624/379/935/t_ice-bear-pluto-7505.jpg
p15
aVhttp://cdn.iofferphoto.com/img3/item/624/379/935/t_ice-bear-pluto-4877.jpg
p16
aVhttp://cdn.iofferphoto.com/img3/item/624/379/935/t_ice-bear-pluto-587c.jpg
p17
asS'shipping_info'
p18
VColorsBurgundy,  Matte Black,  Metallic White, and  Metallic Neon GreenConditionNewEstimated Shipping15 - 20 Days
p19
sS'id'
p20
V624379935_1497049804
p21
s.