(dp1
S'title'
p2
V\u000aHowl Along with Huckleberry Hound and Yogi Bear vinyl L\u000a
p3
sS'url'
p4
Vhttp://www.ioffer.com/i/howl-along-with-huckleberry-hound-and-yogi-bear-vinyl-l-630506469
p5
sS'price'
p6
V$2,339.00
p7
sS'seller'
p8
(lp9
sS'description_links'
p10
V
sS'images'
p11
(lp12
Vhttp://cdn.iofferphoto.com/img3/item/630/506/469/t_3ezDhowl-along-with-huckleberry-hound-and-yogi-bear-vinyl-l.jpg
p13
aVhttp://cdn.iofferphoto.com/img3/item/630/506/469/t_dy6Ahowl-along-with-huckleberry-hound-and-yogi-bear-vinyl-l.jpg
p14
aVhttp://cdn.iofferphoto.com/img3/item/630/506/469/t_T26Whowl-along-with-huckleberry-hound-and-yogi-bear-vinyl-l.jpg
p15
aVhttp://cdn.iofferphoto.com/img3/item/630/506/469/t_F8F8howl-along-with-huckleberry-hound-and-yogi-bear-vinyl-l.jpg
p16
aVhttp://cdn.iofferphoto.com/img3/item/630/506/469/t_I3s6howl-along-with-huckleberry-hound-and-yogi-bear-vinyl-l.jpg
p17
aVhttp://cdn.iofferphoto.com/img3/item/630/506/469/t_CDIehowl-along-with-huckleberry-hound-and-yogi-bear-vinyl-l.jpg
p18
aVhttp://cdn.iofferphoto.com/img3/item/630/506/469/t_T1tmhowl-along-with-huckleberry-hound-and-yogi-bear-vinyl-l.jpg
p19
aVhttp://cdn.iofferphoto.com/img3/item/630/506/469/t_YPiWhowl-along-with-huckleberry-hound-and-yogi-bear-vinyl-l.jpg
p20
aVhttp://cdn.iofferphoto.com/img3/item/630/506/469/t_AIk5howl-along-with-huckleberry-hound-and-yogi-bear-vinyl-l.jpg
p21
aVhttp://cdn.iofferphoto.com/img3/item/630/506/469/t_gNDGhowl-along-with-huckleberry-hound-and-yogi-bear-vinyl-l.jpg
p22
asS'shipping_info'
p23
(lp24
sS'id'
p25
V630506469_1497049801
p26
s.