(dp1
S'title'
p2
V\u000aBEAR BRYANT Signed Autograph, BAMA Stadium TURF, DVD, T\u000a
p3
sS'url'
p4
Vhttp://www.ioffer.com/i/bear-bryant-signed-autograph-bama-stadium-turf-dvd-t-636718327
p5
sS'price'
p6
V$814.65
p7
sS'seller'
p8
(lp9
sS'description_links'
p10
V
sS'images'
p11
(lp12
Vhttp://cdn.iofferphoto.com/img/item/636/718/327/t_7sy9bear-bryant-signed-autograph-bama-stadium-turf-dvd-t.jpg
p13
aVhttp://cdn.iofferphoto.com/img/item/636/718/327/t_D0X4bear-bryant-signed-autograph-bama-stadium-turf-dvd-t.jpg
p14
aVhttp://cdn.iofferphoto.com/img/item/636/718/327/t_BIUhbear-bryant-signed-autograph-bama-stadium-turf-dvd-t.jpg
p15
aVhttp://cdn.iofferphoto.com/img/item/636/718/327/t_HCqmbear-bryant-signed-autograph-bama-stadium-turf-dvd-t.jpg
p16
aVhttp://cdn.iofferphoto.com/img/item/636/718/327/t_aQ4ebear-bryant-signed-autograph-bama-stadium-turf-dvd-t.jpg
p17
aVhttp://cdn.iofferphoto.com/img/item/636/718/327/t_x2Zcbear-bryant-signed-autograph-bama-stadium-turf-dvd-t.jpg
p18
aVhttp://cdn.iofferphoto.com/img/item/636/718/327/t_N1sjbear-bryant-signed-autograph-bama-stadium-turf-dvd-t.jpg
p19
aVhttp://cdn.iofferphoto.com/img/item/636/718/327/t_t61sbear-bryant-signed-autograph-bama-stadium-turf-dvd-t.jpg
p20
aVhttp://cdn.iofferphoto.com/img/item/636/718/327/t_zI1Kbear-bryant-signed-autograph-bama-stadium-turf-dvd-t.jpg
p21
aVhttp://cdn.iofferphoto.com/img/item/636/718/327/t_8Qhmbear-bryant-signed-autograph-bama-stadium-turf-dvd-t.jpg
p22
aVhttp://cdn.iofferphoto.com/img/item/636/718/327/t_Eeurbear-bryant-signed-autograph-bama-stadium-turf-dvd-t.jpg
p23
aVhttp://cdn.iofferphoto.com/img/item/636/718/327/t_mlm6bear-bryant-signed-autograph-bama-stadium-turf-dvd-t.jpg
p24
asS'shipping_info'
p25
(lp26
sS'id'
p27
V636718327_1497049815
p28
s.