(dp1
S'title'
p2
V\u000aNew Capacity Bear Women Backpack Casual Simple Preppy S\u000a
p3
sS'url'
p4
Vhttp://www.ioffer.com/i/new-capacity-bear-women-backpack-casual-simple-preppy-s-637228954
p5
sS'price'
p6
V$32.64
p7
sS'seller'
p8
(lp9
sS'description_links'
p10
V
sS'images'
p11
(lp12
Vhttp://cdn.iofferphoto.com/img3/item/637/228/954/t_6r9Dnew-capacity-bear-women-backpack-casual-simple-preppy-s.jpg
p13
aVhttp://cdn.iofferphoto.com/img3/item/637/228/954/t_l4EDnew-capacity-bear-women-backpack-casual-simple-preppy-s.jpg
p14
aVhttp://cdn.iofferphoto.com/img3/item/637/228/954/t_xouMnew-capacity-bear-women-backpack-casual-simple-preppy-s.jpg
p15
aVhttp://cdn.iofferphoto.com/img3/item/637/228/954/t_A6ZHnew-capacity-bear-women-backpack-casual-simple-preppy-s.jpg
p16
aVhttp://cdn.iofferphoto.com/img3/item/637/228/954/t_NSEUnew-capacity-bear-women-backpack-casual-simple-preppy-s.jpg
p17
aVhttp://cdn.iofferphoto.com/img3/item/637/228/954/t_fd9Tnew-capacity-bear-women-backpack-casual-simple-preppy-s.jpg
p18
aVhttp://cdn.iofferphoto.com/img3/item/637/228/954/t_JPqCnew-capacity-bear-women-backpack-casual-simple-preppy-s.jpg
p19
aVhttp://cdn.iofferphoto.com/img3/item/637/228/954/t_d0Xrnew-capacity-bear-women-backpack-casual-simple-preppy-s.jpg
p20
asS'shipping_info'
p21
(lp22
sS'id'
p23
V637228954_1497049789
p24
s.