(dp1
S'title'
p2
V\u000aYogi Bear 1959 Original Production cel hand painted sig\u000a
p3
sS'url'
p4
Vhttp://www.ioffer.com/i/yogi-bear-1959-original-production-cel-hand-painted-sig-637604546
p5
sS'price'
p6
V$819.75
p7
sS'seller'
p8
(lp9
sS'description_links'
p10
(lp11
sS'images'
p12
(lp13
Vhttp://cdn.iofferphoto.com/img/item/637/604/546/t_xjK8yogi-bear-1959-original-production-cel-hand-painted-sig.jpg
p14
aVhttp://cdn.iofferphoto.com/img/item/637/604/546/t_POfDyogi-bear-1959-original-production-cel-hand-painted-sig.jpg
p15
aVhttp://cdn.iofferphoto.com/img/item/637/604/546/t_MXVgyogi-bear-1959-original-production-cel-hand-painted-sig.jpg
p16
aVhttp://cdn.iofferphoto.com/img/item/637/604/546/t_GOa5yogi-bear-1959-original-production-cel-hand-painted-sig.jpg
p17
aVhttp://cdn.iofferphoto.com/img/item/637/604/546/t_fNpayogi-bear-1959-original-production-cel-hand-painted-sig.jpg
p18
aVhttp://cdn.iofferphoto.com/img/item/637/604/546/t_3vHTyogi-bear-1959-original-production-cel-hand-painted-sig.jpg
p19
aVhttp://cdn.iofferphoto.com/img/item/637/604/546/t_dgrzyogi-bear-1959-original-production-cel-hand-painted-sig.jpg
p20
aVhttp://cdn.iofferphoto.com/img/item/637/604/546/t_DUeqyogi-bear-1959-original-production-cel-hand-painted-sig.jpg
p21
aVhttp://cdn.iofferphoto.com/img/item/637/604/546/t_glRwyogi-bear-1959-original-production-cel-hand-painted-sig.jpg
p22
aVhttp://cdn.iofferphoto.com/img/item/637/604/546/t_KPYDyogi-bear-1959-original-production-cel-hand-painted-sig.jpg
p23
asS'shipping_info'
p24
VAgePre 1970 Circa 1959Artwork typeProduction CelCountry region of manufactureUnited StatesOriginal reproductionOriginal Production ArtSeller notes\u201ccel Is In Very Good Condition. Production Cels Are Used And Always Show Some Wear. Signature Is Strong And Bold.\u201dStudio showHanna BarberaEstimated Shipping1 - 3 Days
p25
sS'id'
p26
V637604546_1497049811
p27
s.