(dp1
S'title'
p2
VBLACK BEAR RUG #rgg1039
p3
sS'url'
p4
Vhttp://www.glacierwear.com/black-bear-rug-rgg1039.html
p5
sS'price'
p6
V1499.95
p7
sS'seller'
p8
(lp9
sS'description_links'
p10
Vrgg1039Black Bear Rug- Tip of Nose to Base of Tail: 67 inches- Tip of Nose to Rear Paw: 80 inches- From Front Paw to Front Paw: 75 inches- Select Quality Fur: Heavy, Glossy and Silky- Black in Color - Late Fall Bear (USA)- Double Felt Border with Padded Cloth Backing- D-Rings for Hanging
p11
sS'images'
p12
(lp13
Vhttp://www.glacierwear.com/media/catalog/product/cache/1/thumbnail/500x/17f82f742ffe127f42dca9de82fb58b1/1/0/1039.jpg
p14
asS'shipping_info'
p15
VFree Shipping on $100.00+
p16
sS'id'
p17
Vrgg1039_1497049707
p18
s.