(dp1
S'title'
p2
Valvarez yairi dy-96 guitar abalone supreme custom exc. cond.!!!
p3
sS'url'
p4
S'http://www.ebay.com/itm/Alvarez-Yairi-Dy-96-guitar-Abalone-Supreme-Custom-Exc-Cond-/152574782664?hash=item23862a6cc8:g:~9MAAOSwGJlZJjvv'
p5
sS'price'
p6
VUS $4,300.00
p7
sS'seller'
p8
(dp9
g4
Vhttp://www.ebay.com/usr/woodengemz?_trksid=p2047675.l2559
p10
sS'name'
p11
V woodengemz
p12
ssS'description_links'
p13
(lp14
Vhttp://vi.vipr.ebaydesc.com/ws/eBayISAPI.dll?ViewItemDescV4&item=152574782664&t=0&tid=10&category=118979&seller=woodengemz&excSoj=1&excTrk=1&lsite=0&ittenable=false&domain=ebay.com&descgauge=1
p15
asS'images'
p16
(lp17
(dp18
S'maxImageUrl'
p19
Vhttp://i.ebayimg.com/images/g/~9MAAOSwGJlZJjvv/s-l1600.jpg
p20
sS'displayImgUrl'
p21
Vhttp://i.ebayimg.com/images/g/~9MAAOSwGJlZJjvv/s-l300.jpg
p22
sa(dp23
g19
Vhttp://i.ebayimg.com/images/g/6yQAAOSwcgNZJjv-/s-l1600.jpg
p24
sg21
Vhttp://i.ebayimg.com/images/g/6yQAAOSwcgNZJjv-/s-l300.jpg
p25
sa(dp26
g19
Vhttp://i.ebayimg.com/images/g/Z3IAAOSwaEhZJjwY/s-l1600.jpg
p27
sg21
Vhttp://i.ebayimg.com/images/g/Z3IAAOSwaEhZJjwY/s-l300.jpg
p28
sa(dp29
g19
Vhttp://i.ebayimg.com/images/g/ULsAAOSwYlRZJjwm/s-l1600.jpg
p30
sg21
Vhttp://i.ebayimg.com/images/g/ULsAAOSwYlRZJjwm/s-l300.jpg
p31
sa(dp32
g19
Vhttp://i.ebayimg.com/images/g/Nw8AAOSwCQZZJjw4/s-l1600.jpg
p33
sg21
Vhttp://i.ebayimg.com/images/g/Nw8AAOSwCQZZJjw4/s-l300.jpg
p34
sa(dp35
g19
Vhttp://i.ebayimg.com/images/g/5hoAAOSwaeRZJjxJ/s-l1600.jpg
p36
sg21
Vhttp://i.ebayimg.com/images/g/5hoAAOSwaeRZJjxJ/s-l300.jpg
p37
sa(dp38
g19
Vhttp://i.ebayimg.com/images/g/xL4AAOSw3gJZJjxW/s-l1600.jpg
p39
sg21
Vhttp://i.ebayimg.com/images/g/xL4AAOSw3gJZJjxW/s-l300.jpg
p40
sa(dp41
g19
Vhttp://i.ebayimg.com/images/g/8-YAAOSw8lpZJjxm/s-l1600.jpg
p42
sg21
Vhttp://i.ebayimg.com/images/g/8-YAAOSw8lpZJjxm/s-l300.jpg
p43
sa(dp44
g19
Vhttp://i.ebayimg.com/images/g/uKgAAOSwtGlZJjx3/s-l1600.jpg
p45
sg21
Vhttp://i.ebayimg.com/images/g/uKgAAOSwtGlZJjx3/s-l300.jpg
p46
sa(dp47
g19
Vhttp://i.ebayimg.com/images/g/o6kAAOSwrhBZJjyH/s-l1600.jpg
p48
sg21
Vhttp://i.ebayimg.com/images/g/o6kAAOSwrhBZJjyH/s-l300.jpg
p49
sasS'shipping_info'
p50
(dp51
S'item_location'
p52
(lp53
V\u000aClearwater, Florida, United States
p54
asS'delivery'
p55
(lp56
VVaries
p57
asS'posts_to'
p58
(lp59
VLocal pick-up only
p60
assS'id'
p61
S'152574782664'
p62
s.