(dp1
S'title'
p2
VMOTHER OF PEARL ABALONE SEA SHELL BELT from HAWAII in the 1980's - OSFM!
p3
sS'url'
p4
Vhttp://www.ecrater.com/p/17346354/mother-of-pearl-abalone-sea-shell?keywords=abalone
p5
sS'price'
p6
V$149.95
p7
sS'seller'
p8
Vhttp://zbay.ecrater.com
p9
sS'description_links'
p10
VThis is a STUNNING Mother of Pearl Abalone Sea Shell Belt purchased during a trip to Hawaii in the 1980's!It measures approximately 77" long including the shell and can be tied to whatever length you desire.  The shell itself measures 6"  x  4.5".
p11
sS'images'
p12
(lp13
Vhttp://s.ecrater.com/stores/31925/513243a779eb8_31925b.jpg
p14
asS'shipping_info'
p15
(lp16
VOnly 1 available
p17
aVShipping:US-Mainland: free(more destinations)
p18
aVCondition: Used
p19
asS'id'
p20
V17346354
p21
s.