(dp1
S'title'
p2
VBarbara Bixby Abalone Doublet & Garnet Cuff Bracelet 18k Yellow Gold 925 NWOT
p3
sS'url'
p4
Vhttp://www.ecrater.com/p/20590884/barbara-bixby-abalone-doublet-garnet?keywords=abalone
p5
sS'price'
p6
V$499.99
p7
sS'seller'
p8
Vhttp://luxebuster.ecrater.com
p9
sS'description_links'
p10
VeCRATER template Barbara Bixby Abalone Doublet & Garnet Cuff Bracelet 18k Yellow Gold 925 NWOT                    Click the preview button to view more images.Ad # 33715Item Description:Be sure to check our shipping calculator for the best shipping costs!Barbara Bixby Abalone Doublet & Garnet Cuff Bracelet 18k Yellow Gold Sterling Silver ***New Without Tag***Designer: Barbara BixbyModel #: N/AItem: Bracelet \u2013 Hinged Cuff Clasp: N/ADescription: Brilliant abalone under cabochon polished 21mm by 12mm clear quartz set in sterling silver, flanked with 18k yellow gold flowers on an intricately detailed sterling silver band of vines, foliage of pave Brazilian Garnets and lotus flowers. Composition: Sterling silver, 18k Yellow Gold, Abalone, Quartz, Brazilian GarnetTotal Weight, Grams: 45.6Measurements: 2.5\u201d opening, 7.5\u201d interior circumference, 30mm widest, 8mm narrowest, 12mm domeMarkings: Bixby, 925, 18k, China, Stainless Steel HingeCondition: This piece is new, with the retail tag(s) removed.Guaranteed authentic, or your money back. This will appropriately packed to ensure safe arrival. QUESTIONS? FEEL FREE TO EMAIL US! Return to top Use our Shipping Calculator to see a selection of shipping methods and costs.To get a real-time shipping quote to your destination, enter your country and zip / postal code information into the shipping calculator and click "Get Rate". Select Destination Country and ServiceUnited States Canada USPS Priority Mail InternationalMexico USPS Priority Mail InternationalOther USPS Priority Mail InternationalShipping CostAdditional Item ShippingPut your listings on autopilot with Kyozou eCRATER Listing Softwareg63,RcmdId ViewItemDescV4,RlogId p4%60bo7%60jtb9%3Feog4d71f%2B%3Eg63-148692bb7a3-0x109-->
p11
sS'images'
p12
(lp13
Vhttp://s.ecrater.com/stores/342561/54150f4310c1e_342561b.jpg
p14
asS'shipping_info'
p15
(lp16
VOnly 1 available
p17
aVShipping:US-Mainland: free(more destinations)
p18
aVCondition: Used
p19
asS'id'
p20
V20590884
p21
s.