(dp1
S'title'
p2
Vantique  sofa, mother of pearl abalone marquetry, tunisian
p3
sS'url'
p4
S'http://www.ebay.com/itm/Antique-Sofa-Mother-of-Pearl-Abalone-marquetry-Tunisian-/222447450633?hash=item33cae6ba09:g:f1oAAOSw4YdY0Y0R'
p5
sS'price'
p6
VUS $3,031.88
p7
sS'seller'
p8
(dp9
g4
Vhttp://www.ebay.com/usr/esutech?_trksid=p2047675.l2559
p10
sS'name'
p11
V esutech
p12
ssS'description_links'
p13
(lp14
Vhttp://vi.vipr.ebaydesc.com/ws/eBayISAPI.dll?ViewItemDescV4&item=222447450633&t=1490140912000&tid=10&category=63583&seller=esutech&excSoj=1&excTrk=1&lsite=0&ittenable=false&domain=ebay.com&descgauge=1
p15
asS'images'
p16
(lp17
(dp18
S'maxImageUrl'
p19
Vhttp://i.ebayimg.com/images/g/f1oAAOSw4YdY0Y0R/s-l1600.jpg
p20
sS'displayImgUrl'
p21
Vhttp://i.ebayimg.com/images/g/f1oAAOSw4YdY0Y0R/s-l300.jpg
p22
sa(dp23
g19
Vhttp://i.ebayimg.com/images/g/uFMAAOSwB-1Y0Y0s/s-l1600.jpg
p24
sg21
Vhttp://i.ebayimg.com/images/g/uFMAAOSwB-1Y0Y0s/s-l300.jpg
p25
sa(dp26
g19
Vhttp://i.ebayimg.com/images/g/KusAAOSwol5Y0Yz6/s-l1600.jpg
p27
sg21
Vhttp://i.ebayimg.com/images/g/KusAAOSwol5Y0Yz6/s-l300.jpg
p28
sa(dp29
g19
Vhttp://i.ebayimg.com/images/g/YU4AAOSwuxFY0Y0F/s-l1600.jpg
p30
sg21
Vhttp://i.ebayimg.com/images/g/YU4AAOSwuxFY0Y0F/s-l300.jpg
p31
sa(dp32
g19
Vhttp://i.ebayimg.com/images/g/f-MAAOSw4YdY0Y0V/s-l1600.jpg
p33
sg21
Vhttp://i.ebayimg.com/images/g/f-MAAOSw4YdY0Y0V/s-l300.jpg
p34
sa(dp35
g19
Vhttp://i.ebayimg.com/images/g/PqAAAOSwTM5Y0Y0f/s-l1600.jpg
p36
sg21
Vhttp://i.ebayimg.com/images/g/PqAAAOSwTM5Y0Y0f/s-l300.jpg
p37
sa(dp38
g19
Vhttp://i.ebayimg.com/images/g/RVYAAOSwol5Y0Y2C/s-l1600.jpg
p39
sg21
Vhttp://i.ebayimg.com/images/g/RVYAAOSwol5Y0Y2C/s-l300.jpg
p40
sasS'shipping_info'
p41
(dp42
S'item_location'
p43
(lp44
V\u000aSouth Sterling, Pennsylvania, United States
p45
asS'delivery'
p46
(lp47
VVaries
p48
asS'posts_to'
p49
(lp50
VLocal pick-up only
p51
assS'id'
p52
S'222447450633'
p53
s.