(dp1
S'title'
p2
VVintage Sterling Silver 925 Mexico Abalone Shell Beautiful Inlay Necklace 19"L
p3
sS'url'
p4
Vhttp://www.ecrater.com/p/22285732/vintage-sterling-silver-925-mexico-abalone?keywords=abalone
p5
sS'price'
p6
V$159.00
p7
sS'seller'
p8
Vhttp://gojeweled.ecrater.com
p9
sS'description_links'
p10
Vazstrawberry Store        THIS IS A VINTAGE, BEAUTIFUL, STERLING SILVER 925 MEXICO (SIGNED) WITH ABALONE SHELL INLAY NECKLCEMEASURES APPROX: 19" LONG, 35gPLEASE SEE PICTURES FOR DETAILS AND E-MAIL YOUR QUESTIONS. Take advantage of combined shipments! Check out my other items!Be sure to add me to your favorites list!Pay with PayPal: Get a MyStoreRewards invitation for cash backsupremesupremewidgets<img src="http://ti2.auctiva.com/web/aswCredit.gif" border="0"><br><a href="http://www.auctiva.com/?how=scLnk2" target="_blank"><img src="http://ti2.auctiva.com/images/sc1line2.gif" border="0"></a>
p11
sS'images'
p12
(lp13
Vhttp://s.ecrater.com/stores/356510/5524a5af19eec_356510b.jpg
p14
asS'shipping_info'
p15
(lp16
VOnly 1 available
p17
aVShipping:USPS calculated - check
p18
aVCondition: Used
p19
asS'id'
p20
V22285732
p21
s.