(dp1
S'title'
p2
VAbalone Beauty Cream (50g)
p3
sS'url'
p4
Vhttp://www.ecrater.com/p/24572583/abalone-beauty-cream-50g?keywords=abalone
p5
sS'price'
p6
V$99.15
p7
sS'seller'
p8
Vhttp://beautyperfect.ecrater.com
p9
sS'description_links'
p10
VProduct Description :This product is popular like worldwide major famous brand . It truly is in the top-pick from shelf at environment course department shops in Bangkok and all Thailand.Abalone Beauty Cream (50g)\u2714 PRICE : USD 120\u2714 FREE SHIPPING\u2714 contains minerals, protein, amino and fatty acids that help protect skin sensitivity and maintain its natural elasticity with superior moisturizing effect."Regenerates skin cream Rejuvenate your skin with a bright "skin foods rich in skin regeneration. Night with a vibrant youthful The creamy blend of nutrients important five kinds of natural Abalone Extract, Snail Secretion Extract, Hydrolyzed Collagen, Trehalose and Squalane. The results obtained 1. skin look younger instantly. 2. anti aging. 3 face moisturizer A sparkling shine. 4. smooth, glowing skin. 5. surface smooth, bright. 6. more long-lasting makeup.Ingredients :Abalone Extract, Snail Secretion Filtrate, Butylene Glycol Dicaprylate/Dicapraate, Butylene Glycol, Cetearyl Alcohol, Arbutin, Polyglyceryl-3 Methylglucose Distearate, Cyclopentasiloxane, Cycohexasiloxane, Stearic Acid, Niacinamide, 1.2-Hexanediol, Hydroxyethyl Acrylate/Sodium Acryloyldimethyl Taurate Copolymer, Squalane, Dimethicone, Glyceryl Stearate, Sodium Polyacrylate, Polysorbate 60, PEG-100 Stearate, Caprylyl Glycol, Ethyl Hexanediol, Caprylhydroxamic Acid, Propanediol, Phenoxyethanol, Dimethiconol, Cyclotetrasiloxane, Dextrin, Disodium Edta, Caramel, Trehalose, Tocopheryl Acetate, Hydrolyzed Collagen, Illicium Verum (Anise) Friut Extract, Fragrance\u2740 Payment Policy :We accept ONLY PayPal for payment. \u2740 Shipping PolicyFree Shipping Handling WORLDWIDE. The package will be shipped directly from Thailand via  Standard Small package Airmail, No tacking number, and it will take about 11-23 business days.Duty taxes, import taxes and any application taxes are buyer responsible.\u2740 Return Policy100% Satisfaction Guarantee: If you are not satisfied with the product you purchased for any reason, please contact us for a return instruction within 30 days for a refund. Shipping Handling costs are not refundable. Return shipping cost will be paid by buyer.\u2740 Contact UsPlease contact us by eCrater message or our email system.
p11
sS'images'
p12
(lp13
sS'shipping_info'
p14
(lp15
VMore than 10 available
p16
aVShipping:US-Mainland: free(more destinations)
p17
aVCondition: Brand new
p18
asS'id'
p19
V24572583
p20
s.