(dp1
S'title'
p2
VJ3   Handmade Chunky Mosaic Abalone/Mother of Pearl Choker
p3
sS'url'
p4
Vhttp://www.ecrater.com/p/25308188/j3-handmade-chunky-mosaic-abalone?keywords=abalone
p5
sS'price'
p6
V$99.99
p7
sS'seller'
p8
Vhttp://10onezerodance.ecrater.com
p9
sS'description_links'
p10
VItem : chokerColor : abalone, mother of pearlMaterials : abalone, mother of pearlSize : Length 52cm, centre point : 25x35x40mm, 2 side : 22*32*35mm-18*28*31mm Buying Qty :  1  piece (Please select your preference color and give us a note in checkout)Available Colour : As photo shownPacking : By bubble bag with gift boxPostage charge : Free to worldwide by  normal registered air mail Delivery : 15 - 20 days by normal registered air mail.  Ship from Hong Kong to worldwide.  If you want to get it urgently, please contact buyer for expedited service.  Terms & Conditions : 100% brand new.Return Policy : Partial Money Refundable  (Buyer is responsible to pay the return postage charge)
p11
sS'images'
p12
(lp13
Vhttp://s.ecrater.com/stores/366446/57d8d500a96f1_366446b.jpg
p14
asS'shipping_info'
p15
(lp16
VMore than 10 available
p17
aVShipping:US-Mainland: free(more destinations)
p18
aVCondition: Brand new
p19
asS'id'
p20
V25308188
p21
s.