(dp1
S'title'
p2
VSterling silver abalone bracelet. Huge piece - 1 3/4" x 7"
p3
sS'url'
p4
Vhttp://www.ecrater.com/p/25697109/sterling-silver-abalone-bracelet-huge?keywords=abalone
p5
sS'price'
p6
V$124.99
p7
sS'seller'
p8
Vhttp://vintageadvantage.ecrater.com
p9
sS'description_links'
p10
VSterling silver abalone bracelet. Huge piece - 1 3/4" x 7".Condition: very good condition please enlarge the pics. so you can see exactly what you are purchasing. Enjoy! Thank you for looking.Please check our other products as we combine shipping
p11
sS'images'
p12
(lp13
sS'shipping_info'
p14
(lp15
VOnly 1 available
p16
aVShipping:US-Mainland: $6.75(more destinations)
p17
aVCondition: Used
p18
asS'id'
p19
V25697109
p20
s.