(dp1
S'title'
p2
VSterling silver Sajen bracelet with abalone & semi precious stones - toggle clos
p3
sS'url'
p4
Vhttp://www.ecrater.com/p/25697146/sterling-silver-sajen-bracelet-with-abalone?keywords=abalone
p5
sS'price'
p6
V$124.99
p7
sS'seller'
p8
Vhttp://vintageadvantage.ecrater.com
p9
sS'description_links'
p10
VSterling silver Sajen bracelet with abalone & semi precious stones - toggle close.Very good condition.Please enlarge the photos to see exactly what you are purchasing. Thank you for looking. The winning buyer is expected to pay within 3 days of purchase.Please check our other products as we combine shipping. The heaviest jewelry item ships at the stated shipping fee. The second jewelry item ships for an additional $1. Third item on ship at no additional shipping fee.
p11
sS'images'
p12
(lp13
sS'shipping_info'
p14
(lp15
VOnly 1 available
p16
aVShipping:US-Mainland: $6.50(more destinations)
p17
aVCondition: Used
p18
asS'id'
p19
V25697146
p20
s.