(dp1
S'title'
p2
VJIMMY CHOO abalone shell covered heels 38.5 strappy slides sandals shoes kitten
p3
sS'url'
p4
Vhttp://www.ecrater.com/p/26525165/jimmy-choo-abalone-shell-covered?keywords=abalone
p5
sS'price'
p6
V$299.99
p7
sS'seller'
p8
Vhttp://jenifersdesignercloset.ecrater.com
p9
sS'description_links'
p10
VJIMMY CHOOStunningSize-38 1/2These irresistible sandals pair well with so many outfits.Strappy vampHeels covered in abalone shell piecesHeel Height: 2 1/2"Worn twice. The half lining has curled on the edge. Could use a drop of glue to flatten it.inkFrog AnalyticsinkFrog Analytics
p11
sS'images'
p12
(lp13
sS'shipping_info'
p14
(lp15
VOnly 1 available
p16
aVShipping:US-Mainland: $9.95(more destinations)
p17
aVCondition: Brand new
p18
asS'id'
p19
V26525165
p20
s.