(dp1
S'title'
p2
VNEW CHARLES JOURDAN Paris 9.5 ankle strap abalone leather france heels shoes
p3
sS'url'
p4
Vhttp://www.ecrater.com/p/26525423/charles-jourdan-paris-95-ankle-strap?keywords=abalone
p5
sS'price'
p6
V$149.99
p7
sS'seller'
p8
Vhttp://jenifersdesignercloset.ecrater.com
p9
sS'description_links'
p10
V-->  Stunning and Amazing are the first words I think of to describe thesebeauties! Authentic, andbrand new! Gorgeous strappy heels with ankle strap adorned with dangling accents that look like they are made of shell or some type gemstone. Has smaller version on top part of the show. Amazing looking on! They are from high-end designer CHARLES JOURDAN of Paris, France. Size 9.5 M. 3 1/2" chic and stylish leather wrapped heel that you gotta' see! The heel has whip stitching on the back of it that is so chic! Made in France. All-leather soles. Ankle strap has buckle and can be adjusted to fit perfectly. If you know much about Charles Jourdan, you know how well made they are! What a deal this is for one lucky lady! These will be that perfect accent to finish off your Vogue outfit!! Perfect for the High-end designer items at Blow-Out prices! Payment   International ShippingAlthough other sellers have discontinued shipping internationally altogether due to increased cost, we have decided to keep this option for you, but please understand that we do not set this rate and we do not profit. This rate is set by the Postal Service. We also offer discounts on shipping for multiple items that are paid and shipped together. International buyer -Please Note*Import Duties, taxes and charges are NOT INCLUDED in the item price or shipping charges. These charges are the buyers responsibility.*Please check with your country's customs office to determine if these apply and what these additional costs will be prior to looking/buying.*These charges are normally collected at delivery-Do not confuse them for additional shipping charges. * We are not responsible for transit delays resulting from customs or carrier.*Designer size tags vary in actual size. It is your responsibility to know how the item/ designer fits you. My measurements are there as a guide only. I will not be held responsible if the item does not fit. Feedback:Please leave feedback when you receive your item to let us know you havereceived your purchase. We review our feedback nightly and gladly reciprocate.   Analyzing "Smart Counters" only @ inkFrog.com On Feb-02-16 at 11:16:35 PST, seller added the following information:
p11
sS'images'
p12
(lp13
Vhttp://s.ecrater.com/stores/74483/58b65158876d8_74483b.jpg
p14
asS'shipping_info'
p15
(lp16
VOnly 1 available
p17
aVShipping:US-Mainland: free(more destinations)
p18
aVCondition: Brand new
p19
asS'id'
p20
V26525423
p21
s.