(dp1
S'title'
p2
VAbalone Beauty Cream with Snail Secretion Filtrate 1.76 Oz. - Anti-Ag
p3
sS'url'
p4
Vhttp://www.ecrater.com/p/27229565/abalone-beauty-cream-with-snail-secretion?keywords=abalone
p5
sS'price'
p6
V$96.00
p7
sS'seller'
p8
Vhttp://beautyperfect.ecrater.com
p9
sS'description_links'
p10
VProduct Description :This product is popular like worldwide major famous brand . It truly is in the top-pick from shelf at environment course department shops in Bangkok and all Thailand.Abalone Beauty Cream with Snail Secretion Filtrate 1.76 Oz. - Anti-Aging, V-Shaped Face, Wrinkle Free and Firm, Recover Damaged Skin, Reduce Dark Spots, Brighten Dull Skin for Sensitive and All Skin Types\u2714 Abalone Beauty Cream with Snail Secretion Filtrate 1.76 Oz\u2714 Thailand.\u2714 100% Satisfaction Guaranteed.\u2714 Delivery Times  14-21 days.\u2714 Quantity  10 piece.\u2740 Payment Policy :We accept ONLY PayPal for payment. \u2740 Shipping PolicyFree Shipping Handling WORLDWIDE. The package will be shipped directly from Thailand via  Standard Small package Airmail, No tacking number, and it will take about 11-23 business days.Duty taxes, import taxes and any application taxes are buyer responsible.\u2740 Return Policy100% Satisfaction Guarantee: If you are not satisfied with the product you purchased for any reason, please contact us for a return instruction within 30 days for a refund. Shipping Handling costs are not refundable. Return shipping cost will be paid by buyer.\u2740 Contact UsPlease contact us by eCrater message or our email system.
p11
sS'images'
p12
(lp13
sS'shipping_info'
p14
(lp15
VMore than 10 available
p16
aVShipping:US-Mainland: free(more destinations)
p17
aVCondition: Brand new
p18
asS'id'
p19
V27229565
p20
s.