(dp1
S'title'
p2
Vx3 Hybeauty Abalone Beauty Cream Anti Ageing Snail Secretion Smooth s
p3
sS'url'
p4
Vhttp://www.ecrater.com/p/27416008/x3-hybeauty-abalone-beauty-cream?keywords=abalone
p5
sS'price'
p6
V$149.00
p7
sS'seller'
p8
Vhttp://glutax.ecrater.com
p9
sS'description_links'
p10
VProduct Description :  This item is popular like international top famous brand . It is in the top-pick from shelf at world class department stores in Bangkok and all Thailand.3 Box    Abalone V-shape cream 50 g.   Hybeauty Abalone Beauty Cream (ABC).   Lone Gucht face cream                      Skin to skin regenerates Night with a youthful, vibrant skin.       With five of the main ingredients in the Abalone Beauty Cream adds moisture.       Firming skin cells. Reduce wrinkles significantly.       You will feel your skin look younger, firmer face fine V-Shape.       Smooth shineight        Special Features       1. skin look younger. Up front is tapered Reduce wrinkles to fade.       2. heals skin problems, acne scars.       3. Storage humidity up to 1.5 times the face moist. A scintillating shadow       4. Lack   Shipping Policy :We accept PAYPAL only.Wel ship worldwide by Airmail from Thailand .Shipping time is normally around 7 - 21 days. On occasion, it might take more than 21 days depending on each country custom.Your patience is greatly appreciated.We  ship all items  within 1-2 days of payment.** IF You have any questions please contact us.We  try to resolve any problem you may have. Please contact us before leaving a Negative Feed Back.Thank you very much for your interesting.Our Return PolicyWe guarantee 100% satisfaction if you not happy with our item we will refund your money back after you send back of item to us in 7 days.
p11
sS'images'
p12
(lp13
Vhttp://s.ecrater.com/stores/352269/59325409150e5_352269b.jpg
p14
asS'shipping_info'
p15
(lp16
VMore than 10 available
p17
aVShipping:US-Mainland: free(more destinations)
p18
aVCondition: Brand new
p19
asS'id'
p20
V27416008
p21
s.