(dp1
S'title'
p2
V\u000aHandmade Abalone Shell Sierra Style Mesa Pen with Chrom\u000a
p3
sS'url'
p4
Vhttp://www.ioffer.com/i/handmade-abalone-shell-sierra-style-mesa-pen-with-chrom-598441552
p5
sS'price'
p6
V$149.99
p7
sS'seller'
p8
(lp9
sS'description_links'
p10
V
sS'images'
p11
(lp12
Vhttp://cdn.iofferphoto.com/img/item/598/441/552/t_5eBShandmade-abalone-shell-sierra-style-mesa-pen-with-chrom.jpg
p13
aVhttp://cdn.iofferphoto.com/img/item/598/441/552/t_HZaFhandmade-abalone-shell-sierra-style-mesa-pen-with-chrom.jpg
p14
aVhttp://cdn.iofferphoto.com/img/item/598/441/552/t_qGPzhandmade-abalone-shell-sierra-style-mesa-pen-with-chrom.jpg
p15
aVhttp://cdn.iofferphoto.com/img/item/598/441/552/t_6WdUhandmade-abalone-shell-sierra-style-mesa-pen-with-chrom.jpg
p16
asS'shipping_info'
p17
(lp18
sS'id'
p19
V598441552_1497045788
p20
s.