(dp1
S'title'
p2
V\u000aDila Roza Handcrafted Mother Pearl Abalone Inlay Wood M\u000a
p3
sS'url'
p4
Vhttp://www.ioffer.com/i/dila-roza-handcrafted-mother-pearl-abalone-inlay-wood-m-628910697
p5
sS'price'
p6
V$799.99
p7
sS'seller'
p8
(lp9
sS'description_links'
p10
V
sS'images'
p11
(lp12
Vhttp://cdn.iofferphoto.com/img3/item/628/910/697/t_1TDodila-roza-handcrafted-mother-pearl-abalone-inlay-wood-m.jpg
p13
aVhttp://cdn.iofferphoto.com/img3/item/628/910/697/t_TJjydila-roza-handcrafted-mother-pearl-abalone-inlay-wood-m.jpg
p14
aVhttp://cdn.iofferphoto.com/img3/item/628/910/697/t_8JOKdila-roza-handcrafted-mother-pearl-abalone-inlay-wood-m.jpg
p15
aVhttp://cdn.iofferphoto.com/img3/item/628/910/697/t_KLxUdila-roza-handcrafted-mother-pearl-abalone-inlay-wood-m.jpg
p16
aVhttp://cdn.iofferphoto.com/img3/item/628/910/697/t_jxbfdila-roza-handcrafted-mother-pearl-abalone-inlay-wood-m.jpg
p17
aVhttp://cdn.iofferphoto.com/img3/item/628/910/697/t_afZhdila-roza-handcrafted-mother-pearl-abalone-inlay-wood-m.jpg
p18
aVhttp://cdn.iofferphoto.com/img3/item/628/910/697/t_fOS5dila-roza-handcrafted-mother-pearl-abalone-inlay-wood-m.jpg
p19
aVhttp://cdn.iofferphoto.com/img3/item/628/910/697/t_t18kdila-roza-handcrafted-mother-pearl-abalone-inlay-wood-m.jpg
p20
aVhttp://cdn.iofferphoto.com/img3/item/628/910/697/t_LYVidila-roza-handcrafted-mother-pearl-abalone-inlay-wood-m.jpg
p21
aVhttp://cdn.iofferphoto.com/img3/item/628/910/697/t_87f5dila-roza-handcrafted-mother-pearl-abalone-inlay-wood-m.jpg
p22
aVhttp://cdn.iofferphoto.com/img3/item/628/910/697/t_nCJPdila-roza-handcrafted-mother-pearl-abalone-inlay-wood-m.jpg
p23
aVhttp://cdn.iofferphoto.com/img3/item/628/910/697/t_eyNIdila-roza-handcrafted-mother-pearl-abalone-inlay-wood-m.jpg
p24
asS'shipping_info'
p25
(lp26
sS'id'
p27
V628910697_1497045780
p28
s.