(dp1
S'title'
p2
VNecklace Black Abalone Shell Long Strips Rainbow Luster
p3
sS'url'
p4
Vhttp://www.ecrater.com/p/901927/necklace-black-abalone-shell-long?keywords=abalone
p5
sS'price'
p6
V$85.00
p7
sS'seller'
p8
Vhttp://xaxe.ecrater.com
p9
sS'description_links'
p10
VMaterial 100% Black Abalone Shell  Size strips around 40x5x3mm  Length 16.5 inches.
p11
sS'images'
p12
(lp13
sS'shipping_info'
p14
(lp15
VMore than 10 available
p16
aVShipping:US-Mainland: $5.00(more destinations)
p17
aVCondition: Brand new
p18
asS'id'
p19
V901927
p20
s.