(dp1
S'title'
p2
VAbalone-Red
p3
sS'url'
p4
Vhttp://www.boneroom.com/store/p500/Abalone-Red.html
p5
sS'price'
p6
V$5.00
p7
sS'seller'
p8
(lp9
sS'description_links'
p10
VGorgeous palm size abalone half shells that look like they have been painted with shiny red and orange stripes. Approximately 3" - 4" total length
p11
sS'images'
p12
(lp13
Vhttp://www.boneroom.com//uploads/4/8/1/1/48118243/s521972503441136676_p500_i4_w600.jpeg
p14
asS'shipping_info'
p15
(lp16
sS'id'
p17
Vp500_1497045794
p18
s.