(dp1
S'title'
p2
Vbuild a bear plush woolly mammoth or mastadon 17" long w/ tusks !!!
p3
sS'url'
p4
S'http://www.ebay.com/itm/Build-a-Bear-Plush-Woolly-Mammoth-Or-Mastadon-17-Long-w-Tusks-/132189236813?hash=item1ec717ae4d:g:MS4AAOSwYvFZFNdG'
p5
sS'price'
p6
VUS $14.99
p7
sS'seller'
p8
(dp9
g4
Vhttp://www.ebay.com/usr/postcardguyantiques?_trksid=p2047675.l2559
p10
sS'name'
p11
V postcardguyantiques
p12
ssS'description_links'
p13
(lp14
Vhttp://vi.vipr.ebaydesc.com/ws/eBayISAPI.dll?ViewItemDescV4&item=132189236813&t=0&tid=10&category=95222&seller=postcardguyantiques&excSoj=1&excTrk=1&lsite=0&ittenable=false&domain=ebay.com&descgauge=1
p15
asS'images'
p16
(lp17
(dp18
S'maxImageUrl'
p19
Vhttp://i.ebayimg.com/images/g/MS4AAOSwYvFZFNdG/s-l1600.jpg
p20
sS'displayImgUrl'
p21
Vhttp://i.ebayimg.com/images/g/MS4AAOSwYvFZFNdG/s-l300.jpg
p22
sa(dp23
g19
Vhttp://i.ebayimg.com/images/g/sogAAOSwlMFZFNdX/s-l1600.jpg
p24
sg21
Vhttp://i.ebayimg.com/images/g/sogAAOSwlMFZFNdX/s-l300.jpg
p25
sa(dp26
g19
Vhttp://i.ebayimg.com/images/g/bWgAAOSwblZZFNdh/s-l1600.jpg
p27
sg21
Vhttp://i.ebayimg.com/images/g/bWgAAOSwblZZFNdh/s-l300.jpg
p28
sasS'shipping_info'
p29
(dp30
S'item_location'
p31
(lp32
V\u000aBrick, New Jersey, United States
p33
asS'delivery'
p34
(lp35
VVaries
p36
asS'posts_to'
p37
(lp38
VWorldwide
p39
assS'id'
p40
S'132189236813'
p41
s.