(dp1
S'title'
p2
Vmammoth ice tusk beer chiller
p3
sS'url'
p4
S'http://www.ebay.com/itm/Mammoth-Ice-Tusk-Beer-Chiller-/132205074189?hash=item1ec809570d:g:WeQAAOSwPh5ZJ9ys'
p5
sS'price'
p6
VUS $9.99
p7
sS'seller'
p8
(dp9
g4
Vhttp://www.ebay.com/usr/cuttingedgepowersports?_trksid=p2047675.l2559
p10
sS'name'
p11
V cuttingedgepowersports
p12
ssS'description_links'
p13
(lp14
Vhttp://vi.vipr.ebaydesc.com/ws/eBayISAPI.dll?ViewItemDescV4&item=132205074189&t=0&tid=10&category=63506&seller=cuttingedgepowersports&excSoj=1&excTrk=1&lsite=0&ittenable=false&domain=ebay.com&descgauge=1
p15
asS'images'
p16
(lp17
(dp18
S'maxImageUrl'
p19
Vhttp://i.ebayimg.com/images/g/WeQAAOSwPh5ZJ9ys/s-l1600.jpg
p20
sS'displayImgUrl'
p21
Vhttp://i.ebayimg.com/images/g/WeQAAOSwPh5ZJ9ys/s-l300.jpg
p22
sa(dp23
g19
Vhttp://i.ebayimg.com/images/g/SYAAAOSwIQdZJ9yt/s-l1600.jpg
p24
sg21
Vhttp://i.ebayimg.com/images/g/SYAAAOSwIQdZJ9yt/s-l300.jpg
p25
sa(dp26
g19
Vhttp://i.ebayimg.com/images/g/coQAAOSwlMFZJ9yt/s-l1600.jpg
p27
sg21
Vhttp://i.ebayimg.com/images/g/coQAAOSwlMFZJ9yt/s-l300.jpg
p28
sasS'shipping_info'
p29
(dp30
S'item_location'
p31
(lp32
V\u000aReynolds Station, Kentucky, United States
p33
asS'delivery'
p34
(lp35
VVaries
p36
asS'posts_to'
p37
(lp38
VUnited States
p39
assS'id'
p40
S'132205074189'
p41
s.