(dp1
S'title'
p2
Vflintstones mcdonalds mug "rocdonalds" mammoth mug collectable 1993 tusk handle
p3
sS'url'
p4
S'http://www.ebay.com/itm/Flintstones-McDonalds-Mug-RocDonalds-Mammoth-Mug-Collectable-1993-Tusk-Handle-/201901791778?hash=item2f0248da22:g:RekAAOSwol5Y0wfg'
p5
sS'price'
p6
VUS $10.00
p7
sS'seller'
p8
(dp9
g4
Vhttp://www.ebay.com/usr/plateswithpizzaz?_trksid=p2047675.l2559
p10
sS'name'
p11
V plateswithpizzaz
p12
ssS'description_links'
p13
(lp14
Vhttp://vi.vipr.ebaydesc.com/ws/eBayISAPI.dll?ViewItemDescV4&item=201901791778&t=1495996218000&tid=10&category=35668&seller=plateswithpizzaz&excSoj=1&excTrk=1&lsite=0&ittenable=false&domain=ebay.com&descgauge=1
p15
asS'images'
p16
(lp17
(dp18
S'maxImageUrl'
p19
Vhttp://i.ebayimg.com/images/g/RekAAOSwol5Y0wfg/s-l1600.jpg
p20
sS'displayImgUrl'
p21
Vhttp://i.ebayimg.com/images/g/RekAAOSwol5Y0wfg/s-l300.jpg
p22
sa(dp23
g19
Vhttp://i.ebayimg.com/images/g/9yQAAOSw4CFY0wgP/s-l1600.jpg
p24
sg21
Vhttp://i.ebayimg.com/images/g/9yQAAOSw4CFY0wgP/s-l300.jpg
p25
sa(dp26
g19
Vhttp://i.ebayimg.com/images/g/AzoAAOSwSlBY0wg1/s-l1600.jpg
p27
sg21
Vhttp://i.ebayimg.com/images/g/AzoAAOSwSlBY0wg1/s-l300.jpg
p28
sa(dp29
g19
Vhttp://i.ebayimg.com/images/g/i5kAAOSwTM5Y0whC/s-l1600.jpg
p30
sg21
Vhttp://i.ebayimg.com/images/g/i5kAAOSwTM5Y0whC/s-l300.jpg
p31
sa(dp32
g19
Vhttp://i.ebayimg.com/images/g/yO8AAOSwuxFY0whP/s-l1600.jpg
p33
sg21
Vhttp://i.ebayimg.com/images/g/yO8AAOSwuxFY0whP/s-l300.jpg
p34
sa(dp35
g19
Vhttp://i.ebayimg.com/images/g/ROgAAOSwWxNY0whf/s-l1600.jpg
p36
sg21
Vhttp://i.ebayimg.com/images/g/ROgAAOSwWxNY0whf/s-l300.jpg
p37
sa(dp38
g19
Vhttp://i.ebayimg.com/images/g/sGYAAOSw32lY0whu/s-l1600.jpg
p39
sg21
Vhttp://i.ebayimg.com/images/g/sGYAAOSw32lY0whu/s-l300.jpg
p40
sasS'shipping_info'
p41
(dp42
S'item_location'
p43
(lp44
V\u000aCoatesville, Pennsylvania, United States
p45
asS'delivery'
p46
(lp47
VVaries
p48
asS'posts_to'
p49
(lp50
VUnited States
p51
assS'id'
p52
S'201901791778'
p53
s.