(dp1
S'title'
p2
VCape Barren Goose
p3
sS'url'
p4
Vhttp://www.thetaxidermystore.com/cape-barren-goose-taxidermy-mount-11497.html
p5
sS'price'
p6
V$0.00
p7
sS'seller'
p8
(lp9
sS'description_links'
p10
VDetailsDescriptionThis is a beautiful standing Cape Barren Goose mount. The feathers and coloration are both excellent with good overall taxidermy quality, earning our Excellent Plus\u2122 overall quality rating. This goose species is not a migratory game bird, making it legal to sell. All applicable dimensions are included to help ensure this item will fit within your intended display space.- This item comes on a wood base for display.- Perfect for the mantle, table, counter top, shelf, ledge, etc...About the Cape Barren Goose (Cereopsis novaehollandiae)The cape barren goose is native to the Cape Barren Island (Southern Australia) from which it gets its namesake. The cape barren goose is not a migratory bird, and lives in its island habitat year round. It's curious ability to drink salt and brackish water allows this goose to flourish in habitats that most non-aquatic animals would not be able to survive. The cape barren goose has a mostly grey plumage, with some black and dark grey spotting mixed in, and is regarded as one of the world's rarer and more exotic goose species.  SpecificationsDimensions:*Depth: 12"Height: 27"Width: 29"Weight: 6 lbs
p11
sS'images'
p12
(lp13
Vhttp://www.thetaxidermystore.com/skin/frontend/default/blanco_customization/images/logo.png
p14
aVhttp://www.thetaxidermystore.com/media/wysiwyg/ttsgraphics/sales_banners/Spring-Sale-612.jpg
p15
aVhttp://www.thetaxidermystore.com/media/wysiwyg/ttsgraphics/sales_banners/Spring-Green-CP.jpg
p16
aVhttp://www.thetaxidermystore.com/media/wysiwyg/ttsgraphics/sales_banners/Spring-Sale-612.jpg
p17
aVhttp://www.thetaxidermystore.com/media/wysiwyg/ttsgraphics/sales_banners/Spring-Green-CP.jpg
p18
aVhttp://www.thetaxidermystore.com/media/catalog/product/cache/1/image/396x396/9df78eab33525d08d6e5fb8d27136e95/c/a/cape-barron-goose-taxidermy-mount-_11497-for-sale-_-the-taxidermy-store.jpg
p19
aVhttp://www.thetaxidermystore.com/media/catalog/product/cache/1/thumbnail/70x70/9df78eab33525d08d6e5fb8d27136e95/c/a/cape-barron-goose-taxidermy-mount-_11497-for-sale-_-the-taxidermy-store.jpg
p20
aVhttp://www.thetaxidermystore.com/media/catalog/product/cache/1/thumbnail/70x70/9df78eab33525d08d6e5fb8d27136e95/1/1/11497_-_9394.jpg
p21
aVhttp://www.thetaxidermystore.com/media/catalog/product/cache/1/thumbnail/70x70/9df78eab33525d08d6e5fb8d27136e95/1/1/11497_-_9396.jpg
p22
aVhttp://www.thetaxidermystore.com/media/catalog/product/cache/1/thumbnail/70x70/9df78eab33525d08d6e5fb8d27136e95/1/1/11497_-_9395.jpg
p23
aVhttp://www.thetaxidermystore.com/media/catalog/product/cache/1/thumbnail/70x70/9df78eab33525d08d6e5fb8d27136e95/1/1/11497_-_9393.jpg
p24
aVhttp://www.thetaxidermystore.com/media/catalog/product/cache/1/thumbnail/70x70/9df78eab33525d08d6e5fb8d27136e95/1/1/11497_-_9397.jpg
p25
aVhttp://www.thetaxidermystore.com/media/catalog/product/cache/1/thumbnail/70x70/9df78eab33525d08d6e5fb8d27136e95/1/1/11497_-_9398.jpg
p26
aVhttp://www.thetaxidermystore.com/media/catalog/product/cache/1/thumbnail/70x70/9df78eab33525d08d6e5fb8d27136e95/1/1/11497_-_9399.jpg
p27
aVhttp://www.thetaxidermystore.com//media/wysiwyg/grade/cache/225x225/excellent_+.png
p28
aVhttp://www.thetaxidermystore.com/skin/frontend/default/blanco_customization/images/loading.gif
p29
aVhttp://www.thetaxidermystore.com/media/wysiwyg/ttsgraphics/Certificate.png
p30
aVhttp://www.thetaxidermystore.com/media/catalog/product/cache/1/thumbnail/228x/9df78eab33525d08d6e5fb8d27136e95/1/0/10226_xq_white_mallard_captive_raised_duck_taxidermy_mount.jpg
p31
aVhttp://www.thetaxidermystore.com/media/catalog/product/cache/1/thumbnail/228x/9df78eab33525d08d6e5fb8d27136e95/1/0/10227_xq_white_mallard_captive_raised_taxidermy_mount_for_sale.jpg
p32
aVhttp://www.thetaxidermystore.com/media/catalog/product/cache/1/thumbnail/228x/9df78eab33525d08d6e5fb8d27136e95/1/0/10229_xq_mandarin_duck_captive_raised_taxidermy_mount_for_sale.jpg
p33
aVhttp://www.thetaxidermystore.com/media/wysiwyg/ttsgraphics/ttshomepage/pinterest-logo.jpg
p34
aV/skin/frontend/default/blanco_customization/images/icon-twitter.png
p35
aV/skin/frontend/default/blanco_customization/images/icon-paypal.png
p36
aV/skin/frontend/default/blanco_customization/images/icon-discover.png
p37
aV/skin/frontend/default/blanco_customization/images/icon-visa.png
p38
aV/skin/frontend/default/blanco_customization/images/icon-american-express.png
p39
aV/skin/frontend/default/blanco_customization/images/icon-mastercard.png
p40
asS'shipping_info'
p41
(lp42
sS'id'
p43
V11497_1497077019
p44
s.