(dp1
S'title'
p2
VVintage A J Dezy Denver 3D Geese Pewter Belt Buckle
p3
sS'url'
p4
Vhttp://www.ecrater.com/p/14333643/vintage-a-j-dezy-denver-3d-geese?keywords=geese
p5
sS'price'
p6
V$29.95
p7
sS'seller'
p8
Vhttp://primrose.ecrater.com
p9
sS'description_links'
p10
VVintage. Collectors. 3D Geese metal alloy belt buckle. Pewter alloy metal. Made by A J Dezy Denver. Made in U.S.A.This buckle is approx 4 inches across and fits up to 1 3/4 inch wide belt.Excellent Condition. (Consignment and Pre-Owned).Please look at the pictures closely to see condition and details.Sold "AS IS".Clear 37 - 1226.
p11
sS'images'
p12
(lp13
Vhttp://s.ecrater.com/stores/104009/4f68c331a5126_104009b.jpg
p14
asS'shipping_info'
p15
(lp16
VOnly 1 available
p17
aVShipping:US-Mainland: $6.85(more destinations)
p18
aVCondition: Used
p19
asS'id'
p20
V14333643
p21
s.