(dp1
S'title'
p2
VEgyptian Goose Taxidermy Bird Mount For Sale
p3
sS'url'
p4
Vhttp://www.thetaxidermystore.com/egyptian-goose-taxidermy-bird-mount-for-sale-16776.html
p5
sS'price'
p6
V$0.00
p7
sS'seller'
p8
(lp9
sS'description_links'
p10
VDetailsDescription of Taxidermy For SaleThis is a beautiful flying Egyptian Goose taxidermy mount, posed on a custom hanger, and looking out to the left side of the room. The feather color and quality are both outstanding, as is the expert craftsmanship, earning this item our coveted Premier\u2122 overall rating. All applicable measurements are included to make sure this item will fit into the space you intend to display it.- There is already a hanger attached to the back of this item.- The item will hang on a properly anchored drywall screw.About the Egyptian Goose (Alopochen aegyptiaca)The Egyptian goose is a member of the duck, goose, and swan family Anatidae. It is native to Africa south of the Sahara and the Nile Valley. Egyptian geese were considered sacred by the Ancient Egyptians, and appeared in much of their artwork. SpecificationsDimensions:*Depth: 21"Height: 40"Width: 24"Weight: 5 lbs
p11
sS'images'
p12
(lp13
Vhttp://www.thetaxidermystore.com/skin/frontend/default/blanco_customization/images/logo.png
p14
aVhttp://www.thetaxidermystore.com/media/wysiwyg/ttsgraphics/sales_banners/Spring-Sale-612.jpg
p15
aVhttp://www.thetaxidermystore.com/media/wysiwyg/ttsgraphics/sales_banners/Spring-Green-CP.jpg
p16
aVhttp://www.thetaxidermystore.com/media/wysiwyg/ttsgraphics/sales_banners/Spring-Sale-612.jpg
p17
aVhttp://www.thetaxidermystore.com/media/wysiwyg/ttsgraphics/sales_banners/Spring-Green-CP.jpg
p18
aVhttp://www.thetaxidermystore.com/media/catalog/product/cache/1/image/396x396/9df78eab33525d08d6e5fb8d27136e95/e/g/egyptian-goose-bird-mount-for-sale-_16776-_-the-taxidermy-store.jpg
p19
aVhttp://www.thetaxidermystore.com/media/catalog/product/cache/1/thumbnail/70x70/9df78eab33525d08d6e5fb8d27136e95/e/g/egyptian-goose-bird-mount-for-sale-_16776-_-the-taxidermy-store.jpg
p20
aVhttp://www.thetaxidermystore.com/media/catalog/product/cache/1/thumbnail/70x70/9df78eab33525d08d6e5fb8d27136e95/1/6/16776_-_3_of_7.jpg
p21
aVhttp://www.thetaxidermystore.com/media/catalog/product/cache/1/thumbnail/70x70/9df78eab33525d08d6e5fb8d27136e95/1/6/16776_-_2_of_7.jpg
p22
aVhttp://www.thetaxidermystore.com/media/catalog/product/cache/1/thumbnail/70x70/9df78eab33525d08d6e5fb8d27136e95/1/6/16776_-_4_of_7.jpg
p23
aVhttp://www.thetaxidermystore.com/media/catalog/product/cache/1/thumbnail/70x70/9df78eab33525d08d6e5fb8d27136e95/1/6/16776_-_5_of_7.jpg
p24
aVhttp://www.thetaxidermystore.com/media/catalog/product/cache/1/thumbnail/70x70/9df78eab33525d08d6e5fb8d27136e95/1/6/16776_-_7_of_7.jpg
p25
aVhttp://www.thetaxidermystore.com/media/catalog/product/cache/1/thumbnail/70x70/9df78eab33525d08d6e5fb8d27136e95/1/6/16776_-_6_of_7.jpg
p26
aVhttp://www.thetaxidermystore.com/media/catalog/product/cache/1/thumbnail/70x70/9df78eab33525d08d6e5fb8d27136e95/1/6/16776_-_1_of_7.jpg
p27
aVhttp://www.thetaxidermystore.com//media/wysiwyg/grade/cache/225x225/premier.png
p28
aVhttp://www.thetaxidermystore.com/media/wysiwyg/ttsgraphics/Certificate.png
p29
aVhttp://www.thetaxidermystore.com/media/wysiwyg/ttsgraphics/ttshomepage/pinterest-logo.jpg
p30
aV/skin/frontend/default/blanco_customization/images/icon-twitter.png
p31
aV/skin/frontend/default/blanco_customization/images/icon-paypal.png
p32
aV/skin/frontend/default/blanco_customization/images/icon-discover.png
p33
aV/skin/frontend/default/blanco_customization/images/icon-visa.png
p34
aV/skin/frontend/default/blanco_customization/images/icon-american-express.png
p35
aV/skin/frontend/default/blanco_customization/images/icon-mastercard.png
p36
asS'shipping_info'
p37
(lp38
sS'id'
p39
V16776_1497077001
p40
s.