(dp1
S'title'
p2
VGolden Flight Canada Geese Darrell Bush Birds of the North HJ312
p3
sS'url'
p4
Vhttp://www.ecrater.com/p/22112429/golden-flight-canada-geese-darrell?keywords=geese
p5
sS'price'
p6
V$44.54
p7
sS'seller'
p8
Vhttp://iauctionshop.ecrater.com
p9
sS'description_links'
p10
VPreviously owned but in good condition. Measures approximately 8.5 inches in diameter. First in the series.Powered by eCRATER
p11
sS'images'
p12
(lp13
Vhttp://s.ecrater.com/stores/354504/54fbf8a18f289_354504b.jpg
p14
asS'shipping_info'
p15
(lp16
VOnly 1 available
p17
aVShipping:US-Mainland: $23.03(more destinations)
p18
aVCondition: Used
p19
asS'id'
p20
V22112429
p21
s.