(dp1
S'title'
p2
VBigz XL Die Geese Crossing 661282
p3
sS'url'
p4
Vhttp://www.ecrater.com/p/25420065/bigz-xl-die-geese-crossing-661282?keywords=geese
p5
sS'price'
p6
V$49.95
p7
sS'seller'
p8
Vhttp://vacsewcenter.ecrater.com
p9
sS'description_links'
p10
VBigz XL Die Geese Crossing 661282Quick, Easy, Precise. Every Sizzix quilting die effortlessly cuts a beautiful, versatile shape to complement your unique style. Imagine all the time you'll save with perfectly cut shapes and amazing designs to enhance your creativity. With steel-rule construction, a Bigz die cleanly cuts thick materials, including cardstock, chipboard, fabric, foam, magnet, leather, metallic foil, paper and sandpaper (in limited use). Its wider size offers you more design options. Approximate Assembled Size: 12 1/2 inches x 12 1/2 inches.  Die Size: 6 inches x 13 3/4 inches x 5/8 inch. Compatible with the following machines: Sizzix BIGkick, Big Shot, and Vagabond. Includes Free Project Idea.    661282
p11
sS'images'
p12
(lp13
Vhttp://s.ecrater.com/stores/285089/57f24e22376db_285089b.jpg
p14
asS'shipping_info'
p15
(lp16
V3 available
p17
aVShipping:US-Mainland: $14.95(more destinations)
p18
aVSales Tax: Florida: 7%
p19
aVCondition: Brand new
p20
asS'id'
p21
V25420065
p22
s.