(dp1
S'title'
p2
VJapanese Garden Spinning Geese Quilt Kit
p3
sS'url'
p4
Vhttp://www.ecrater.com/p/26014044/japanese-garden-spinning-geese-quilt?keywords=geese
p5
sS'price'
p6
V$139.95
p7
sS'seller'
p8
Vhttp://vacsewcenter.ecrater.com
p9
sS'description_links'
p10
VJapanese Garden Spinning Geese Quilt Kit. Spinning Geese Quilt Kit. 100% Cotton. Includes Quilt Top and Binding Fabrics. Backing Fabric Not Included. 66 Inches x 72 Inches Quilt Kit Designed by Reagan Denke.    CHK-KIT-MASSPG
p11
sS'images'
p12
(lp13
Vhttp://s.ecrater.com/stores/285089/585d4b69caa33_285089b.jpg
p14
asS'shipping_info'
p15
(lp16
VOnly 1 available
p17
aVShipping:US-Mainland: $14.95(more destinations)
p18
aVSales Tax: Florida: 7%
p19
aVCondition: Brand new
p20
asS'id'
p21
V26014044
p22
s.