(dp1
S'title'
p2
V1976 Towle Six Geese A Laying Sterling Silver Ornament
p3
sS'url'
p4
Vhttp://www.ecrater.com/p/27117462/1976-towle-six-geese-a-laying-sterling?keywords=geese
p5
sS'price'
p6
V$53.10
p7
sS'seller'
p8
Vhttp://finesilver4u.ecrater.com
p9
sS'description_links'
p10
V1976 TowleSix Geese A LayingSterling Silver OrnamentMeasures 2 3/8"Nice ConditionNo BoxSALES TAX CHARGED ONLY IF SENT TO WI 5.1% OR IL 6.25%
p11
sS'images'
p12
(lp13
sS'shipping_info'
p14
(lp15
VOnly 1 available
p16
aVShipping:US-Mainland: $3.50(more destinations)
p17
aVCondition: Used
p18
asS'id'
p19
V27117462
p20
s.