(dp1
S'title'
p2
V\u000aVintage Ceramic Geese Wildlife Handled Mustache Coffee \u000a
p3
sS'url'
p4
Vhttp://www.ioffer.com/i/vintage-ceramic-geese-wildlife-handled-mustache-coffee-613191142
p5
sS'price'
p6
V$59.97
p7
sS'seller'
p8
(lp9
sS'description_links'
p10
V
sS'images'
p11
(lp12
Vhttp://cdn.iofferphoto.com/img3/item/613/191/142/t_3XS6vintage-ceramic-geese-wildlife-handled-mustache-coffee.jpg
p13
aVhttp://cdn.iofferphoto.com/img3/item/613/191/142/t_Htq1vintage-ceramic-geese-wildlife-handled-mustache-coffee.jpg
p14
aVhttp://cdn.iofferphoto.com/img3/item/613/191/142/t_8XhZvintage-ceramic-geese-wildlife-handled-mustache-coffee.jpg
p15
aVhttp://cdn.iofferphoto.com/img3/item/613/191/142/t_7fQwvintage-ceramic-geese-wildlife-handled-mustache-coffee.jpg
p16
aVhttp://cdn.iofferphoto.com/img3/item/613/191/142/t_s9Hivintage-ceramic-geese-wildlife-handled-mustache-coffee.jpg
p17
aVhttp://cdn.iofferphoto.com/img3/item/613/191/142/t_74yRvintage-ceramic-geese-wildlife-handled-mustache-coffee.jpg
p18
aVhttp://cdn.iofferphoto.com/img3/item/613/191/142/t_Up2Dvintage-ceramic-geese-wildlife-handled-mustache-coffee.jpg
p19
aVhttp://cdn.iofferphoto.com/img3/item/613/191/142/t_Xavfvintage-ceramic-geese-wildlife-handled-mustache-coffee.jpg
p20
aVhttp://cdn.iofferphoto.com/img3/item/613/191/142/t_5WDPvintage-ceramic-geese-wildlife-handled-mustache-coffee.jpg
p21
aVhttp://cdn.iofferphoto.com/img3/item/613/191/142/t_E0qAvintage-ceramic-geese-wildlife-handled-mustache-coffee.jpg
p22
aVhttp://cdn.iofferphoto.com/img3/item/613/191/142/t_5ih4vintage-ceramic-geese-wildlife-handled-mustache-coffee.jpg
p23
aVhttp://cdn.iofferphoto.com/img3/item/613/191/142/t_HihVvintage-ceramic-geese-wildlife-handled-mustache-coffee.jpg
p24
asS'shipping_info'
p25
(lp26
sS'id'
p27
V613191142_1497077250
p28
s.