(dp1
S'title'
p2
V\u000aNewest female geese down jacket long coat\u000a
p3
sS'url'
p4
Vhttp://www.ioffer.com/i/newest-female-geese-down-jacket-long-coat-626729379
p5
sS'price'
p6
V$165.00
p7
sS'seller'
p8
(lp9
sS'description_links'
p10
VWelcome to my store The same as you see in the picture We welcome wholesalers and retailers, please feel free to contact us. I will be happy to answer timely questions. We are committed to your purchase and first-class quality and reasonable price, I think once you first with my business. You and me forever customer! ! Payment: 1) Western Union 2) Credit Card (MasterCard and VISA) 3) electronic bill
p11
sS'images'
p12
(lp13
Vhttp://cdn.iofferphoto.com/img3/item/626/729/379/t_newest-female-geese-down-jacket-long-coat-213e.jpg
p14
aVhttp://cdn.iofferphoto.com/img3/item/626/729/379/t_newest-female-geese-down-jacket-long-coat-d90a.jpg
p15
aVhttp://cdn.iofferphoto.com/img3/item/626/729/379/t_newest-female-geese-down-jacket-long-coat-ec87.jpg
p16
aVhttp://cdn.iofferphoto.com/img3/item/626/729/379/t_newest-female-geese-down-jacket-long-coat-fc64.jpg
p17
aVhttp://cdn.iofferphoto.com/img3/item/626/729/379/t_newest-female-geese-down-jacket-long-coat-dc0e.jpg
p18
aVhttp://cdn.iofferphoto.com/img3/item/626/729/379/t_newest-female-geese-down-jacket-long-coat-37c1.jpg
p19
asS'shipping_info'
p20
VAvailable ColorsAvailable SizesSizesX-SmallSmallMediumLargeX-LargeXXLEstimated Shipping1 - 3 Days
p21
sS'id'
p22
V626729379_1497077236
p23
s.