(dp1
S'title'
p2
V\u000aHot Michael Kor Women's Handbag Purse Shoulder Bag#6821\u000a
p3
sS'url'
p4
Vhttp://www.ioffer.com/i/hot-michael-kor-women-s-handbag-purse-shoulder-bag-6821-630748327
p5
sS'price'
p6
V$18.99
p7
sS'seller'
p8
(lp9
sS'description_links'
p10
VPayment method ============================ We accept Visa Card,Master Card,Western union.============================Item Description ============================ I have many style So you can just tell me your style(color and size)  You will receive 100% as you see in picture All item is brand new never used and 100% condition For wholesale price please contact us ============================ Shipping============================ - We ship to IOFFER address ONLY. Please make sure your address in IOFFER is matched with your shipping address before you pay.All items will be declared as gift. - We will ship out in 1-2 business days after receive payment always. ( We will not be delivered. Saturday and Sunday )Free airmail shipping to worldwide It usually take 15-35 days in normal to delivery Package arrived date,depending weather situation and airmail shipping .EMS(Express Mail) Please contact us for price It usually take 4 -10 days .please don't forget to leave me your feedback after you recieve package.5 STAR,thanks!
p11
sS'images'
p12
(lp13
Vhttp://cdn.iofferphoto.com/img3/item/630/748/327/t_hot-michael-kor-women-s-handbag-purse-shoulder-bag-6821-eb6f.jpg
p14
aVhttp://cdn.iofferphoto.com/img3/item/630/748/327/t_hot-michael-kor-women-s-handbag-purse-shoulder-bag-6821-d97b.jpg
p15
aVhttp://cdn.iofferphoto.com/img3/item/630/748/327/t_hot-michael-kor-women-s-handbag-purse-shoulder-bag-6821-dc47.jpg
p16
aVhttp://cdn.iofferphoto.com/img3/item/630/748/327/t_hot-michael-kor-women-s-handbag-purse-shoulder-bag-6821-0506.jpg
p17
aVhttp://cdn.iofferphoto.com/img3/item/630/748/327/t_hot-michael-kor-women-s-handbag-purse-shoulder-bag-6821-e284.jpg
p18
aVhttp://cdn.iofferphoto.com/img3/item/630/748/327/t_hot-michael-kor-women-s-handbag-purse-shoulder-bag-6821-811e.jpg
p19
aVhttp://cdn.iofferphoto.com/img3/item/630/748/327/t_hot-michael-kor-women-s-handbag-purse-shoulder-bag-6821-f606.jpg
p20
aVhttp://cdn.iofferphoto.com/img3/item/630/748/327/t_hot-michael-kor-women-s-handbag-purse-shoulder-bag-6821-d86b.jpg
p21
aVhttp://cdn.iofferphoto.com/img3/item/630/748/327/t_hot-michael-kor-women-s-handbag-purse-shoulder-bag-6821-4d12.jpg
p22
aVhttp://cdn.iofferphoto.com/img3/item/630/748/327/t_hot-michael-kor-women-s-handbag-purse-shoulder-bag-6821-39ba.jpg
p23
aVhttp://cdn.iofferphoto.com/img3/item/630/748/327/t_hot-michael-kor-women-s-handbag-purse-shoulder-bag-6821-0637.jpg
p24
aVhttp://cdn.iofferphoto.com/img3/item/630/748/327/t_hot-michael-kor-women-s-handbag-purse-shoulder-bag-6821-8b0d.jpg
p25
asS'shipping_info'
p26
VAvailable ColorsAvailable SizesSizesMediumEstimated Shipping15 - 20 Days
p27
sS'id'
p28
V630748327_1497083952
p29
s.