(dp1
S'title'
p2
VSongs Of The California Indians  Vol. 1 - Coyote Man  - Native American -  Record LP
p3
sS'url'
p4
Vhttp://www.ecrater.com/p/16077963/songs-of-the-california-indians-vol-1?keywords=california+native
p5
sS'price'
p6
V$10.00
p7
sS'seller'
p8
Vhttp://recordsforsale.ecrater.com
p9
sS'description_links'
p10
VWELCOME TO MY STOREARTIST: Collected by Coyote Man.  Features songs by Concow, Nisenan, mountain maidu.  See back of jacket for credits.TITLE:   Songs Of The California Indians  Vol. 1LABEL & NO:  VINYL COND:   VG+ to NM-JACKET COND:  NM-COMMENTS: 1975 issue  Includes booklet  PAYMENT: I accept PayPalCUSTOMER SERVICE:  If you are not satisfied with your purchase, contact me within 3 days for return instructions.  I will do whatever is reasonable to resolve any issues or return your purchase price no questions asked less shipping and handling.
p11
sS'images'
p12
(lp13
Vhttp://s.ecrater.com/stores/127345/50621845aa581_127345b.jpg
p14
asS'shipping_info'
p15
(lp16
VOnly 1 available
p17
aVShipping:US-Mainland: $4.00(more destinations)
p18
aVCondition: Used
p19
asS'id'
p20
V16077963
p21
s.