(dp1
S'title'
p2
VNative Peoples Magazine March/April 2015 Issue California Tribal Arts
p3
sS'url'
p4
Vhttp://www.ecrater.com/p/25375743/native-peoples-magazine-march-april-2015?keywords=california+native
p5
sS'price'
p6
V$5.39
p7
sS'seller'
p8
Vhttp://ladyphlepp123.ecrater.com
p9
sS'description_links'
p10
VNative Peoples Magazine March/April 2015 Issue California Tribal ArtsThe official Santa Fe Indian Market magazine.Some articles and feature in this issue:  Navajo Nation Election, California Tribal Arts, Drawing A New Future, Pow Wow Season Begins, lots of beautiful full-color ads, plus much more.64 pages.In Very Good to Excellent condition.  Has been well-read, but the pages are firm and intact.  Address label residue on front cover, where label was removed.  Turning wear.
p11
sS'images'
p12
(lp13
Vhttp://s.ecrater.com/stores/378985/57e2cf0b5f4d3_378985b.jpg
p14
asS'shipping_info'
p15
(lp16
VOnly 1 available
p17
aVShipping:US-Mainland: $5.25(more destinations)
p18
aVSales Tax: Colorado: 7.9%
p19
aVCondition: Used
p20
asS'id'
p21
V25375743
p22
s.