(dp1
S'title'
p2
V*original edward curtis&#034;wild grapes&#034;california native american indian phogravure
p3
sS'url'
p4
S'http://www.ebay.com/itm/ORIGINAL-EDWARD-CURTIS-WILD-GRAPES-CALIFORNIA-NATIVE-AMERICAN-INDIAN-PHOGRAVURE-/311875174711?hash=item489d358137:g:BEcAAOSw8lpZIPkM'
p5
sS'price'
p6
VUS $1,195.00
p7
sS'seller'
p8
(dp9
g4
Vhttp://www.ebay.com/usr/myprivatemuseum?_trksid=p2047675.l2559
p10
sS'name'
p11
V myprivatemuseum
p12
ssS'description_links'
p13
(lp14
Vhttp://vi.vipr.ebaydesc.com/ws/eBayISAPI.dll?ViewItemDescV4&item=311875174711&t=1495333628000&tid=10&category=66465&seller=myprivatemuseum&excSoj=1&excTrk=1&lsite=0&ittenable=false&domain=ebay.com&descgauge=1
p15
asS'images'
p16
(lp17
(dp18
S'maxImageUrl'
p19
Vhttp://i.ebayimg.com/images/g/BEcAAOSw8lpZIPkM/s-l1600.jpg
p20
sS'displayImgUrl'
p21
Vhttp://i.ebayimg.com/images/g/BEcAAOSw8lpZIPkM/s-l300.jpg
p22
sa(dp23
g19
Vhttp://i.ebayimg.com/images/g/8CEAAOSwYvFZIPj7/s-l1600.jpg
p24
sg21
Vhttp://i.ebayimg.com/images/g/8CEAAOSwYvFZIPj7/s-l300.jpg
p25
sa(dp26
g19
Vhttp://i.ebayimg.com/images/g/Tw8AAOSwH09ZIPju/s-l1600.jpg
p27
sg21
Vhttp://i.ebayimg.com/images/g/Tw8AAOSwH09ZIPju/s-l300.jpg
p28
sa(dp29
g19
Vhttp://i.ebayimg.com/images/g/xWMAAOSwtGlZIPh9/s-l1600.jpg
p30
sg21
Vhttp://i.ebayimg.com/images/g/xWMAAOSwtGlZIPh9/s-l300.jpg
p31
sa(dp32
g19
Vhttp://i.ebayimg.com/images/g/tKkAAOSwq1JZIPiA/s-l1600.jpg
p33
sg21
Vhttp://i.ebayimg.com/images/g/tKkAAOSwq1JZIPiA/s-l300.jpg
p34
sa(dp35
g19
Vhttp://i.ebayimg.com/images/g/MlwAAOSwxu5ZIPiC/s-l1600.jpg
p36
sg21
Vhttp://i.ebayimg.com/images/g/MlwAAOSwxu5ZIPiC/s-l300.jpg
p37
sa(dp38
g19
Vhttp://i.ebayimg.com/images/g/Nx8AAOSw3gJZIPiE/s-l1600.jpg
p39
sg21
Vhttp://i.ebayimg.com/images/g/Nx8AAOSw3gJZIPiE/s-l300.jpg
p40
sa(dp41
g19
Vhttp://i.ebayimg.com/images/g/xlUAAOSw-3FZIPjh/s-l1600.jpg
p42
sg21
Vhttp://i.ebayimg.com/images/g/xlUAAOSw-3FZIPjh/s-l300.jpg
p43
sa(dp44
g19
Vhttp://i.ebayimg.com/images/g/dGkAAOSwBt5ZIPjV/s-l1600.jpg
p45
sg21
Vhttp://i.ebayimg.com/images/g/dGkAAOSwBt5ZIPjV/s-l300.jpg
p46
sa(dp47
g19
Vhttp://i.ebayimg.com/images/g/w~MAAOSw-3FZIPiL/s-l1600.jpg
p48
sg21
Vhttp://i.ebayimg.com/images/g/w~MAAOSw-3FZIPiL/s-l300.jpg
p49
sa(dp50
g19
Vhttp://i.ebayimg.com/images/g/l74AAOSw42JZIPiN/s-l1600.jpg
p51
sg21
Vhttp://i.ebayimg.com/images/g/l74AAOSw42JZIPiN/s-l300.jpg
p52
sa(dp53
g19
Vhttp://i.ebayimg.com/images/g/JwkAAOSwsXFZIPiP/s-l1600.jpg
p54
sg21
Vhttp://i.ebayimg.com/images/g/JwkAAOSwsXFZIPiP/s-l300.jpg
p55
sasS'shipping_info'
p56
(dp57
S'item_location'
p58
(lp59
V\u000aPomona, California, United States
p60
asS'delivery'
p61
(lp62
VVaries
p63
asS'posts_to'
p64
(lp65
VWorldwide
p66
assS'id'
p67
S'311875174711'
p68
s.