(dp1
S'title'
p2
VWolf Claw Necklace #501
p3
sS'url'
p4
Vhttp://www.glacierwear.com/wolf-claw-necklace-501.html
p5
sS'price'
p6
V24.95
p7
sS'seller'
p8
(lp9
sS'description_links'
p10
VWolf Claw Necklace #501Genuine Wolf Claw Necklace. Approximate Length is 18". Native Made in Canada.
p11
sS'images'
p12
(lp13
Vhttp://www.glacierwear.com/media/catalog/product/cache/1/image/9df78eab33525d08d6e5fb8d27136e95/w/o/wolf_claw_necklace_501.jpg
p14
asS'shipping_info'
p15
VFree Shipping on $100.00+
p16
sS'id'
p17
V501_1497047815
p18
s.