(dp1
S'title'
p2
V\u000aMadonna California Girl live in Mountain view 1987 2 cd\u000a
p3
sS'url'
p4
Vhttp://www.ioffer.com/i/madonna-california-girl-live-in-mountain-view-1987-2-cd-502780568
p5
sS'price'
p6
V$15.00
p7
sS'seller'
p8
(lp9
sS'description_links'
p10
VMadonna live in Mountain View California 21 july 1987 wonderful soundoard recording + bonus disc live at Cow Palace april 23 1985.2 cdr with Artwork.Free shipping.
p11
sS'images'
p12
(lp13
Vhttp://cdn.iofferphoto.com/img3/item/502/780/568/t_madonna-california-girl-live-in-mountain-view-1987-2-cd-56d6.jpg
p14
aVhttp://cdn.iofferphoto.com/img3/item/502/780/568/t_madonna-california-girl-live-in-mountain-view-1987-2-cd-e2b3.jpg
p15
asS'shipping_info'
p16
VEstimated Shipping5 - 10 Days
p17
sS'id'
p18
V502780568_1497047857
p19
s.