(dp1
S'title'
p2
VCOYOTE CLAW NECKLACE #507
p3
sS'url'
p4
Vhttp://www.glacierwear.com/coyote-claw-necklace-507.html
p5
sS'price'
p6
V19.95
p7
sS'seller'
p8
(lp9
sS'description_links'
p10
V- Coyote Claw and Bead Necklace #507- Genuine Coyote Claw- Beads are Made of Wood
p11
sS'images'
p12
(lp13
Vhttp://www.glacierwear.com/media/catalog/product/cache/1/image/9df78eab33525d08d6e5fb8d27136e95/i/m/img_0011.jpg
p14
asS'shipping_info'
p15
VFree Shipping on $100.00+
p16
sS'id'
p17
V507_1497047827
p18
s.