(dp1
S'title'
p2
VBead Edge Inlay Cuff Bracelet
p3
sS'url'
p4
Vhttp://www.glacierwear.com/ornamental-inlay-cuff-bracelet-5678.html
p5
sS'price'
p6
V425
p7
sS'seller'
p8
(lp9
sS'description_links'
p10
VOrnamental Inlay Cuff Bracelet
p11
sS'images'
p12
(lp13
Vhttp://www.glacierwear.com/media/catalog/product/cache/1/thumbnail/500x/17f82f742ffe127f42dca9de82fb58b1/i/m/img_0722.jpg
p14
asS'shipping_info'
p15
VFree Shipping on $100.00+
p16
sS'id'
p17
V5678_1497047784
p18
s.