(dp1
S'title'
p2
VVibrant Stones Cuff Bracelet
p3
sS'url'
p4
Vhttp://www.glacierwear.com/vibrant-stones-cuff-bracelet.html
p5
sS'price'
p6
V825
p7
sS'seller'
p8
(lp9
sS'description_links'
p10
VVibrant Stones Cuff Bracelet
p11
sS'images'
p12
(lp13
Vhttp://www.glacierwear.com/media/catalog/product/cache/1/thumbnail/500x/17f82f742ffe127f42dca9de82fb58b1/i/m/img_0693.jpg
p14
asS'shipping_info'
p15
VFree Shipping on $100.00+
p16
sS'id'
p17
Vbracelet_1497047781
p18
s.