(dp1
S'title'
p2
VCalifornia Gull
p3
sS'url'
p4
Vhttp://www.boneroom.com/store/p1055/California_Gull.html
p5
sS'price'
p6
V$72.00
p7
sS'seller'
p8
(lp9
sS'description_links'
p10
VLarus californicus4.9" in length The mid-sized seagull that populates most of California.
p11
sS'images'
p12
(lp13
Vhttp://www.boneroom.com//uploads/4/8/1/1/48118243/s521972503441136676_p1055_i1_w601.jpeg
p14
asS'shipping_info'
p15
(lp16
sS'id'
p17
Vp1055_1497047899
p18
s.