(dp1
S'title'
p2
VEurasian Hedgehog Skull Cast
p3
sS'url'
p4
Vhttp://www.boneroom.com/store/p1420/Eurasian_Hedgehog_Skull_Cast_.html
p5
sS'price'
p6
V$48.00
p7
sS'seller'
p8
(lp9
sS'description_links'
p10
VErinaceus europaeus2.1" in length  The only native British animal with spines
p11
sS'images'
p12
(lp13
Vhttp://www.boneroom.com//uploads/4/8/1/1/48118243/s521972503441136676_p1420_i1_w500.jpeg
p14
asS'shipping_info'
p15
(lp16
sS'id'
p17
Vp1420_1497047924
p18
s.