(dp1
S'title'
p2
VSet of Two ~ Hippopotamus Brown Zoo Animals ~ Custom Ceiling Fan Pull Chains
p3
sS'url'
p4
Vhttp://www.ecrater.com/p/18370821/set-of-two-hippopotamus-brown-zoo?keywords=hippopotamus
p5
sS'price'
p6
V$9.99
p7
sS'seller'
p8
Vhttp://interestingornamentals.ecrater.com
p9
sS'description_links'
p10
VSet of Two HippopotamusCeiling Fan Pull Chains These ceiling fan pulls makea great gift for the special person in your life.Each hippopotamusmeasures 2 1/4"long and 1" high. They are made ofpvc and are beautifully painted.Eachitemcomes with its own ball and chain with all the correct connectors. Just snap and enjoy!Fast Shipping!!!Item iscustom made.All items made from purchased items.,RcmdId ViewItemDescV4,RlogId p4%60bo7%60jtb9%3Fvo%7B%3Dd70f%2Bf52%3E-13fe1a524b8-0x104-->
p11
sS'images'
p12
(lp13
sS'shipping_info'
p14
(lp15
VOnly 1 available
p16
aVShipping:US-Mainland: $3.99(more destinations)
p17
aVCondition: Used
p18
asS'id'
p19
V18370821
p20
s.