(dp1
S'title'
p2
VAAA Toy Hippopotamus PVC Figure Hippo Loose Used
p3
sS'url'
p4
Vhttp://www.ecrater.com/p/19981117/aaa-toy-hippopotamus-pvc-figure?keywords=hippopotamus
p5
sS'price'
p6
V$2.95
p7
sS'seller'
p8
Vhttp://timscomics.ecrater.com
p9
sS'description_links'
p10
VAbout 3" long and 1.5" tall.   Includes figure only. No box or accessories. Moderate to heavy wear. Has several paint rubs.
p11
sS'images'
p12
(lp13
Vhttp://s.ecrater.com/stores/8993/537e14e4e5429_8993b.jpg
p14
asS'shipping_info'
p15
(lp16
VOnly 1 available
p17
aVShipping:US-Mainland: $5.95(more destinations)
p18
aVCondition: Used
p19
asS'id'
p20
V19981117
p21
s.