(dp1
S'title'
p2
VSet of 2 Adorable Terra Cotta Lion and Hippopotamus Shaped Mini Planters for Indoor or Outdoor Use
p3
sS'url'
p4
Vhttp://www.ecrater.com/p/21518365/set-of-2-adorable-terra-cotta-lion-and?keywords=hippopotamus
p5
sS'price'
p6
V$11.95
p7
sS'seller'
p8
Vhttp://goodmanandwife.ecrater.com
p9
sS'description_links'
p10
V\u2022mini animal planters available in sets of 2 with 8 different creatures\u2022animated faces and comical bodies. Each set is 1 Lion and 1 Hippopotamus\u2022Terra cotta material and fired to an reddish clay color\u2022No drain holes. Animal Planter is stamped on the sides.\u2022Great for the whole family to enjoy. Plant your favorite herb or small succulentProduct Dimensions:  5 x 3 x 3.5 inches ; 6.6 ounces Shipping Weight: 1.2 poundsASIN: B00H8DRASMItem model number: GW-TS115
p11
sS'images'
p12
(lp13
Vhttp://s.ecrater.com/stores/347107/5463b6986fc1e_347107b.jpg
p14
asS'shipping_info'
p15
(lp16
VMore than 10 available
p17
aVShipping:USPS calculated - check
p18
aVSales Tax: California: 7.5%
p19
aVCondition: Brand new
p20
asS'id'
p21
V21518365
p22
s.