(dp1
S'title'
p2
VHippopotamus Wall Clock Personalized
p3
sS'url'
p4
Vhttp://www.ecrater.com/p/21633239/hippopotamus-wall-clock-personalized?keywords=hippopotamus
p5
sS'price'
p6
V$16.99
p7
sS'seller'
p8
Vhttp://clocksinstock.ecrater.com
p9
sS'description_links'
p10
VDESCRIPTION Complete your room with this custom wall clock.  Our clocks are plastic and measure 10 inches in diameter with a clear, plastic cover that protects the hour, minute and second hands.The frames are available in both black or white, your choice.  Please let us know if you want a different color than is pictured in this auction.PERSONALIZATION DETAILSWhen you checkout via Paypal, there is a \u201cnote to seller" section where you can leave your personalization details or if paying by Google Checkout simply email us at cabgodfrey@bellsouth.net with your details.Please don\u2019t forget to provide these details when you checkout so we can process your order quickly.PAYMENT OPTIONSWe gladly accept credit cards via Paypal or Google Checkout, check or money order. Payments must be received within 7 days.SHIPPING  Items are shipped via USPS Priority Mail inside the US.  We will combine shipping if you buy more than 1 clock. Items will be shipped within 2-3 business days after payment is received.OUR GUARANTEEYour satisfaction is guaranteed!  Before leaving negative feedback, please give us the opportunity to resolve any issues.  We stand by our guarantee.
p11
sS'images'
p12
(lp13
Vhttp://s.ecrater.com/stores/195820/547f313689c3e_195820b.jpg
p14
asS'shipping_info'
p15
(lp16
VOnly 1 available
p17
aVShipping:US-Mainland: $6.99(more destinations)
p18
aVSales Tax: Florida: 6.25%
p19
aVCondition: Brand new
p20
asS'id'
p21
V21633239
p22
s.