(dp1
S'title'
p2
VHIPPOPOTAMUS - Wade Whimsies
p3
sS'url'
p4
Vhttp://www.ecrater.com/p/23245805/hippopotamus-wade-whimsies?keywords=hippopotamus
p5
sS'price'
p6
V$7.00
p7
sS'seller'
p8
Vhttp://obilia.ecrater.com
p9
sS'description_links'
p10
VHIPPOPOTAMUSWade WhimsyItem as pictured(our ref BL35B)
p11
sS'images'
p12
(lp13
sS'shipping_info'
p14
(lp15
VOnly 1 available
p16
aVShipping:US-Mainland: $6.00(more destinations)
p17
aVCondition: Used
p18
asS'id'
p19
V23245805
p20
s.