(dp1
S'title'
p2
Vantiquity 11&#034; chinese hand made pigment painted terracotta hippopotamus statue
p3
sS'url'
p4
S'http://www.ebay.com/itm/Antiquity-11-Chinese-Hand-Made-Pigment-Painted-Terracotta-Hippopotamus-Statue-/261948094934?hash=item3cfd52b9d6:g:PG4AAOSwDNdVkHXf'
p5
sS'price'
p6
VUS $3,900.00
p7
sS'seller'
p8
(dp9
g4
Vhttp://www.ebay.com/usr/homeandgardendecorwarehouse?_trksid=p2047675.l2559
p10
sS'name'
p11
V homeandgardendecorwarehouse
p12
ssS'description_links'
p13
(lp14
Vhttp://vi.vipr.ebaydesc.com/ws/eBayISAPI.dll?ViewItemDescV4&item=261948094934&t=1435530825000&tid=10&category=63526&seller=homeandgardendecorwarehouse&excSoj=1&excTrk=1&lsite=0&ittenable=false&domain=ebay.com&descgauge=1
p15
asS'images'
p16
(lp17
(dp18
S'maxImageUrl'
p19
Vhttp://i.ebayimg.com/images/g/PG4AAOSwDNdVkHXf/s-l1600.jpg
p20
sS'displayImgUrl'
p21
Vhttp://i.ebayimg.com/images/g/PG4AAOSwDNdVkHXf/s-l300.jpg
p22
sa(dp23
g19
Vhttp://i.ebayimg.com/images/g/kzcAAOSwu4BVkHXh/s-l1600.jpg
p24
sg21
Vhttp://i.ebayimg.com/images/g/kzcAAOSwu4BVkHXh/s-l300.jpg
p25
sa(dp26
g19
Vhttp://i.ebayimg.com/images/g/IBEAAOSw3ydVkHXk/s-l1600.jpg
p27
sg21
Vhttp://i.ebayimg.com/images/g/IBEAAOSw3ydVkHXk/s-l300.jpg
p28
sa(dp29
g19
Vhttp://i.ebayimg.com/images/g/ikQAAOSwT6pVkHXo/s-l1600.jpg
p30
sg21
Vhttp://i.ebayimg.com/images/g/ikQAAOSwT6pVkHXo/s-l300.jpg
p31
sa(dp32
g19
Vhttp://i.ebayimg.com/images/g/lFIAAOSwu4BVkHXq/s-l1600.jpg
p33
sg21
Vhttp://i.ebayimg.com/images/g/lFIAAOSwu4BVkHXq/s-l300.jpg
p34
sa(dp35
g19
Vhttp://i.ebayimg.com/images/g/zWAAAOSw9N1VkHXs/s-l1600.jpg
p36
sg21
Vhttp://i.ebayimg.com/images/g/zWAAAOSw9N1VkHXs/s-l300.jpg
p37
sa(dp38
g19
Vhttp://i.ebayimg.com/images/g/QH8AAOSwjVVVkHXv/s-l1600.jpg
p39
sg21
Vhttp://i.ebayimg.com/images/g/QH8AAOSwjVVVkHXv/s-l300.jpg
p40
sa(dp41
g19
Vhttp://i.ebayimg.com/images/g/E0oAAOSwgQ9VkHXz/s-l1600.jpg
p42
sg21
Vhttp://i.ebayimg.com/images/g/E0oAAOSwgQ9VkHXz/s-l300.jpg
p43
sasS'shipping_info'
p44
(dp45
S'item_location'
p46
(lp47
V\u000aYonkers, New York, United States
p48
asS'delivery'
p49
(lp50
VVaries
p51
asS'posts_to'
p52
(lp53
VWorldwide
p54
assS'id'
p55
S'261948094934'
p56
s.