(dp1
S'title'
p2
V\u000aAll Red Hippopotamus Animal Mascot SpotSound Canada Wit\u000a
p3
sS'url'
p4
Vhttp://www.ioffer.com/i/all-red-hippopotamus-animal-mascot-spotsound-canada-wit-599986046
p5
sS'price'
p6
V$549.00
p7
sS'seller'
p8
(lp9
sS'description_links'
p10
VAll Red Hippopotamus Animal Mascot SpotSound Canada With Green Horns. This mascot is very nice for a marketing event or a private party. FREE SHIPPING around the globe, 7 size to choose and customized options and accessories available on our website. SpotSound is a company represented in Europe and in North America with a reactive customer service. Don't wait, come to play with your future mascot costume !
p11
sS'images'
p12
(lp13
Vhttp://cdn.iofferphoto.com/img3/item/599/986/046/t_5w01all-red-hippopotamus-animal-mascot-spotsound-canada-wit.jpg
p14
aVhttp://cdn.iofferphoto.com/img3/item/599/986/046/t_CNXdall-red-hippopotamus-animal-mascot-spotsound-canada-wit.jpg
p15
aVhttp://cdn.iofferphoto.com/img3/item/599/986/046/t_kP0ball-red-hippopotamus-animal-mascot-spotsound-canada-wit.jpg
p16
asS'shipping_info'
p17
(lp18
sS'id'
p19
V599986046_1497056134
p20
s.