(dp1
S'title'
p2
V\u000aPurple Plain And Customizable Hippopotamus Animal SPOTS\u000a
p3
sS'url'
p4
Vhttp://www.ioffer.com/i/purple-plain-and-customizable-hippopotamus-animal-spots-600086032
p5
sS'price'
p6
V$549.00
p7
sS'seller'
p8
(lp9
sS'description_links'
p10
VPurple Plain And Customizable Hippopotamus Animal SPOTSOUND MASCOT COSTUME  UK Mascot Costume. This mascot is very nice for a marketing event or a private party. FREE SHIPPING around the globe, 7 size to choose and customized options and accessories available on our website. SpotSound is a company represented in Europe and in North America with a reactive customer service. Don't wait, come to play with your future mascot costume !
p11
sS'images'
p12
(lp13
Vhttp://cdn.iofferphoto.com/img/item/600/086/032/t_59eBpurple-plain-and-customizable-hippopotamus-animal-spots.jpg
p14
aVhttp://cdn.iofferphoto.com/img/item/600/086/032/t_kr7Jpurple-plain-and-customizable-hippopotamus-animal-spots.jpg
p15
asS'shipping_info'
p16
(lp17
sS'id'
p18
V600086032_1497056127
p19
s.