(dp1
S'title'
p2
V\u000aGrey Hippopotamus Couple SPOTSOUND MASCOT COSTUME UK Ma\u000a
p3
sS'url'
p4
Vhttp://www.ioffer.com/i/grey-hippopotamus-couple-spotsound-mascot-costume-uk-ma-600057138
p5
sS'price'
p6
V$549.00
p7
sS'seller'
p8
(lp9
sS'description_links'
p10
VGrey Hippopotamus Couple SPOTSOUND MASCOT COSTUME  UK Mascot Costumes With Customizable Clothes. This mascot is very nice for a marketing event or a private party. FREE SHIPPING around the globe, 7 size to choose and customized options and accessories available on our website. SpotSound is a company represented in Europe and in North America with a reactive customer service. Don't wait, come to play with your future mascot costume !
p11
sS'images'
p12
(lp13
Vhttp://cdn.iofferphoto.com/img3/item/600/057/138/t_5yCZgrey-hippopotamus-couple-spotsound-mascot-costume-uk-ma.jpg
p14
aVhttp://cdn.iofferphoto.com/img3/item/600/057/138/t_9sAtgrey-hippopotamus-couple-spotsound-mascot-costume-uk-ma.jpg
p15
aVhttp://cdn.iofferphoto.com/img3/item/600/057/138/t_Og9Mgrey-hippopotamus-couple-spotsound-mascot-costume-uk-ma.jpg
p16
asS'shipping_info'
p17
(lp18
sS'id'
p19
V600057138_1497056124
p20
s.