(dp1
S'title'
p2
VWILDLIFE WONDERS HIPPOPOTAMUS and RHINO
p3
sS'url'
p4
Vhttp://www.ecrater.com/p/8673524/wildlife-wonders-hippopotamus-and-rhino?keywords=hippopotamus
p5
sS'price'
p6
V$31.99
p7
sS'seller'
p8
Vhttp://linkandpin.ecrater.com
p9
sS'description_links'
p10
VWILDLIFE WONDERS HIPPOPOTAMUS 9.5" andWILDLIFE WONDERS WHITE RHINOCERAS 12.5" brand new
p11
sS'images'
p12
(lp13
sS'shipping_info'
p14
(lp15
VOnly 1 available
p16
aVShipping:US-Mainland: $9.99(more destinations)
p17
aVCondition: Brand new
p18
asS'id'
p19
V8673524
p20
s.