(dp1
S'title'
p2
VChaise Lounge  Leopard Print Faux Fur Custom by Charles Haynes
p3
sS'url'
p4
Vhttp://www.ecrater.com/p/20532825/chaise-lounge-leopard-print-faux?keywords=leopard
p5
sS'price'
p6
V$3,800.00
p7
sS'seller'
p8
Vhttp://charleshaynescustomupholstering.ecrater.com
p9
sS'description_links'
p10
VLeopard Print Chaise Lounge Custom"One of A Kind" Concept Piece  Created By Master Craftsman Charles HaynesPersonally designed and custom hand-crafted by Charles this incredibly unique and beautiful, velvet leopard print chaise lounge is accented in black nylon velvet with large brass decorative nails, interspersed with nails that replicate buffalo heads and 12 gauge buckshot, trimmed in velvet leopard print single welt, adorned with gold tassels then finished off with hand painted red, black and gold square wood feet on casters. This amazing piece It is constructed with 5" memory foam, and 13 gauges Marshall steel springs on a wooden frame, supported by sag less webbing under the springs, You'll feel like Cleopatra or Marc Antony as you lounge on this one-of-a-kind piece.  The memory foam is very firm and provides exceptional comfort and therapeutic support for your back.   A true conversation piece.This is the perfect chaise lounge for the executive office or guest room, it provides comfort to take a short rest during a stressful day and recharge your battery. CONDITION: This Piece is  Gently Used by Charles HaynesSince a picture is worth a thousand words please visit our photo gallery.MEASUREMENTS:  78" long x 32" wide x 29" tall at the back and 24" tall at the front.
p11
sS'images'
p12
(lp13
Vhttp://s.ecrater.com/stores/342020/5406a97f9e7fa_342020b.jpg
p14
asS'shipping_info'
p15
(lp16
VOnly 1 available
p17
aVShipping:US-Mainland: $650.00(more destinations)
p18
aVSales Tax: Indiana: 7%
p19
aVCondition: Used
p20
asS'id'
p21
V20532825
p22
s.