(dp1
S'title'
p2
VLeopard Bedding Set ( Queen )
p3
sS'url'
p4
Vhttp://www.ecrater.com/p/21804534/leopard-bedding-set-queen?keywords=leopard
p5
sS'price'
p6
V$400.00
p7
sS'seller'
p8
Vhttp://gs-sg.ecrater.com
p9
sS'description_links'
p10
VLeopard Bedding Set ( Queen ).Queen Size:1Pc Quilt Cover ( 200*230cm )1Pc Bed Sheet ( 250*250cm )2Pcs Pillow Case ( 48*74cm )Free shipping worldwide.
p11
sS'images'
p12
(lp13
Vhttp://s.ecrater.com/stores/312523/54b2a5c3d673b_312523b.jpg
p14
asS'shipping_info'
p15
(lp16
V5 available
p17
aVShipping:US-Mainland: free(more destinations)
p18
aVCondition: Brand new
p19
asS'id'
p20
V21804534
p21
s.