(dp1
S'title'
p2
VGivenchy NOS Vintage 70s Leopard High Waist Pants Tunic Shirt Set Sportswear
p3
sS'url'
p4
Vhttp://www.ecrater.com/p/22970692/givenchy-nos-vintage-70s-leopard?keywords=leopard
p5
sS'price'
p6
V$255.00
p7
sS'seller'
p8
Vhttp://divebackintime.ecrater.com
p9
sS'description_links'
p10
VGivenchy Nouvelle Boutique Paris, vintage 70's slouchy, sexy, trousers, pants and blouse.Harem pants and military, safari blouse in am unusual mustard color. Smooth, lush fabric that will feel wonderful on bare skin in warm weather. Appears to be never worn....deadstock. The hem of the pants are not hemmed. Fabulous flowy fabric in a very forgiving cut. Animal print wide waistband on the harem pants and trimming the shirt pocket. A rare opportunity to wear new old stock vintage couture.For more Givenchy please click hereinkfrog terapeakinkFrog Analytics
p11
sS'images'
p12
(lp13
sS'shipping_info'
p14
(lp15
VOnly 1 available
p16
aVShipping:US-Mainland: $8.75(more destinations)
p17
aVCondition: Used
p18
asS'id'
p19
V22970692
p20
s.