(dp1
S'title'
p2
VPanther Leopard Cougar Big Cat Car Collector Marble Statue Decor Sculpture gifts
p3
sS'url'
p4
Vhttp://www.ecrater.com/p/24710320/panther-leopard-cougar-big-cat?keywords=leopard
p5
sS'price'
p6
V$229.51
p7
sS'seller'
p8
Vhttp://traditionalindiantreasure.ecrater.com
p9
sS'description_links'
p10
VYour browser does not support JavaScript.To view this page, enable JavaScript if it is disabled or upgrade your browser.    Click Here.  Double your traffic.  Get Vendio Gallery - Now FREE!                                                                                                                                                                                                                                                                                                                                                                                                                                                                                                                                                                                                                                                                                                Panther Leopard Cougar Big Cat Car Collector Marble Statue Decor Sculpture giftsYou are looking on the beautiful statue of a Jaguar made of Black marble.Statue is highly detailed andinexcellentcondition.The statue is handmade no machine work is used.This is very attractive and home decor,gifts statue. Size      11 inch  (Length) x 4 inch (Height) If there is any import duty, taxes and vat at the destination, it will be paid by the Purchaser at the destination.FedEx    Air     Shipping free for    WorldwideWe only accept     PAYPAL.Payment is to be completed within 3 days of     the     purchase.Please contact us if you can't make the     payment     promptly.Otherwise, we will reserve the right to     relist     the item and the unpaid item report will be made     correspondingly.        Shipping& Insurance PolicyWe will     offer the tracking no. u can track it     during the whole shipping process. After shipment please check your     tracking number after same day and please contact us in any query         regarding your package as     soonest.Asyou receive my parcel , you must open the parcel in front of the FedEx deliveryboy to ensure all the items are intact nd not damaged. If any item is foundbroken , and not checked at the time of delivery in front of delivery boy , noinsurance     claim can be claimed . Its a FedEx     ruleif you found broken item please send damaged    item  photo's     urgentlyReturn Shipping will be     paid by the     buyer.Packaging:We pack product export packed with bubble paper, shredded paper and cartoon     box. It will not get damaged on the way.                                                                                                                                                                                                                                                                                                                                                                                                                                                                                                                                                                                                                                                                                                                                                                                                                                          Your browser does not support JavaScript.To view this page, enable JavaScript if it is disabled or upgrade your browser.
p11
sS'images'
p12
(lp13
sS'shipping_info'
p14
(lp15
VOnly 1 available
p16
aVShipping:US-Mainland: free(more destinations)
p17
aVCondition: Brand new
p18
asS'id'
p19
V24710320
p20
s.