(dp1
S'title'
p2
VBoker BO02574 Leopard Damascus III 42, "Make An Offer"- All Offers Considered!
p3
sS'url'
p4
Vhttp://www.ecrater.com/p/25491096/boker-bo02574-leopard-damascus-iii-42?keywords=leopard
p5
sS'price'
p6
V$539.95
p7
sS'seller'
p8
Vhttp://cvoptics.ecrater.com
p9
sS'description_links'
p10
VYou are purchasing a brand new factory sealed  Boker BO02574 Leopard Damascus III 42  . Be a Warrior!- Buy NOW!! Save NOW!! GET IT HERE FIRST! FAST RELIABLE SHIPPING TO YOUR DESTINATION!5" closed linerlock. 3 7/8" Damascus steel blade forged from the barrel of the German battle tank Leopard I. Nail nick. CNC machined AIMSi1-aluminum handles with hardcoat anodized finish. Front handle has black Grenadill wood inlay. Reversible stainless pocket clip. Serialized. Red silk slip pouch with drawstring closure. Brown wooden storage box with vacuum formed insert.We are an authorized distributor for all brands listed and each purchase is backed by a full manufacturers warranty.Please note pics and descriptions are from the manufacturer.Delivery in the U.S. will take between 4 to 6 business days. Shipping is FREE within the United States via UPS. Most orders ship within 3 to 4 business days of purchase with tracking. We accept Paypal and all major credit cards via a merchant account. Items will only be shipped to confirmed Paypal addresses. NO EXCEPTIONS! Email us for any additional info or special order requests.Customer Service 1-(315)941-3429Monday-Friday 9am to 6pm eastern time
p11
sS'images'
p12
(lp13
Vhttp://s.ecrater.com/stores/95210/580410dd18141_95210b.jpg
p14
asS'shipping_info'
p15
(lp16
V5 available
p17
aVShipping:US-Mainland: free(more destinations)
p18
aVCondition: Brand new
p19
asS'id'
p20
V25491096
p21
s.