(dp1
S'title'
p2
V24KT YELLOW GOLD SOLID LEOPARD PANTHER NECKLACE HANGING 27.3 GRAMS FINE JEWELRY
p3
sS'url'
p4
Vhttp://www.ecrater.com/p/26667005/24kt-yellow-gold-solid-leopard?keywords=leopard
p5
sS'price'
p6
V$2,605.50
p7
sS'seller'
p8
Vhttp://morningstarsjewelers.ecrater.com
p9
sS'description_links'
p10
V24KT YELLOW GOLD SOLID LEOPARD PANTHER NECKLACE HANGING 27.3 GRAMS FINE JEWELRYSave time & money withFREE Auctiva Image Hosting.Create listings that get noticed!with Auctiva's 1,800+ Templates.Auctiva,The complete eCRATER Selling Solution.    <div style="text-align:center"><a style="text-decoration:none" href="http://mostpopular.sellathon.com/?id=AC1036956"><img src="http://www.sellathon.com/Resources/Images/countercredit.gif" border="0"></a></div>On Dec-23-16 at 13:39:12 PST, seller added the following information:
p11
sS'images'
p12
(lp13
sS'shipping_info'
p14
(lp15
VOnly 1 available
p16
aVShipping:US-Mainland: $25.00(more destinations)
p17
aVCondition: Used
p18
asS'id'
p19
V26667005
p20
s.