(dp1
S'title'
p2
V$398 Free People Leaping Leopard Coat XSmall 0 2 Brown / Black Faux Fur
p3
sS'url'
p4
Vhttp://www.ecrater.com/p/27101418/398-free-people-leaping-leopard-coat?keywords=leopard
p5
sS'price'
p6
V$249.00
p7
sS'seller'
p8
Vhttp://goneshopping.ecrater.com
p9
sS'description_links'
p10
VFree People Leaping Leopard CoatSize XSmall - Brown + Black - Retail $398 - New with a hang tag Statement duster style coat in a leopard print faux furA dramatic style with silky lining in a rich burgundyFeatures snap button closures and hip pockets        - Notch collar    - Long sleeves with snap button closure    - Front snap button closure    - 2 front welt pockets    - Faux fur leopard print    - Lined    - Approx. 46" length    - Imported    Faux fur shell: 100% polyester    Lining: 98% polyester, 2% spandex    Dry clean only    Per the manufacturer: this style fits true to size*******************************************Approximate measurements with the garment laying flat and unstretched:Underarm to underarm:  17 1/2"Length down the center back:  43"The fabric does not allow for stretch***************************************From a pet-free and smoke-free homeI can ship to a confirmed Paypal address in the United StatesPlease ask any questions you may have before bidding since the sale is final
p11
sS'images'
p12
(lp13
Vhttp://s.ecrater.com/stores/23246/5921f1ba33a26_23246b.jpg
p14
asS'shipping_info'
p15
(lp16
VOnly 1 available
p17
aVShipping:US-Mainland: free(more destinations)
p18
aVCondition: Brand new
p19
asS'id'
p20
V27101418
p21
s.