(dp1
S'title'
p2
Vnyasaland 58 (sg134) - king george vi &#034;african leopard&#034; (pa32237)
p3
sS'url'
p4
S'http://www.ebay.com/itm/NYASALAND-58-SG134-King-George-VI-African-Leopard-pa32237-/371961446371?hash=item569aa13fe3:g:vzoAAOSw5cNYjjae'
p5
sS'price'
p6
VUS $10,000.00
p7
sS'seller'
p8
(dp9
g4
Vhttp://www.ebay.com/usr/perforations?_trksid=p2047675.l2559
p10
sS'name'
p11
V perforations
p12
ssS'description_links'
p13
(lp14
Vhttp://vi.vipr.ebaydesc.com/ws/eBayISAPI.dll?ViewItemDescV4&item=371961446371&t=0&tid=10&category=73217&seller=perforations&excSoj=1&excTrk=1&lsite=0&ittenable=false&domain=ebay.com&descgauge=1
p15
asS'images'
p16
(lp17
(dp18
S'maxImageUrl'
p19
Vhttp://i.ebayimg.com/images/g/vzoAAOSw5cNYjjae/s-l1600.jpg
p20
sS'displayImgUrl'
p21
Vhttp://i.ebayimg.com/images/g/vzoAAOSw5cNYjjae/s-l300.jpg
p22
sasS'shipping_info'
p23
(dp24
S'item_location'
p25
(lp26
V\u000aOttawa, Ontario, Canada
p27
asS'delivery'
p28
(lp29
VVaries
p30
aVVaries
p31
aVEstimated between Fri. Jun. 16 and Wed. Jun. 28
p32
asS'posts_to'
p33
(lp34
VWorldwide
p35
assS'id'
p36
S'371961446371'
p37
s.