(dp1
S'title'
p2
V\u000aIncredible Works OF ART 14K WG Panther Leopard CAT Enam\u000a
p3
sS'url'
p4
Vhttp://www.ioffer.com/i/incredible-works-of-art-14k-wg-panther-leopard-cat-enam-550794526
p5
sS'price'
p6
V$1,250.00
p7
sS'seller'
p8
(lp9
sS'description_links'
p10
VThis is a beautiful 14kt White gold "Cartier" style Panther Leopard Cat Enameled ring , decorated with 6 brilliant cut diamonds in total approx. .15cttw., SI in Clarity and H in Color, Circa 1950's FINEST by Quality & Condition .Stamped 14K.Weight 9.8Gr.Wide 12mm.Size 9.
p11
sS'images'
p12
(lp13
Vhttp://cdn.iofferphoto.com/img/item/550/794/526/t_lsguincredible-works-of-art-14k-wg-panther-leopard-cat-enam.jpg
p14
aVhttp://cdn.iofferphoto.com/img/item/550/794/526/t_MFftincredible-works-of-art-14k-wg-panther-leopard-cat-enam.jpg
p15
aVhttp://cdn.iofferphoto.com/img/item/550/794/526/t_qn1Yincredible-works-of-art-14k-wg-panther-leopard-cat-enam.jpg
p16
aVhttp://cdn.iofferphoto.com/img/item/550/794/526/t_QxLoincredible-works-of-art-14k-wg-panther-leopard-cat-enam.jpg
p17
asS'shipping_info'
p18
(lp19
sS'id'
p20
V550794526_1497065445
p21
s.