(dp1
S'title'
p2
V\u000aIncredible Works of Art 14k WG Panther Leopard Cat Enam\u000a
p3
sS'url'
p4
Vhttp://www.ioffer.com/i/incredible-works-of-art-14k-wg-panther-leopard-cat-enam-566820973
p5
sS'price'
p6
V$1,250.00
p7
sS'seller'
p8
(lp9
sS'description_links'
p10
VThis is a beautiful 14kt White gold "Cartier" style Panther Leopard Cat Enameled ring , decorated with 6 brilliant cut diamonds in total approx. .15cttw., SI in Clarity and H in Color, Circa 1950's FINEST by Quality & Condition .Stamped 14K.Weight 9.8Gr.Wide 12mm.Size 9.
p11
sS'images'
p12
(lp13
Vhttp://cdn.iofferphoto.com/img3/item/566/820/973/t_43j3incredible-works-of-art-14k-wg-panther-leopard-cat-enam.jpg
p14
aVhttp://cdn.iofferphoto.com/img3/item/566/820/973/t_y2N0incredible-works-of-art-14k-wg-panther-leopard-cat-enam.jpg
p15
aVhttp://cdn.iofferphoto.com/img3/item/566/820/973/t_vUIlincredible-works-of-art-14k-wg-panther-leopard-cat-enam.jpg
p16
aVhttp://cdn.iofferphoto.com/img3/item/566/820/973/t_yDkmincredible-works-of-art-14k-wg-panther-leopard-cat-enam.jpg
p17
asS'shipping_info'
p18
(lp19
sS'id'
p20
V566820973_1497065450
p21
s.