(dp1
S'title'
p2
VLeopard Cat Skull Cast
p3
sS'url'
p4
Vhttp://www.boneroom.com/store/p1169/Leopard_Cat_Skull_Cast.html
p5
sS'price'
p6
V$72.00
p7
sS'seller'
p8
(lp9
sS'description_links'
p10
VFelis bengalensis5.1" in length Male
p11
sS'images'
p12
(lp13
Vhttp://www.boneroom.com//uploads/4/8/1/1/48118243/s521972503441136676_p1169_i1_w500.jpeg
p14
asS'shipping_info'
p15
(lp16
sS'id'
p17
Vp1169_1497065483
p18
s.