(dp1
S'title'
p2
Vclayton warthog hepa aero 5 gallon 112 cfm vacuum (wh-105-0)
p3
sS'url'
p4
S'http://www.ebay.com/itm/Clayton-WartHog-HEPA-Aero-5-Gallon-112-CFM-Vacuum-WH-105-0-/112406348773?hash=item1a2bf0c3e5:g:4mMAAOSwxu5ZF3re'
p5
sS'price'
p6
VUS $750.00
p7
sS'seller'
p8
(dp9
g4
Vhttp://www.ebay.com/usr/toolgeneral?_trksid=p2047675.l2559
p10
sS'name'
p11
V toolgeneral
p12
ssS'description_links'
p13
(lp14
Vhttp://vi.vipr.ebaydesc.com/ws/eBayISAPI.dll?ViewItemDescV4&item=112406348773&t=1496299211000&tid=10&category=66961&seller=toolgeneral&excSoj=1&excTrk=1&lsite=0&ittenable=false&domain=ebay.com&descgauge=1
p15
asS'images'
p16
(lp17
(dp18
S'maxImageUrl'
p19
Vhttp://i.ebayimg.com/images/g/4mMAAOSwxu5ZF3re/s-l1600.jpg
p20
sS'displayImgUrl'
p21
Vhttp://i.ebayimg.com/images/g/4mMAAOSwxu5ZF3re/s-l300.jpg
p22
sa(dp23
g19
Vhttp://i.ebayimg.com/images/g/v5YAAOSwcB5ZF3rk/s-l1600.jpg
p24
sg21
Vhttp://i.ebayimg.com/images/g/v5YAAOSwcB5ZF3rk/s-l300.jpg
p25
sa(dp26
g19
Vhttp://i.ebayimg.com/images/g/7mYAAOSwdjNZF3rv/s-l1600.jpg
p27
sg21
Vhttp://i.ebayimg.com/images/g/7mYAAOSwdjNZF3rv/s-l300.jpg
p28
sa(dp29
g19
Vhttp://i.ebayimg.com/images/g/~x8AAOSw1WJZF3r1/s-l1600.jpg
p30
sg21
Vhttp://i.ebayimg.com/images/g/~x8AAOSw1WJZF3r1/s-l300.jpg
p31
sa(dp32
g19
Vhttp://i.ebayimg.com/images/g/024AAOSwaEhZF3r8/s-l1600.jpg
p33
sg21
Vhttp://i.ebayimg.com/images/g/024AAOSwaEhZF3r8/s-l300.jpg
p34
sa(dp35
g19
Vhttp://i.ebayimg.com/images/g/UVEAAOSwBt5ZF3sD/s-l1600.jpg
p36
sg21
Vhttp://i.ebayimg.com/images/g/UVEAAOSwBt5ZF3sD/s-l300.jpg
p37
sa(dp38
g19
Vhttp://i.ebayimg.com/images/g/SroAAOSwKytZF3sM/s-l1600.jpg
p39
sg21
Vhttp://i.ebayimg.com/images/g/SroAAOSwKytZF3sM/s-l300.jpg
p40
sa(dp41
g19
Vhttp://i.ebayimg.com/images/g/29kAAOSw-3FZF3sU/s-l1600.jpg
p42
sg21
Vhttp://i.ebayimg.com/images/g/29kAAOSw-3FZF3sU/s-l300.jpg
p43
sa(dp44
g19
Vhttp://i.ebayimg.com/images/g/XMAAAOSwuMZZF3sa/s-l1600.jpg
p45
sg21
Vhttp://i.ebayimg.com/images/g/XMAAAOSwuMZZF3sa/s-l300.jpg
p46
sa(dp47
g19
Vhttp://i.ebayimg.com/images/g/vnkAAOSwrhBZF3sh/s-l1600.jpg
p48
sg21
Vhttp://i.ebayimg.com/images/g/vnkAAOSwrhBZF3sh/s-l300.jpg
p49
sa(dp50
g19
Vhttp://i.ebayimg.com/images/g/rlwAAOSwn-tZF3so/s-l1600.jpg
p51
sg21
Vhttp://i.ebayimg.com/images/g/rlwAAOSwn-tZF3so/s-l300.jpg
p52
sa(dp53
g19
Vhttp://i.ebayimg.com/images/g/Tf4AAOSwfRdZF3sw/s-l1600.jpg
p54
sg21
Vhttp://i.ebayimg.com/images/g/Tf4AAOSwfRdZF3sw/s-l300.jpg
p55
sasS'shipping_info'
p56
(dp57
S'item_location'
p58
(lp59
V\u000aFort Worth, Texas, United States
p60
asS'delivery'
p61
(lp62
VVaries
p63
asS'posts_to'
p64
(lp65
VWorldwide
p66
assS'id'
p67
S'112406348773'
p68
s.