(dp1
S'title'
p2
Vmagnificent african mask ligbi cote d&#039; lvoire ivory coast warthog/elephant mask
p3
sS'url'
p4
S'http://www.ebay.com/itm/MAGNIFICENT-AFRICAN-MASK-LIGBI-COTE-D-LVOIRE-IVORY-COAST-WARTHOG-ELEPHANT-MASK-/122420142410?hash=item1c80cf214a:g:gqgAAOSw2xRYhltF'
p5
sS'price'
p6
VUS $1,500.00
p7
sS'seller'
p8
(dp9
g4
Vhttp://www.ebay.com/usr/eastandwestsweet?_trksid=p2047675.l2559
p10
sS'name'
p11
V eastandwestsweet
p12
ssS'description_links'
p13
(lp14
Vhttp://vi.vipr.ebaydesc.com/ws/eBayISAPI.dll?ViewItemDescV4&item=122420142410&t=0&tid=10&category=29442&seller=eastandwestsweet&excSoj=1&excTrk=1&lsite=0&ittenable=false&domain=ebay.com&descgauge=1
p15
asS'images'
p16
(lp17
(dp18
S'maxImageUrl'
p19
Vhttp://i.ebayimg.com/images/g/gqgAAOSw2xRYhltF/s-l1600.jpg
p20
sS'displayImgUrl'
p21
Vhttp://i.ebayimg.com/images/g/gqgAAOSw2xRYhltF/s-l300.jpg
p22
sa(dp23
g19
Vhttp://i.ebayimg.com/images/g/ILUAAOSwjDZYhltS/s-l1600.jpg
p24
sg21
Vhttp://i.ebayimg.com/images/g/ILUAAOSwjDZYhltS/s-l300.jpg
p25
sa(dp26
g19
Vhttp://i.ebayimg.com/images/g/t1IAAOSw9GhYhltg/s-l1600.jpg
p27
sg21
Vhttp://i.ebayimg.com/images/g/t1IAAOSw9GhYhltg/s-l300.jpg
p28
sa(dp29
g19
Vhttp://i.ebayimg.com/images/g/lUkAAOSwopRYhltt/s-l1600.jpg
p30
sg21
Vhttp://i.ebayimg.com/images/g/lUkAAOSwopRYhltt/s-l300.jpg
p31
sa(dp32
g19
Vhttp://i.ebayimg.com/images/g/S3gAAOSwnHZYhlt5/s-l1600.jpg
p33
sg21
Vhttp://i.ebayimg.com/images/g/S3gAAOSwnHZYhlt5/s-l300.jpg
p34
sa(dp35
g19
Vhttp://i.ebayimg.com/images/g/JZgAAOSwA3dYhluG/s-l1600.jpg
p36
sg21
Vhttp://i.ebayimg.com/images/g/JZgAAOSwA3dYhluG/s-l300.jpg
p37
sa(dp38
g19
Vhttp://i.ebayimg.com/images/g/J3AAAOSwA3dYhluR/s-l1600.jpg
p39
sg21
Vhttp://i.ebayimg.com/images/g/J3AAAOSwA3dYhluR/s-l300.jpg
p40
sa(dp41
g19
Vhttp://i.ebayimg.com/images/g/nIMAAOSwopRYhlud/s-l1600.jpg
p42
sg21
Vhttp://i.ebayimg.com/images/g/nIMAAOSwopRYhlud/s-l300.jpg
p43
sa(dp44
g19
Vhttp://i.ebayimg.com/images/g/rmAAAOSw-0xYhlup/s-l1600.jpg
p45
sg21
Vhttp://i.ebayimg.com/images/g/rmAAAOSw-0xYhlup/s-l300.jpg
p46
sa(dp47
g19
Vhttp://i.ebayimg.com/images/g/LMMAAOSwA3dYhlu1/s-l1600.jpg
p48
sg21
Vhttp://i.ebayimg.com/images/g/LMMAAOSwA3dYhlu1/s-l300.jpg
p49
sa(dp50
g19
Vhttp://i.ebayimg.com/images/g/HB8AAOSwImRYhlvA/s-l1600.jpg
p51
sg21
Vhttp://i.ebayimg.com/images/g/HB8AAOSwImRYhlvA/s-l300.jpg
p52
sasS'shipping_info'
p53
(dp54
S'item_location'
p55
(lp56
V\u000aKillingworth, Connecticut, United States
p57
asS'delivery'
p58
(lp59
VVaries
p60
asS'posts_to'
p61
(lp62
VWorldwide
p63
assS'id'
p64
S'122420142410'
p65
s.