(dp1
S'title'
p2
VWild Safari WARTHOG 4.25"
p3
sS'url'
p4
Vhttp://www.ecrater.com/p/12333331/wild-safari-warthog-425?keywords=warthog
p5
sS'price'
p6
V$5.00
p7
sS'seller'
p8
Vhttp://linkandpin.ecrater.com
p9
sS'description_links'
p10
Vnewwe will combine postages
p11
sS'images'
p12
(lp13
sS'shipping_info'
p14
(lp15
VOnly 1 available
p16
aVShipping:US-Mainland: $7.00(more destinations)
p17
aVCondition: Brand new
p18
asS'id'
p19
V12333331
p20
s.