(dp1
S'title'
p2
Vcrocodile pursues warthog in the african wild- massive mount display
p3
sS'url'
p4
S'http://www.ebay.com/itm/Crocodile-Pursues-Warthog-in-the-African-Wild-Massive-Mount-Display-/182435066829?hash=item2a79fa33cd:g:k0EAAOSwImRYik9j'
p5
sS'price'
p6
(lp7
sS'seller'
p8
(dp9
g4
Vhttp://www.ebay.com/usr/powersurplustreasure?_trksid=p2047675.l2559
p10
sS'name'
p11
V powersurplustreasure
p12
ssS'description_links'
p13
(lp14
Vhttp://vi.vipr.ebaydesc.com/ws/eBayISAPI.dll?ViewItemDescV4&item=182435066829&t=0&tid=10&category=177908&seller=powersurplustreasure&excSoj=1&excTrk=1&lsite=0&ittenable=false&domain=ebay.com&descgauge=1
p15
asS'images'
p16
(lp17
(dp18
S'maxImageUrl'
p19
Vhttp://i.ebayimg.com/images/g/k0EAAOSwImRYik9j/s-l1600.jpg
p20
sS'displayImgUrl'
p21
Vhttp://i.ebayimg.com/images/g/k0EAAOSwImRYik9j/s-l300.jpg
p22
sa(dp23
g19
Vhttp://i.ebayimg.com/images/g/c6wAAOSw-0xYik9C/s-l1600.jpg
p24
sg21
Vhttp://i.ebayimg.com/images/g/c6wAAOSw-0xYik9C/s-l300.jpg
p25
sa(dp26
g19
Vhttp://i.ebayimg.com/images/g/FeQAAOSw9GhYik9H/s-l1600.jpg
p27
sg21
Vhttp://i.ebayimg.com/images/g/FeQAAOSw9GhYik9H/s-l300.jpg
p28
sa(dp29
g19
Vhttp://i.ebayimg.com/images/g/AesAAOSw44BYik9I/s-l1600.jpg
p30
sg21
Vhttp://i.ebayimg.com/images/g/AesAAOSw44BYik9I/s-l300.jpg
p31
sa(dp32
g19
Vhttp://i.ebayimg.com/images/g/~YkAAOSwopRYik9L/s-l1600.jpg
p33
sg21
Vhttp://i.ebayimg.com/images/g/~YkAAOSwopRYik9L/s-l300.jpg
p34
sa(dp35
g19
Vhttp://i.ebayimg.com/images/g/Gz4AAOSw9GhYik9d/s-l1600.jpg
p36
sg21
Vhttp://i.ebayimg.com/images/g/Gz4AAOSw9GhYik9d/s-l300.jpg
p37
sa(dp38
g19
Vhttp://i.ebayimg.com/images/g/qYcAAOSw4DJYik9g/s-l1600.jpg
p39
sg21
Vhttp://i.ebayimg.com/images/g/qYcAAOSw4DJYik9g/s-l300.jpg
p40
sa(dp41
g19
Vhttp://i.ebayimg.com/images/g/A0oAAOSwopRYik9n/s-l1600.jpg
p42
sg21
Vhttp://i.ebayimg.com/images/g/A0oAAOSwopRYik9n/s-l300.jpg
p43
sa(dp44
g19
Vhttp://i.ebayimg.com/images/g/Ip4AAOSwnHZYik9n/s-l1600.jpg
p45
sg21
Vhttp://i.ebayimg.com/images/g/Ip4AAOSwnHZYik9n/s-l300.jpg
p46
sasS'shipping_info'
p47
(dp48
S'item_location'
p49
(lp50
V\u000aBogart, Georgia, United States
p51
asS'delivery'
p52
(lp53
VVaries
p54
asS'posts_to'
p55
(lp56
VLocal pick-up only
p57
assS'id'
p58
S'182435066829'
p59
s.