(dp1
S'title'
p2
V1965 shelby cobra factory five mk ii
p3
sS'url'
p4
S'http://www.ebay.com/itm/1965-Shelby-Cobra-FACTORY-FIVE-MK-II-/142325586196?hash=item2123441914:g:5TIAAOSwlY1ZEsfi&vxp=mtr'
p5
sS'price'
p6
VUS $40,998.00
p7
sS'seller'
p8
(dp9
g4
Vhttp://www.ebay.com/usr/608.motorsports?_trksid=p2047675.l2559
p10
sS'name'
p11
V 608.motorsports
p12
ssS'description_links'
p13
(lp14
Vhttp://vi.vipr.ebaydesc.com/ws/eBayISAPI.dll?ViewItemDescV4&item=142325586196&t=1495007061000&tid=10&category=6465&seller=608.motorsports&excSoj=1&excTrk=1&lsite=100&ittenable=false&domain=ebay.com&descgauge=1
p15
asS'images'
p16
(lp17
(dp18
S'maxImageUrl'
p19
Vhttp://i.ebayimg.com/images/g/5TIAAOSwlY1ZEsfi/s-l1600.jpg
p20
sS'displayImgUrl'
p21
Vhttp://i.ebayimg.com/images/g/5TIAAOSwlY1ZEsfi/s-l300.jpg
p22
sa(dp23
g19
Vhttp://i.ebayimg.com/images/g/qWEAAOSwrhBZEsfi/s-l1600.jpg
p24
sg21
Vhttp://i.ebayimg.com/images/g/qWEAAOSwrhBZEsfi/s-l300.jpg
p25
sa(dp26
g19
Vhttp://i.ebayimg.com/images/g/lioAAOSwq1JZEsfi/s-l1600.jpg
p27
sg21
Vhttp://i.ebayimg.com/images/g/lioAAOSwq1JZEsfi/s-l300.jpg
p28
sa(dp29
g19
Vhttp://i.ebayimg.com/images/g/uDoAAOSw8HBZEsfi/s-l1600.jpg
p30
sg21
Vhttp://i.ebayimg.com/images/g/uDoAAOSw8HBZEsfi/s-l300.jpg
p31
sa(dp32
g19
Vhttp://i.ebayimg.com/images/g/4KYAAOSwdjNZEsfi/s-l1600.jpg
p33
sg21
Vhttp://i.ebayimg.com/images/g/4KYAAOSwdjNZEsfi/s-l300.jpg
p34
sa(dp35
g19
Vhttp://i.ebayimg.com/images/g/1BsAAOSwY3BZEsfi/s-l1600.jpg
p36
sg21
Vhttp://i.ebayimg.com/images/g/1BsAAOSwY3BZEsfi/s-l300.jpg
p37
sa(dp38
g19
Vhttp://i.ebayimg.com/images/g/vn0AAOSwjL5ZEsfi/s-l1600.jpg
p39
sg21
Vhttp://i.ebayimg.com/images/g/vn0AAOSwjL5ZEsfi/s-l300.jpg
p40
sa(dp41
g19
Vhttp://i.ebayimg.com/images/g/nMwAAOSwPh5ZEsfi/s-l1600.jpg
p42
sg21
Vhttp://i.ebayimg.com/images/g/nMwAAOSwPh5ZEsfi/s-l300.jpg
p43
sa(dp44
g19
Vhttp://i.ebayimg.com/images/g/DWsAAOSw5cRZEsfi/s-l1600.jpg
p45
sg21
Vhttp://i.ebayimg.com/images/g/DWsAAOSw5cRZEsfi/s-l300.jpg
p46
sa(dp47
g19
Vhttp://i.ebayimg.com/images/g/7BIAAOSw8lpZEsfi/s-l1600.jpg
p48
sg21
Vhttp://i.ebayimg.com/images/g/7BIAAOSw8lpZEsfi/s-l300.jpg
p49
sa(dp50
g19
Vhttp://i.ebayimg.com/images/g/1bEAAOSw~y9ZEsfi/s-l1600.jpg
p51
sg21
Vhttp://i.ebayimg.com/images/g/1bEAAOSw~y9ZEsfi/s-l300.jpg
p52
sa(dp53
g19
Vhttp://i.ebayimg.com/images/g/Q40AAOSwYvFZEsfi/s-l1600.jpg
p54
sg21
Vhttp://i.ebayimg.com/images/g/Q40AAOSwYvFZEsfi/s-l300.jpg
p55
sasS'shipping_info'
p56
(dp57
S'item_location'
p58
(lp59
sS'delivery'
p60
(lp61
sS'posts_to'
p62
(lp63
VLocal pick-up only
p64
assS'id'
p65
S'142325586196'
p66
s.