(dp1
S'title'
p2
VUpper Gear Set for OMC Cobra 21:16 Ratio V8 (TM1600)
p3
sS'url'
p4
Vhttp://www.ecrater.com/p/14668116/upper-gear-set-for-omc-cobra-2116?keywords=cobra
p5
sS'price'
p6
V$359.98
p7
sS'seller'
p8
Vhttp://tungstenmarine.ecrater.com
p9
sS'description_links'
p10
VUpper Gear Set for OMC Cobra 21:16 Ratio V8Replaces OMC 983825.Fits 5.7L Chevy's and 5.8L Fords (351) from 1986-1993.These are brand new and include the bearings shown in the picture!
p11
sS'images'
p12
(lp13
Vhttp://s.ecrater.com/stores/40949/4f8f16742a594_40949b.jpg
p14
asS'shipping_info'
p15
(lp16
VOnly 1 available
p17
aVShipping:USPS calculated - check
p18
aVSales Tax: Louisiana: 8.75%
p19
aVCondition: Brand new
p20
asS'id'
p21
V14668116
p22
s.