(dp1
S'title'
p2
VUpper Gear Set for OMC Cobra 21:18 Ratio (TM1601)
p3
sS'url'
p4
Vhttp://www.ecrater.com/p/14668095/upper-gear-set-for-omc-cobra-2118?keywords=cobra
p5
sS'price'
p6
V$379.95
p7
sS'seller'
p8
Vhttp://tungstenmarine.ecrater.com
p9
sS'description_links'
p10
VUpper Gear Set for OMC Cobra 21:18 RatioReplaces OMC 983826.It replaces the upper gear set on:4 Cylinder 2.3L from 1987-1990,4 Cylinder 3.0L from 1986-1989,302 FORD V8 5.0L.If you have any questions for your application, please contact us and we can gladly check your model number!
p11
sS'images'
p12
(lp13
Vhttp://s.ecrater.com/stores/40949/4f8f15e135344_40949b.jpg
p14
asS'shipping_info'
p15
(lp16
VOnly 1 available
p17
aVShipping:USPS calculated - check
p18
aVSales Tax: Louisiana: 8.75%
p19
aVCondition: Brand new
p20
asS'id'
p21
V14668095
p22
s.