(dp1
S'title'
p2
Vg.i. joe cobra Ultimate Battle Pack misb free USA shipping
p3
sS'url'
p4
Vhttp://www.ecrater.com/p/15753831/gi-joe-cobra-ultimate-battle?keywords=cobra
p5
sS'price'
p6
V$300.00
p7
sS'seller'
p8
Vhttp://skytoy.ecrater.com
p9
sS'description_links'
p10
V2008 exclusive g.i. joe cobra Ultimate Battle Pack. this huge set includes FIGURES: Cobra Vehicle Gunner, Cobra Commander, Destro, H.I.S.S. Driver, Short-Fuze, Sgt. Stalker, and Steeler. And VEHICLES: a Flight Pod, red H.I.S.S. Tank, and a MOBAT. Brand new mint in sealed box.INTERNATIONAL BUYERS - PLEASE ADD SHIPPING RATES ON YOUR COUNTRY OF DESTINATION DURING CHECKOUT. Cost varies by region. insurance is extra. We give discounts if you purchase 3 items or more.WEBSITE: skytoys.weebly.com
p11
sS'images'
p12
(lp13
Vhttp://s.ecrater.com/stores/130257/502a7ba16ae5b_130257b.jpg
p14
asS'shipping_info'
p15
(lp16
VOnly 1 available
p17
aVShipping:US-Mainland: free(more destinations)
p18
aVCondition: Brand new
p19
asS'id'
p20
V15753831
p21
s.