(dp1
S'title'
p2
V1965 shelby cobra replica
p3
sS'url'
p4
S'http://www.ebay.com/itm/1965-Shelby-Cobra-Replica-/162449764687?hash=item25d2c2b14f:g:pRcAAOSw1WJZMOMu&vxp=mtr'
p5
sS'price'
p6
VUS $51,000.00
p7
sS'seller'
p8
(dp9
g4
Vhttp://www.ebay.com/usr/gateway-classic-cars?_trksid=p2047675.l2559
p10
sS'name'
p11
V gateway-classic-cars
p12
ssS'description_links'
p13
(lp14
Vhttp://vi.vipr.ebaydesc.com/ws/eBayISAPI.dll?ViewItemDescV4&item=162449764687&t=1496376102000&tid=10&category=6465&seller=gateway-classic-cars&excSoj=1&excTrk=1&lsite=100&ittenable=false&domain=ebay.com&descgauge=1
p15
asS'images'
p16
(lp17
(dp18
S'maxImageUrl'
p19
Vhttp://i.ebayimg.com/images/g/pRcAAOSw1WJZMOMu/s-l1600.jpg
p20
sS'displayImgUrl'
p21
Vhttp://i.ebayimg.com/images/g/pRcAAOSw1WJZMOMu/s-l300.jpg
p22
sa(dp23
g19
Vhttp://i.ebayimg.com/images/g/DF0AAOSw~y9ZMOMv/s-l1600.jpg
p24
sg21
Vhttp://i.ebayimg.com/images/g/DF0AAOSw~y9ZMOMv/s-l300.jpg
p25
sa(dp26
g19
Vhttp://i.ebayimg.com/images/g/LLEAAOSwcB5ZMOMu/s-l1600.jpg
p27
sg21
Vhttp://i.ebayimg.com/images/g/LLEAAOSwcB5ZMOMu/s-l300.jpg
p28
sa(dp29
g19
Vhttp://i.ebayimg.com/images/g/8wkAAOSwq1JZMOMu/s-l1600.jpg
p30
sg21
Vhttp://i.ebayimg.com/images/g/8wkAAOSwq1JZMOMu/s-l300.jpg
p31
sa(dp32
g19
Vhttp://i.ebayimg.com/images/g/blIAAOSw~FJZMOMu/s-l1600.jpg
p33
sg21
Vhttp://i.ebayimg.com/images/g/blIAAOSw~FJZMOMu/s-l300.jpg
p34
sa(dp35
g19
Vhttp://i.ebayimg.com/images/g/ZWkAAOSw-3FZMOMu/s-l1600.jpg
p36
sg21
Vhttp://i.ebayimg.com/images/g/ZWkAAOSw-3FZMOMu/s-l300.jpg
p37
sa(dp38
g19
Vhttp://i.ebayimg.com/images/g/IBQAAOSwblZZMOMv/s-l1600.jpg
p39
sg21
Vhttp://i.ebayimg.com/images/g/IBQAAOSwblZZMOMv/s-l300.jpg
p40
sa(dp41
g19
Vhttp://i.ebayimg.com/images/g/IqkAAOSwfpVZMOMv/s-l1600.jpg
p42
sg21
Vhttp://i.ebayimg.com/images/g/IqkAAOSwfpVZMOMv/s-l300.jpg
p43
sa(dp44
g19
Vhttp://i.ebayimg.com/images/g/yNcAAOSwaeRZMOMv/s-l1600.jpg
p45
sg21
Vhttp://i.ebayimg.com/images/g/yNcAAOSwaeRZMOMv/s-l300.jpg
p46
sa(dp47
g19
Vhttp://i.ebayimg.com/images/g/tTgAAOSwcgNZMOMv/s-l1600.jpg
p48
sg21
Vhttp://i.ebayimg.com/images/g/tTgAAOSwcgNZMOMv/s-l300.jpg
p49
sa(dp50
g19
Vhttp://i.ebayimg.com/images/g/LCQAAOSwYlRZMOMv/s-l1600.jpg
p51
sg21
Vhttp://i.ebayimg.com/images/g/LCQAAOSwYlRZMOMv/s-l300.jpg
p52
sa(dp53
g19
Vhttp://i.ebayimg.com/images/g/mXUAAOSwDiBZMOMu/s-l1600.jpg
p54
sg21
Vhttp://i.ebayimg.com/images/g/mXUAAOSwDiBZMOMu/s-l300.jpg
p55
sasS'shipping_info'
p56
(dp57
S'item_location'
p58
(lp59
sS'delivery'
p60
(lp61
sS'posts_to'
p62
(lp63
VLocal pick-up only
p64
assS'id'
p65
S'162449764687'
p66
s.