(dp1
S'title'
p2
VManifold Mount Overflow Kit AC Shelby Cobra Replica
p3
sS'url'
p4
Vhttp://www.ecrater.com/p/2122688/manifold-mount-overflow-kit-ac?keywords=cobra
p5
sS'price'
p6
V$318.00
p7
sS'seller'
p8
Vhttp://haneshotrods.ecrater.com
p9
sS'description_links'
p10
VManifold Mount Overflow TankOriginal Cobra design overflow tank mounts directly to the intake manifold. Solder in neck allows positioning of the tank for clearance. Perfect for your Cobra Replica.Hunter's FFR Everett - Morrison  ERA SuperPerformance Factory Five Shell Valley Cobra
p11
sS'images'
p12
(lp13
Vhttp://s.ecrater.com/stores/55701/47cb5e1484036_55701b.jpg
p14
asS'shipping_info'
p15
(lp16
V10 available
p17
aVShipping:US-Mainland: $12.95(more destinations)
p18
aVCondition: Brand new
p19
asS'id'
p20
V2122688
p21
s.