(dp1
S'title'
p2
VOil Cooler Kit AC Shelby Cobra Replica
p3
sS'url'
p4
Vhttp://www.ecrater.com/p/2122616/oil-cooler-kit-ac-shelby?keywords=cobra
p5
sS'price'
p6
V$390.00
p7
sS'seller'
p8
Vhttp://haneshotrods.ecrater.com
p9
sS'description_links'
p10
VOil Cooler KitOriginal style oil cooler. Comes with 10' of braided stainless hose and fittings at the cooler. Perfect for your Cobra Replica.
p11
sS'images'
p12
(lp13
Vhttp://s.ecrater.com/stores/55701/47cb5b064ac8c_55701b.jpg
p14
asS'shipping_info'
p15
(lp16
V10 available
p17
aVShipping:US-Mainland: $25.95(more destinations)
p18
aVCondition: Brand new
p19
asS'id'
p20
V2122616
p21
s.