(dp1
S'title'
p2
VVDO Gauges w/ Indicator Lamp Shelby Cobra Replica
p3
sS'url'
p4
Vhttp://www.ecrater.com/p/2122544/vdo-gauges-w-indicator-lamp-shelby?keywords=cobra
p5
sS'price'
p6
V$440.00
p7
sS'seller'
p8
Vhttp://haneshotrods.ecrater.com
p9
sS'description_links'
p10
VVDO Gauges with Indicator LightsIncludes 6 illuminated guages - oil pressure, fuel, speedometer w/trip meter, tach, voltage and water temperature. Package includes senders, turn signal & high beam lights. Perfect for your Cobra Replica or Hot Rod.Hunter's FFR Everett - Morrison  ERA SuperPerformance Factory Five Shell Valley Cobra
p11
sS'images'
p12
(lp13
Vhttp://s.ecrater.com/stores/55701/49bc7557d06cc_55701b.jpg
p14
asS'shipping_info'
p15
(lp16
V6 available
p17
aVShipping:US-Mainland: $12.95(more destinations)
p18
aVCondition: Brand new
p19
asS'id'
p20
V2122544
p21
s.