(dp1
S'title'
p2
VHeater Defroster Kit Shelby Cobra Replica Hot Rod AC ACE Rat Rod Kit Car
p3
sS'url'
p4
Vhttp://www.ecrater.com/p/24379677/heater-defroster-kit-shelby-cobra?keywords=cobra
p5
sS'price'
p6
V$335.00
p7
sS'seller'
p8
Vhttp://haneshotrods.ecrater.com
p9
sS'description_links'
p10
VCobra Replica or Kit CarHeater Defroster KitCompact to fit most applications. With defrost ducts, grills, and hose. Water hookups and 12 volt fan built in.Attention International Buyers please send us your shipping address for a shipping quote. We offer better shipping rates than eCRATER has selected.Perfect for your Cobra Replica or Hot RodHunter's FFR Everett - Morrison ERA Superformance Factory Five Shell Valley Mid-States CobraDisclaimer: Cobra is a registered trademark of Ford Motor Company. We are not associated with Ford Motor Company. Shelby is a registered trademark of Shelby Automobiles, Inc. We are not associated with Shelby Automobiles, Inc.Check out our eCRATER Pro Store for more Cobra and Hotrod Parts On Dec-20-06 at 01:50:23 PST, seller added the following information: After purchasing, pay instantly with your credit card through PayPal!
p11
sS'images'
p12
(lp13
sS'shipping_info'
p14
(lp15
VOnly 1 available
p16
aVShipping:US-Mainland: $12.95(more destinations)
p17
aVCondition: Used
p18
asS'id'
p19
V24379677
p20
s.