(dp1
S'title'
p2
VWindshield Wiper Assembly AC Shelby Cobra Replica 427 289 ACE Kit Car
p3
sS'url'
p4
Vhttp://www.ecrater.com/p/24379737/windshield-wiper-assembly-ac-shelby?keywords=cobra
p5
sS'price'
p6
V$425.00
p7
sS'seller'
p8
Vhttp://haneshotrods.ecrater.com
p9
sS'description_links'
p10
VCobra Replica or Kit CarWindshield Wiper AssemblyCable drive wiper motor allows flexible movement in placing of the wiper post. Includes new motor, new arms, blades, switch, gaskets, and mounting brackets.International Buyers we will ship world wide. Please contact us with your shipping address for better shipping options.Hunter's Kit Cars, FFR, Factory Five, Shell Valley, will fit almost all Cobra Replicas as it is made to the original specifications.See our Store for the Windshield Surround Plates, Windwings, Sunvisorsand other item to finish your Cobra.On Mar-09-07 at 15:44:48 PST, seller added the following information: After purchasing, pay instantly with your credit card through PayPal!
p11
sS'images'
p12
(lp13
sS'shipping_info'
p14
(lp15
VOnly 1 available
p16
aVShipping:US-Mainland: $12.95(more destinations)
p17
aVCondition: Used
p18
asS'id'
p19
V24379737
p20
s.