(dp1
S'title'
p2
VWindshield Frame Assembly AC Shelby Cobra Replica 427 289 ACE Kit Car
p3
sS'url'
p4
Vhttp://www.ecrater.com/p/24379653/windshield-frame-assembly-ac-shelby?keywords=cobra
p5
sS'price'
p6
V$460.00
p7
sS'seller'
p8
Vhttp://haneshotrods.ecrater.com
p9
sS'description_links'
p10
VCobra Replica or Kit CarWindshieldFrame ONLY KitChrome over Brass windshield frame as original with base weather seal and hardware.International Buyers we will ship world wide. Please contact us with your shipping address for better shipping options.Perfect for your Cobra Replica.NOTICE THIS IS THE FRAME ONLY! NO GLASSView from top of Carton tells how to open, but it is much easier to just cut the seams of the box where they are taped and peel the box away. Just be careful as the side supports and all the screwsare mounted in the foam on the side.Hunter's Kit Cars, FFR, Factory Five, Shell Valley, Superformance will fit almost all Cobra Replicas as it is made to the original specifications.See our Store for the Windshield Surround Plates, Windwings, Sunvisors and other items to finish your Cobra Disclaimer: Cobra is a registered trademark of Ford Motor Company. We are not associated with Ford Motor Company. Shelby is a registered trademark of Shelby Automobiles, Inc. We are not associated with Shelby Automobiles, Inc.On Mar-09-07 at 15:44:48 PST, seller added the following information: After purchasing, pay instantly with your credit card through PayPal!
p11
sS'images'
p12
(lp13
sS'shipping_info'
p14
(lp15
VOnly 1 available
p16
aVShipping:US-Mainland: $12.95(more destinations)
p17
aVCondition: Used
p18
asS'id'
p19
V24379653
p20
s.