(dp1
S'title'
p2
VBumper Overriders Front & Rear Shelby AC Cobra Replica 427  289 ACE Kit Car
p3
sS'url'
p4
Vhttp://www.ecrater.com/p/24379663/bumper-overriders-front-rear-shelby?keywords=cobra
p5
sS'price'
p6
V$320.00
p7
sS'seller'
p8
Vhttp://haneshotrods.ecrater.com
p9
sS'description_links'
p10
VCobra Replica or Kit Car1 Pair Original Design Rear 1 Pair Front 427 289 Bumper OverridersPolished Stainless SteelMounting holes are 2-5/16 center to centerSee our other items for the front and rear oval bumpers and front overriders.Disclaimer: Cobra is a registered trademark of Ford Motor Company. We are not associated with Ford Motor Company. Shelby is a registered trademark of Shelby Automobiles, Inc. We are not associated with Shelby Automobiles, Inc.On Sep-02-09 at 08:45:53 PDT, seller added the following information: Please see our eCRATER store mounting kit to finish off your bumpers.Powered by eCRATER . List your items fast and easy and manage your active items.
p11
sS'images'
p12
(lp13
sS'shipping_info'
p14
(lp15
VOnly 1 available
p16
aVShipping:US-Mainland: $12.95(more destinations)
p17
aVCondition: Used
p18
asS'id'
p19
V24379663
p20
s.