(dp1
S'title'
p2
VLights Headlamps Shelby Cobra AC Mini Triumph VW MG Jaguar Austin Halogen Fluted
p3
sS'url'
p4
Vhttp://www.ecrater.com/p/25079815/lights-headlamps-shelby-cobra-ac?keywords=cobra
p5
sS'price'
p6
V$275.00
p7
sS'seller'
p8
Vhttp://haneshotrods.ecrater.com
p9
sS'description_links'
p10
VShelby Cobra Replica or Kit CarFluted H4 Halogen Headlight Headlamp kitPair of Wipac plastic replacement bucketsUpgraded Fluted H4 Halogen 6-5/8" Housings Glass lenses and H4 Bulbs includedIncludes: 2 - H4 Halogen Bulbs, 2 - Gaskets, 2 - 8" Chrome trim rings, 2 - Chrome Retainer Rings, 2 - Wipac S5400 Buckets and Mounting HardwareThese Wipac S5400 buckets replace the rusty metal Lucas 54522342 buckets that were popular on many early European cars including: AC ACE, Classic Mini Cooper, Triumph, VW, MG, Jaguar, Morris Minor, Austin Healey, Land RoverBulb socket must be grounded especially on fiberglass fenders or bodies.Attention International Buyers please send us your shipping address for a shipping quote. We offer better shipping rates than eCRATER has selected.Perfect for your Cobra Replica.Hunter's FFR Everett - Morrison ERA Superformance Factory Five Shell Valley CobraOn Apr-09-05 at 10:05:35 PDT, seller added the following information: After purchasing, pay instantly with your credit card through PayPal!
p11
sS'images'
p12
(lp13
sS'shipping_info'
p14
(lp15
VOnly 1 available
p16
aVShipping:US-Mainland: $12.95(more destinations)
p17
aVCondition: Used
p18
asS'id'
p19
V25079815
p20
s.