(dp1
S'title'
p2
V1965 shelby ac cobra replica contemporary classics
p3
sS'url'
p4
S'http://www.ebay.com/itm/1965-Shelby-AC-Cobra-Replica-Contemporary-Classics-/272520901109?hash=item3f7382f1f5:g:NrIAAOSw-0xYeRHs&vxp=mtr'
p5
sS'price'
p6
VUS $54,865.00
p7
sS'seller'
p8
(dp9
g4
Vhttp://www.ebay.com/usr/thomas-classics?_trksid=p2047675.l2559
p10
sS'name'
p11
V thomas-classics
p12
ssS'description_links'
p13
(lp14
Vhttp://vi.vipr.ebaydesc.com/ws/eBayISAPI.dll?ViewItemDescV4&item=272520901109&t=1489702090000&tid=10&category=6465&seller=thomas-classics&excSoj=1&excTrk=1&lsite=100&ittenable=false&domain=ebay.com&descgauge=1
p15
asS'images'
p16
(lp17
(dp18
S'maxImageUrl'
p19
Vhttp://i.ebayimg.com/images/g/NrIAAOSw-0xYeRHs/s-l1600.jpg
p20
sS'displayImgUrl'
p21
Vhttp://i.ebayimg.com/images/g/NrIAAOSw-0xYeRHs/s-l300.jpg
p22
sa(dp23
g19
Vhttp://i.ebayimg.com/images/g/b08AAOSwo4pYeRHs/s-l1600.jpg
p24
sg21
Vhttp://i.ebayimg.com/images/g/b08AAOSwo4pYeRHs/s-l300.jpg
p25
sa(dp26
g19
Vhttp://i.ebayimg.com/images/g/HoYAAOSw2xRYeRHs/s-l1600.jpg
p27
sg21
Vhttp://i.ebayimg.com/images/g/HoYAAOSw2xRYeRHs/s-l300.jpg
p28
sa(dp29
g19
Vhttp://i.ebayimg.com/images/g/O-QAAOSwA3dYeRHs/s-l1600.jpg
p30
sg21
Vhttp://i.ebayimg.com/images/g/O-QAAOSwA3dYeRHs/s-l300.jpg
p31
sa(dp32
g19
Vhttp://i.ebayimg.com/images/g/18YAAOSwnHZYeRHs/s-l1600.jpg
p33
sg21
Vhttp://i.ebayimg.com/images/g/18YAAOSwnHZYeRHs/s-l300.jpg
p34
sa(dp35
g19
Vhttp://i.ebayimg.com/images/g/u~wAAOSwUKxYeRHt/s-l1600.jpg
p36
sg21
Vhttp://i.ebayimg.com/images/g/u~wAAOSwUKxYeRHt/s-l300.jpg
p37
sa(dp38
g19
Vhttp://i.ebayimg.com/images/g/18UAAOSwnHZYeRHs/s-l1600.jpg
p39
sg21
Vhttp://i.ebayimg.com/images/g/18UAAOSwnHZYeRHs/s-l300.jpg
p40
sa(dp41
g19
Vhttp://i.ebayimg.com/images/g/oA8AAOSwjDZYeRHs/s-l1600.jpg
p42
sg21
Vhttp://i.ebayimg.com/images/g/oA8AAOSwjDZYeRHs/s-l300.jpg
p43
sa(dp44
g19
Vhttp://i.ebayimg.com/images/g/P1UAAOSwa~BYeRHs/s-l1600.jpg
p45
sg21
Vhttp://i.ebayimg.com/images/g/P1UAAOSwa~BYeRHs/s-l300.jpg
p46
sa(dp47
g19
Vhttp://i.ebayimg.com/images/g/SjIAAOSwZQRYeRHs/s-l1600.jpg
p48
sg21
Vhttp://i.ebayimg.com/images/g/SjIAAOSwZQRYeRHs/s-l300.jpg
p49
sa(dp50
g19
Vhttp://i.ebayimg.com/images/g/7jAAAOSwopRYeRHs/s-l1600.jpg
p51
sg21
Vhttp://i.ebayimg.com/images/g/7jAAAOSwopRYeRHs/s-l300.jpg
p52
sa(dp53
g19
Vhttp://i.ebayimg.com/images/g/pHoAAOSw9GhYeRHs/s-l1600.jpg
p54
sg21
Vhttp://i.ebayimg.com/images/g/pHoAAOSw9GhYeRHs/s-l300.jpg
p55
sasS'shipping_info'
p56
(dp57
S'item_location'
p58
(lp59
sS'delivery'
p60
(lp61
sS'posts_to'
p62
(lp63
VLocal pick-up only
p64
assS'id'
p65
S'272520901109'
p66
s.