(dp1
S'title'
p2
V1965 shelby cobra csx
p3
sS'url'
p4
S'http://www.ebay.com/itm/1965-Shelby-Cobra-CSX-/352075552144?hash=item51f9569590:g:skQAAOSws5pZMEo3&vxp=mtr'
p5
sS'price'
p6
VUS $124,995.00
p7
sS'seller'
p8
(dp9
g4
Vhttp://www.ebay.com/usr/fastlaneclassiccars?_trksid=p2047675.l2559
p10
sS'name'
p11
V fastlaneclassiccars
p12
ssS'description_links'
p13
(lp14
Vhttp://vi.vipr.ebaydesc.com/ws/eBayISAPI.dll?ViewItemDescV4&item=352075552144&t=1472859857000&tid=10&category=6465&seller=fastlaneclassiccars&excSoj=1&excTrk=1&lsite=100&ittenable=false&domain=ebay.com&descgauge=1
p15
asS'images'
p16
(lp17
(dp18
S'maxImageUrl'
p19
Vhttp://i.ebayimg.com/images/g/skQAAOSws5pZMEo3/s-l1600.jpg
p20
sS'displayImgUrl'
p21
Vhttp://i.ebayimg.com/images/g/skQAAOSws5pZMEo3/s-l300.jpg
p22
sa(dp23
g19
Vhttp://i.ebayimg.com/images/g/HYMAAOSw7GRZMEo5/s-l1600.jpg
p24
sg21
Vhttp://i.ebayimg.com/images/g/HYMAAOSw7GRZMEo5/s-l300.jpg
p25
sa(dp26
g19
Vhttp://i.ebayimg.com/images/g/14gAAOSwX9FZMEo7/s-l1600.jpg
p27
sg21
Vhttp://i.ebayimg.com/images/g/14gAAOSwX9FZMEo7/s-l300.jpg
p28
sa(dp29
g19
Vhttp://i.ebayimg.com/images/g/mXEAAOSwYlRZMEo8/s-l1600.jpg
p30
sg21
Vhttp://i.ebayimg.com/images/g/mXEAAOSwYlRZMEo8/s-l300.jpg
p31
sa(dp32
g19
Vhttp://i.ebayimg.com/images/g/yOwAAOSw0hlZMEo9/s-l1600.jpg
p33
sg21
Vhttp://i.ebayimg.com/images/g/yOwAAOSw0hlZMEo9/s-l300.jpg
p34
sa(dp35
g19
Vhttp://i.ebayimg.com/images/g/~aEAAOSwcgNZMEpA/s-l1600.jpg
p36
sg21
Vhttp://i.ebayimg.com/images/g/~aEAAOSwcgNZMEpA/s-l300.jpg
p37
sa(dp38
g19
Vhttp://i.ebayimg.com/images/g/C3MAAOSwn-tZMEpB/s-l1600.jpg
p39
sg21
Vhttp://i.ebayimg.com/images/g/C3MAAOSwn-tZMEpB/s-l300.jpg
p40
sa(dp41
g19
Vhttp://i.ebayimg.com/images/g/75cAAOSwIQdZMEpC/s-l1600.jpg
p42
sg21
Vhttp://i.ebayimg.com/images/g/75cAAOSwIQdZMEpC/s-l300.jpg
p43
sa(dp44
g19
Vhttp://i.ebayimg.com/images/g/~doAAOSwcgNZMEpE/s-l1600.jpg
p45
sg21
Vhttp://i.ebayimg.com/images/g/~doAAOSwcgNZMEpE/s-l300.jpg
p46
sa(dp47
g19
Vhttp://i.ebayimg.com/images/g/yMAAAOSw3gJZMEpF/s-l1600.jpg
p48
sg21
Vhttp://i.ebayimg.com/images/g/yMAAAOSw3gJZMEpF/s-l300.jpg
p49
sa(dp50
g19
Vhttp://i.ebayimg.com/images/g/yOkAAOSw3gJZMEpI/s-l1600.jpg
p51
sg21
Vhttp://i.ebayimg.com/images/g/yOkAAOSw3gJZMEpI/s-l300.jpg
p52
sa(dp53
g19
Vhttp://i.ebayimg.com/images/g/sQgAAOSwYvFZMEpJ/s-l1600.jpg
p54
sg21
Vhttp://i.ebayimg.com/images/g/sQgAAOSwYvFZMEpJ/s-l300.jpg
p55
sa(dp56
g19
Vhttp://i.ebayimg.com/images/g/eM0AAOSwurZZMEpL/s-l1600.jpg
p57
sg21
Vhttp://i.ebayimg.com/images/g/eM0AAOSwurZZMEpL/s-l300.jpg
p58
sa(dp59
g19
Vhttp://i.ebayimg.com/images/g/SNoAAOSwZ4dZMEpN/s-l1600.jpg
p60
sg21
Vhttp://i.ebayimg.com/images/g/SNoAAOSwZ4dZMEpN/s-l300.jpg
p61
sa(dp62
g19
Vhttp://i.ebayimg.com/images/g/xkMAAOSwAPVZMEpP/s-l1600.jpg
p63
sg21
Vhttp://i.ebayimg.com/images/g/xkMAAOSwAPVZMEpP/s-l300.jpg
p64
sa(dp65
g19
Vhttp://i.ebayimg.com/images/g/~pQAAOSwcgNZMEpR/s-l1600.jpg
p66
sg21
Vhttp://i.ebayimg.com/images/g/~pQAAOSwcgNZMEpR/s-l300.jpg
p67
sa(dp68
g19
Vhttp://i.ebayimg.com/images/g/1fEAAOSw-3FZMEpU/s-l1600.jpg
p69
sg21
Vhttp://i.ebayimg.com/images/g/1fEAAOSw-3FZMEpU/s-l300.jpg
p70
sa(dp71
g19
Vhttp://i.ebayimg.com/images/g/fe8AAOSwPh5ZMEpV/s-l1600.jpg
p72
sg21
Vhttp://i.ebayimg.com/images/g/fe8AAOSwPh5ZMEpV/s-l300.jpg
p73
sa(dp74
g19
Vhttp://i.ebayimg.com/images/g/DkMAAOSwGJlZMEpW/s-l1600.jpg
p75
sg21
Vhttp://i.ebayimg.com/images/g/DkMAAOSwGJlZMEpW/s-l300.jpg
p76
sa(dp77
g19
Vhttp://i.ebayimg.com/images/g/W30AAOSwi7RZMEpZ/s-l1600.jpg
p78
sg21
Vhttp://i.ebayimg.com/images/g/W30AAOSwi7RZMEpZ/s-l300.jpg
p79
sa(dp80
g19
Vhttp://i.ebayimg.com/images/g/HyMAAOSwq1JZMEpa/s-l1600.jpg
p81
sg21
Vhttp://i.ebayimg.com/images/g/HyMAAOSwq1JZMEpa/s-l300.jpg
p82
sa(dp83
g19
Vhttp://i.ebayimg.com/images/g/8REAAOSwIQdZMEpb/s-l1600.jpg
p84
sg21
Vhttp://i.ebayimg.com/images/g/8REAAOSwIQdZMEpb/s-l300.jpg
p85
sa(dp86
g19
Vhttp://i.ebayimg.com/images/g/xeoAAOSwH09ZMEpd/s-l1600.jpg
p87
sg21
Vhttp://i.ebayimg.com/images/g/xeoAAOSwH09ZMEpd/s-l300.jpg
p88
sasS'shipping_info'
p89
(dp90
S'item_location'
p91
(lp92
sS'delivery'
p93
(lp94
sS'posts_to'
p95
(lp96
VLocal pick-up only
p97
assS'id'
p98
S'352075552144'
p99
s.