(dp1
S'title'
p2
V1956 other makes
p3
sS'url'
p4
S'http://www.ebay.com/itm/1956-Other-Makes-/352068958273?hash=item51f8f1f841:g:~JsAAOSwBt5ZJzcc&vxp=mtr'
p5
sS'price'
p6
VUS $139,995.00
p7
sS'seller'
p8
(dp9
g4
Vhttp://www.ebay.com/usr/fastlaneclassiccars?_trksid=p2047675.l2559
p10
sS'name'
p11
V fastlaneclassiccars
p12
ssS'description_links'
p13
(lp14
Vhttp://vi.vipr.ebaydesc.com/ws/eBayISAPI.dll?ViewItemDescV4&item=352068958273&t=0&tid=10&category=6472&seller=fastlaneclassiccars&excSoj=1&excTrk=1&lsite=100&ittenable=false&domain=ebay.com&descgauge=1
p15
asS'images'
p16
(lp17
(dp18
S'maxImageUrl'
p19
Vhttp://i.ebayimg.com/images/g/~JsAAOSwBt5ZJzcc/s-l1600.jpg
p20
sS'displayImgUrl'
p21
Vhttp://i.ebayimg.com/images/g/~JsAAOSwBt5ZJzcc/s-l300.jpg
p22
sa(dp23
g19
Vhttp://i.ebayimg.com/images/g/X7AAAOSwX9FZJzce/s-l1600.jpg
p24
sg21
Vhttp://i.ebayimg.com/images/g/X7AAAOSwX9FZJzce/s-l300.jpg
p25
sa(dp26
g19
Vhttp://i.ebayimg.com/images/g/MacAAOSwZKBZJzcg/s-l1600.jpg
p27
sg21
Vhttp://i.ebayimg.com/images/g/MacAAOSwZKBZJzcg/s-l300.jpg
p28
sa(dp29
g19
Vhttp://i.ebayimg.com/images/g/52cAAOSwsXFZJzch/s-l1600.jpg
p30
sg21
Vhttp://i.ebayimg.com/images/g/52cAAOSwsXFZJzch/s-l300.jpg
p31
sa(dp32
g19
Vhttp://i.ebayimg.com/images/g/IQ0AAOSwhvFZJzcj/s-l1600.jpg
p33
sg21
Vhttp://i.ebayimg.com/images/g/IQ0AAOSwhvFZJzcj/s-l300.jpg
p34
sa(dp35
g19
Vhttp://i.ebayimg.com/images/g/E2AAAOSws5pZJzcl/s-l1600.jpg
p36
sg21
Vhttp://i.ebayimg.com/images/g/E2AAAOSws5pZJzcl/s-l300.jpg
p37
sa(dp38
g19
Vhttp://i.ebayimg.com/images/g/ye4AAOSw~y9ZJzcm/s-l1600.jpg
p39
sg21
Vhttp://i.ebayimg.com/images/g/ye4AAOSw~y9ZJzcm/s-l300.jpg
p40
sa(dp41
g19
Vhttp://i.ebayimg.com/images/g/D3AAAOSwJH1ZJzco/s-l1600.jpg
p42
sg21
Vhttp://i.ebayimg.com/images/g/D3AAAOSwJH1ZJzco/s-l300.jpg
p43
sa(dp44
g19
Vhttp://i.ebayimg.com/images/g/dX0AAOSwxu5ZJzcq/s-l1600.jpg
p45
sg21
Vhttp://i.ebayimg.com/images/g/dX0AAOSwxu5ZJzcq/s-l300.jpg
p46
sa(dp47
g19
Vhttp://i.ebayimg.com/images/g/5~YAAOSwsXFZJzcs/s-l1600.jpg
p48
sg21
Vhttp://i.ebayimg.com/images/g/5~YAAOSwsXFZJzcs/s-l300.jpg
p49
sa(dp50
g19
Vhttp://i.ebayimg.com/images/g/9FMAAOSwIaFZJzct/s-l1600.jpg
p51
sg21
Vhttp://i.ebayimg.com/images/g/9FMAAOSwIaFZJzct/s-l300.jpg
p52
sa(dp53
g19
Vhttp://i.ebayimg.com/images/g/b88AAOSwaeRZJzcv/s-l1600.jpg
p54
sg21
Vhttp://i.ebayimg.com/images/g/b88AAOSwaeRZJzcv/s-l300.jpg
p55
sa(dp56
g19
Vhttp://i.ebayimg.com/images/g/FrUAAOSw0hlZJzcw/s-l1600.jpg
p57
sg21
Vhttp://i.ebayimg.com/images/g/FrUAAOSw0hlZJzcw/s-l300.jpg
p58
sa(dp59
g19
Vhttp://i.ebayimg.com/images/g/vsoAAOSw-K9ZJzcy/s-l1600.jpg
p60
sg21
Vhttp://i.ebayimg.com/images/g/vsoAAOSw-K9ZJzcy/s-l300.jpg
p61
sa(dp62
g19
Vhttp://i.ebayimg.com/images/g/s6YAAOSwurZZJzcz/s-l1600.jpg
p63
sg21
Vhttp://i.ebayimg.com/images/g/s6YAAOSwurZZJzcz/s-l300.jpg
p64
sa(dp65
g19
Vhttp://i.ebayimg.com/images/g/dhcAAOSwxu5ZJzc1/s-l1600.jpg
p66
sg21
Vhttp://i.ebayimg.com/images/g/dhcAAOSwxu5ZJzc1/s-l300.jpg
p67
sa(dp68
g19
Vhttp://i.ebayimg.com/images/g/zJYAAOSwH09ZJzc2/s-l1600.jpg
p69
sg21
Vhttp://i.ebayimg.com/images/g/zJYAAOSwH09ZJzc2/s-l300.jpg
p70
sa(dp71
g19
Vhttp://i.ebayimg.com/images/g/fH8AAOSw8HBZJzc3/s-l1600.jpg
p72
sg21
Vhttp://i.ebayimg.com/images/g/fH8AAOSw8HBZJzc3/s-l300.jpg
p73
sa(dp74
g19
Vhttp://i.ebayimg.com/images/g/fJMAAOSw8HBZJzc5/s-l1600.jpg
p75
sg21
Vhttp://i.ebayimg.com/images/g/fJMAAOSw8HBZJzc5/s-l300.jpg
p76
sa(dp77
g19
Vhttp://i.ebayimg.com/images/g/EjgAAOSw42JZJzc7/s-l1600.jpg
p78
sg21
Vhttp://i.ebayimg.com/images/g/EjgAAOSw42JZJzc7/s-l300.jpg
p79
sa(dp80
g19
Vhttp://i.ebayimg.com/images/g/cUMAAOSw7GRZJzc8/s-l1600.jpg
p81
sg21
Vhttp://i.ebayimg.com/images/g/cUMAAOSw7GRZJzc8/s-l300.jpg
p82
sa(dp83
g19
Vhttp://i.ebayimg.com/images/g/B-0AAOSwEHpZJzc-/s-l1600.jpg
p84
sg21
Vhttp://i.ebayimg.com/images/g/B-0AAOSwEHpZJzc-/s-l300.jpg
p85
sa(dp86
g19
Vhttp://i.ebayimg.com/images/g/~i4AAOSwYlRZJzdA/s-l1600.jpg
p87
sg21
Vhttp://i.ebayimg.com/images/g/~i4AAOSwYlRZJzdA/s-l300.jpg
p88
sa(dp89
g19
Vhttp://i.ebayimg.com/images/g/QeYAAOSwfpVZJzdC/s-l1600.jpg
p90
sg21
Vhttp://i.ebayimg.com/images/g/QeYAAOSwfpVZJzdC/s-l300.jpg
p91
sasS'shipping_info'
p92
(dp93
S'item_location'
p94
(lp95
sS'delivery'
p96
(lp97
sS'posts_to'
p98
(lp99
VLocal pick-up only
p100
assS'id'
p101
S'352068958273'
p102
s.