(dp1
S'title'
p2
V1965 shelby cobra
p3
sS'url'
p4
S'http://www.ebay.com/itm/1965-Shelby-Cobra-/352075562582?hash=item51f956be56:g:LbAAAOSwcgNZME4F&vxp=mtr'
p5
sS'price'
p6
VUS $57,997.00
p7
sS'seller'
p8
(dp9
g4
Vhttp://www.ebay.com/usr/fastlaneclassiccars?_trksid=p2047675.l2559
p10
sS'name'
p11
V fastlaneclassiccars
p12
ssS'description_links'
p13
(lp14
Vhttp://vi.vipr.ebaydesc.com/ws/eBayISAPI.dll?ViewItemDescV4&item=352075562582&t=0&tid=10&category=6465&seller=fastlaneclassiccars&excSoj=1&excTrk=1&lsite=100&ittenable=false&domain=ebay.com&descgauge=1
p15
asS'images'
p16
(lp17
(dp18
S'maxImageUrl'
p19
Vhttp://i.ebayimg.com/images/g/LbAAAOSwcgNZME4F/s-l1600.jpg
p20
sS'displayImgUrl'
p21
Vhttp://i.ebayimg.com/images/g/LbAAAOSwcgNZME4F/s-l300.jpg
p22
sa(dp23
g19
Vhttp://i.ebayimg.com/images/g/qCQAAOSwhvFZME4I/s-l1600.jpg
p24
sg21
Vhttp://i.ebayimg.com/images/g/qCQAAOSwhvFZME4I/s-l300.jpg
p25
sa(dp26
g19
Vhttp://i.ebayimg.com/images/g/oQEAAOSwxu5ZME4J/s-l1600.jpg
p27
sg21
Vhttp://i.ebayimg.com/images/g/oQEAAOSwxu5ZME4J/s-l300.jpg
p28
sa(dp29
g19
Vhttp://i.ebayimg.com/images/g/fesAAOSwblZZME4L/s-l1600.jpg
p30
sg21
Vhttp://i.ebayimg.com/images/g/fesAAOSwblZZME4L/s-l300.jpg
p31
sa(dp32
g19
Vhttp://i.ebayimg.com/images/g/tfQAAOSwfpVZME4M/s-l1600.jpg
p33
sg21
Vhttp://i.ebayimg.com/images/g/tfQAAOSwfpVZME4M/s-l300.jpg
p34
sa(dp35
g19
Vhttp://i.ebayimg.com/images/g/0A8AAOSwYlRZME4O/s-l1600.jpg
p36
sg21
Vhttp://i.ebayimg.com/images/g/0A8AAOSwYlRZME4O/s-l300.jpg
p37
sa(dp38
g19
Vhttp://i.ebayimg.com/images/g/~JoAAOSwH09ZME4Q/s-l1600.jpg
p39
sg21
Vhttp://i.ebayimg.com/images/g/~JoAAOSwH09ZME4Q/s-l300.jpg
p40
sa(dp41
g19
Vhttp://i.ebayimg.com/images/g/MpkAAOSw~y9ZME4R/s-l1600.jpg
p42
sg21
Vhttp://i.ebayimg.com/images/g/MpkAAOSw~y9ZME4R/s-l300.jpg
p43
sa(dp44
g19
Vhttp://i.ebayimg.com/images/g/mZwAAOSwCQZZME4T/s-l1600.jpg
p45
sg21
Vhttp://i.ebayimg.com/images/g/mZwAAOSwCQZZME4T/s-l300.jpg
p46
sa(dp47
g19
Vhttp://i.ebayimg.com/images/g/rrwAAOSwurZZME4V/s-l1600.jpg
p48
sg21
Vhttp://i.ebayimg.com/images/g/rrwAAOSwurZZME4V/s-l300.jpg
p49
sa(dp50
g19
Vhttp://i.ebayimg.com/images/g/0KMAAOSwYlRZME4X/s-l1600.jpg
p51
sg21
Vhttp://i.ebayimg.com/images/g/0KMAAOSwYlRZME4X/s-l300.jpg
p52
sa(dp53
g19
Vhttp://i.ebayimg.com/images/g/2zoAAOSws5pZME4Y/s-l1600.jpg
p54
sg21
Vhttp://i.ebayimg.com/images/g/2zoAAOSws5pZME4Y/s-l300.jpg
p55
sa(dp56
g19
Vhttp://i.ebayimg.com/images/g/u-MAAOSwPh5ZME4b/s-l1600.jpg
p57
sg21
Vhttp://i.ebayimg.com/images/g/u-MAAOSwPh5ZME4b/s-l300.jpg
p58
sa(dp59
g19
Vhttp://i.ebayimg.com/images/g/MxwAAOSw~y9ZME4c/s-l1600.jpg
p60
sg21
Vhttp://i.ebayimg.com/images/g/MxwAAOSw~y9ZME4c/s-l300.jpg
p61
sa(dp62
g19
Vhttp://i.ebayimg.com/images/g/UKQAAOSwcB5ZME4e/s-l1600.jpg
p63
sg21
Vhttp://i.ebayimg.com/images/g/UKQAAOSwcB5ZME4e/s-l300.jpg
p64
sa(dp65
g19
Vhttp://i.ebayimg.com/images/g/VXMAAOSwlY1ZME4f/s-l1600.jpg
p66
sg21
Vhttp://i.ebayimg.com/images/g/VXMAAOSwlY1ZME4f/s-l300.jpg
p67
sa(dp68
g19
Vhttp://i.ebayimg.com/images/g/xsYAAOSwJH1ZME4h/s-l1600.jpg
p69
sg21
Vhttp://i.ebayimg.com/images/g/xsYAAOSwJH1ZME4h/s-l300.jpg
p70
sa(dp71
g19
Vhttp://i.ebayimg.com/images/g/VbgAAOSwlY1ZME4j/s-l1600.jpg
p72
sg21
Vhttp://i.ebayimg.com/images/g/VbgAAOSwlY1ZME4j/s-l300.jpg
p73
sa(dp74
g19
Vhttp://i.ebayimg.com/images/g/L3kAAOSwcgNZME4k/s-l1600.jpg
p75
sg21
Vhttp://i.ebayimg.com/images/g/L3kAAOSwcgNZME4k/s-l300.jpg
p76
sa(dp77
g19
Vhttp://i.ebayimg.com/images/g/mpQAAOSwCQZZME4n/s-l1600.jpg
p78
sg21
Vhttp://i.ebayimg.com/images/g/mpQAAOSwCQZZME4n/s-l300.jpg
p79
sa(dp80
g19
Vhttp://i.ebayimg.com/images/g/sFQAAOSwurZZME4p/s-l1600.jpg
p81
sg21
Vhttp://i.ebayimg.com/images/g/sFQAAOSwurZZME4p/s-l300.jpg
p82
sa(dp83
g19
Vhttp://i.ebayimg.com/images/g/uDcAAOSwfpVZME4r/s-l1600.jpg
p84
sg21
Vhttp://i.ebayimg.com/images/g/uDcAAOSwfpVZME4r/s-l300.jpg
p85
sa(dp86
g19
Vhttp://i.ebayimg.com/images/g/wgAAAOSwrhBZME4s/s-l1600.jpg
p87
sg21
Vhttp://i.ebayimg.com/images/g/wgAAAOSwrhBZME4s/s-l300.jpg
p88
sa(dp89
g19
Vhttp://i.ebayimg.com/images/g/maQAAOSwi7RZME4w/s-l1600.jpg
p90
sg21
Vhttp://i.ebayimg.com/images/g/maQAAOSwi7RZME4w/s-l300.jpg
p91
sasS'shipping_info'
p92
(dp93
S'item_location'
p94
(lp95
sS'delivery'
p96
(lp97
sS'posts_to'
p98
(lp99
VLocal pick-up only
p100
assS'id'
p101
S'352075562582'
p102
s.