(dp1
S'title'
p2
V1969 ford torino torino 428 cobra jet
p3
sS'url'
p4
S'http://www.ebay.com/itm/1969-Ford-Torino-Torino-428-Cobra-Jet-/391721911008?hash=item5b347202e0:g:VvgAAOSwWxNYrHIK&vxp=mtr'
p5
sS'price'
p6
VUS $42,900.00
p7
sS'seller'
p8
(dp9
g4
Vhttp://www.ebay.com/usr/motoexotica?_trksid=p2047675.l2559
p10
sS'name'
p11
V motoexotica
p12
ssS'description_links'
p13
(lp14
Vhttp://vi.vipr.ebaydesc.com/ws/eBayISAPI.dll?ViewItemDescV4&item=391721911008&t=1491325179000&tid=10&category=31836&seller=motoexotica&excSoj=1&excTrk=1&lsite=100&ittenable=false&domain=ebay.com&descgauge=1
p15
asS'images'
p16
(lp17
(dp18
S'maxImageUrl'
p19
Vhttp://i.ebayimg.com/images/g/VvgAAOSwWxNYrHIK/s-l1600.jpg
p20
sS'displayImgUrl'
p21
Vhttp://i.ebayimg.com/images/g/VvgAAOSwWxNYrHIK/s-l300.jpg
p22
sa(dp23
g19
Vhttp://i.ebayimg.com/images/g/uJoAAOSw4CFYrHIM/s-l1600.jpg
p24
sg21
Vhttp://i.ebayimg.com/images/g/uJoAAOSw4CFYrHIM/s-l300.jpg
p25
sa(dp26
g19
Vhttp://i.ebayimg.com/images/g/TgUAAOSwU8hY49BZ/s-l1600.jpg
p27
sg21
Vhttp://i.ebayimg.com/images/g/TgUAAOSwU8hY49BZ/s-l300.jpg
p28
sa(dp29
g19
Vhttp://i.ebayimg.com/images/g/SYAAAOSwpkFY49Cq/s-l1600.jpg
p30
sg21
Vhttp://i.ebayimg.com/images/g/SYAAAOSwpkFY49Cq/s-l300.jpg
p31
sa(dp32
g19
Vhttp://i.ebayimg.com/images/g/xgoAAOSw~AVYrHIP/s-l1600.jpg
p33
sg21
Vhttp://i.ebayimg.com/images/g/xgoAAOSw~AVYrHIP/s-l300.jpg
p34
sa(dp35
g19
Vhttp://i.ebayimg.com/images/g/qUwAAOSwTuJYrHIN/s-l1600.jpg
p36
sg21
Vhttp://i.ebayimg.com/images/g/qUwAAOSwTuJYrHIN/s-l300.jpg
p37
sa(dp38
g19
Vhttp://i.ebayimg.com/images/g/fVUAAOSw32lYrHIS/s-l1600.jpg
p39
sg21
Vhttp://i.ebayimg.com/images/g/fVUAAOSw32lYrHIS/s-l300.jpg
p40
sa(dp41
g19
Vhttp://i.ebayimg.com/images/g/0LUAAOSwdGFYrHIV/s-l1600.jpg
p42
sg21
Vhttp://i.ebayimg.com/images/g/0LUAAOSwdGFYrHIV/s-l300.jpg
p43
sa(dp44
g19
Vhttp://i.ebayimg.com/images/g/0IkAAOSwdGFYrHIU/s-l1600.jpg
p45
sg21
Vhttp://i.ebayimg.com/images/g/0IkAAOSwdGFYrHIU/s-l300.jpg
p46
sa(dp47
g19
Vhttp://i.ebayimg.com/images/g/zbAAAOSw2gxYrHIW/s-l1600.jpg
p48
sg21
Vhttp://i.ebayimg.com/images/g/zbAAAOSw2gxYrHIW/s-l300.jpg
p49
sa(dp50
g19
Vhttp://i.ebayimg.com/images/g/-bgAAOSwx6pYrHIZ/s-l1600.jpg
p51
sg21
Vhttp://i.ebayimg.com/images/g/-bgAAOSwx6pYrHIZ/s-l300.jpg
p52
sa(dp53
g19
Vhttp://i.ebayimg.com/images/g/8QQAAOSwB-1YrHIu/s-l1600.jpg
p54
sg21
Vhttp://i.ebayimg.com/images/g/8QQAAOSwB-1YrHIu/s-l300.jpg
p55
sasS'shipping_info'
p56
(dp57
S'item_location'
p58
(lp59
sS'delivery'
p60
(lp61
sS'posts_to'
p62
(lp63
VLocal pick-up only
p64
assS'id'
p65
S'391721911008'
p66
s.