(dp1
S'title'
p2
V\u000aUH1 HUYE COBRA Door Part Helicopter US\u000a
p3
sS'url'
p4
Vhttp://www.ioffer.com/i/uh1-huye-cobra-door-part-helicopter-us-501354598
p5
sS'price'
p6
V$15,000.00
p7
sS'seller'
p8
(lp9
sS'description_links'
p10
VOriginal South Vietnamese's Air Force Door one Part of Helicopter Arvn .Have a vietnamese name to Bao Quoc Tran Khong III signal of Door on helicopter part Falling down the land off during vietnam war. it has kept as a treasure in vnaf war . shipping method : Ups or express mail service .
p11
sS'images'
p12
(lp13
Vhttp://cdn.iofferphoto.com/img3/item/501/354/598/t_south-vietnamese-s-air-force-door-part-helicopter-arvn-d588.JPG
p14
aVhttp://cdn.iofferphoto.com/img3/item/501/354/598/t_south-vietnamese-s-air-force-door-part-helicopter-arvn-3659.JPG
p15
aVhttp://cdn.iofferphoto.com/img3/item/501/354/598/t_south-vietnamese-s-air-force-door-part-helicopter-arvn-194f.JPG
p16
aVhttp://cdn.iofferphoto.com/img3/item/501/354/598/t_south-vietnamese-s-air-force-door-part-helicopter-arvn-63ff.JPG
p17
aVhttp://cdn.iofferphoto.com/img3/item/501/354/598/t_south-vietnamese-s-air-force-door-part-helicopter-arvn-2b8c.JPG
p18
aVhttp://cdn.iofferphoto.com/img3/item/501/354/598/t_south-vietnamese-s-air-force-door-part-helicopter-arvn-a9e8.JPG
p19
aVhttp://cdn.iofferphoto.com/img3/item/501/354/598/t_south-vietnamese-s-air-force-door-part-helicopter-arvn-9232.JPG
p20
asS'shipping_info'
p21
VEstimated Shipping3 - 5 Days
p22
sS'id'
p23
V501354598_1497070580
p24
s.