(dp1
S'title'
p2
V\u000a2011 Ford Shelby Mustang Cobra For Sale in 40204\u000a
p3
sS'url'
p4
Vhttp://www.ioffer.com/i/2011-ford-shelby-mustang-cobra-for-sale-in-40204-626984795
p5
sS'price'
p6
V$39,900.00
p7
sS'seller'
p8
(lp9
sS'description_links'
p10
V2011 Ford Shelby GT500 Mustang Cobra For Sale in Louisville, Kentucky  40204 Get ready to feed your need for speed with this 2011 Ford Shelby GT500 Mustang Cobra!  This performance enhanced pony car features a sleek, athletic styling that is sure to turn heads with Performance White paint and red accents.  This car's dashing good looks are complimented by a premium, black leather interior.  Powered by a 5.4 liter V-8 engine that is mated with 6-speed manual transmission, you can expect to achieve an adrenaline inducing 550 horsepower.  With 8,000 miles your only challenge will be finding a slab of concrete worthy of unleashing it's unbridled authority. This Shelby Mustang Cobra comes fully loaded with amazing features, such as Ford's AdvanceTrac stability control system, Electric Power Assist Steering, OEM Rims, Roush exhaust, and a lightweight engine provided by the Ford-patented plasma-coating technology.  Additionally, this Mustang Cobra has been upgraded with the optional SVT Performance Package, which includes an upgraded 3.73 rear axle ratio, stiffer springs, performance tuned front and rear shocks, rear spoiler Gurney Flap for improved handling, a slightly revised front and rear fascia, new pedal box for improved clutch use, slotted brake dust shields, HID headlamps, MyKey programmable vehicle key, integrated spotted mirrors, and fold-down rear headrests.  This Shelby GT500 also comes with a factory OEM cover and 20 inch Michelin tires that are like new! This 2011 Ford Shelby GT500 Mustang Cobra has meticulously maintained and absolutely babied.  It has never been smoked in and has lived it's life in the garage except in optimal weather conditions, which has enabled this car's like new condition.  Don't miss out on this incredible opportunity to own the performance oriented powerhouse you've been searching for.  This one is priced very competitively, so call today for more information on how you can experience life at full throttle with this GT500 Mustang Cobra SVT!!!
p11
sS'images'
p12
(lp13
Vhttp://cdn.iofferphoto.com/img3/item/626/984/795/t_2011-ford-shelby-mustang-cobra-for-sale-in-40204-4a83.jpg
p14
aVhttp://cdn.iofferphoto.com/img3/item/626/984/795/t_2011-ford-shelby-mustang-cobra-for-sale-in-40204-6f52.jpg
p15
aVhttp://cdn.iofferphoto.com/img3/item/626/984/795/t_2011-ford-shelby-mustang-cobra-for-sale-in-40204-7f48.jpg
p16
aVhttp://cdn.iofferphoto.com/img3/item/626/984/795/t_2011-ford-shelby-mustang-cobra-for-sale-in-40204-de50.jpg
p17
aVhttp://cdn.iofferphoto.com/img3/item/626/984/795/t_2011-ford-shelby-mustang-cobra-for-sale-in-40204-43e4.jpg
p18
aVhttp://cdn.iofferphoto.com/img3/item/626/984/795/t_2011-ford-shelby-mustang-cobra-for-sale-in-40204-c6ae.jpg
p19
aVhttp://cdn.iofferphoto.com/img3/item/626/984/795/t_2011-ford-shelby-mustang-cobra-for-sale-in-40204-d9fa.jpg
p20
aVhttp://cdn.iofferphoto.com/img3/item/626/984/795/t_2011-ford-shelby-mustang-cobra-for-sale-in-40204-4abb.jpg
p21
aVhttp://cdn.iofferphoto.com/img3/item/626/984/795/t_2011-ford-shelby-mustang-cobra-for-sale-in-40204-ce30.jpg
p22
aVhttp://cdn.iofferphoto.com/img3/item/626/984/795/t_2011-ford-shelby-mustang-cobra-for-sale-in-40204-1a2a.jpg
p23
aVhttp://cdn.iofferphoto.com/img3/item/626/984/795/t_2011-ford-shelby-mustang-cobra-for-sale-in-40204-ff94.jpg
p24
aVhttp://cdn.iofferphoto.com/img3/item/626/984/795/t_2011-ford-shelby-mustang-cobra-for-sale-in-40204-bc67.jpg
p25
aVhttp://cdn.iofferphoto.com/img3/item/626/984/795/t_2011-ford-shelby-mustang-cobra-for-sale-in-40204-301a.jpg
p26
aVhttp://cdn.iofferphoto.com/img3/item/626/984/795/t_2011-ford-shelby-mustang-cobra-for-sale-in-40204-4568.jpg
p27
aVhttp://cdn.iofferphoto.com/img3/item/626/984/795/t_2011-ford-shelby-mustang-cobra-for-sale-in-40204-383c.jpg
p28
aVhttp://cdn.iofferphoto.com/img3/item/626/984/795/t_2011-ford-shelby-mustang-cobra-for-sale-in-40204-cd74.jpg
p29
aVhttp://cdn.iofferphoto.com/img3/item/626/984/795/t_2011-ford-shelby-mustang-cobra-for-sale-in-40204-6223.jpg
p30
aVhttp://cdn.iofferphoto.com/img3/item/626/984/795/t_2011-ford-shelby-mustang-cobra-for-sale-in-40204-4a6e.jpg
p31
aVhttp://cdn.iofferphoto.com/img3/item/626/984/795/t_2011-ford-shelby-mustang-cobra-for-sale-in-40204-e5da.jpg
p32
aVhttp://cdn.iofferphoto.com/img3/item/626/984/795/t_2011-ford-shelby-mustang-cobra-for-sale-in-40204-3776.jpg
p33
aVhttp://cdn.iofferphoto.com/img3/item/626/984/795/t_2011-ford-shelby-mustang-cobra-for-sale-in-40204-c5ae.jpg
p34
aVhttp://cdn.iofferphoto.com/img3/item/626/984/795/t_2011-ford-shelby-mustang-cobra-for-sale-in-40204-0727.jpg
p35
aVhttp://cdn.iofferphoto.com/img3/item/626/984/795/t_2011-ford-shelby-mustang-cobra-for-sale-in-40204-be6d.jpg
p36
asS'shipping_info'
p37
VA - year2011B - makeFordC - modelShelby Gt500D - trimMustang CobraE - mileage8, and 800F - shipping termsShipping Is At The Buyer'S ExpenseEstimated Shipping10 - 15 Days
p38
sS'id'
p39
V626984795_1497070575
p40
s.