(dp1
S'title'
p2
V\u000aSigned THE COBRA STORY by Carroll Shelby 1st Ed 1965\u000a
p3
sS'url'
p4
Vhttp://www.ioffer.com/i/signed-the-cobra-story-by-carroll-shelby-1st-ed-1965-631929771
p5
sS'price'
p6
V$900.00
p7
sS'seller'
p8
(lp9
sS'description_links'
p10
VItem includes a Signed and inscribed hard cover book "The Cobra Story - A Man, His Dream, And His Automobile" by Carroll Shelby, printed in 1965, first edition. Item book is in very good condition, free of highlights and page markings, typical wear consistent with age of book.  Item dust jacket is in good condition with minor chips, creases and tears. Item is offered in as-is condition, with no warranty stated or implied and with all sales final, no returns on this item. Item is offered with $5.00 media mail shipping with tracking to lower 48 states or $8.50 FedEx shipping with tracking and in a box to lower 48 states, expedited shipping available. Buyer must provide a street address, no PO boxes. Sell will ship outside of lower 48 states at actual shipping cost paid by buyer. International buyers must contact seller prior to purchase. Seller accepts Paypal.  If this item is of interest, check seller's other items for similar items.
p11
sS'images'
p12
(lp13
Vhttp://cdn.iofferphoto.com/img/item/631/929/771/t_signed-the-cobra-story-by-carroll-shelby-1st-ed-1965-87e6.jpg
p14
aVhttp://cdn.iofferphoto.com/img/item/631/929/771/t_signed-the-cobra-story-by-carroll-shelby-1st-ed-1965-0412.jpg
p15
aVhttp://cdn.iofferphoto.com/img/item/631/929/771/t_signed-the-cobra-story-by-carroll-shelby-1st-ed-1965-6c54.jpg
p16
aVhttp://cdn.iofferphoto.com/img/item/631/929/771/t_signed-the-cobra-story-by-carroll-shelby-1st-ed-1965-3b0d.jpg
p17
aVhttp://cdn.iofferphoto.com/img/item/631/929/771/t_signed-the-cobra-story-by-carroll-shelby-1st-ed-1965-9f22.jpg
p18
aVhttp://cdn.iofferphoto.com/img/item/631/929/771/t_signed-the-cobra-story-by-carroll-shelby-1st-ed-1965-1f5a.jpg
p19
asS'shipping_info'
p20
VVery good condition for ageVery Rare Signed CopyEstimated Shipping3 - 5 Days
p21
sS'id'
p22
V631929771_1497070583
p23
s.