(dp1
S'title'
p2
V\u000aModel Motorboat Like Chris Craft Cobra Chromed Gold\u000a
p3
sS'url'
p4
Vhttp://www.ioffer.com/i/model-motorboat-like-chris-craft-cobra-chromed-gold-633623199
p5
sS'price'
p6
V$849.00
p7
sS'seller'
p8
(lp9
sS'description_links'
p10
VItem #:OM-27 Overall measurements (inches) 10H x 10.50W x 33L .Overall Condition is New.Material(s): Rosewood,Brass,Mahogany,Stainless Steel,Western Red Cedar,Fiberglass,Solid Wood Stand. Style: Reproduction. Dates to circa New.
p11
sS'images'
p12
(lp13
Vhttp://cdn.iofferphoto.com/img/item/633/623/199/t_model-motorboat-like-chris-craft-cobra-chromed-gold-8870.jpg
p14
aVhttp://cdn.iofferphoto.com/img/item/633/623/199/t_model-motorboat-like-chris-craft-cobra-chromed-gold-75b7.jpg
p15
aVhttp://cdn.iofferphoto.com/img/item/633/623/199/t_model-motorboat-like-chris-craft-cobra-chromed-gold-d23b.jpg
p16
aVhttp://cdn.iofferphoto.com/img/item/633/623/199/t_model-motorboat-like-chris-craft-cobra-chromed-gold-385d.jpg
p17
aVhttp://cdn.iofferphoto.com/img/item/633/623/199/t_model-motorboat-like-chris-craft-cobra-chromed-gold-0cd2.jpg
p18
aVhttp://cdn.iofferphoto.com/img/item/633/623/199/t_model-motorboat-like-chris-craft-cobra-chromed-gold-0cde.jpg
p19
aVhttp://cdn.iofferphoto.com/img/item/633/623/199/t_model-motorboat-like-chris-craft-cobra-chromed-gold-bdaf.jpg
p20
aVhttp://cdn.iofferphoto.com/img/item/633/623/199/t_model-motorboat-like-chris-craft-cobra-chromed-gold-3dcb.jpg
p21
aVhttp://cdn.iofferphoto.com/img/item/633/623/199/t_model-motorboat-like-chris-craft-cobra-chromed-gold-30af.jpg
p22
aVhttp://cdn.iofferphoto.com/img/item/633/623/199/t_model-motorboat-like-chris-craft-cobra-chromed-gold-4072.jpg
p23
asS'shipping_info'
p24
VOtherPlank On Frame Construction Hand Built Fully AssembledEstimated Shipping5 - 10 Days
p25
sS'id'
p26
V633623199_1497070591
p27
s.