(dp1
S'title'
p2
V\u000aCobra Electronics Rad 350 Radar And Laser Detector\u000a
p3
sS'url'
p4
Vhttp://www.ioffer.com/i/cobra-electronics-rad-350-radar-and-laser-detector-636801406
p5
sS'price'
p6
V$130.75
p7
sS'seller'
p8
(lp9
sS'description_links'
p10
VDetects all radar signals (X K & Ka bands signal strength indicated) laser & VG2 signals Instant-on ready LaserEye(R) detects laser signals from both front & rear IVT Filter(TM) automatically reduces false alerts from erroneo sources in-vehicle technology sources such as vehicle collision avoidance systems & adaptive cruise control Adjtable Sensitivity automatically reduces false alerts from garage door openers & fixed position traffic flow monitoring systems Auto mute 7-segment easy-to-read color display Digital signal strength meter Dim mode Unique tones provide signal strength & band identification Includes power cord & mounting hardware
p11
sS'images'
p12
(lp13
Vhttp://cdn.iofferphoto.com/img3/item/636/801/406/t_00cicobra-electronics-rad-350-radar-and-laser-detector.jpg
p14
aVhttp://cdn.iofferphoto.com/img3/item/636/801/406/t_1xWxcobra-electronics-rad-350-radar-and-laser-detector.jpg
p15
asS'shipping_info'
p16
(lp17
sS'id'
p18
V636801406_1497070647
p19
s.