(dp1
S'title'
p2
V\u000aJeans men's embroidery Cobra trousers\u000a
p3
sS'url'
p4
Vhttp://www.ioffer.com/i/jeans-men-s-embroidery-cobra-trousers-637470066
p5
sS'price'
p6
V$46.80
p7
sS'seller'
p8
(lp9
sS'description_links'
p10
VJeans men's embroidery Cobra trousersSource category spotStyle straight pantsPants type straight typeSpecial craft washing, cat to be, embroidery, edgingPants long trousersWaist waistPants placket zip closureThickness: GeneralSuitable for seasonal seasonsSuitable for the crowd youthYear of the year / season 2016 SummerFabric name cowboyIngredients Ingredients CottonUS Size:30, waist circumference 79cm hip 108cm pants 100cm31, waist circumference 82cm hip 110cm pants 101cm32, waist circumference 84cm hip circumference 112cm pants 102cm33, Waist 86cm Hip 114cm Pants 103cm34, waist circumference 89cm hip circumference 116cm pants 104cm36, waist circumference 95cm hip circumference 120cm pants 106cm38, waist circumference 100cm hip 124cm pants 107cm
p11
sS'images'
p12
(lp13
Vhttp://cdn.iofferphoto.com/img3/item/637/470/066/t_jeans-men-s-embroidery-cobra-trousers-4633.jpg
p14
aVhttp://cdn.iofferphoto.com/img3/item/637/470/066/t_jeans-men-s-embroidery-cobra-trousers-097e.jpg
p15
aVhttp://cdn.iofferphoto.com/img3/item/637/470/066/t_jeans-men-s-embroidery-cobra-trousers-a5ba.jpg
p16
aVhttp://cdn.iofferphoto.com/img3/item/637/470/066/t_jeans-men-s-embroidery-cobra-trousers-f948.jpg
p17
aVhttp://cdn.iofferphoto.com/img3/item/637/470/066/t_jeans-men-s-embroidery-cobra-trousers-396d.jpg
p18
aVhttp://cdn.iofferphoto.com/img3/item/637/470/066/t_jeans-men-s-embroidery-cobra-trousers-17c1.jpg
p19
aVhttp://cdn.iofferphoto.com/img3/item/637/470/066/t_jeans-men-s-embroidery-cobra-trousers-63b0.jpg
p20
aVhttp://cdn.iofferphoto.com/img3/item/637/470/066/t_jeans-men-s-embroidery-cobra-trousers-e414.jpg
p21
aVhttp://cdn.iofferphoto.com/img3/item/637/470/066/t_jeans-men-s-embroidery-cobra-trousers-885d.jpg
p22
aVhttp://cdn.iofferphoto.com/img3/tmp/item_images/534/681/06/t_6a0e.jpg
p23
aVhttp://cdn.iofferphoto.com/img3/item/637/470/066/t_jeans-men-s-embroidery-cobra-trousers-3bfb.jpg
p24
aVhttp://cdn.iofferphoto.com/img3/item/637/470/066/t_jeans-men-s-embroidery-cobra-trousers-d9a1.jpg
p25
aVhttp://cdn.iofferphoto.com/img3/item/637/470/066/t_jeans-men-s-embroidery-cobra-trousers-e310.jpg
p26
aVhttp://cdn.iofferphoto.com/img3/item/637/470/066/t_jeans-men-s-embroidery-cobra-trousers-863d.jpg
p27
aVhttp://cdn.iofferphoto.com/img3/item/637/470/066/t_jeans-men-s-embroidery-cobra-trousers-c0b2.jpg
p28
aVhttp://cdn.iofferphoto.com/img3/item/637/470/066/t_jeans-men-s-embroidery-cobra-trousers-81b3.jpg
p29
asS'shipping_info'
p30
VAvailable ColorsAvailable SizesMen's Pant SizesUS (inches)3032343638Int'l (cms)7681869196.5Estimated Shipping3 - 5 Days
p31
sS'id'
p32
V637470066_1497070588
p33
s.