(dp1
S'title'
p2
VGear Set for OMC Cobra V6 and V8 1991-1993 (TM2233)
p3
sS'url'
p4
Vhttp://www.ecrater.com/p/9751880/gear-set-for-omc-cobra-v6-and?keywords=cobra
p5
sS'price'
p6
V$279.95
p7
sS'seller'
p8
Vhttp://tungstenmarine.ecrater.com
p9
sS'description_links'
p10
VGear Set for OMC Cobra V6 and V8 1991-1993Replaces OMC 987670 , 915272, 915273.Kit includes Forward, Pinion, Reverse and Clutch Dog. This gear set is designed to fit V6 and V8 OMC Cobra sterndrives from 1991-1993.It has a Reverse gear with an ID of 1 1/4" (if you are looking for a reverse with an ID of 1 3/16" for older Cobra models or OMC Stringer Models we carry that one too).
p11
sS'images'
p12
(lp13
Vhttp://s.ecrater.com/stores/40949/4ce44b304f60c_40949b.jpg
p14
asS'shipping_info'
p15
(lp16
VOnly 1 available
p17
aVShipping:USPS calculated - check
p18
aVSales Tax: Louisiana: 8.75%
p19
aVCondition: Brand new
p20
asS'id'
p21
V9751880
p22
s.