(dp1
S'title'
p2
VMalayan Pangolin Skull
p3
sS'url'
p4
Vhttp://www.skullsunlimited.com/record_variant.php?id=3733
p5
sS'price'
p6
V$95.00
p7
sS'seller'
p8
(lp9
sS'description_links'
p10
VMalayan Pangolin Skull - This species is native to the Indomalayan region of Southeast Asia. Pangolins are unique mammals covered in though keratin scales. This species is nocturnal and solitary, but has been observed in pairs during breeding. Pangolins possess an extremely long tongue used for feeding on ants and termites. The Malayan pangolin is also equipped with a set of impressive claws that can be used for defense and to aid in digging burrows and for food.
p11
sS'images'
p12
(lp13
Vhttp://www.skullsunlimited.com/userfiles/image/variants_3733.jpg
p14
asS'shipping_info'
p15
(lp16
sS'id'
p17
V3733_1497083970
p18
s.