(dp1
S'title'
p2
Vunique vintage shark&#039;s teeth and 18 k  gold  necklace
p3
sS'url'
p4
S'http://www.ebay.com/itm/Unique-vintage-sharks-teeth-and-18-k-gold-necklace-/111207606875?hash=item19e47d6a5b:g:ICoAAOxyPc5SApRB'
p5
sS'price'
p6
VUS $4,250.00
p7
sS'seller'
p8
(dp9
g4
Vhttp://www.ebay.com/usr/sbsoshie2013?_trksid=p2047675.l2559
p10
sS'name'
p11
V sbsoshie2013
p12
ssS'description_links'
p13
(lp14
Vhttp://vi.vipr.ebaydesc.com/ws/eBayISAPI.dll?ViewItemDescV4&item=111207606875&t=1433367964000&tid=10&category=164334&seller=sbsoshie2013&excSoj=1&excTrk=1&lsite=0&ittenable=false&domain=ebay.com&descgauge=1
p15
asS'images'
p16
(lp17
(dp18
S'maxImageUrl'
p19
Vhttp://i.ebayimg.com/images/g/ICoAAOxyPc5SApRB/s-l1600.jpg
p20
sS'displayImgUrl'
p21
Vhttp://i.ebayimg.com/images/g/ICoAAOxyPc5SApRB/s-l300.jpg
p22
sa(dp23
g19
Vhttp://i.ebayimg.com/images/g/X90AAOxydB1SgZb1/s-l1600.jpg
p24
sg21
Vhttp://i.ebayimg.com/images/g/X90AAOxydB1SgZb1/s-l300.jpg
p25
sa(dp26
g19
Vhttp://i.ebayimg.com/images/g/9gwAAOxyzi9SgZb8/s-l1600.jpg
p27
sg21
Vhttp://i.ebayimg.com/images/g/9gwAAOxyzi9SgZb8/s-l300.jpg
p28
sasS'shipping_info'
p29
(dp30
S'item_location'
p31
(lp32
V\u000aSanta Barbara, California, United States
p33
asS'delivery'
p34
(lp35
VVaries
p36
asS'posts_to'
p37
(lp38
VWorldwide
p39
assS'id'
p40
S'111207606875'
p41
s.