(dp1
S'title'
p2
VNew MTD SNOWTHROWER 917-0528A WORM GEAR--20 Teeth Craftsman, Sears, Troy Bilt
p3
sS'url'
p4
Vhttp://www.ecrater.com/p/19555199/mtd-snowthrower-917-0528a-worm-gear-20?keywords=teeth
p5
sS'price'
p6
V$149.90
p7
sS'seller'
p8
Vhttp://randysenginerepair.ecrater.com
p9
sS'description_links'
p10
VInternational Buyers \u2013 Please Note: Import duties, taxes and charges are not included in the item price or shipping charges. These charges are the buyer\u2019s responsibility.Phone: (937) 927-5665 or (937) 927-5429EXPERIENCE YOU CAN TRUST!ANY QUESTIONS? CHECK OUT MY STORE OR CALL RANDY OR KRISTAL DUNCAN AT 937-927-5665. I'LL DO ALL I CAN TO FIND YOU WHAT YOU'D LIKE TO SEE LISTED!! 1 NEWMTD, Craftsman, Troy Bilt, SearsWORM GEARID: 3/4"OD: 1-7/8"KEYWAY: 3/16"WIDTH: 5/8"20 teeth(shown as item number8 in the schematic)bin # 917-0528aFOR & FITS THE FOLLOWING MODELS  316-616E190 Snow Boss 500 (1996)-->Worm Gear And Shaft  316-746E190 Snow Boss 800ST (1996)-->Worm Gear And Shaft  316E646-190 Snow Boss 850 (1996)-->Worm Gear And Shaft  316E666H190 Snow Boss 1050 (1996)-->Worm Gear And Shaft  316E756G190 Snow Boss 950ST (1996)-->Worm Gear And Shaft  317E623D190 Snow Boss 550 (1997)-->Gear And Housing Ass'y  317E633E190 Snow Boss 750 (1997)-->Gear And Housing Ass'y  317E653F190 Snow Boss 950 (1997)-->Gear And Housing Ass'y  317E663H190 Snow Boss 1050 (1997)-->Gear And Housing Ass'y  317E733E190 Snow Boss 750 ST (1997)-->Housing And Shaft Worm  317E753F190 Snow Boss 950 ST (1997)-->Housing And Shaft Worm  31AE623D190 Snow Boss 550 (1998)-->Worm Gear And RH/LH Housing  31AE623D190 Snow Boss 550 (1999)-->Gear Assembly  31AE633E190 Snow Boss 750 (1998)-->Worm Gear And RH/LH Housing  31AE633E190 Snow Boss 750 (1999)-->Gear Assembly  31AE653F190 Snow Boss 950 (1998)-->Worm Gear And RH/LH Housing  31AE663H190 Snow Boss 1050 (1998)-->Worm Gear And RH/LH Housing  31AE733E190 Snow Boss 750 ST (1998)-->Spiral Axle And LH/RH Housing  31AE753F190 Snow Boss 950 ST (1998)-->Spiral Axle And LH/RH Housing  31A6C0F382 Snow Thrower 624 (1998)-->Gear Assembly  31AE573H190 Snow Boss 1150W (1999)-->Gear Assembly  31AE5E3F190 Snow Boss 950W (1999)-->Gear Assembly  31AE600E382 Snow Thrower 524 (1998)-->Gear Assembly  31AE600E382 Snow Thrower 524 (1999)-->Gear Assembly  31AE6C0F382 Snow Thrower 826 (1999)-->Gear Assembly  31AE733E190 Snow Boss 750T (1999)-->Gear Case Assembly  31AE7E3F190 Snow Boss 950T (1999)-->Gear Case Assembly  313-616E190 Snow Boss 500 (1993)-->Snow Throwers  313-646F190 Snow Boss 850 (1993)-->Snow Throwers  313-648F190 Snow Boss 850ST (1993)-->26" Auger Housing Assembly  314-616E190 Snow Boss 500 (1994)-->Snow Throwers (Part 2)  314-646F190 Snow Boss 850 (1994)-->Snow Throwers (Part 2)  314-648F190 Snow Boss 850ST (1994)-->Snow Throwers (Part 4)  314-666G190 Snow Boss 1050 (1994)-->Snow Throwers (Part 2)  315-616E190 Snow Boss 500 (1995)-->Snow Throwers Illustration (Part 3)  315-746E190 Snow Boss 800ST (1995)-->Snow Throwers Illustration (Part 3)  315E646F190 Snow Boss 850 (1995)-->Snow Throwers Illustration (Part 3)  315E666H190 Snow Boss 1050 (1995)-->Snow Throwers Illustration (Part 3)  315E756G190 Snow Boss 950ST (1995)-->Snow Throwers Illustration (Part 3)  190-627-000 42" 2-Stage Snow Thrower (2001)-->Auger & Housing Assembly  190-627-000 42" 2-Stage Snow Thrower (2002)-->Auger & Housing Assembly  190-627-000 42" 2-Stage Snow Thrower (2003)-->Auger & Housing Assembly  190-823-101 42" 2-Stage Snow Thrower (2001)-->Auger & Housing Assembly  190-823-101 42" 2-Stage Snow Thrower (2002)-->General Assembly  190-823-101 42" 2-Stage Snow Thrower (2003)-->Housing Assembly, Auger, Drive  190-823-101 42" 2-Stage Snow Thrower (2004)-->General Assembly  190-823-101 42" 2-Stage Snow Thrower (2005)-->General Assembly  190-823-101 42" 2-Stage Snow Thrower (2006)-->General Assembly  31AD5L3F190 Snow Boss 850W (2001)-->Gear Assembly  31AD5P3H190 Snow Boss 1150W (2001)-->Gear Assembly  31AD6J3D190 Snow Boss 550 (2001)-->Spiral Axle Assembly  31AD6K3E190 Snow Boss 750 (2001)-->Spiral Axle Assembly  31AD7K3E190 Snow Boss 750T (2001)-->Gear Assembly  31AD7N3F190 Snow Boss 950T (2001)-->Gear Assembly  31AE633E190 Snow Boss SB-750 (2002)-->Gear Assembly  31AH5B3H190 Snow Boss SB-1050W (2002)-->Gear Assembly  31AH5C3F190 Snow Boss SB-855W (2002)-->Gear Assembly  31AH623D190 Snow Boss 550 (2000), SB550 (2000)-->Gear Assembly  31AH633E190 Snow Boss 750 (2000), SB750 (2000)-->Gear Assembly  31AH773H190 Snow Boss 1150T (2000), SB1150T (2000)-->Gear Assembly  31AH7E3F190 Snow Boss 950T (2000), SB950T (2000)-->Gear Assembly  31AH7Q3G190 Snow Boss SB-955-T (2002)-->Gear Assembly  823 42" 2-Stage Snowthrower (2000), 190-823-101 (2000)-->Auger Housing & Lower Belt  31AD4M3F190 Snow Boss 855 4x4 (2001)-->Blower Housing & Gear Assembly  31AE600E022 Snow Thrower 524 (2001)-->Gear Assembly  31AE600E022 Snow Thrower 524 (2002)-->Gear Assembly  31AE660G022 Snow Thrower 1028 (2001)-->Gear Assembly  31AE660G022 Snow Thrower 1028 (2002)-->Gear Assembly  31AE6C0F022 Snow Thrower 826 (2001)-->Gear Assembly  31AH4G3F190 Snow Boss 855 (2000), SB855 4X4 (2000)-->Blower Housing & Gear Assembly  31AH4Q3G190 Snow Boss 955 4x4 (2002)-->Blower Housing  31AH5MLH590 (2007), SB-630 31AH5MLH590 (2007)-->General Assembly  31AH5MLH590 (2007), SB-630 31AH5MLH590 (2007)-->General Assembly  31AE6BHE790 SB-624 (2005-2)-->Chute Assembly  31AE6BHE791 SB-624 (2005-2)-->Chute Assembly  31AE6GLF790 SB-626 (2005-2)-->Chute Assembly  31AE6GLF791 SB-626 (2005-2)-->Chute Assembly  31AE6LLG790 SB-628 (2005-2)-->Chute Assembly  31AE6LLG791 SB-628 (2005-2)-->Chute Assembly  31AH6BHE790 (2006), SB624 31AH6BHE790 (2006)-->Blower Housing Assembly  31AH6GLF790 (2006), SB-626 31AH6GLF790 (2006)-->Blower Housing Assembly  31AH6LLG790 (2006), SB-628 31AH6LLG790 (2006)-->Blower Housing Assembly  31AH5MLH590 (2006), SB-630 31AH5MLH590 (2006)-->General Assembly  31AH6WFG790 (2008), SB628 31AH6WFG790 (2008)-->Auger & Auger Housing  190-032-101 42" 2-Stage Snow Thrower (2006), 032 42" 2-Stage Snow Thrower (2006)-->Chute Assembly  190-032-101 42" 2-Stage Snow Thrower (2007), 032 42" 2-Stage Snow Thrower (2007)-->Chute Assembly  190-032-101 42" 2-Stage Snow Thrower (2008), 032 42" 2-Stage Snow Thrower (2008)-->Chute Assembly  31AH54K3897 (2009), 90026PC (2009)-->Auger & Housing Assembly  31AH55H5897 (2009), 11530PC (2009)-->Auger & Housing Assembly  31AH55K4897 (2009), 10528PC (2009)-->Auger & Housing Assembly  31AM53K2897 (2009), 71024PC (2009)-->Auger & Housing Assembly  7524 Storm 7.5HP 24" Self-Propelled (2003), 31AS6R72063 (2003)-->Auger Gearbox Assembly  7524 Storm 7.5HP 24" Self-Propelled (2004), 31AS6R72063 (2004), 31AS6R72101 (2004)-->Gear Box  8526 Storm 8.5HP 26" Self-Propelled (2003), 31AE6S73063 (2003)-->Auger Gearbox Assembly  OEM-190-627 42" 2-Stage Snow Thrower, 190-627 42" 2-Stage Snow Thrower-->Auger & Housing Assembly  OEM-190-823 42" 2-Stage Snow Thrower, 190-823 42" 2-Stage Snow Thrower-->General Assembly  Storm Tracker 9.5HP 28" Track Drive (2003), 31AH7T74063 (2003)-->Gear Assembly  31AE6LO4766 Storm 10HP 28" Self-Propelled (2006), 31AE6LO4766 10028 Storm (2006)-->Blower Housing Assembly  31AE6LO4766 Storm 10HP 28" Self-Propelled (2007), 31AE6LO4766 10028 Storm (2007)-->Blower Housing Assembly  31AS6BN2711 Storm 5.5HP 24" Self-Propelled (2006), 31AS6BN2711 5024 Storm (2006)-->Blower Housing Assembly  31AS6BN2766 Storm 5.5HP 24" Self-Propelled (2006), 31AS6BN2766 5024 Storm (2006)-->Blower Housing Assembly  31AS6GN3711 Storm 8.5HP 26" Self-Propelled (2006), 31AS6GN3711 8526 Storm (2006)-->Blower Housing Assembly  31AS6GN3766 Storm 8.5HP 26" Self-Propelled (2006), 31AS6GN3766 8526 Storm (2006)-->Blower Housing Assembly  5024 Storm 5.5HP 24" Self-Propelled (2005-2), 31AS6BN2711 (2005-2), 31AS6BN2766 (2005-2)-->Chute Assembly  5524 Storm 5.5HP 24" Self-Propelled (2005), 31AS6BN2711 (2005), 31AS6BN2766 (2005)-->General Assembly  8026 Storm 8.5HP 26" Self-Propelled (2005-2), 31AE6GO3711 (2005-2)-->Chute Assembly  8526 Storm 8.5HP 26" Self-Propelled (2005), 31AE6GQ3711 (2005), 31AE6GQ3766 (2005)-->General Assembly  8526 Storm 8.5HP 26" Self-Propelled (2005-2), 31AE6GO3766 (2005-2)-->Chute Assembly  9528 Storm 9.5HP 28" Self-Propelled (2005), 31AE6KQ4766 (2005)-->General Assembly  9528 Storm 9.5HP 28" Self-Propelled (2005-2), 31AE6KQ4766 (2005-2)-->General Assembly  5524 Storm CS 5.5HP 24" Self-Propelled (2005), 31AS3BB2766 (2005)-->General Assembly CS  8524 Storm 8.5HP 26" Self-Propelled (2004), 31AE6S73063 (2004), 31AE6S73101 (2004)-->Gear Box  31AH6WQ4 Storm 2840 28" Self-Propelled (2008), 31AH6WQ4711 (2008), 31AH6WQ4766 (2008)-->Auger & Auger Housing  31AM62N2 Storm 2410 24" Self-Propelled (2008), 31AM62N2711 (2008), 31AM62N2766 (2008)-->Auger & Auger Housing  31AM63P3 Storm 2620 26" Self-Propelled (2008), 31AM63P3711 (2008), 31AM63P3766 (2008)-->Auger & Auger Housing  1028 Storm Tracker 10HP 28" Track Drive (2005), 31AH7L74766 (2005)-->General Assembly  1130 Storm Tracker 11HP 30" Track Drive (2005), 31AE7S75711 (2005)-->General Assembly  OEM-190-032 42" 2-Stage Snow Thrower (2006), 190-032 (2006)-->Chute Assembly  OEM-190-032 42" 2-Stage Snow Thrower (2007), 190-032 (2007)-->Chute Assembly  OEM-190-032 42" 2-Stage Snow Thrower (2008), 190-032 (2008)-->Chute Assembly  Storm Tracker 10HP 28" Track Drive (2005-2), 31AH7L74766 (2005-2)-->General Assembly  Storm Tracker 9.5HP 28" Track Drive (2004), 31AH7T74063 (2004), 31AH7T74101 (2004)-->Gear Assembly  10030 Storm 10HP 30" Self-Propelled (2005-2), 31AH5LQ5766 (2005-2)-->General Assembly  1030 Storm 10HP 30" Self-Propelled (2005), 31AH5LQ5766 (2005)-->General A
p11
sS'images'
p12
(lp13
sS'shipping_info'
p14
(lp15
VOnly 1 available
p16
aVShipping:US-Mainland: free(more destinations)
p17
aVCondition: Used
p18
asS'id'
p19
V19555199
p20
s.