(dp1
S'title'
p2
V12 Martin Forceps 8cm 1x2 Teeth Surgical Opthalmic Instruments
p3
sS'url'
p4
Vhttp://www.ecrater.com/p/19646690/12-martin-forceps-8cm-1x2-teeth?keywords=teeth
p5
sS'price'
p6
V$119.80
p7
sS'seller'
p8
Vhttp://oneclass.ecrater.com
p9
sS'description_links'
p10
VHigh Quality 12 Pieces Of Martin Forceps 8cm 1x2 Teeth Surgical Opthalmic InstrumentsMade In Stainless Steel    WE COMBINE SHIPPING AND WILL GIVE YOU DISCOUNTBUY MORE AND GET MORE DISCOUNT ON SHIPPING AND HANDLING"The sale of this item may besubject to regulation by the U.S. Food and Drug Administration andstate and local regulatory agencies. If so, do not buy on this itemunless you are an authorized purchaser. If the item is subject to FDAregulation, I will verify your status as an authorized purchaser ofthis item before shipping of the item
p11
sS'images'
p12
(lp13
Vhttp://s.ecrater.com/stores/275853/53326f64c8f21_275853b.jpg
p14
asS'shipping_info'
p15
(lp16
VOnly 1 available
p17
aVShipping:US-Mainland: free(more destinations)
p18
aVCondition: Brand new
p19
asS'id'
p20
V19646690
p21
s.