(dp1
S'title'
p2
VPatella Forceps 7" 2x2 sharp teeth w/speedlock Orthoped
p3
sS'url'
p4
Vhttp://www.ecrater.com/p/19646373/patella-forceps-7-2x2-sharp-teeth-w?keywords=teeth
p5
sS'price'
p6
V$79.99
p7
sS'seller'
p8
Vhttp://oneclass.ecrater.com
p9
sS'description_links'
p10
VNEW    Normal  0                        MicrosoftInternetExplorer4 Patella Forceps 7" 2x2 sharp teeth w/speedlockMADE IN HIGH STAINLESS STEELWE COMBINE SHIPPING AND WILL GIVE YOU DISCOUNTBUY MORE AND GET MORE DISCOUNT ON SHIPPING AND HANDLING"The sale of this item may be subject to regulation by the U.S. Food and Drug Administration and state and local regulatory agencies. If so, do not buy on this item unless you are an authorized purchaser. If the item is subject to FDA regulation, I will verify your status as an authorized purchaser of this item before shipping of the item0fe,RcmdId ViewItemDescV4,RlogId p4%60bo7%60jtb9%3Fuk%601d70f%2B%3E0fe-144df011a03-0x113-->
p11
sS'images'
p12
(lp13
Vhttp://s.ecrater.com/stores/275853/53326dd63b238_275853b.jpg
p14
asS'shipping_info'
p15
(lp16
VOnly 1 available
p17
aVShipping:US-Mainland: free(more destinations)
p18
aVCondition: Brand new
p19
asS'id'
p20
V19646373
p21
s.