(dp1
S'title'
p2
VModel Anatomy Typodont Dental Type Frasaco Removable Teeth Model FG3 ARTMED
p3
sS'url'
p4
Vhttp://www.ecrater.com/p/21876451/model-anatomy-typodont-dental-type?keywords=teeth
p5
sS'price'
p6
V$89.95
p7
sS'seller'
p8
Vhttp://oneclass.ecrater.com
p9
sS'description_links'
p10
VModel Anatomy Typodont Dental Type Frasaco Removable Ivorine TeethModel FG3ARTMEDFG3 Articulated Dental Model is designed not only for simple demostration purposes, but also for more complex restorative and operative simulation. It is formed by 32 anatomical teeth positioned in the the models with screws and soft removable gingiva. Its contact areas, interdental spaces and realistic intercuspidation of the teeth provide a perfect occlusion. Besides, upper and lower arches are assembled into a hinger articulator.''PRODUCT SIMILAR TO ORIGINAL MODEL ''     We Ship Worldwide.    We Usually Ship Within 1 Business Day of Receiving Cleared Payment. We Ship From Florida, USA.    Expedited Shipping is available, please contact us first for necessary arrangements.    We also provide our customers with a variety of choices and courriers, please contact us to arrange further details.Contact Us For Additional Methods                                                  All our items are NEW, in their original box.    Should you need more than one item, please let us know.    Should you need a different model than this listing, please contact us; as we have a very large inventory for all your needs.                                                         We are a Dental & Medical Supplier  We carry a great variety of over 2,000 dental & medical equipment and supplies; combining Quality and Competitive Prices.    Our most popular items:  Hu-Friedy instruments      Welch Allyn Ophthalmoscope & Otoscope Diagnostic Set      Bonart Electrosurgery Unit      Prime Dent Cement & Resins   Our company has Extensive Experience in the dental & medical field.    We sell Retail and Wholesale.    Our inventory grows every day, if you're seeking a specific product, please contact us.    We Speak English, Spanish, Italian, & Portuguese.                                                           Item must be returned within 7 days after buyers receives it, Buyer pays shipping fees.    Refund will be given as Money Back.    Please contact us first to explain necessary steps.    Items must be returned only in original package without any damages.    We recommend to use a service with tracking & delivery confirmation.    20% Restocking fee is required (does not apply to exchanges, failures or equipment malfunction.)
p11
sS'images'
p12
(lp13
Vhttp://s.ecrater.com/stores/275853/54c4a2323d459_275853b.jpg
p14
asS'shipping_info'
p15
(lp16
VOnly 1 available
p17
aVShipping:US-Mainland: free(more destinations)
p18
aVCondition: Brand new
p19
asS'id'
p20
V21876451
p21
s.