(dp1
S'title'
p2
VEzi zino sterling silver 925 Mans Bracelet TEETH ALLIGATOR EMBOSSED Crocodile
p3
sS'url'
p4
Vhttp://www.ecrater.com/p/22221095/ezi-zino-sterling-silver-925-mans?keywords=teeth
p5
sS'price'
p6
V$149.99
p7
sS'seller'
p8
Vhttp://elvis.ecrater.com
p9
sS'description_links'
p10
VEzi zinobranding charmEzi zino sterling silver 925 Mans 8.5 INCH Bracelet TEETH ALLIGATOR EMBOSSEDThis item Length8.5 inch if you want DifferentLength we have:10 INCH  9.5 INCH  9 INCH  8.5 INCH  8 INCH  7.5 INCH  7 INCHUNISEX bracelet designed by Israeli designer ezi zino.100% HandmadeMaterial: Sterling silverRetail Price- 219$we ship all my items worldwide from israel we ship all my items by registered airmail + Insurance Shipping to U.S.A and Europe usually take between 7-21 days.thank you and good luckThe payment by paypal onlyShipping cost to all buyers 15$
p11
sS'images'
p12
(lp13
sS'shipping_info'
p14
(lp15
VOnly 1 available
p16
aVShipping:US-Mainland: $15.00(more destinations)
p17
aVCondition: Used
p18
asS'id'
p19
V22221095
p20
s.