(dp1
S'title'
p2
VHuge Knee Hugger Christmas Japan 2 Front Teeth 19" Musical
p3
sS'url'
p4
Vhttp://www.ecrater.com/p/26025991/huge-knee-hugger-christmas-japan-2?keywords=teeth
p5
sS'price'
p6
V$85.00
p7
sS'seller'
p8
Vhttp://youcangetithere.ecrater.com
p9
sS'description_links'
p10
VHuge Knee Hugger Christmas Japan 2 Front Teeth 19" Musical                                                                                                    Huge Knee Hugger Christmas Japan 2 Front Teeth 19" Musical                                                                    Huge Knee HuggerElf19" TallRed SuitMakes noise like a rattleTwo large front teeth sticking out.                                                                                                                                                                                                                                                                                                                                                                                                                                                                                                                                                                                                                                                                                                                                                                                                                                                                                                    inkFrog Analytics,RcmdId ViewItemDescV4,RlogId p4%60bo7%60jtb9%3Fuk.rp*05e54c%3E-15930301402-0x124-->
p11
sS'images'
p12
(lp13
Vhttp://s.ecrater.com/stores/364582/585f6dca3d94a_364582b.jpg
p14
asS'shipping_info'
p15
(lp16
VOnly 1 available
p17
aVShipping:USPS calculated - check
p18
aVCondition: Used
p19
asS'id'
p20
V26025991
p21
s.