(dp1
S'title'
p2
V4 in one grass trimmer brush cutter fuel tank assy 26mm 7 teeth 9 teeth with guide bar and saw
p3
sS'url'
p4
Vhttp://www.ecrater.com/p/27007560/4-in-one-grass-trimmer-brush-cutter?keywords=teeth
p5
sS'price'
p6
V$210.00
p7
sS'seller'
p8
Vhttp://agriculturetools.ecrater.com
p9
sS'description_links'
p10
Vfuel tank assy on sale at reasonable prices, buy 4 in one grass trimmer brush cutter fuel tank assy 26mm 7 teeth 9 teeth with guide bar and saw chain
p11
sS'images'
p12
(lp13
sS'shipping_info'
p14
(lp15
V5 available
p16
aVShipping:US-Mainland: free(more destinations)
p17
aVCondition: Brand new
p18
asS'id'
p19
V27007560
p20
s.