(dp1
S'title'
p2
V3 Concord Construction 10-Inch 60, 30 & 24 Teeth TCT General Wood Cutting Blades
p3
sS'url'
p4
Vhttp://www.ecrater.com/p/27141616/3-concord-construction-10-inch-60-30-24-teeth-tct?keywords=teeth
p5
sS'price'
p6
V$64.95
p7
sS'seller'
p8
Vhttp://gamedaycaps.ecrater.com
p9
sS'description_links'
p10
VBrand new! Concord Construction 10-Inch 60, 30, & 24 Teeth TCT General Wood Cutting Blades.Pro-quality, construction grade steel blade with precision sharp titanium carbuye tipsFor use on Miter Saws, Circular Saws, Table Saws, Hand Saws and Chop Saws.Ideal for cutting Hard Wood, Soft Wood, Exotic Wood and Abrasive Wood.Thin kerf allows a smooth finish w/ minimal waste. Lower hook angle improves the surface quality of the cut, increases the feed pressure required.2.6 mm thin kerf design, ATB Grind & 15 Degree hook
p11
sS'images'
p12
(lp13
sS'shipping_info'
p14
(lp15
VOnly 1 available
p16
aVShipping:US-Mainland: free(more destinations)
p17
aVCondition: Used
p18
asS'id'
p19
V27141616
p20
s.