(dp1
S'title'
p2
VANTIQUED BUFFALO TEETH - (QTY 10)
p3
sS'url'
p4
Vhttp://www.glacierwear.com/buffalo-teeth-3236.html
p5
sS'price'
p6
V3.5
p7
sS'seller'
p8
(lp9
sS'description_links'
p10
VAntiqued Buffalo TeethGenuine Buffalo Teeth. Not cast or plaster. Approx. 1-2" long. Holes pre-drilled. 10 for $3.50, 100 for $19.95.
p11
sS'images'
p12
(lp13
Vhttp://www.glacierwear.com/media/catalog/product/cache/1/thumbnail/500x/17f82f742ffe127f42dca9de82fb58b1/i/m/img_0596.jpg
p14
asS'shipping_info'
p15
VFree Shipping on $100.00+
p16
sS'id'
p17
V3236_1497036434
p18
s.