(dp1
S'title'
p2
VCuvier's Beaked Whale  Teeth (Pair)
p3
sS'url'
p4
Vhttp://www.skullsunlimited.com/record_variant.php?id=3243
p5
sS'price'
p6
V$25.00                                                     This item can ship for only $3.95*
p7
sS'seller'
p8
(lp9
sS'description_links'
p10
VCuvier's beaked whale skull - The Cuvier's beaked whale are found in nearly all the worlds oceans. Males of this species possess two teeth that protrude from the lower jaw. These are sometimes used in sparing with other males and often leave characteric scars all along their opponents body. Females also possess these teeth but they rarely errupt beyond the gum line. Cuvier's beaked whales travel in pods numbering 10 to 15 individuals but males are occationally solitary. This species feeds on various crutaceans, mollusks, squid and pelagic fish.
p11
sS'images'
p12
(lp13
Vhttp://www.skullsunlimited.com/userfiles/image/variants_3243.jpg
p14
asS'shipping_info'
p15
(lp16
sS'id'
p17
V3243_1497036150
p18
s.