(dp1
S'title'
p2
VDinosaur Claws & Teeth
p3
sS'url'
p4
Vhttp://www.skullsunlimited.com/record_order.php?id=58
p5
sS'price'
p6
(lp7
sS'seller'
p8
(lp9
sS'description_links'
p10
VSkulls Unlimited\u2019s replica dinosaur claws and teeth are perfect for teaching adaptations for feeding and comparative anatomy. Our replica claws and teeth are either cast from real specimens to capture all the subtle details and texture of the original, or painstakingly sculpted by master artists. These durable, solid resin specimens are great for hands on learning.
p11
sS'images'
p12
(lp13
sS'shipping_info'
p14
(lp15
sS'id'
p16
V58_1497036195
p17
s.