(dp1
S'title'
p2
V\u000aPink Customised Mascot SpotSound Canada With Teeth Dres\u000a
p3
sS'url'
p4
Vhttp://www.ioffer.com/i/pink-customised-mascot-spotsound-canada-with-teeth-dres-600004970
p5
sS'price'
p6
V$549.00
p7
sS'seller'
p8
(lp9
sS'description_links'
p10
VPink Customised Mascot SpotSound Canada With Teeth Dressed In Yellow Underwear. This mascot is very nice for a marketing event or a private party. FREE SHIPPING around the globe, 7 size to choose and customized options and accessories available on our website. SpotSound is a company represented in Europe and in North America with a reactive customer service. Don't wait, come to play with your future mascot costume !
p11
sS'images'
p12
(lp13
Vhttp://cdn.iofferphoto.com/img3/item/600/004/970/t_3rUXpink-customised-mascot-spotsound-canada-with-teeth-dres.jpg
p14
aVhttp://cdn.iofferphoto.com/img3/item/600/004/970/t_Vz7kpink-customised-mascot-spotsound-canada-with-teeth-dres.jpg
p15
asS'shipping_info'
p16
(lp17
sS'id'
p18
V600004970_1497036465
p19
s.