(dp1
S'title'
p2
V\u000aOakley Launch Teeth 5 Sneakers 12101-009\u000a
p3
sS'url'
p4
Vhttp://www.ioffer.com/i/oakley-launch-teeth-5-sneakers-12101-009-630727423
p5
sS'price'
p6
V$610.00
p7
sS'seller'
p8
(lp9
sS'description_links'
p10
VDescription:The Oakley 5 Tennis has come to impact on you and your look. Developed with high standard technologies to keep your feet always comfortable and your walk even more cozy.
p11
sS'images'
p12
(lp13
Vhttp://cdn.iofferphoto.com/img3/item/630/727/423/t_shoes-oakley-teeth-5-launch-black-and-red-2cfd.jpg
p14
aVhttp://cdn.iofferphoto.com/img3/item/630/727/423/t_shoes-oakley-teeth-5-launch-black-and-red-bc2c.jpg
p15
aVhttp://cdn.iofferphoto.com/img3/item/630/727/423/t_shoes-oakley-teeth-5-launch-black-and-red-8fb2.jpg
p16
aVhttp://cdn.iofferphoto.com/img3/item/630/727/423/t_shoes-oakley-teeth-5-launch-black-and-red-e53a.jpg
p17
aVhttp://cdn.iofferphoto.com/img3/item/630/727/423/t_shoes-oakley-teeth-5-launch-black-and-red-ed66.jpg
p18
asS'shipping_info'
p19
VAvailable ColorsAvailable SizesMen's Shoe SizesUSA67101112UK5.56.59.510.511.5European3940434445Japan2425282930Estimated Shipping15 - 20 Days
p20
sS'id'
p21
V630727423_1497036454
p22
s.