(dp1
S'title'
p2
V\u000aScrew Taps M8 HSS H2 Machine Taps Teeth Left Thread Scr\u000a
p3
sS'url'
p4
Vhttp://www.ioffer.com/i/screw-taps-m8-hss-h2-machine-taps-teeth-left-thread-scr-637215600
p5
sS'price'
p6
V$7.35
p7
sS'seller'
p8
(lp9
sS'description_links'
p10
VModel Number: M8Thread Direction: Rightis_customized: YesNumber of Pieces: 1DIY Supplies: MetalworkingType: TapMaterial: Alloy SteelBrand Name: EVANXType: Teeth Left Machine TapsMaterial: HSSMetric: YesSize: M8Accuracy: H2Total Length: 70mmSquare Path: 23mmUsing Range: Iron, copper, steel screw thread processingCode: 1545ZYM8Discount: 5% off when you buy 2 pcs
p11
sS'images'
p12
(lp13
Vhttp://cdn.iofferphoto.com/img3/item/637/215/600/t_cTSVscrew-taps-m8-hss-h2-machine-taps-teeth-left-thread-scr.jpg
p14
aVhttp://cdn.iofferphoto.com/img3/item/637/215/600/t_T2URscrew-taps-m8-hss-h2-machine-taps-teeth-left-thread-scr.jpg
p15
aVhttp://cdn.iofferphoto.com/img3/item/637/215/600/t_wpl0screw-taps-m8-hss-h2-machine-taps-teeth-left-thread-scr.jpg
p16
asS'shipping_info'
p17
(lp18
sS'id'
p19
V637215600_1497036442
p20
s.