(dp1
S'title'
p2
VSmall Polished California Fossil Shark Teeth
p3
sS'url'
p4
Vhttp://www.boneroom.com/store/p3078/Small_Polished_California_Fossil_Shark_Teeth_.html
p5
sS'price'
p6
V$15.00
p7
sS'seller'
p8
(lp9
sS'description_links'
p10
VSmall Polished California Fossil Shark Teeth
p11
sS'images'
p12
(lp13
Vhttp://www.boneroom.com//uploads/4/8/1/1/48118243/s521972503441136676_p3078_i1_w640.jpeg
p14
asS'shipping_info'
p15
(lp16
sS'id'
p17
Vp3078_1497036500
p18
s.