(dp1
S'title'
p2
VFossil Camel Teeth (Miocene) - Set of 12
p3
sS'url'
p4
Vhttp://www.boneroom.com/store/p3087/Fossil_Camel_Teeth_%28Miocene%29_-_Set_of_12.html
p5
sS'price'
p6
V$200.00
p7
sS'seller'
p8
(lp9
sS'description_links'
p10
VFossil Camel Teeth (Miocene) - Set of 12
p11
sS'images'
p12
(lp13
Vhttp://www.boneroom.com//uploads/4/8/1/1/48118243/s521972503441136676_p3087_i1_w640.jpeg
p14
asS'shipping_info'
p15
(lp16
sS'id'
p17
Vp3087_1497036494
p18
s.