(dp1
S'title'
p2
VCoyote Canine Teeth
p3
sS'url'
p4
Vhttp://www.boneroom.com/store/p3096/Coyote_Canine_Teeth_.html
p5
sS'price'
p6
V$1.00
p7
sS'seller'
p8
(lp9
sS'description_links'
p10
(lp11
sS'images'
p12
(lp13
Vhttp://www.boneroom.com//uploads/4/8/1/1/48118243/s521972503441136676_p3096_i1_w640.jpeg
p14
asS'shipping_info'
p15
(lp16
sS'id'
p17
Vp3096_1497036485
p18
s.