(dp1
S'title'
p2
Vrare pair of antique crowned salamander royal french bronze brass wall sconces
p3
sS'url'
p4
S'http://www.ebay.com/itm/Rare-Pair-of-Antique-Crowned-Salamander-Royal-French-Bronze-Brass-Wall-Sconces-/112082998723?hash=item1a18aad5c3:g:Oj0AAOSwaB5Xo-O2'
p5
sS'price'
p6
VUS $12,000.00
p7
sS'seller'
p8
(dp9
g4
Vhttp://www.ebay.com/usr/jackedwardscollection?_trksid=p2047675.l2559
p10
sS'name'
p11
V jackedwardscollection
p12
ssS'description_links'
p13
(lp14
Vhttp://vi.vipr.ebaydesc.com/ws/eBayISAPI.dll?ViewItemDescV4&item=112082998723&t=1475244571000&tid=10&category=63516&seller=jackedwardscollection&excSoj=1&excTrk=1&lsite=0&ittenable=false&domain=ebay.com&descgauge=1
p15
asS'images'
p16
(lp17
(dp18
S'maxImageUrl'
p19
Vhttp://i.ebayimg.com/images/g/Oj0AAOSwaB5Xo-O2/s-l1600.jpg
p20
sS'displayImgUrl'
p21
Vhttp://i.ebayimg.com/images/g/Oj0AAOSwaB5Xo-O2/s-l300.jpg
p22
sa(dp23
g19
Vhttp://i.ebayimg.com/images/g/lGAAAOSwimdXo-OS/s-l1600.jpg
p24
sg21
Vhttp://i.ebayimg.com/images/g/lGAAAOSwimdXo-OS/s-l300.jpg
p25
sa(dp26
g19
Vhttp://i.ebayimg.com/images/g/UVgAAOSwdzVXo-NE/s-l1600.jpg
p27
sg21
Vhttp://i.ebayimg.com/images/g/UVgAAOSwdzVXo-NE/s-l300.jpg
p28
sa(dp29
g19
Vhttp://i.ebayimg.com/images/g/xIwAAOSwCfdXo-NP/s-l1600.jpg
p30
sg21
Vhttp://i.ebayimg.com/images/g/xIwAAOSwCfdXo-NP/s-l300.jpg
p31
sa(dp32
g19
Vhttp://i.ebayimg.com/images/g/NZ4AAOSwaB5Xo-N-/s-l1600.jpg
p33
sg21
Vhttp://i.ebayimg.com/images/g/NZ4AAOSwaB5Xo-N-/s-l300.jpg
p34
sa(dp35
g19
Vhttp://i.ebayimg.com/images/g/h~4AAOSwIgNXo-Mt/s-l1600.jpg
p36
sg21
Vhttp://i.ebayimg.com/images/g/h~4AAOSwIgNXo-Mt/s-l300.jpg
p37
sa(dp38
g19
Vhttp://i.ebayimg.com/images/g/F7IAAOSwARZXo-M6/s-l1600.jpg
p39
sg21
Vhttp://i.ebayimg.com/images/g/F7IAAOSwARZXo-M6/s-l300.jpg
p40
sa(dp41
g19
Vhttp://i.ebayimg.com/images/g/f6IAAOSwhOdXo-Nc/s-l1600.jpg
p42
sg21
Vhttp://i.ebayimg.com/images/g/f6IAAOSwhOdXo-Nc/s-l300.jpg
p43
sa(dp44
g19
Vhttp://i.ebayimg.com/images/g/HHgAAOSwARZXo-Ns/s-l1600.jpg
p45
sg21
Vhttp://i.ebayimg.com/images/g/HHgAAOSwARZXo-Ns/s-l300.jpg
p46
sa(dp47
g19
Vhttp://i.ebayimg.com/images/g/nxAAAOSw3xJXo-OL/s-l1600.jpg
p48
sg21
Vhttp://i.ebayimg.com/images/g/nxAAAOSw3xJXo-OL/s-l300.jpg
p49
sa(dp50
g19
Vhttp://i.ebayimg.com/images/g/ODkAAOSwaB5Xo-Og/s-l1600.jpg
p51
sg21
Vhttp://i.ebayimg.com/images/g/ODkAAOSwaB5Xo-Og/s-l300.jpg
p52
sa(dp53
g19
Vhttp://i.ebayimg.com/images/g/oj4AAOSw3xJXo-Ot/s-l1600.jpg
p54
sg21
Vhttp://i.ebayimg.com/images/g/oj4AAOSw3xJXo-Ot/s-l300.jpg
p55
sasS'shipping_info'
p56
(dp57
S'item_location'
p58
(lp59
V\u000aAndover, Minnesota, United States
p60
asS'delivery'
p61
(lp62
VVaries
p63
asS'posts_to'
p64
(lp65
VLocal pick-up only
p66
assS'id'
p67
S'112082998723'
p68
s.