(dp1
S'title'
p2
Vantique high relief cast iron french fire back royal salamander 19th century
p3
sS'url'
p4
S'http://www.ebay.com/itm/Antique-High-Relief-Cast-Iron-French-Fire-Back-Royal-Salamander-19th-Century-/122087049966?hash=item1c6cf48aee:g:FAkAAOSwV0RXsjqv'
p5
sS'price'
p6
(lp7
sS'seller'
p8
(dp9
g4
Vhttp://www.ebay.com/usr/jackedwardscollection?_trksid=p2047675.l2559
p10
sS'name'
p11
V jackedwardscollection
p12
ssS'description_links'
p13
(lp14
Vhttp://vi.vipr.ebaydesc.com/ws/eBayISAPI.dll?ViewItemDescV4&item=122087049966&t=0&tid=10&category=63518&seller=jackedwardscollection&excSoj=1&excTrk=1&lsite=0&ittenable=false&domain=ebay.com&descgauge=1
p15
asS'images'
p16
(lp17
(dp18
S'maxImageUrl'
p19
Vhttp://i.ebayimg.com/images/g/FAkAAOSwV0RXsjqv/s-l1600.jpg
p20
sS'displayImgUrl'
p21
Vhttp://i.ebayimg.com/images/g/FAkAAOSwV0RXsjqv/s-l300.jpg
p22
sa(dp23
g19
Vhttp://i.ebayimg.com/images/g/J10AAOSwU-pXsjq7/s-l1600.jpg
p24
sg21
Vhttp://i.ebayimg.com/images/g/J10AAOSwU-pXsjq7/s-l300.jpg
p25
sa(dp26
g19
Vhttp://i.ebayimg.com/images/g/fwUAAOSw0UdXsjrF/s-l1600.jpg
p27
sg21
Vhttp://i.ebayimg.com/images/g/fwUAAOSw0UdXsjrF/s-l300.jpg
p28
sa(dp29
g19
Vhttp://i.ebayimg.com/images/g/jMAAAOSwMtxXsjrM/s-l1600.jpg
p30
sg21
Vhttp://i.ebayimg.com/images/g/jMAAAOSwMtxXsjrM/s-l300.jpg
p31
sa(dp32
g19
Vhttp://i.ebayimg.com/images/g/LNUAAOSw65FXsjrU/s-l1600.jpg
p33
sg21
Vhttp://i.ebayimg.com/images/g/LNUAAOSw65FXsjrU/s-l300.jpg
p34
sa(dp35
g19
Vhttp://i.ebayimg.com/images/g/q4QAAOSwZVlXsjre/s-l1600.jpg
p36
sg21
Vhttp://i.ebayimg.com/images/g/q4QAAOSwZVlXsjre/s-l300.jpg
p37
sa(dp38
g19
Vhttp://i.ebayimg.com/images/g/LLwAAOSwU-pXsjrq/s-l1600.jpg
p39
sg21
Vhttp://i.ebayimg.com/images/g/LLwAAOSwU-pXsjrq/s-l300.jpg
p40
sa(dp41
g19
Vhttp://i.ebayimg.com/images/g/kEoAAOSwMtxXsjrz/s-l1600.jpg
p42
sg21
Vhttp://i.ebayimg.com/images/g/kEoAAOSwMtxXsjrz/s-l300.jpg
p43
sa(dp44
g19
Vhttp://i.ebayimg.com/images/g/0K8AAOSw6n5Xsjr8/s-l1600.jpg
p45
sg21
Vhttp://i.ebayimg.com/images/g/0K8AAOSw6n5Xsjr8/s-l300.jpg
p46
sa(dp47
g19
Vhttp://i.ebayimg.com/images/g/UQkAAOSwawpXsjsF/s-l1600.jpg
p48
sg21
Vhttp://i.ebayimg.com/images/g/UQkAAOSwawpXsjsF/s-l300.jpg
p49
sa(dp50
g19
Vhttp://i.ebayimg.com/images/g/fZsAAOSwHoFXsjsP/s-l1600.jpg
p51
sg21
Vhttp://i.ebayimg.com/images/g/fZsAAOSwHoFXsjsP/s-l300.jpg
p52
sa(dp53
g19
Vhttp://i.ebayimg.com/images/g/MvsAAOSw65FXsjsY/s-l1600.jpg
p54
sg21
Vhttp://i.ebayimg.com/images/g/MvsAAOSw65FXsjsY/s-l300.jpg
p55
sasS'shipping_info'
p56
(dp57
S'item_location'
p58
(lp59
V\u000aSaint Paul, Minnesota, United States
p60
asS'delivery'
p61
(lp62
VVaries
p63
asS'posts_to'
p64
(lp65
VLocal pick-up only
p66
assS'id'
p67
S'122087049966'
p68
s.