(dp1
S'title'
p2
Vrange combination with grill and salamander
p3
sS'url'
p4
S'http://www.ebay.com/itm/Range-Combination-with-Grill-and-salamander-/162463543640?hash=item25d394f158:g:~oYAAOSw03lY5XdX'
p5
sS'price'
p6
VUS $2,650.00
p7
sS'seller'
p8
(dp9
g4
Vhttp://www.ebay.com/usr/championbedorel?_trksid=p2047675.l2559
p10
sS'name'
p11
V championbedorel
p12
ssS'description_links'
p13
(lp14
Vhttp://vi.vipr.ebaydesc.com/ws/eBayISAPI.dll?ViewItemDescV4&item=162463543640&t=0&tid=10&category=95084&seller=championbedorel&excSoj=1&excTrk=1&lsite=0&ittenable=false&domain=ebay.com&descgauge=1
p15
asS'images'
p16
(lp17
(dp18
S'maxImageUrl'
p19
Vhttp://i.ebayimg.com/images/g/~oYAAOSw03lY5XdX/s-l1600.jpg
p20
sS'displayImgUrl'
p21
Vhttp://i.ebayimg.com/images/g/~oYAAOSw03lY5XdX/s-l300.jpg
p22
sa(dp23
g19
Vhttp://i.ebayimg.com/images/g/3KAAAOSw~CFY5XeD/s-l1600.jpg
p24
sg21
Vhttp://i.ebayimg.com/images/g/3KAAAOSw~CFY5XeD/s-l300.jpg
p25
sa(dp26
g19
Vhttp://i.ebayimg.com/images/g/cL8AAOSwAANY5XdO/s-l1600.jpg
p27
sg21
Vhttp://i.ebayimg.com/images/g/cL8AAOSwAANY5XdO/s-l300.jpg
p28
sa(dp29
g19
Vhttp://i.ebayimg.com/images/g/faIAAOSwDmBY5XdS/s-l1600.jpg
p30
sg21
Vhttp://i.ebayimg.com/images/g/faIAAOSwDmBY5XdS/s-l300.jpg
p31
sa(dp32
g19
Vhttp://i.ebayimg.com/images/g/UEsAAOSwVctY5XdR/s-l1600.jpg
p33
sg21
Vhttp://i.ebayimg.com/images/g/UEsAAOSwVctY5XdR/s-l300.jpg
p34
sa(dp35
g19
Vhttp://i.ebayimg.com/images/g/OwkAAOSwmgJY5XdT/s-l1600.jpg
p36
sg21
Vhttp://i.ebayimg.com/images/g/OwkAAOSwmgJY5XdT/s-l300.jpg
p37
sa(dp38
g19
Vhttp://i.ebayimg.com/images/g/nZEAAOSww3tY5XdV/s-l1600.jpg
p39
sg21
Vhttp://i.ebayimg.com/images/g/nZEAAOSww3tY5XdV/s-l300.jpg
p40
sa(dp41
g19
Vhttp://i.ebayimg.com/images/g/OfQAAOSwmgJY5XdN/s-l1600.jpg
p42
sg21
Vhttp://i.ebayimg.com/images/g/OfQAAOSwmgJY5XdN/s-l300.jpg
p43
sa(dp44
g19
Vhttp://i.ebayimg.com/images/g/COgAAOSwTM5Y5XdW/s-l1600.jpg
p45
sg21
Vhttp://i.ebayimg.com/images/g/COgAAOSwTM5Y5XdW/s-l300.jpg
p46
sa(dp47
g19
Vhttp://i.ebayimg.com/images/g/OZEAAOSwmgJY5XdK/s-l1600.jpg
p48
sg21
Vhttp://i.ebayimg.com/images/g/OZEAAOSwmgJY5XdK/s-l300.jpg
p49
sa(dp50
g19
Vhttp://i.ebayimg.com/images/g/3w4AAOSwhQhY5XdL/s-l1600.jpg
p51
sg21
Vhttp://i.ebayimg.com/images/g/3w4AAOSwhQhY5XdL/s-l300.jpg
p52
sa(dp53
g19
Vhttp://i.ebayimg.com/images/g/CA8AAOSwTM5Y5XdP/s-l1600.jpg
p54
sg21
Vhttp://i.ebayimg.com/images/g/CA8AAOSwTM5Y5XdP/s-l300.jpg
p55
sasS'shipping_info'
p56
(dp57
S'item_location'
p58
(lp59
V\u000aElk Grove Village, Illinois, United States
p60
asS'delivery'
p61
(lp62
VVaries
p63
asS'posts_to'
p64
(lp65
VLocal pick-up only
p66
assS'id'
p67
S'162463543640'
p68
s.