(dp1
S'title'
p2
VPiatnik SALAMANDERS 1000 pc New Jigsaw Puzzle
p3
sS'url'
p4
Vhttp://www.ecrater.com/p/23685272/piatnik-salamanders-1000-pc-jigsaw-puzzle?keywords=salamander
p5
sS'price'
p6
V$13.99
p7
sS'seller'
p8
Vhttp://moldycollectibles.ecrater.com
p9
sS'description_links'
p10
VSALAMANDERSPiatnik1000 piecesMeasures 26.5\u201d by 17.4\u201d when completed, 67.5 x 44.1 cmI always combine shipping to help you save money.I ship within 1 day of receiving your payment.If you have any questions, please contact me. Please, check out my other items available at Moldy Collectibles.Thanks for looking at my listing.
p11
sS'images'
p12
(lp13
Vhttp://s.ecrater.com/stores/57503/563985994dfcd_57503b.jpg
p14
asS'shipping_info'
p15
(lp16
VOnly 1 available
p17
aVShipping:USPS calculated - check
p18
aVSales Tax: Minnesota: 6.87%
p19
aVCondition: Brand new
p20
asS'id'
p21
V23685272
p22
s.