(dp1
S'title'
p2
V80239 1/72 Easy Build Heinkel He 162 Salamander HBOS0239 HOBBY BOSS MODEL NEW
p3
sS'url'
p4
Vhttp://www.ecrater.com/p/26148756/80239-1-72-easy-build-heinkel-he-162-salamander?keywords=salamander
p5
sS'price'
p6
V$13.99
p7
sS'seller'
p8
Vhttp://polkadotbracelets.ecrater.com
p9
sS'description_links'
p10
VUp for product is a 80239 1/72 Easy Build Heinkel He 162 Salamander HBOS0239 HOBBY BOSS MODEL New in Plastic. If you have any questions please let me know.
p11
sS'images'
p12
(lp13
sS'shipping_info'
p14
(lp15
VOnly 1 available
p16
aVShipping:US-Mainland: free(more destinations)
p17
aVCondition: Used
p18
asS'id'
p19
V26148756
p20
s.