(dp1
S'title'
p2
V\u000aGlass Figurine Salamander Russian Murano Blown Handmade\u000a
p3
sS'url'
p4
Vhttp://www.ioffer.com/i/glass-figurine-salamander-russian-murano-blown-handmade-614996104
p5
sS'price'
p6
V$24.00
p7
sS'seller'
p8
(lp9
sS'description_links'
p10
V
sS'images'
p11
(lp12
Vhttp://cdn.iofferphoto.com/img3/item/614/996/104/t_77G6glass-figurine-salamander-russian-murano-blown-handmade.jpg
p13
aVhttp://cdn.iofferphoto.com/img3/item/614/996/104/t_rGceglass-figurine-salamander-russian-murano-blown-handmade.jpg
p14
aVhttp://cdn.iofferphoto.com/img3/item/614/996/104/t_yzGSglass-figurine-salamander-russian-murano-blown-handmade.jpg
p15
aVhttp://cdn.iofferphoto.com/img3/item/614/996/104/t_kOtsglass-figurine-salamander-russian-murano-blown-handmade.jpg
p16
aVhttp://cdn.iofferphoto.com/img3/item/614/996/104/t_8Ucdglass-figurine-salamander-russian-murano-blown-handmade.jpg
p17
asS'shipping_info'
p18
(lp19
sS'id'
p20
V614996104_1497082138
p21
s.