(dp1
S'title'
p2
V\u000a500 in 1 8 Bit Game Cartridge Salamander for NES Ninten\u000a
p3
sS'url'
p4
Vhttp://www.ioffer.com/i/500-in-1-8-bit-game-cartridge-salamander-for-nes-ninten-635683091
p5
sS'price'
p6
V$25.04
p7
sS'seller'
p8
(lp9
sS'description_links'
p10
VInclude the following Games:Note: The real games are 400, 100 are different rounds of some games. Package included: 1 x 400 in 1 8 Bit Game Cartridge
p11
sS'images'
p12
(lp13
Vhttp://cdn.iofferphoto.com/img/item/635/683/091/t_kJBR500-in-1-8-bit-game-cartridge-salamander-for-nes-ninten.jpg
p14
aVhttp://cdn.iofferphoto.com/img/item/635/683/091/t_KmKy500-in-1-8-bit-game-cartridge-salamander-for-nes-ninten.jpg
p15
aVhttp://cdn.iofferphoto.com/img/item/635/683/091/t_WhnM500-in-1-8-bit-game-cartridge-salamander-for-nes-ninten.jpg
p16
asS'shipping_info'
p17
(lp18
sS'id'
p19
V635683091_1497082131
p20
s.