(dp1
S'title'
p2
VMagic the Gathering 5th Edition Card  Pyrie Salamander
p3
sS'url'
p4
Vhttp://www.ecrater.com/p/8185051/magic-the-gathering-5th-edition?keywords=salamander
p5
sS'price'
p6
V$1.75
p7
sS'seller'
p8
Vhttp://weezeeswonderland.ecrater.com
p9
sS'description_links'
p10
VActual picture of item.Stored since purchased in plastic sheet, one owner, mint condition.   Can sell my Magic cards all together or separate, email me at auntweezee@gmail.com.
p11
sS'images'
p12
(lp13
Vhttp://s.ecrater.com/stores/126565/4bfc66421cf1b_126565b.jpg
p14
asS'shipping_info'
p15
(lp16
VOnly 1 available
p17
aVShipping:US-Mainland: $1.25(more destinations)
p18
aVCondition: Used
p19
asS'id'
p20
V8185051
p21
s.