(dp1
S'title'
p2
Vmonster 450 plus deer antlers
p3
sS'url'
p4
S'http://www.ebay.com/itm/Monster-450-Plus-Deer-Antlers-/112432518591?hash=item1a2d8015bf:g:0GUAAOSwPhdU29Kw'
p5
sS'price'
p6
VUS $12,500.00
p7
sS'seller'
p8
(dp9
g4
Vhttp://www.ebay.com/usr/jcsbucks?_trksid=p2047675.l2559
p10
sS'name'
p11
V jcsbucks
p12
ssS'description_links'
p13
(lp14
Vhttp://vi.vipr.ebaydesc.com/ws/eBayISAPI.dll?ViewItemDescV4&item=112432518591&t=1424091514000&tid=10&category=177908&seller=jcsbucks&excSoj=1&excTrk=1&lsite=0&ittenable=false&domain=ebay.com&descgauge=1
p15
asS'images'
p16
(lp17
(dp18
S'maxImageUrl'
p19
Vhttp://i.ebayimg.com/images/g/0GUAAOSwPhdU29Kw/s-l1600.jpg
p20
sS'displayImgUrl'
p21
Vhttp://i.ebayimg.com/images/g/0GUAAOSwPhdU29Kw/s-l300.jpg
p22
sa(dp23
g19
Vhttp://i.ebayimg.com/images/g/pcUAAOSwe-FU29Kn/s-l1600.jpg
p24
sg21
Vhttp://i.ebayimg.com/images/g/pcUAAOSwe-FU29Kn/s-l300.jpg
p25
sa(dp26
g19
Vhttp://i.ebayimg.com/images/g/f-4AAOSwqu9U29Kf/s-l1600.jpg
p27
sg21
Vhttp://i.ebayimg.com/images/g/f-4AAOSwqu9U29Kf/s-l300.jpg
p28
sa(dp29
g19
Vhttp://i.ebayimg.com/images/g/GRwAAOSweW5U29Kb/s-l1600.jpg
p30
sg21
Vhttp://i.ebayimg.com/images/g/GRwAAOSweW5U29Kb/s-l300.jpg
p31
sa(dp32
g19
Vhttp://i.ebayimg.com/images/g/33YAAOSwBahU29Kt/s-l1600.jpg
p33
sg21
Vhttp://i.ebayimg.com/images/g/33YAAOSwBahU29Kt/s-l300.jpg
p34
sa(dp35
g19
Vhttp://i.ebayimg.com/images/g/XsgAAOSwNSxU29Kj/s-l1600.jpg
p36
sg21
Vhttp://i.ebayimg.com/images/g/XsgAAOSwNSxU29Kj/s-l300.jpg
p37
sa(dp38
g19
Vhttp://i.ebayimg.com/images/g/0KIAAOSwPhdU29Ky/s-l1600.jpg
p39
sg21
Vhttp://i.ebayimg.com/images/g/0KIAAOSwPhdU29Ky/s-l300.jpg
p40
sa(dp41
g19
Vhttp://i.ebayimg.com/images/g/gd8AAOSwqu9U29K1/s-l1600.jpg
p42
sg21
Vhttp://i.ebayimg.com/images/g/gd8AAOSwqu9U29K1/s-l300.jpg
p43
sa(dp44
g19
Vhttp://i.ebayimg.com/images/g/yCQAAOSwPYZU29K4/s-l1600.jpg
p45
sg21
Vhttp://i.ebayimg.com/images/g/yCQAAOSwPYZU29K4/s-l300.jpg
p46
sa(dp47
g19
Vhttp://i.ebayimg.com/images/g/hfkAAOSwNSxU29RW/s-l1600.jpg
p48
sg21
Vhttp://i.ebayimg.com/images/g/hfkAAOSwNSxU29RW/s-l300.jpg
p49
sa(dp50
g19
Vhttp://i.ebayimg.com/images/g/da4AAOSwBLlU29RZ/s-l1600.jpg
p51
sg21
Vhttp://i.ebayimg.com/images/g/da4AAOSwBLlU29RZ/s-l300.jpg
p52
sa(dp53
g19
Vhttp://i.ebayimg.com/images/g/47UAAOSwPhdU29OA/s-l1600.jpg
p54
sg21
Vhttp://i.ebayimg.com/images/g/47UAAOSwPhdU29OA/s-l300.jpg
p55
sasS'shipping_info'
p56
(dp57
S'item_location'
p58
(lp59
V\u000aGaithersburg, Maryland, United States
p60
asS'delivery'
p61
(lp62
VVaries
p63
asS'posts_to'
p64
(lp65
VUnited States
p66
assS'id'
p67
S'112432518591'
p68
s.