(dp1
S'title'
p2
VMOUNTED IN ALASKA CAST AUTOGRAPHED 8x10 RP PHOTO TAXIDERMY REALITY TV SHOW
p3
sS'url'
p4
Vhttp://www.ecrater.com/p/18175685/mounted-in-alaska-cast-autographed-8x10?keywords=taxidermy
p5
sS'price'
p6
V$13.00
p7
sS'seller'
p8
Vhttp://signedpictures.ecrater.com
p9
sS'description_links'
p10
V** ** ** ** MOUNTED IN ALASKAAUTOGRAPHED 8x10PROMO PHOTOExcellent professional reproduction of the original.Includes Certificate and Guarantee.Autographs ofallare preprinted within the 8X10 photo.eCRATER LISTING IMAGE TEXTtext will not be onthe photo you receiveShipping is $2.99 within the USA or 7.00 outside the USAIncluded isa firm clear protective top-loader/photo protector. You won't even need to frame it.Please send me a message if you have any questions. Thanks for viewing my item.          Powered by eCRATER . List your items fast and easy and manage your active items.260,RcmdId ViewItemDescV4,RlogId p4%60bo7%60jtb9%3Fvo%7B%3Dd70f%2B%3E260-13f46c9a5ae-0xfe-->
p11
sS'images'
p12
(lp13
sS'shipping_info'
p14
(lp15
V2 available
p16
aVShipping:US-Mainland: $2.99(more destinations)
p17
aVCondition: Brand new
p18
asS'id'
p19
V18175685
p20
s.