(dp1
S'title'
p2
VVintage Photograph A Bunch of Taxidermy Animals Hanging on Wall Deer Fish Crow
p3
sS'url'
p4
Vhttp://www.ecrater.com/p/22884094/vintage-photograph-a-bunch-of-taxidermy-animals?keywords=taxidermy
p5
sS'price'
p6
V$8.00
p7
sS'seller'
p8
Vhttp://ruthscollectibles.ecrater.com
p9
sS'description_links'
p10
VVintage Photograph3-1/2x5"This listing is for a vintage photograph of a bunch of taxidermy animals hanging on wall - deer, fish, crow, etc.. Photo measures approximately 3-1/2x5" and is in good condition. Please feel free to ask questions before looking. International buyers pay higher shipping costs.I do combine shipping to save you shipping costs so feel free to buy on more than one item if you like.Item will be shipped from Milford, PA  ,RcmdId ViewItemDescV4,RlogId p4%60bo7%60jtb9%3Fuk.rp*a4%601gc%3E-14e3a81b7b3-0x105-->
p11
sS'images'
p12
(lp13
Vhttp://s.ecrater.com/stores/334181/5593597043b6c_334181b.jpg
p14
asS'shipping_info'
p15
(lp16
VOnly 1 available
p17
aVShipping:US-Mainland: free(more destinations)
p18
aVCondition: Used
p19
asS'id'
p20
V22884094
p21
s.