(dp1
S'title'
p2
VReal Yellow butterfly in acrylic paperweight taxidermy Presse-papier
p3
sS'url'
p4
Vhttp://www.ecrater.com/p/23486701/real-yellow-butterfly-in-acrylic-paperweight?keywords=taxidermy
p5
sS'price'
p6
V$10.00
p7
sS'seller'
p8
Vhttp://elytra.ecrater.com
p9
sS'description_links'
p10
Vreal taxidermied (dried) yellow butterfly with spread wings.permanently cast into transparent acrylic resin, made as paperweight.size: 85mm (~ 3.5") by 60mm (~ 2.5"), deep 20mm (~ 3/4")weight: ~200g
p11
sS'images'
p12
(lp13
sS'shipping_info'
p14
(lp15
V4 available
p16
aVShipping:US-Mainland: $9.00(more destinations)
p17
aVCondition: Brand new
p18
asS'id'
p19
V23486701
p20
s.