(dp1
S'title'
p2
VYellow-white butterfly in lucid acrylic paperweight taxidermy Presse-papier
p3
sS'url'
p4
Vhttp://www.ecrater.com/p/23487880/yellow-white-butterfly-in-lucid-acrylic?keywords=taxidermy
p5
sS'price'
p6
V$10.00
p7
sS'seller'
p8
Vhttp://elytra.ecrater.com
p9
sS'description_links'
p10
Vreal taxidermied (dried) yellow-white butterfly with spread wings.permanently cast into transparent acrylic resin paperweight, made in the form of rock crystal. size: 115mm (~ 4") by 90mm (~ 3.5"), deep 35mm (~ 1.5")weight: ~350g
p11
sS'images'
p12
(lp13
sS'shipping_info'
p14
(lp15
VOnly 1 available
p16
aVShipping:US-Mainland: $13.00(more destinations)
p17
aVCondition: Brand new
p18
asS'id'
p19
V23487880
p20
s.