(dp1
S'title'
p2
VReal green birdwing butterfly Trogonoptera brookiana framed taxidermy
p3
sS'url'
p4
Vhttp://www.ecrater.com/p/23647386/real-green-birdwing-butterfly-trogonoptera?keywords=taxidermy
p5
sS'price'
p6
V$12.00
p7
sS'seller'
p8
Vhttp://elytra.ecrater.com
p9
sS'description_links'
p10
VBeautiful Male specimen of gorgeos green birdwing butterfly Trogonoptera brookiana mounted in black wooden frame for taxidermy insects display. Nice gift for any aspiring Entomologists or insect amature collectors, for children or even for anyone who love Nature! :)common name: "Rajah Brooke's Birdwing". (Papilionidae, Lepidoptera)Size: 145mm X 175mm.Weight: ~250g
p11
sS'images'
p12
(lp13
sS'shipping_info'
p14
(lp15
V3 available
p16
aVShipping:US-Mainland: $10.00(more destinations)
p17
aVCondition: Brand new
p18
asS'id'
p19
V23647386
p20
s.