(dp1
S'title'
p2
Vofficially scored triple droptine double clubs 11x8 elk antlers mule whitetail
p3
sS'url'
p4
S'http://www.ebay.com/itm/OFFICIALLY-SCORED-TRIPLE-DROPTINE-DOUBLE-CLUBS-11x8-ELK-ANTLERS-mule-whitetail-/252279138786?hash=item3abd0229e2:g:bXQAAOSw241Yknvg'
p5
sS'price'
p6
VUS $29,000.00
p7
sS'seller'
p8
(dp9
g4
Vhttp://www.ebay.com/usr/co-outfitters?_trksid=p2047675.l2559
p10
sS'name'
p11
V co-outfitters
p12
ssS'description_links'
p13
(lp14
Vhttp://vi.vipr.ebaydesc.com/ws/eBayISAPI.dll?ViewItemDescV4&item=252279138786&t=1488392224000&tid=10&category=177908&seller=co-outfitters&excSoj=1&excTrk=1&lsite=0&ittenable=false&domain=ebay.com&descgauge=1
p15
asS'images'
p16
(lp17
(dp18
S'maxImageUrl'
p19
Vhttp://i.ebayimg.com/images/g/bXQAAOSw241Yknvg/s-l1600.jpg
p20
sS'displayImgUrl'
p21
Vhttp://i.ebayimg.com/images/g/bXQAAOSw241Yknvg/s-l300.jpg
p22
sa(dp23
g19
Vhttp://i.ebayimg.com/images/g/pMEAAOSwjDZYknvo/s-l1600.jpg
p24
sg21
Vhttp://i.ebayimg.com/images/g/pMEAAOSwjDZYknvo/s-l300.jpg
p25
sa(dp26
g19
Vhttp://i.ebayimg.com/images/g/0MIAAOSwUKxYknvx/s-l1600.jpg
p27
sg21
Vhttp://i.ebayimg.com/images/g/0MIAAOSwUKxYknvx/s-l300.jpg
p28
sa(dp29
g19
Vhttp://i.ebayimg.com/images/g/BucAAOSw5cNYknv6/s-l1600.jpg
p30
sg21
Vhttp://i.ebayimg.com/images/g/BucAAOSw5cNYknv6/s-l300.jpg
p31
sa(dp32
g19
Vhttp://i.ebayimg.com/images/g/cMQAAOSw241YknwD/s-l1600.jpg
p33
sg21
Vhttp://i.ebayimg.com/images/g/cMQAAOSw241YknwD/s-l300.jpg
p34
sa(dp35
g19
Vhttp://i.ebayimg.com/images/g/q~YAAOSwo4pYknwM/s-l1600.jpg
p36
sg21
Vhttp://i.ebayimg.com/images/g/q~YAAOSwo4pYknwM/s-l300.jpg
p37
sa(dp38
g19
Vhttp://i.ebayimg.com/images/g/RmkAAOSwoydWtiuT/s-l1600.jpg
p39
sg21
Vhttp://i.ebayimg.com/images/g/RmkAAOSwoydWtiuT/s-l300.jpg
p40
sa(dp41
g19
Vhttp://i.ebayimg.com/images/g/Q7sAAOSwPc9Wx5uE/s-l1600.jpg
p42
sg21
Vhttp://i.ebayimg.com/images/g/Q7sAAOSwPc9Wx5uE/s-l300.jpg
p43
sa(dp44
g19
Vhttp://i.ebayimg.com/images/g/zfEAAOSwa-dWtivn/s-l1600.jpg
p45
sg21
Vhttp://i.ebayimg.com/images/g/zfEAAOSwa-dWtivn/s-l300.jpg
p46
sa(dp47
g19
Vhttp://i.ebayimg.com/images/g/kd4AAOSwXshWtiuY/s-l1600.jpg
p48
sg21
Vhttp://i.ebayimg.com/images/g/kd4AAOSwXshWtiuY/s-l300.jpg
p49
sa(dp50
g19
Vhttp://i.ebayimg.com/images/g/NMoAAOSwpzdWtiuv/s-l1600.jpg
p51
sg21
Vhttp://i.ebayimg.com/images/g/NMoAAOSwpzdWtiuv/s-l300.jpg
p52
sa(dp53
g19
Vhttp://i.ebayimg.com/images/g/UJUAAOSwoydWtivu/s-l1600.jpg
p54
sg21
Vhttp://i.ebayimg.com/images/g/UJUAAOSwoydWtivu/s-l300.jpg
p55
sasS'shipping_info'
p56
(dp57
S'item_location'
p58
(lp59
V\u000aFlorence, Colorado, United States
p60
asS'delivery'
p61
(lp62
VVaries
p63
asS'posts_to'
p64
(lp65
VLocal pick-up only
p66
assS'id'
p67
S'252279138786'
p68
s.