(dp1
S'title'
p2
VB393-64639 Crab taxidermy - Carcinoplax crosnieri c.f. , 25 mm
p3
sS'url'
p4
Vhttp://www.ecrater.com/p/26369498/b393-64639-crab-taxidermy-carcinoplax-crosnieri?keywords=taxidermy
p5
sS'price'
p6
V$12.50
p7
sS'seller'
p8
Vhttp://gemsunderthesea.ecrater.com
p9
sS'description_links'
p10
VFamily : GONEPLACIDAESpecie: Carcinoplax crosnieriAuthor: Guinot & Richer de Forges, 1981Origin : Siquijor, PhilippinesFound : taken with tangle net at depth of 150-200 mCarapace  : 25 mm
p11
sS'images'
p12
(lp13
Vhttp://s.ecrater.com/stores/235380/58a41003cfc46_235380b.jpg
p14
asS'shipping_info'
p15
(lp16
VOnly 1 available
p17
aVShipping:US-Mainland: $7.00(more destinations)
p18
aVCondition: Brand new
p19
asS'id'
p20
V26369498
p21
s.