(dp1
S'title'
p2
V74787  Sweetlips fish - Plectorhinchus diagrammus, 170, Freeze Dried Taxidermy
p3
sS'url'
p4
Vhttp://www.ecrater.com/p/26699519/74787-sweetlips-fish-plectorhinchus-diagrammus-170-freeze?keywords=taxidermy
p5
sS'price'
p6
V$15.00
p7
sS'seller'
p8
Vhttp://gemsunderthesea.ecrater.com
p9
sS'description_links'
p10
VFamily : HAEMULIDAESpecie: Plectorhinchus diagrammusAuthor: Linnaeus, 1758Origin : Balicasag Island, Bohol, PhilippinesFound : by fish netSize    : 170 mmMethod of preservation: Freeze DryingCoated with clear polyurethane varnish
p11
sS'images'
p12
(lp13
Vhttp://s.ecrater.com/stores/235380/58c3a75b3eaf7_235380b.jpg
p14
asS'shipping_info'
p15
(lp16
VOnly 1 available
p17
aVShipping:US-Mainland: $7.00(more destinations)
p18
aVCondition: Brand new
p19
asS'id'
p20
V26699519
p21
s.