(dp1
S'title'
p2
V74840 Crab taxidermy- Metadynomene devaneyi, 25 mm
p3
sS'url'
p4
Vhttp://www.ecrater.com/p/26793174/74840-crab-taxidermy-metadynomene-devaneyi-25-mm?keywords=taxidermy
p5
sS'price'
p6
V$15.00
p7
sS'seller'
p8
Vhttp://gemsunderthesea.ecrater.com
p9
sS'description_links'
p10
VFamily : DYNOMENIIDAESpecie: Metadynomene devaneyi Author: Takeda, 1977Origin : Balut Island, Mindanao, PhilippinesFound : taken with tangle netCarapace : 25 mm preserved in alcohol mixed w/ formaldehyde
p11
sS'images'
p12
(lp13
Vhttp://s.ecrater.com/stores/235380/58cf8bfe51f06_235380b.jpg
p14
asS'shipping_info'
p15
(lp16
VOnly 1 available
p17
aVShipping:US-Mainland: $7.00(more destinations)
p18
aVCondition: Brand new
p19
asS'id'
p20
V26793174
p21
s.