(dp1
S'title'
p2
Vking kong like figure,  latex movie prop style taxidermy quality glass eyes huge
p3
sS'url'
p4
S'http://www.ebay.com/itm/King-Kong-like-figure-Latex-Movie-Prop-style-Taxidermy-quality-glass-eyes-HUGE-/332216285942?hash=item4d59a23af6:g:3YUAAOSwol5Y2nBw'
p5
sS'price'
p6
VUS $7,500.00
p7
sS'seller'
p8
(dp9
g4
Vhttp://www.ebay.com/usr/jurassicprops?_trksid=p2047675.l2559
p10
sS'name'
p11
V jurassicprops
p12
ssS'description_links'
p13
(lp14
Vhttp://vi.vipr.ebaydesc.com/ws/eBayISAPI.dll?ViewItemDescV4&item=332216285942&t=1490710894000&tid=223353096&category=553&seller=jurassicprops&excSoj=1&excTrk=1&lsite=0&ittenable=false&domain=ebay.com&descgauge=1
p15
asS'images'
p16
(lp17
(dp18
S'maxImageUrl'
p19
Vhttp://i.ebayimg.com/images/g/3YUAAOSwol5Y2nBw/s-l1600.jpg
p20
sS'displayImgUrl'
p21
Vhttp://i.ebayimg.com/images/g/3YUAAOSwol5Y2nBw/s-l300.jpg
p22
sa(dp23
g19
Vhttp://i.ebayimg.com/images/g/ZtgAAOSw4A5YnMTf/s-l1600.jpg
p24
sg21
Vhttp://i.ebayimg.com/images/g/ZtgAAOSw4A5YnMTf/s-l300.jpg
p25
sa(dp26
g19
Vhttp://i.ebayimg.com/images/g/dtcAAOSw32lYnMT4/s-l1600.jpg
p27
sg21
Vhttp://i.ebayimg.com/images/g/dtcAAOSw32lYnMT4/s-l300.jpg
p28
sa(dp29
g19
Vhttp://i.ebayimg.com/images/g/-6MAAOSwOgdYnMUA/s-l1600.jpg
p30
sg21
Vhttp://i.ebayimg.com/images/g/-6MAAOSwOgdYnMUA/s-l300.jpg
p31
sa(dp32
g19
Vhttp://i.ebayimg.com/images/g/7UsAAOSwdGFYnMZM/s-l1600.jpg
p33
sg21
Vhttp://i.ebayimg.com/images/g/7UsAAOSwdGFYnMZM/s-l300.jpg
p34
sa(dp35
g19
Vhttp://i.ebayimg.com/images/g/8bsAAOSw3v5YnMZs/s-l1600.jpg
p36
sg21
Vhttp://i.ebayimg.com/images/g/8bsAAOSw3v5YnMZs/s-l300.jpg
p37
sa(dp38
g19
Vhttp://i.ebayimg.com/images/g/RiwAAOSwfVpYnMaP/s-l1600.jpg
p39
sg21
Vhttp://i.ebayimg.com/images/g/RiwAAOSwfVpYnMaP/s-l300.jpg
p40
sasS'shipping_info'
p41
(dp42
S'item_location'
p43
(lp44
V\u000aVista, California, United States
p45
asS'delivery'
p46
(lp47
VVaries
p48
asS'posts_to'
p49
(lp50
VLocal pick-up only
p51
assS'id'
p52
S'332216285942'
p53
s.