(dp1
S'title'
p2
V40"  stone sheep, bighorn sheep - boone & crocket - sci gold - b&c 166 4/8"
p3
sS'url'
p4
S'http://www.ebay.com/itm/40-Stone-Sheep-Bighorn-Sheep-Boone-Crocket-SCI-Gold-B-C-166-4-8-/371760123649?hash=item568ea14f01:g:IVIAAOSw-CpX~PjA'
p5
sS'price'
p6
(lp7
sS'seller'
p8
(dp9
g4
Vhttp://www.ebay.com/usr/zillionsofthings?_trksid=p2047675.l2559
p10
sS'name'
p11
V zillionsofthings
p12
ssS'description_links'
p13
(lp14
Vhttp://vi.vipr.ebaydesc.com/ws/eBayISAPI.dll?ViewItemDescV4&item=371760123649&t=1496216783000&tid=10&category=177908&seller=zillionsofthings&excSoj=1&excTrk=1&lsite=0&ittenable=false&domain=ebay.com&descgauge=1
p15
asS'images'
p16
(lp17
(dp18
S'maxImageUrl'
p19
Vhttp://i.ebayimg.com/images/g/IVIAAOSw-CpX~PjA/s-l1600.jpg
p20
sS'displayImgUrl'
p21
Vhttp://i.ebayimg.com/images/g/IVIAAOSw-CpX~PjA/s-l300.jpg
p22
sa(dp23
g19
Vhttp://i.ebayimg.com/images/g/Zx0AAOSwxKtX~PjU/s-l1600.jpg
p24
sg21
Vhttp://i.ebayimg.com/images/g/Zx0AAOSwxKtX~PjU/s-l300.jpg
p25
sa(dp26
g19
Vhttp://i.ebayimg.com/images/g/-KcAAOSwCGVX~Pjf/s-l1600.jpg
p27
sg21
Vhttp://i.ebayimg.com/images/g/-KcAAOSwCGVX~Pjf/s-l300.jpg
p28
sa(dp29
g19
Vhttp://i.ebayimg.com/images/g/IeEAAOSwmLlX~Pjt/s-l1600.jpg
p30
sg21
Vhttp://i.ebayimg.com/images/g/IeEAAOSwmLlX~Pjt/s-l300.jpg
p31
sa(dp32
g19
Vhttp://i.ebayimg.com/images/g/bl8AAOSwxKtX~Pj8/s-l1600.jpg
p33
sg21
Vhttp://i.ebayimg.com/images/g/bl8AAOSwxKtX~Pj8/s-l300.jpg
p34
sa(dp35
g19
Vhttp://i.ebayimg.com/images/g/KKQAAOSwh2xX~PkJ/s-l1600.jpg
p36
sg21
Vhttp://i.ebayimg.com/images/g/KKQAAOSwh2xX~PkJ/s-l300.jpg
p37
sa(dp38
g19
Vhttp://i.ebayimg.com/images/g/GEIAAOSw8w1X~Pls/s-l1600.jpg
p39
sg21
Vhttp://i.ebayimg.com/images/g/GEIAAOSw8w1X~Pls/s-l300.jpg
p40
sasS'shipping_info'
p41
(dp42
S'item_location'
p43
(lp44
V\u000aCordova, Tennessee, United States
p45
asS'delivery'
p46
(lp47
VVaries
p48
aVVaries
p49
asS'posts_to'
p50
(lp51
VUnited States
p52
assS'id'
p53
S'371760123649'
p54
s.