(dp1
S'title'
p2
V\u000aTaxidermy wall mount hunting taxidermie DEER Northern\u000a
p3
sS'url'
p4
Vhttp://www.ioffer.com/i/taxidermy-wall-mount-hunting-taxidermie-deer-northern-626621195
p5
sS'price'
p6
V$470.00
p7
sS'seller'
p8
(lp9
sS'description_links'
p10
VTaxidermy DEER Northern. Stand - tyrsoplyta. It is possible to hang on the wall. Dimensions: 58\u044550\u044535 cm.  State of the photo. In the collection.I invite you to review all lots!
p11
sS'images'
p12
(lp13
Vhttp://cdn.iofferphoto.com/img/item/626/621/195/t_taxidermy-wall-mount-hunting-taxidermie-deer-northern-ad91.jpg
p14
aVhttp://cdn.iofferphoto.com/img/item/626/621/195/t_taxidermy-wall-mount-hunting-taxidermie-deer-northern-4f13.jpg
p15
aVhttp://cdn.iofferphoto.com/img/item/626/621/195/t_taxidermy-wall-mount-hunting-taxidermie-deer-northern-f94b.jpg
p16
aVhttp://cdn.iofferphoto.com/img/item/626/621/195/t_taxidermy-wall-mount-hunting-taxidermie-deer-northern-57ae.jpg
p17
aVhttp://cdn.iofferphoto.com/img/item/626/621/195/t_taxidermy-wall-mount-hunting-taxidermie-deer-northern-8126.jpg
p18
aVhttp://cdn.iofferphoto.com/img/item/626/621/195/t_taxidermy-wall-mount-hunting-taxidermie-deer-northern-f7a7.jpg
p19
aVhttp://cdn.iofferphoto.com/img/item/626/621/195/t_taxidermy-wall-mount-hunting-taxidermie-deer-northern-c601.jpg
p20
aVhttp://cdn.iofferphoto.com/img/item/626/621/195/t_taxidermy-wall-mount-hunting-taxidermie-deer-northern-1019.jpg
p21
aVhttp://cdn.iofferphoto.com/img/item/626/621/195/t_taxidermy-wall-mount-hunting-taxidermie-deer-northern-345b.jpg
p22
aVhttp://cdn.iofferphoto.com/img/item/626/621/195/t_taxidermy-wall-mount-hunting-taxidermie-deer-northern-0cf7.jpg
p23
aVhttp://cdn.iofferphoto.com/img/item/626/621/195/t_taxidermy-wall-mount-hunting-taxidermie-deer-northern-40e8.jpg
p24
aVhttp://cdn.iofferphoto.com/img/item/626/621/195/t_taxidermy-wall-mount-hunting-taxidermie-deer-northern-05b3.jpg
p25
asS'shipping_info'
p26
VEstimated Shipping15 - 20 Days
p27
sS'id'
p28
V626621195_1497054202
p29
s.