(dp1
S'title'
p2
V\u000aTaxidermy PIKE HEAD wall mount / fishing / hunting / \u000a
p3
sS'url'
p4
Vhttp://www.ioffer.com/i/taxidermy-pike-head-wall-mount-fishing-hunting-627855005
p5
sS'price'
p6
V$75.00
p7
sS'seller'
p8
(lp9
sS'description_links'
p10
VTaxidermy PIKE. Dimensions head: 15\u044515 cm. Mouth open to 8.5 cm. State of the photo.I invite you to review all lots!
p11
sS'images'
p12
(lp13
Vhttp://cdn.iofferphoto.com/img/item/627/855/005/t_taxidermy-pike-head-wall-mount-fishing-hunting-8770.jpg
p14
aVhttp://cdn.iofferphoto.com/img/item/627/855/005/t_taxidermy-pike-head-wall-mount-fishing-hunting-70da.jpg
p15
aVhttp://cdn.iofferphoto.com/img/item/627/855/005/t_taxidermy-pike-head-wall-mount-fishing-hunting-e4b1.jpg
p16
aVhttp://cdn.iofferphoto.com/img/item/627/855/005/t_taxidermy-pike-head-wall-mount-fishing-hunting-e1ad.jpg
p17
aVhttp://cdn.iofferphoto.com/img/item/627/855/005/t_taxidermy-pike-head-wall-mount-fishing-hunting-dda9.jpg
p18
aVhttp://cdn.iofferphoto.com/img/item/627/855/005/t_taxidermy-pike-head-wall-mount-fishing-hunting-5a3b.jpg
p19
aVhttp://cdn.iofferphoto.com/img/item/627/855/005/t_taxidermy-pike-head-wall-mount-fishing-hunting-cc58.jpg
p20
aVhttp://cdn.iofferphoto.com/img/item/627/855/005/t_taxidermy-pike-head-wall-mount-fishing-hunting-42b7.jpg
p21
aVhttp://cdn.iofferphoto.com/img/item/627/855/005/t_taxidermy-pike-head-wall-mount-fishing-hunting-6d94.jpg
p22
aVhttp://cdn.iofferphoto.com/img/item/627/855/005/t_taxidermy-pike-head-wall-mount-fishing-hunting-5baf.jpg
p23
aVhttp://cdn.iofferphoto.com/img/item/627/855/005/t_taxidermy-pike-head-wall-mount-fishing-hunting-c074.jpg
p24
aVhttp://cdn.iofferphoto.com/img/item/627/855/005/t_taxidermy-pike-head-wall-mount-fishing-hunting-6d63.jpg
p25
asS'shipping_info'
p26
VEstimated Shipping15 - 20 Days
p27
sS'id'
p28
V627855005_1497054218
p29
s.