(dp1
S'title'
p2
(lp3
sS'url'
p4
Vhttp://store.yahoo.com/yhst-66562580642243/fish-reference-cds.html
p5
sS'price'
p6
(lp7
sS'seller'
p8
(lp9
sS'description_links'
p10
(lp11
sS'images'
p12
(lp13
sS'shipping_info'
p14
(lp15
sS'id'
p16
Vfish-reference-cds_1497054184
p17
s.