(dp1
S'title'
p2
VTaxidermy Duckling
p3
sS'url'
p4
Vhttp://www.boneroom.com/store/p1670/Taxidermy_Duckling.html
p5
sS'price'
p6
V$20.00
p7
sS'seller'
p8
(lp9
sS'description_links'
p10
VThe cutest little taxidermy duckling.How can anyone resist?\u200bColors may vary, but most from this last shipment are yellow.
p11
sS'images'
p12
(lp13
Vhttp://www.boneroom.com//uploads/4/8/1/1/48118243/s521972503441136676_p1670_i3_w640.jpeg
p14
asS'shipping_info'
p15
(lp16
sS'id'
p17
Vp1670_1497054230
p18
s.