(dp1
S'title'
p2
VBeef Jerky   - Kangaroo
p3
sS'url'
p4
Vhttp://www.skullsunlimited.com/record_variant.php?id=10339
p5
sS'price'
p6
V$3.50
p7
sS'seller'
p8
(lp9
sS'description_links'
p10
V
sS'images'
p11
(lp12
Vhttp://www.skullsunlimited.com/userfiles/image/category5_species_6960.jpg
p13
asS'shipping_info'
p14
(lp15
sS'id'
p16
V10339_1497072737
p17
s.