(dp1
S'title'
p2
VWhirligig  Brown Kangaroo
p3
sS'url'
p4
Vhttp://www.ecrater.com/p/10640108/whirligig-brown-kangaroo?keywords=kangaroo
p5
sS'price'
p6
V$45.00
p7
sS'seller'
p8
Vhttp://somethingpretty.ecrater.com
p9
sS'description_links'
p10
VThis a Brown Kangaroo Whirligig. The is 12 inches tall (body) and 12 inches wide. The long back legs measures 17 inches long and twirl in the wind.It is painted with Outside Acrylic Patio Paints, and sealed with a high gloss polyurethane sealer. He sure is a sweet looking little critter.THIS IS A NEW PATTERN !!!Please take a look.NOTE FROM BETTYE:I have over over 45 patterns available now.If you want a specific design, just ask. I will be happy to make it for you. If it is not already in my pattern cache.I will send drawings for your approval before I start the creative process.I will work with you, getting your approval, from start to finish.to finish.SHIPPING MESSAGE::Every item you receive is created as the orders come in- due to storage space and time to craft.(Multiple orders take a few days longer - 5 to 7 days) so please allow me my full 5 days (not counting Saturday and Sunday)I want you to truly have a newly hand-crafted item and sometimes thing happen that cause me to need more time.Thanks,Bettye
p11
sS'images'
p12
(lp13
Vhttp://s.ecrater.com/stores/9908/4d5c2c49abcbe_9908b.jpg
p14
asS'shipping_info'
p15
(lp16
V6 available
p17
aVShipping:US-Mainland: $10.20(more destinations)
p18
aVCondition: Brand new
p19
asS'id'
p20
V10640108
p21
s.