(dp1
S'title'
p2
Vdr seuss  theodor geisel       &#034;kangaroo bird sculpture&#034;       make offer
p3
sS'url'
p4
S'http://www.ebay.com/itm/Dr-Seuss-THEODOR-GEISEL-Kangaroo-Bird-Sculpture-MAKE-OFFER-/122539123459?hash=item1c87e6a303:g:BKQAAOSw~CFY6ohl'
p5
sS'price'
p6
VUS $5,500.00
p7
sS'seller'
p8
(dp9
g4
Vhttp://www.ebay.com/usr/lovesshinythings?_trksid=p2047675.l2559
p10
sS'name'
p11
V lovesshinythings
p12
ssS'description_links'
p13
(lp14
Vhttp://vi.vipr.ebaydesc.com/ws/eBayISAPI.dll?ViewItemDescV4&item=122539123459&t=0&tid=10&category=360&seller=lovesshinythings&excSoj=1&excTrk=1&lsite=0&ittenable=false&domain=ebay.com&descgauge=1
p15
asS'images'
p16
(lp17
(dp18
S'maxImageUrl'
p19
Vhttp://i.ebayimg.com/images/g/BKQAAOSw~CFY6ohl/s-l1600.jpg
p20
sS'displayImgUrl'
p21
Vhttp://i.ebayimg.com/images/g/BKQAAOSw~CFY6ohl/s-l300.jpg
p22
sa(dp23
g19
Vhttp://i.ebayimg.com/images/g/Z0cAAOSwhQhY6oht/s-l1600.jpg
p24
sg21
Vhttp://i.ebayimg.com/images/g/Z0cAAOSwhQhY6oht/s-l300.jpg
p25
sa(dp26
g19
Vhttp://i.ebayimg.com/images/g/oi8AAOSwls5Y6ohy/s-l1600.jpg
p27
sg21
Vhttp://i.ebayimg.com/images/g/oi8AAOSwls5Y6ohy/s-l300.jpg
p28
sa(dp29
g19
Vhttp://i.ebayimg.com/images/g/uakAAOSwpP9Y6oh4/s-l1600.jpg
p30
sg21
Vhttp://i.ebayimg.com/images/g/uakAAOSwpP9Y6oh4/s-l300.jpg
p31
sa(dp32
g19
Vhttp://i.ebayimg.com/images/g/vKcAAOSwc-tY6ohi/s-l1600.jpg
p33
sg21
Vhttp://i.ebayimg.com/images/g/vKcAAOSwc-tY6ohi/s-l300.jpg
p34
sasS'shipping_info'
p35
(dp36
S'item_location'
p37
(lp38
V\u000aAtlanta, Georgia, United States
p39
asS'delivery'
p40
(lp41
VVaries
p42
asS'posts_to'
p43
(lp44
VUnited States
p45
assS'id'
p46
S'122539123459'
p47
s.