(dp1
S'title'
p2
Vbeautiful super rare european 1982 atari kangaroo arcade game pickup cincinnati
p3
sS'url'
p4
S'http://www.ebay.com/itm/Beautiful-Super-RARE-European-1982-Atari-Kangaroo-Arcade-game-PICKUP-Cincinnati-/191457214084?hash=item2c93bd3e84:m:mOyzXRe_vXkM_s4-FqBccAQ'
p5
sS'price'
p6
VUS $4,999.99
p7
sS'seller'
p8
(dp9
g4
Vhttp://www.ebay.com/usr/relaxed174?_trksid=p2047675.l2559
p10
sS'name'
p11
V relaxed174
p12
ssS'description_links'
p13
(lp14
Vhttp://vi.vipr.ebaydesc.com/ws/eBayISAPI.dll?ViewItemDescV4&item=191457214084&t=1478178217000&tid=10&category=13716&seller=relaxed174&excSoj=1&excTrk=1&lsite=0&ittenable=false&domain=ebay.com&descgauge=1
p15
asS'images'
p16
(lp17
(dp18
S'maxImageUrl'
p19
Vhttp://i.ebayimg.com/images/a/(KGrHqF,!pkFB8rCcYZKBQo7F7yo9g~~/s-l1600.jpg
p20
sS'displayImgUrl'
p21
Vhttp://i.ebayimg.com/images/a/(KGrHqF,!pkFB8rCcYZKBQo7F7yo9g~~/s-l300.jpg
p22
sa(dp23
g19
Vhttp://i.ebayimg.com/images/a/(KGrHqR,!lIFCez3m7muBQo7GDERMw~~/s-l1600.jpg
p24
sg21
Vhttp://i.ebayimg.com/images/a/(KGrHqR,!lIFCez3m7muBQo7GDERMw~~/s-l300.jpg
p25
sasS'shipping_info'
p26
(dp27
S'item_location'
p28
(lp29
V\u000aMason, Ohio, United States
p30
asS'delivery'
p31
(lp32
VVaries
p33
asS'posts_to'
p34
(lp35
VLocal pick-up only
p36
assS'id'
p37
S'191457214084'
p38
s.