(dp1
S'title'
p2
VSMALL BARMAH STONEWASH ROO HAT FOLDABLE KANGAROO LEATHER AUSTRALIA IRONSTONE
p3
sS'url'
p4
Vhttp://www.ecrater.com/p/24967491/small-barmah-stoash-roo-hat?keywords=kangaroo
p5
sS'price'
p6
V$94.95
p7
sS'seller'
p8
Vhttp://hilason.ecrater.com
p9
sS'description_links'
p10
V
sS'images'
p11
(lp12
Vhttp://s.ecrater.com/stores/143460/577cf9f0d5083_143460b.jpg
p13
asS'shipping_info'
p14
(lp15
VOnly 1 available
p16
aVShipping:US-Mainland: free(more destinations)
p17
aVCondition: Used
p18
asS'id'
p19
V24967491
p20
s.