(dp1
S'title'
p2
VKangaroo Kingdom Brand Men Wallets Genuine Leather Wallet Slim Short Design Male Pocket Purse B
p3
sS'url'
p4
Vhttp://www.ecrater.com/p/26988700/kangaroo-kingdom-brand-men-wallets?keywords=kangaroo
p5
sS'price'
p6
V$59.40
p7
sS'seller'
p8
Vhttp://shopforman.ecrater.com
p9
sS'description_links'
p10
Vwallet rope on sale at reasonable prices, buy Kangaroo Kingdom Brand Men Wallets Genuine Leather Wallet Slim Short Design Male Pocket Purse
p11
sS'images'
p12
(lp13
Vhttp://s.ecrater.com/stores/403558/58ec041ff3366_403558b.jpg
p14
asS'shipping_info'
p15
(lp16
V5 available
p17
aVShipping:US-Mainland: free(more destinations)
p18
aVCondition: Brand new
p19
asS'id'
p20
V26988700
p21
s.