(dp1
S'title'
p2
VIn   Man Top Leather men Bag Vintage Fashion Kangaroo Men Messenger Bags Designer Men's Casual
p3
sS'url'
p4
Vhttp://www.ecrater.com/p/27338306/in-man-top-leather-men-bag?keywords=kangaroo
p5
sS'price'
p6
V$45.00
p7
sS'seller'
p8
Vhttp://big-shoulder-bags.ecrater.com
p9
sS'description_links'
p10
VIn 2017 New Man Top Leather men Bag Vintage Fashion Kangaroo Men Messenger Bags Designer Men's Casual Business Shoulder Bag L56
p11
sS'images'
p12
(lp13
Vhttp://s.ecrater.com/stores/407307/592cadfcb93c1_407307b.jpg
p14
asS'shipping_info'
p15
(lp16
V5 available
p17
aVShipping:US-Mainland: free(more destinations)
p18
aVCondition: Brand new
p19
asS'id'
p20
V27338306
p21
s.