(dp1
S'title'
p2
VMen Messenger Designer Bag Kangaroo Famous Brand Shoulder Bag High Quality Genuine Leather Bag
p3
sS'url'
p4
Vhttp://www.ecrater.com/p/27364499/men-messenger-designer-bag-kangaroo?keywords=kangaroo
p5
sS'price'
p6
V$74.00
p7
sS'seller'
p8
Vhttp://big-shoulder-bags.ecrater.com
p9
sS'description_links'
p10
V2017 Men Messenger Designer Bag Kangaroo Famous Brand Shoulder Bag High Quality Genuine Leather Bag Men Business Briefcase Bolsa
p11
sS'images'
p12
(lp13
Vhttp://s.ecrater.com/stores/407307/592e6fd021541_407307b.jpg
p14
asS'shipping_info'
p15
(lp16
V5 available
p17
aVShipping:US-Mainland: free(more destinations)
p18
aVCondition: Brand new
p19
asS'id'
p20
V27364499
p21
s.