(dp1
S'title'
p2
V2017 australian kangaroo 2oz gold proof pink diamond edition
p3
sS'url'
p4
S'http://www.ebay.com/itm/2017-AUSTRALIAN-KANGAROO-2oz-GOLD-PROOF-PINK-DIAMOND-EDITION-/292133904208?hash=item4404899f50:g:D2sAAOSwrhBZCUjn'
p5
sS'price'
p6
VAU $8,999.00
p7
sS'seller'
p8
(dp9
g4
Vhttp://www.ebay.com/usr/little_coin_shop?_trksid=p2047675.l2559
p10
sS'name'
p11
V little_coin_shop
p12
ssS'description_links'
p13
(lp14
Vhttp://vi.vipr.ebaydesc.com/ws/eBayISAPI.dll?ViewItemDescV4&item=292133904208&t=0&tid=-1&category=3372&seller=little_coin_shop&excSoj=1&excTrk=1&lsite=15&ittenable=false&domain=ebay.com&descgauge=1
p15
asS'images'
p16
(lp17
(dp18
S'maxImageUrl'
p19
Vhttp://i.ebayimg.com/images/g/D2sAAOSwrhBZCUjn/s-l1600.png
p20
sS'displayImgUrl'
p21
Vhttp://i.ebayimg.com/images/g/D2sAAOSwrhBZCUjn/s-l300.png
p22
sa(dp23
g19
Vhttp://i.ebayimg.com/images/g/6hoAAOSww9xZCUkr/s-l1600.png
p24
sg21
Vhttp://i.ebayimg.com/images/g/6hoAAOSww9xZCUkr/s-l300.png
p25
sa(dp26
g19
Vhttp://i.ebayimg.com/images/g/hk0AAOSw-3FZCU3Q/s-l1600.png
p27
sg21
Vhttp://i.ebayimg.com/images/g/hk0AAOSw-3FZCU3Q/s-l300.png
p28
sa(dp29
g19
Vhttp://i.ebayimg.com/images/g/u~IAAOSwt0FZCU31/s-l1600.png
p30
sg21
Vhttp://i.ebayimg.com/images/g/u~IAAOSwt0FZCU31/s-l300.png
p31
sa(dp32
g19
Vhttp://i.ebayimg.com/images/g/fngAAOSwONBZCU4G/s-l1600.png
p33
sg21
Vhttp://i.ebayimg.com/images/g/fngAAOSwONBZCU4G/s-l300.png
p34
sasS'shipping_info'
p35
(dp36
S'item_location'
p37
(lp38
V\u000aMelbourne, VIC, Australia
p39
asS'delivery'
p40
(lp41
VEstimated between Wed. Jun. 21 and Mon. Jul. 3\u000aPlease note the delivery estimate is greater than 6 business days.
p42
aVEstimated between Wed. Jun. 21 and Mon. Jul. 3\u000aSeller ships within 2 days after receiving cleared payment - opens in a new window or tab.
p43
asS'posts_to'
p44
(lp45
VWorldwide
p46
assS'id'
p47
S'292133904208'
p48
s.