(dp1
S'title'
p2
VMoroccanOil EXTRA VOLUME HAIR SHAMPOO Moroccan Argan Oil & Keratin 1L PROFESSIONAL LITER Fine/Limp
p3
sS'url'
p4
Vhttp://www.ecrater.com/p/18261013/moroccanoil-extra-volume-hair-shampoo?keywords=keratin
p5
sS'price'
p6
V$59.00
p7
sS'seller'
p8
Vhttp://seeme1stbuymenow.ecrater.com
p9
sS'description_links'
p10
VMOROCCANOILThe Original Moroccan OilEXTRA VOLUME SHAMPOO for Fine HairCHAMPU EXTRA VOLUMEN para Cabello Fino"A gently cleansing, volume boosting formula that restores health with antioxidant argan oil and revitalizing nutrients.  Adding body and shine to limp or fine hair."This luxurious shampoo is free of sulfates, phosphates and parabens.  Color-Safe.** Professional 33.8 oz/1 Liter Bottle with Pump **Made in IsraelNew ~ Unused and Certainly Not Tested ~ Not a tester ~ Big 1L with Pump! ~ 100% Authentic MoroccanOil PLEASE NOTE:  This is a professional series, grade and sized product.  It is not available for retail sale.  Packaging may reflect salon, stylist exclusivity.  Once our limited supply is depleted, we will no longer be able to offer this line.SHIPPING COSTS Are Based on Weight.Purchasing multiple items automatically qualifies for combined shipping discounts due to weight rate tiers. Additional items added into cart may even ship for free due to the calculated shipping by weight method. Please add items into cart for the most accurate shipping charges and options for multiple items. Please do not hesitate to contact us for shipping questions or rate confirmation.Shipping Options Include:USPS 1st Class for small/light parcels under 13 ounces.USPS Priority (or Federal Express Ground or UPS Ground Service at our discretion) for heavier/bulky parcels over 13 ounces.We prefer Paypal. *If you came to this page thru a search engine please Visit our Store web address for our entire range of varied products.Visit our store by clicking on the \u2018Store\u2019 link below the \u2018Buy Now\u2019 button near the top of this page OR http://seeme1stbuymenow.ecrater.com/If any questions or concerns, click on the \u2018Ask Seller a Question\u2019 link near the top of the page or visit our store to contact us.We look forward to meeting your shopping needs
p11
sS'images'
p12
(lp13
sS'shipping_info'
p14
(lp15
V2 available
p16
aVShipping:USPS calculated - check
p17
aVCondition: Brand new
p18
asS'id'
p19
V18261013
p20
s.