(dp1
S'title'
p2
VGlobal Keratin GK Hair Resistant 33.8 oz / 1000 ml New
p3
sS'url'
p4
Vhttp://www.ecrater.com/p/21959201/global-keratin-gk-hair-resistant-338?keywords=keratin
p5
sS'price'
p6
V$184.95
p7
sS'seller'
p8
Vhttp://yourbestbeautychoice.ecrater.com
p9
sS'description_links'
p10
V&lt;div style="text-align:center"&gt;&lt;img src="http://ti2.auctiva.com/sw/java.gif" border="0"&gt;&lt;br&gt;&lt;table align="center"&gt;&lt;tr&gt;&lt;td&gt;&lt;a style="text-decoration:none" href="http://emporium.auctiva.com/crisrojas" target="_blank"&gt;&lt;img src="http://ti2.auctiva.com/sw/images.gif" border="0"&gt;&lt;/a&gt;&lt;/td&gt;&lt;td height="27px" valign="middle" align="center"&gt;&lt;font face="arial" size="2"&gt;&lt;b&gt;&lt;a href="http://emporium.auctiva.com/crisrojas" target="_blank"&gt;crisrojas&lt;/a&gt; Store&lt;/b&gt;&lt;/font&gt;&lt;/td&gt;&lt;/tr&gt;&lt;/table&gt;&lt;/div&gt;&lt;img src="http://ti2.auctiva.com/web/aswCredit.gif" border="0"&gt;&lt;br&gt;&lt;a href="http://www.auctiva.com/?how=scLnk2" target="_blank"&gt;&lt;img src="http://ti2.auctiva.com/images/sc1line2.gif" border="0"&gt;&lt;/a&gt; FeaturesWorks on all hair typesLeaves hair more manageableHair is soft and shinyProvides frizz-free, smooth resultsCuts styling time in halfProvides long term conditioning and protectionLasts up to 5 months between salon treatmentsFOR PROFESSIONAL USE ONLYTERMS OF SALEInternational buyers: Please note we are not responsible for any additional fees you may encounter due to your country's taxes and duties. By committing to buy this product you are accepting this terms and conditions. We reserve the right to cancel or not to proceed with any transaction.PLEASE NOTE THAT IF AN ITEM IS RETURNED DUE TO AN INCORRECT ADDRESS YOU'LL RESPONSIBLE FOR NEW SHIPPING FEES TO RESEND THE ITEM OR A REFUND WILL BE ISSUED. &lt;div style="text-align:center"&gt;&lt;a style="text-decoration:none" href="http://mostpopular.sellathon.com/?id=AC1225522"&gt;&lt;img src="http://www.sellathon.com/Resources/Images/countercredit.gif" border="0"&gt;&lt;/a&gt;&lt;/div&gt; Froo www.froo.com | Froo Cross Sell, Free Cross Sell, Cross promote, eCRATER Marketing, eCRATER listing Apps, eCRATER Apps, eCRATER ApplicationOn Jun-22-13 at 00:50:52 PDT, seller added the following information:Your own return desk 24/7Powered By PhiConnect.com
p11
sS'images'
p12
(lp13
Vhttp://s.ecrater.com/stores/352896/54d6e627e4865_352896b.jpg
p14
asS'shipping_info'
p15
(lp16
VOnly 1 available
p17
aVShipping:US-Mainland: free(more destinations)
p18
aVCondition: Used
p19
asS'id'
p20
V21959201
p21
s.