(dp1
S'title'
p2
VKeratin Complex Express Blow Out Treatment 33.8 oz NEW PACKAGE
p3
sS'url'
p4
Vhttp://www.ecrater.com/p/21959215/keratin-complex-express-blow-out?keywords=keratin
p5
sS'price'
p6
V$189.95
p7
sS'seller'
p8
Vhttp://yourbestbeautychoice.ecrater.com
p9
sS'description_links'
p10
V&amp;amp;amp;amp;amp;amp;lt;div style="text-align:center"&amp;amp;amp;amp;amp;amp;gt;&amp;amp;amp;amp;amp;amp;lt;img src="http://ti2.auctiva.com/sw/java.gif" border="0"&amp;amp;amp;amp;amp;amp;gt;&amp;amp;amp;amp;amp;amp;lt;br&amp;amp;amp;amp;amp;amp;gt;&amp;amp;amp;amp;amp;amp;lt;table align="center"&amp;amp;amp;amp;amp;amp;gt;&amp;amp;amp;amp;amp;amp;lt;tr&amp;amp;amp;amp;amp;amp;gt;&amp;amp;amp;amp;amp;amp;lt;td&amp;amp;amp;amp;amp;amp;gt;&amp;amp;amp;amp;amp;amp;lt;a style="text-decoration:none" href="http://store.auctiva.com/crisrojas"&amp;amp;amp;amp;amp;amp;gt;&amp;amp;amp;amp;amp;amp;lt;img src="http://ti2.auctiva.com/sw/browse1.gif" border="0"&amp;amp;amp;amp;amp;amp;gt;&amp;amp;amp;amp;amp;amp;lt;/a&amp;amp;amp;amp;amp;amp;gt;&amp;amp;amp;amp;amp;amp;lt;/td&amp;amp;amp;amp;amp;amp;gt;&amp;amp;amp;amp;amp;amp;lt;td height="23px" valign="middle" align="center"&amp;amp;amp;amp;amp;amp;gt;&amp;amp;amp;amp;amp;amp;lt;font face="arial" size="2"&amp;amp;amp;amp;amp;amp;gt;&amp;amp;amp;amp;amp;amp;lt;b&amp;amp;amp;amp;amp;amp;gt;&amp;amp;amp;amp;amp;amp;lt;a href="http://store.auctiva.com/crisrojas"&amp;amp;amp;amp;amp;amp;gt;crisrojas&amp;amp;amp;amp;amp;amp;lt;/a&amp;amp;amp;amp;amp;amp;gt; Store&amp;amp;amp;amp;amp;amp;lt;/b&amp;amp;amp;amp;amp;amp;gt;&amp;amp;amp;amp;amp;amp;lt;/font&amp;amp;amp;amp;amp;amp;gt;&amp;amp;amp;amp;amp;amp;lt;/td&amp;amp;amp;amp;amp;amp;gt;&amp;amp;amp;amp;amp;amp;lt;/tr&amp;amp;amp;amp;amp;amp;gt;&amp;amp;amp;amp;amp;amp;lt;/table&amp;amp;amp;amp;amp;amp;gt;&amp;amp;amp;amp;amp;amp;lt;/div&amp;amp;amp;amp;amp;amp;gt;        Redefines and Expands the Keratin category. This product reduces frizz, curl, and styling time for up to six weeks. With a unique formulation utilizing Trionic Keratin Protein and a Co-Polymer delivery system, Keratin Complex Express Blow Out infuses the highest qualityKeratin in the shortest amount of time!We recommend to useKeratin Complex Clarifying Shampoo before to apply this product. This shampoois specially formulated with advanced timed foaming action that deep-cleans thehair cuticle removingall residues and impurities. After deep cleaning,advancedtimed PH elevating technology then opens the cuticle for optimum receptibilityofExpress Blow Out.NEW PACKAGETERMS OF SALEInternational buyers: Please note we are not responsible for any additional fees you may encounter due to your country's taxes and duties. By committing to buy this product you are accepting this terms and conditions. We reserve the right to cancel or not to proceed with any transaction.PLEASE NOTE THAT IF AN ITEM IS RETURNED DUE TO AN INCORRECT ADDRESS YOU'LL RESPONSIBLE FOR NEW SHIPPING FEES TO RESEND THE ITEM OR A REFUND WILL BE ISSUED.    Froo www.froo.com | Froo Cross Sell, Free Cross Sell, Cross promote, eCRATER Marketing, eCRATER listing Apps, eCRATER Apps, eCRATER ApplicationOn Apr-29-13 at 23:45:55 PDT, seller added the following information:              Your own return desk 24/7            Powered By PhiConnect.com
p11
sS'images'
p12
(lp13
Vhttp://s.ecrater.com/stores/352896/54d6e63078701_352896b.jpg
p14
asS'shipping_info'
p15
(lp16
VOnly 1 available
p17
aVShipping:US-Mainland: free(more destinations)
p18
aVCondition: Used
p19
asS'id'
p20
V21959215
p21
s.