(dp1
S'title'
p2
VSimply Smooth Keratin Treatment and Pre-Clean Shampoo 16 oz Duo Pack NEW
p3
sS'url'
p4
Vhttp://www.ecrater.com/p/21959319/simply-smooth-keratin-treatment-and-pre?keywords=keratin
p5
sS'price'
p6
V$159.00
p7
sS'seller'
p8
Vhttp://yourbestbeautychoice.ecrater.com
p9
sS'description_links'
p10
V&lt;div style="text-align:center"&gt;&lt;img src="http://ti2.auctiva.com/sw/java.gif" border="0"&gt;&lt;br&gt;&lt;table align="center"&gt;&lt;tr&gt;&lt;td&gt;&lt;a style="text-decoration:none" href="http://emporium.auctiva.com/crisrojas" target="_blank"&gt;&lt;img src="http://ti2.auctiva.com/sw/noflash.gif" border="0"&gt;&lt;/a&gt;&lt;/td&gt;&lt;td height="27px" valign="middle" align="center"&gt;&lt;font face="arial" size="2"&gt;&lt;b&gt;&lt;a href="http://emporium.auctiva.com/crisrojas" target="_blank"&gt;crisrojas&lt;/a&gt; Store&lt;/b&gt;&lt;/font&gt;&lt;/td&gt;&lt;/tr&gt;&lt;/table&gt;&lt;/div&gt;        &lt;img src="http://ti2.auctiva.com/web/aswCredit.gif" border="0"&gt;&lt;br&gt;&lt;a href="http://www.auctiva.com/?how=scLnk1" target="_blank"&gt;&lt;img src="http://ti2.auctiva.com/images/sc1line1.gif" border="0"&gt;&lt;/a&gt; Simply Smooth Keratin Treatment is a botanically based keratin smoothing system that has a cumulative effect on the hair. It reduces texture 25% to 50%, and will last for up to 12 weeks. Simply Smooth can be repeated as often as every six weeks, however, 12-16 weeks is recommended. Simply Smooth may be used over all chemical treatments (including color, hi-lights, relaxers etc\u2026) to enhance them. The Simply Smooth treatment can be applied directly after a color service. The process takes 1.5 to 3 hours and can be shampooed as soon as 72 hours. Clients must use a clarifying shampoo before the treatment.\u2022 Eliminates frizz up to 95%\u2022 Repairs damaged, keratin depleted hair\u2022 Reduces daily drying and styling time in half\u2022 Sodium chloride free\u2022 Restructures and reconditions hair fibers\u2022 Creates incredible shine\u2022 Vitamin enriched, botanically blended\u2022 Green apple pulp & plant extracts for moisturePre-clean purifying shampoo is a sodium chloride free shampoo that is to be used to prepare the hair for a Simply Smooth Keratin Treatment. This product can be used on any type of hair that needs to be purified.Pre-clean purifying shampoo will free the hair of build up from styling products, as well as other residues.\u2022 Can be used before a color service for better color penetration\u2022 Must be used before Keratin Treatment for best results\u2022 Chemical-Free way to lift cuticle without drying or damaging hair\u2022 PH of 9 to open cuticle in preperation of Simply Smooth Keratin Treatments\u2022 Sodium Chloride freeTERMS OF SALEInternational buyers: Please note we are not responsible for any additional fees you may encounter due to your country's taxes and duties. By committing to buy this product you are accepting this terms and conditions.  We reserve the right to cancel or not to proceed with any transaction.PLEASE NOTE THAT IF AN ITEM IS RETURNED DUE TO AN INCORRECT ADDRESS YOU'LL RESPONSIBLE FOR NEW SHIPPING FEES TO RESEND THE ITEM OR A REFUND WILL BE ISSUED.             &lt;div style="text-align:center"&gt;&lt;a style="text-decoration:none" href="http://mostpopular.sellathon.com/?id=AC1225522"&gt;&lt;img src="http://www.sellathon.com/Resources/Images/countercredit.gif" border="0"&gt;&lt;/a&gt;&lt;/div&gt; Froo www.froo.com | Froo Cross Sell, Free Cross Sell, Cross promote, eCRATER Marketing, eCRATER listing Apps, eCRATER Apps, eCRATER ApplicationOn Aug-07-13 at 02:39:33 PDT, seller added the following information:              Your own return desk 24/7            Powered By PhiConnect.com
p11
sS'images'
p12
(lp13
Vhttp://s.ecrater.com/stores/352896/54d6e69314508_352896b.jpg
p14
asS'shipping_info'
p15
(lp16
VOnly 1 available
p17
aVShipping:US-Mainland: free(more destinations)
p18
aVCondition: Used
p19
asS'id'
p20
V21959319
p21
s.