(dp1
S'title'
p2
V3x Scentio Hair Professional Damaged Pro-keratin Deep-penetrating Reconstructo
p3
sS'url'
p4
Vhttp://www.ecrater.com/p/25170967/3x-scentio-hair-professional-damaged?keywords=keratin
p5
sS'price'
p6
V$110.55
p7
sS'seller'
p8
Vhttp://beautyperfect.ecrater.com
p9
sS'description_links'
p10
VProduct Description :This product is popular like worldwide major famous brand . It truly is in the top-pick from shelf at environment course department shops in Bangkok and all Thailand.Scentio Hair Professional Damaged Pro-keratin Deep-penetrating Reconstructor 250ml.( by ninetong ) Hot ItemsProduct DescriptionProducts in pro-keratin treatment mask formula. Skin Deep is very dry and damaged hair. I like that the chemicals do not bend or stretch it is heated. Hydrolyzed Keratin fibers with special properties of natural proteins. This is an important component of hair. The small molecules can enter into the hair tonic. Have the strength and revive dry and damaged hair. Creatine to come back to life and falls into a deep recovery. Filled fibers was very weak. The structure of the hair cells. Restore dry and damaged hair soft and beautiful hair Enriched of Wheat Amino Acids Complex, D-Panthenol (Vitamin B5) Panthenol acid protein with a natural coating that protects the hair fiber. And maintaining the moisture balance of hair, making hair smooth scales. Retain moisture. The hair is so soft and shiny. I look healthy weight. Help nourish the mask with hair after swimming. Over the hair and scalp. Massage gently and leave it for 5-10 minutes or in conjunction with steam to enhance performance even further. And rinse with water.(by ninetong)\u2740 Payment Policy :We accept ONLY PayPal for payment. \u2740 Shipping PolicyFree Shipping Handling WORLDWIDE. The package will be shipped directly from Thailand via  Standard Small package Airmail, No tacking number, and it will take about 11-23 business days.Duty taxes, import taxes and any application taxes are buyer responsible.\u2740 Return Policy100% Satisfaction Guarantee: If you are not satisfied with the product you purchased for any reason, please contact us for a return instruction within 30 days for a refund. Shipping Handling costs are not refundable. Return shipping cost will be paid by buyer.\u2740 Contact UsPlease contact us by eCrater message or our email system.
p11
sS'images'
p12
(lp13
sS'shipping_info'
p14
(lp15
VMore than 10 available
p16
aVShipping:US-Mainland: free(more destinations)
p17
aVCondition: Brand new
p18
asS'id'
p19
V25170967
p20
s.