(dp1
S'title'
p2
V100% KERATIN AMINO ACIDS damaged hair small molecular size absorbs 2 hair 1600oz
p3
sS'url'
p4
Vhttp://www.ecrater.com/p/25414777/100-keratin-amino-acids-damaged-hair?keywords=keratin
p5
sS'price'
p6
V$59.99
p7
sS'seller'
p8
Vhttp://bestoutletshop.ecrater.com
p9
sS'description_links'
p10
V4 oz. 100% PURE KERATIN AMINO ACIDS. Makes 400oz. - 1600 oz. product when used at recommended dosage . small molecular size absorbs into hair shaft. The amino acids are extracted out of the keratin (amino acids are what make up a protein)   KeratinAminoAcids is a powerful moisturizer that can penetrate the hair enhancing its conditioning effects. Since it has a composition similar to hair and is small enough to penetrate the hair shaft where it becomes highly substantive. It is ideal for hair that has suffered cuticle damage due to the hair\u2019s increased porosity. It can help give the hair more sheen and increased volume. It is a clear amber liquid with a very strong odor. Solubility - Water RECOMMENDED ADDITION 0.5-2%Do not use undilluted. Use at the recommended addition rate for your products. Great for hair, skin, shampoos, cosmetics, etc.a;06d2,RcmdId ViewItemDescV4,RlogId p4%60bo7%60jtb9%3Fuk.rp73%28%3Ea%3B06d2-1577a7f1a69-0x12a-->
p11
sS'images'
p12
(lp13
sS'shipping_info'
p14
(lp15
VOnly 1 available
p16
aVShipping:USPS calculated - check
p17
aVCondition: Used
p18
asS'id'
p19
V25414777
p20
s.