(dp1
S'title'
p2
VPeter Coppola Legacy Keratin Concept Hair Smoothing Treatment, 12 oz, Formaldehyde free
p3
sS'url'
p4
Vhttp://www.ecrater.com/p/25544105/peter-coppola-legacy-keratin-concept?keywords=keratin
p5
sS'price'
p6
V$129.78
p7
sS'seller'
p8
Vhttp://elegancedepot.ecrater.com
p9
sS'description_links'
p10
VPeter Coppola Keratin Treatment - Aldehyde-free & Formaldehyde-free Keratin Treatment: Rewind the strands of time with the Coppola Keratin Smoothing Treatment which is a Aldehyde-free & Formaldehyde-free Keratin Treatment. This is the most versatile keratin treatment yet. It doesn't just smooth hair; it safely provides the ultimate anti-aging boost, adds volume and restores hairs youthful look and texture for a minimum of 3 months. The sophisticated formula uses the highest quality of salon-safe ingredients, combined with a low pH mechanism to soften and smooth every hair type without the concern of harmful chemicals. Infused with vital Keratin amino acids and damage-reversing Ceramides, this revolutionary treatment protects against the most harmful environmental stressors including: over-processing from coloring or chemical services, heat styling, UV exposure and daily styling damage for stronger, smoother, and age-defying results.
p11
sS'images'
p12
(lp13
sS'shipping_info'
p14
(lp15
V5 available
p16
aVShipping:US-Mainland: free(more destinations)
p17
aVSales Tax: Florida: 6%
p18
aVCondition: Brand new
p19
asS'id'
p20
V25544105
p21
s.