(dp1
S'title'
p2
VSave 12X MY WHITE WHITENING KERATIN NIGHT CREAM Skin Remove Freckles
p3
sS'url'
p4
Vhttp://www.ecrater.com/p/27095195/save-12x-my-white-whitening?keywords=keratin
p5
sS'price'
p6
V$175.80
p7
sS'seller'
p8
Vhttp://glutax.ecrater.com
p9
sS'description_links'
p10
VProduct Description :  This item is popular like international top famous brand . It is in the top-pick from shelf at world class department stores in Bangkok and all Thailand.My White Advanced Whitening Keratin Night Cream Anti Aging Firm & Lift 20g.                  Condition: 100%and new, never used, never open the seal.   Quantity: 12  box  Save Set    Size: 20g.                 My White Whitening Night Cream Formulated to improve facial skin.       Properties:   Help tighten the pores. Reduce dark spots on the face, acne, freckles and dark skin tone toighten.       Natural keratin extracts help to build strength. And flexibility In the skin does not cause wrinkles.       Infiltrates and deepens the skin layer to make the skin youthful.       My White Whitening Cream My White Whitening Cream   Nouri  Shipping Policy :We accept PAYPAL only.Wel ship worldwide by Airmail from Thailand .Shipping time is normally around 7 - 21 days. On occasion, it might take more than 21 days depending on each country custom.Your patience is greatly appreciated.We  ship all items  within 1-2 days of payment.** IF You have any questions please contact us.We  try to resolve any problem you may have. Please contact us before leaving a Negative Feed Back.Thank you very much for your interesting.Our Return PolicyWe guarantee 100% satisfaction if you not happy with our item we will refund your money back after you send back of item to us in 7 days.
p11
sS'images'
p12
(lp13
Vhttp://s.ecrater.com/stores/352269/5901a46482006_352269b.jpg
p14
asS'shipping_info'
p15
(lp16
VMore than 10 available
p17
aVShipping:US-Mainland: free(more destinations)
p18
aVCondition: Brand new
p19
asS'id'
p20
V27095195
p21
s.