(dp1
S'title'
p2
V\u000aStraight Fine Human Hair for Wigs for Prebonded Keratin\u000a
p3
sS'url'
p4
Vhttp://www.ioffer.com/i/straight-fine-human-hair-for-wigs-for-prebonded-keratin-563729831
p5
sS'price'
p6
V$413.99
p7
sS'seller'
p8
(lp9
sS'description_links'
p10
VCuticle Natural Dark Color Straight HairHuman Hair Ponytails, bundlesFine Hair, Soft Virginweight: 1.1Lbs (500gramms)length: 18-20inc (45-50cm)color: virgin natural darktexture: soft fine straighthuman hair 100%collected in Russia and its nearest territories, very soft natural hair, great for wigs and extensions, very soft, long and cuticle hair, single drawn.
p11
sS'images'
p12
(lp13
Vhttp://cdn.iofferphoto.com/img3/item/563/729/831/t_5OJPstraight-fine-human-hair-for-wigs-for-prebonded-keratin.jpg
p14
aVhttp://cdn.iofferphoto.com/img3/item/563/729/831/t_XSOystraight-fine-human-hair-for-wigs-for-prebonded-keratin.jpg
p15
aVhttp://cdn.iofferphoto.com/img3/item/563/729/831/t_B8xWstraight-fine-human-hair-for-wigs-for-prebonded-keratin.jpg
p16
aVhttp://cdn.iofferphoto.com/img3/item/563/729/831/t_rxY7straight-fine-human-hair-for-wigs-for-prebonded-keratin.jpg
p17
aVhttp://cdn.iofferphoto.com/img3/item/563/729/831/t_5yaNstraight-fine-human-hair-for-wigs-for-prebonded-keratin.jpg
p18
aVhttp://cdn.iofferphoto.com/img3/item/563/729/831/t_ElCmstraight-fine-human-hair-for-wigs-for-prebonded-keratin.jpg
p19
asS'shipping_info'
p20
(lp21
sS'id'
p22
V563729831_1497060291
p23
s.