(dp1
S'title'
p2
VBULLYLAND 58355 MAMMUTHUS PRIMIGENIUS (WOOLY MAMMOTH) 1/24
p3
sS'url'
p4
Vhttp://www.ecrater.com/p/12144278/bullyland-58355-mammuthus-primigenius-wooly-mammoth-1-24?keywords=mammoth
p5
sS'price'
p6
V$19.99
p7
sS'seller'
p8
Vhttp://linkandpin.ecrater.com
p9
sS'description_links'
p10
VBULLYLAND 58355 MAMMUTHUS PRIMIGENIUS (WOOLY MAMMOTH) 1/24
p11
sS'images'
p12
(lp13
Vhttp://s.ecrater.com/stores/124540/4e5157927d581_124540b.jpg
p14
asS'shipping_info'
p15
(lp16
VOnly 1 available
p17
aVShipping:US-Mainland: $10.00(more destinations)
p18
aVCondition: Brand new
p19
asS'id'
p20
V12144278
p21
s.