(dp1
S'title'
p2
Vblake babies - innocence and experience CD 1993 mammoth used
p3
sS'url'
p4
Vhttp://www.ecrater.com/p/12345022/blake-babies-innocence-and-experience-cd-1993?keywords=mammoth
p5
sS'price'
p6
V$19.95
p7
sS'seller'
p8
Vhttp://jellysdiscs.ecrater.com
p9
sS'description_links'
p10
Vdisc and front liner are like new, rear liner is punched, in new jewel case, immediate first class shipping domestic and international.tracks:1. Wipe It Up2:552. Rain3:483. Boiled Potato2:294. Lament3:275. Cesspool3:156. You Don't Give Up3:407. Star2:498. Sanctify4:569. Out There2:4610. Girl In A Box2:3811. I'm Not Your Mother3:1112. Temptation Eyes2:5713. Downtime3:1114. Over And Over091711ro110j
p11
sS'images'
p12
(lp13
sS'shipping_info'
p14
(lp15
VOnly 1 available
p16
aVShipping:US-Mainland: $2.95(more destinations)
p17
aVCondition: Used
p18
asS'id'
p19
V12345022
p20
s.