(dp1
S'title'
p2
VNIB Bliss Mammoth Minty Scrub Bar Soap 11.1 oz
p3
sS'url'
p4
Vhttp://www.ecrater.com/p/17131734/bliss-mammoth-minty-scrub-bar?keywords=mammoth
p5
sS'price'
p6
V$29.99
p7
sS'seller'
p8
Vhttp://glennandglenndistributors.ecrater.com
p9
sS'description_links'
p10
VNIB Bliss Mammoth Minty Scrub Bar Soap 11.1 oz- Clean, crisp unisex fragrance- 315g (11.1 oz)- Long-lasting hard-milled bar- Gently exfoliates with jojoba beads- Made with stimulating massaging nubs- Cooling and refreshing- Made in USA
p11
sS'images'
p12
(lp13
Vhttp://s.ecrater.com/stores/118531/57a6a18e1cac1_118531b.jpg
p14
asS'shipping_info'
p15
(lp16
VOnly 1 available
p17
aVShipping:US-Mainland: free(more destinations)
p18
aVCondition: Brand new
p19
asS'id'
p20
V17131734
p21
s.