(dp1
S'title'
p2
VWoolly Mammoth Intricately Designed Pliocene Epoch ~ Custom Ceiling Fan Pull
p3
sS'url'
p4
Vhttp://www.ecrater.com/p/19830933/woolly-mammoth-intricately-designed-pliocene?keywords=mammoth
p5
sS'price'
p6
V$14.99
p7
sS'seller'
p8
Vhttp://interestingornamentals.ecrater.com
p9
sS'description_links'
p10
VWooly MammothCeiling Fan Pull Chain Thiswooly mammothis very cute! It measures 1 3/4" high and 2 1/2" wide. It is made of pvc and is intricately designed.Thisfan pullcomes withits own ball and chain with all the correct connectors.  Just snap and enjoy!It makes a greatgift for that special someone in your life!Items are custom made using purchased items.* Small parts - Not for children under 3 *
p11
sS'images'
p12
(lp13
Vhttp://s.ecrater.com/stores/300418/535784399f142_300418b.jpg
p14
asS'shipping_info'
p15
(lp16
VOnly 1 available
p17
aVShipping:US-Mainland: free(more destinations)
p18
aVCondition: Used
p19
asS'id'
p20
V19830933
p21
s.