(dp1
S'title'
p2
Vdash rip rock : not of this world (CD 1990 mammoth used mint)
p3
sS'url'
p4
Vhttp://www.ecrater.com/p/2063297/dash-rip-rock-not-of-this?keywords=mammoth
p5
sS'price'
p6
V$19.95
p7
sS'seller'
p8
Vhttp://baystatejem.ecrater.com
p9
sS'description_links'
p10
Vdisc / inserts / jewel case all mint, immediate first class / airmail shipping.Track listing 1. Bum For Egypt2. Under The Jail3. Rich Little Bitch4. You Were On My Mind5. Little Girl Blue6. String You Up7. Rattle Trap8. Jolie9. Promenade10. Betty11. Christmas In El Paso12. I Don't Wanna Stop022108ro111ec
p11
sS'images'
p12
(lp13
sS'shipping_info'
p14
(lp15
VOnly 1 available
p16
aVShipping:US-Mainland: $3.99(more destinations)
p17
aVCondition: Used
p18
asS'id'
p19
V2063297
p20
s.