(dp1
S'title'
p2
Vwooly mammoth scapula/humerus huge bones
p3
sS'url'
p4
S'http://www.ebay.com/itm/Wooly-Mammoth-Scapula-Humerus-Huge-Bones-/252977901763?hash=item3ae6a870c3:g:CaQAAOSw8gVX3xi9'
p5
sS'price'
p6
VUS $5,000.00
p7
sS'seller'
p8
(dp9
g4
Vhttp://www.ebay.com/usr/otter17689?_trksid=p2047675.l2559
p10
sS'name'
p11
V otter17689
p12
ssS'description_links'
p13
(lp14
Vhttp://vi.vipr.ebaydesc.com/ws/eBayISAPI.dll?ViewItemDescV4&item=252977901763&t=1480761876000&tid=10&category=3216&seller=otter17689&excSoj=1&excTrk=1&lsite=0&ittenable=false&domain=ebay.com&descgauge=1
p15
asS'images'
p16
(lp17
(dp18
S'maxImageUrl'
p19
Vhttp://i.ebayimg.com/images/g/CaQAAOSw8gVX3xi9/s-l1600.jpg
p20
sS'displayImgUrl'
p21
Vhttp://i.ebayimg.com/images/g/CaQAAOSw8gVX3xi9/s-l300.jpg
p22
sa(dp23
g19
Vhttp://i.ebayimg.com/images/g/kocAAOSwCGVX3xjQ/s-l1600.jpg
p24
sg21
Vhttp://i.ebayimg.com/images/g/kocAAOSwCGVX3xjQ/s-l300.jpg
p25
sa(dp26
g19
Vhttp://i.ebayimg.com/images/g/-IYAAOSwAuZX3xjf/s-l1600.jpg
p27
sg21
Vhttp://i.ebayimg.com/images/g/-IYAAOSwAuZX3xjf/s-l300.jpg
p28
sa(dp29
g19
Vhttp://i.ebayimg.com/images/g/plcAAOSwLnBX3xkb/s-l1600.jpg
p30
sg21
Vhttp://i.ebayimg.com/images/g/plcAAOSwLnBX3xkb/s-l300.jpg
p31
sa(dp32
g19
Vhttp://i.ebayimg.com/images/g/FjQAAOSw8gVX3xld/s-l1600.jpg
p33
sg21
Vhttp://i.ebayimg.com/images/g/FjQAAOSw8gVX3xld/s-l300.jpg
p34
sa(dp35
g19
Vhttp://i.ebayimg.com/images/g/dy8AAOSwzaJX3xlo/s-l1600.jpg
p36
sg21
Vhttp://i.ebayimg.com/images/g/dy8AAOSwzaJX3xlo/s-l300.jpg
p37
sasS'shipping_info'
p38
(dp39
S'item_location'
p40
(lp41
V\u000aPalmer, Alaska, United States
p42
asS'delivery'
p43
(lp44
VVaries
p45
asS'posts_to'
p46
(lp47
VLocal pick-up only
p48
assS'id'
p49
S'252977901763'
p50
s.