(dp1
S'title'
p2
Vthe backsliders - throwin' rocks at the moon CD 1997 mammoth atlantic 11 tracks used mint
p3
sS'url'
p4
Vhttp://www.ecrater.com/p/2654302/the-backsliders-throwin-rocks-at-moon?keywords=mammoth
p5
sS'price'
p6
V$37.95
p7
sS'seller'
p8
Vhttp://baystatejem.ecrater.com
p9
sS'description_links'
p10
Vdisc and inserts are like new, in new jewel case, immediate first class shipping domestic and international.tracks:1. My Baby's Gone 2. Throwin' Rocks At The Moon  3. Lonesome Teardrops  4. Crazy Wind5. Paper Doll World 6. Last Train 7. If You Talk To My Baby 8. Hey Sheriff  9. If I Was King 10. Broken Wings 11. Cowboy Boots  062208ct203ec
p11
sS'images'
p12
(lp13
sS'shipping_info'
p14
(lp15
VOnly 1 available
p16
aVShipping:US-Mainland: $3.99(more destinations)
p17
aVCondition: Used
p18
asS'id'
p19
V2654302
p20
s.