(dp1
S'title'
p2
VCertified Organic Russian Mammoth Sunflower Seeds (~25)): Non-GMO Sunflower Seed
p3
sS'url'
p4
Vhttp://www.ecrater.com/p/26777031/certified-organic-russian-mammoth-sunflower?keywords=mammoth
p5
sS'price'
p6
V$16.00
p7
sS'seller'
p8
Vhttp://rancupid.ecrater.com
p9
sS'description_links'
p10
VThis is a second generation cross of two open-pollinated sunflowers: Velvet Queen and Chocolate (Helianthus annuus) \u2013 that we are working to further develop as a red-hued cut and bunch sunflower.  Shades of red, and halos of orange and gold that are reminiscent of an autumn day. This \u201cgrex\u201d \u2013 an interbreeding population of multiple distinct varieties \u2013 will have wonderful variation to add diverse color to the garden! Plants will vary in height from five to seven feet.
p11
sS'images'
p12
(lp13
sS'shipping_info'
p14
(lp15
V10 available
p16
aVShipping:US-Mainland: free(more destinations)
p17
aVCondition: Brand new
p18
asS'id'
p19
V26777031
p20
s.