(dp1
S'title'
p2
VSterling Souvenir Spoon National Parks Mammoth Cave Kentucky
p3
sS'url'
p4
Vhttp://www.ecrater.com/p/27114835/sterling-souvenir-spoon-national-parks?keywords=mammoth
p5
sS'price'
p6
V$33.15
p7
sS'seller'
p8
Vhttp://finesilver4u.ecrater.com
p9
sS'description_links'
p10
VVINTAGE STERLING SOUVENIR SPOONMammoth CaveNational ParkKentuckyMeasures 5 1/2" longWeighs .76 troy ouncesVery Nice ConditionSales tax charged only if sent to WI 5.1% or IL 6.25%
p11
sS'images'
p12
(lp13
sS'shipping_info'
p14
(lp15
VOnly 1 available
p16
aVShipping:US-Mainland: free(more destinations)
p17
aVCondition: Used
p18
asS'id'
p19
V27114835
p20
s.