(dp1
S'title'
p2
Vjuliana hatfield - become what you are CD 1993 atlantic mammoth used mint
p3
sS'url'
p4
Vhttp://www.ecrater.com/p/4059440/juliana-hatfield-become-what-you?keywords=mammoth
p5
sS'price'
p6
V$16.95
p7
sS'seller'
p8
Vhttp://baystatejem.ecrater.com
p9
sS'description_links'
p10
Vdisc and inserts are like new, in new jewel case, immediate first class shipping domestic and international.tracks:1. Supermodel  2. My Sister  3. This Is the Sound  4. For the Birds  5. Mabel  6. Dame With a Rod  7. Addicted  8. Feelin' Massachusetts  9. Spin the Bottle  10. President Garfield  11. Little Pieces  12. I Got No Idols  031509ro117ec
p11
sS'images'
p12
(lp13
sS'shipping_info'
p14
(lp15
V3 available
p16
aVShipping:US-Mainland: $3.99(more destinations)
p17
aVCondition: Used
p18
asS'id'
p19
V4059440
p20
s.