(dp1
S'title'
p2
VMTV buzz bin volume 1 - the zen of buzz clips CD 1996 MTV mammoth atlantic used mint
p3
sS'url'
p4
Vhttp://www.ecrater.com/p/4409095/mtv-buzz-bin-volume-1-the?keywords=mammoth
p5
sS'price'
p6
V$29.95
p7
sS'seller'
p8
Vhttp://jellysdiscs.ecrater.com
p9
sS'description_links'
p10
Vdisc and inserts are like new, in new jewel case, immediate first class shipping domestic and international.tracks:1. Plush - Stone Temple Pilots 2. What Would You Say - Dave Matthews 3. More Human Than Human - White Zombie 4. Zombie - The Cranberries 5. Hey Jealousy - Gin Blossoms 6. Everything Zen - Bush 7. No Rain - Blind Melon 8. Low - Cracker 9. Creep - Radiohead 10. Cantaloop (Flip Fantasia) - Us3 11. Hey Man, Nice Shot - Filter 12. Mother - Danzig 051709rov109j
p11
sS'images'
p12
(lp13
sS'shipping_info'
p14
(lp15
VOnly 1 available
p16
aVShipping:US-Mainland: $2.99(more destinations)
p17
aVCondition: Used
p18
asS'id'
p19
V4409095
p20
s.