(dp1
S'title'
p2
Vjoe henry - skin and teeth CD single1999 mammoth 1 track used mint
p3
sS'url'
p4
Vhttp://www.ecrater.com/p/4661339/joe-henry-skin-and-teeth-cd?keywords=mammoth
p5
sS'price'
p6
V$19.95
p7
sS'seller'
p8
Vhttp://baystatejem.ecrater.com
p9
sS'description_links'
p10
Vdisc and inserts are like new, in new jewel case, immediate first class shipping domestic and international.tracks:1. skin and teeth 3:39061509ro114c
p11
sS'images'
p12
(lp13
sS'shipping_info'
p14
(lp15
VOnly 1 available
p16
aVShipping:US-Mainland: $3.99(more destinations)
p17
aVCondition: Used
p18
asS'id'
p19
V4661339
p20
s.