(dp1
S'title'
p2
Vmachines of loving grace - gilt CD 1995 atlantic mammoth BMG Dir.used mint
p3
sS'url'
p4
Vhttp://www.ecrater.com/p/5886177/machines-of-loving-grace-gilt-cd-1995?keywords=mammoth
p5
sS'price'
p6
V$49.95
p7
sS'seller'
p8
Vhttp://baystatejem.ecrater.com
p9
sS'description_links'
p10
Vdisc and inserts are like new, in new jewel case, immediate first class shipping domestic and international.tracks:1. Richest Junkie Still Alive 2. Kiss Destroyer 3. Suicide King 4. Animal Mass 5. Soft Collision 6. Solar Temple 7. Tryst 8. Casual Users 9. Twofold Godhead 10. Last 11. Serpico 110409ro213c
p11
sS'images'
p12
(lp13
sS'shipping_info'
p14
(lp15
VOnly 1 available
p16
aVShipping:US-Mainland: $3.99(more destinations)
p17
aVCondition: Used
p18
asS'id'
p19
V5886177
p20
s.