(dp1
S'title'
p2
V\u000aOriginal EARSON ER-160 Mammoth Waterproof Portable Wire\u000a
p3
sS'url'
p4
Vhttp://www.ioffer.com/i/original-earson-er-160-mammoth-waterproof-portable-wire-617530500
p5
sS'price'
p6
V$62.24
p7
sS'seller'
p8
(lp9
sS'description_links'
p10
VOriginal EARSON ER-160 Mammoth Waterproof Portable Wireless Bluetooth Stereo Speaker       Original EARSON ER-160 Mammoth Waterproof Dustproof Shockproof Scrape Proof Portable Wireless Bluetooth Stereo Speaker Support TF Card Description: Earson ER-160 Mammoth have not only fully taken into account in the design of lightness, portable, four defense and call assistant, but also huge capacity inside 1500mah Lithium battery and convenience charging. It supports Bluetooth A2D stereo music playing, income call help function, TF card music play, USB data transfer, AUX 3.5mm audio input port, 360 degree coding switch volume control and three-level LED battery indicator function, etc. It can satisfy you with the music you need in outdoor sports and uses such as call answering. You can also easily connect it to notebook, Tablet and desktop PC. It is a versatile portable speaker products. More detail about the ER-160,Please click here:Features: Wireless Bluetooth connection  Compatible high-fidelity music playing  Four defenses(Dust Proof,Splash Water Proof,Shock Proof,Scrape Proof) Buckle Design(convenience and fsshion)  1500 mAh durable battery  Bluetooth hands-free call answer  Specific buckle design  Colorful options and fashion appearanceParameter Products  Earosn Bluetooth speaker  Barcode  6946851801769  Model number  ER-160 Mammoth  first word of serial number  E  dimension of products  L167*W67*H59mm  N.W  0.32KG\u01050.01kg  Dimension of gift box  L198*W95*H86mm  G.W  0.52kg\u01050.01kg  Dimension of carton box  L495*W215*H195mm  pcs/cnt  10  G.W  6.4  Capacity of Battery  1500mAh  Use time of Max Volume  2.5 hours  Battery  Li-ion battery  Voltage   3.7V  Voltage of charge  DC5V 500A  Driver Unit  45mm 4? 5Wx2  Frequency of response  40Hz~18KHz  S/N  ?95dB  Degree of distortion  ?1%  Functions  Hand-free+TF card+AUX+USB port+BT+FM  Color of product  Green, Blue, Orange, Black  Others  MP3 WMA Package Included 1 X Bluetooth Speaker 1 X USB Charge Cable 1 X Audio Cable 1 X Buckble 1 X Use ManualDetail Image      977417
p11
sS'images'
p12
(lp13
Vhttp://cdn.iofferphoto.com/img/item/617/530/500/t_eLhZoriginal-earson-er-160-mammoth-waterproof-portable-wire.jpg
p14
aVhttp://cdn.iofferphoto.com/img/item/617/530/500/t_fgzgoriginal-earson-er-160-mammoth-waterproof-portable-wire.jpg
p15
aVhttp://cdn.iofferphoto.com/img/item/617/530/500/t_ZNuNoriginal-earson-er-160-mammoth-waterproof-portable-wire.jpg
p16
asS'shipping_info'
p17
(lp18
sS'id'
p19
V617530500_1497038139
p20
s.