(dp1
S'title'
p2
V\u000aLRG Woolly Mammoth Puffy Vest Black\u000a
p3
sS'url'
p4
Vhttp://www.ioffer.com/i/lrg-woolly-mammoth-puffy-vest-black-636055448
p5
sS'price'
p6
V$101.47
p7
sS'seller'
p8
(lp9
sS'description_links'
p10
V
sS'images'
p11
(lp12
Vhttp://cdn.iofferphoto.com/img/item/636/055/448/t_B5O6lrg-woolly-mammoth-puffy-vest-black.jpg
p13
aVhttp://cdn.iofferphoto.com/img/item/636/055/448/t_Q5Jblrg-woolly-mammoth-puffy-vest-black.jpg
p14
asS'shipping_info'
p15
(lp16
sS'id'
p17
V636055448_1497038134
p18
s.