(dp1
S'title'
p2
Vantique taxidermy pre 1947 black forest germany , massive wild boar head
p3
sS'url'
p4
S'http://www.ebay.com/itm/ANTIQUE-Taxidermy-Pre-1947-BLACK-FOREST-GERMANY-MASSIVE-WILD-BOAR-HEAD-/122473977842?hash=item1c840497f2:g:m6wAAOSwt0FZB0wq'
p5
sS'price'
p6
VUS $1,999.99
p7
sS'seller'
p8
(dp9
g4
Vhttp://www.ebay.com/usr/mikeylikey4?_trksid=p2047675.l2559
p10
sS'name'
p11
V mikeylikey4
p12
ssS'description_links'
p13
(lp14
Vhttp://vi.vipr.ebaydesc.com/ws/eBayISAPI.dll?ViewItemDescV4&item=122473977842&t=0&tid=10&category=177908&seller=mikeylikey4&excSoj=1&excTrk=1&lsite=0&ittenable=false&domain=ebay.com&descgauge=1
p15
asS'images'
p16
(lp17
(dp18
S'maxImageUrl'
p19
Vhttp://i.ebayimg.com/images/g/m6wAAOSwt0FZB0wq/s-l1600.jpg
p20
sS'displayImgUrl'
p21
Vhttp://i.ebayimg.com/images/g/m6wAAOSwt0FZB0wq/s-l300.jpg
p22
sa(dp23
g19
Vhttp://i.ebayimg.com/images/g/9cQAAOSwrhBZB0wo/s-l1600.jpg
p24
sg21
Vhttp://i.ebayimg.com/images/g/9cQAAOSwrhBZB0wo/s-l300.jpg
p25
sa(dp26
g19
Vhttp://i.ebayimg.com/images/g/S0cAAOSwjL5ZB0wp/s-l1600.jpg
p27
sg21
Vhttp://i.ebayimg.com/images/g/S0cAAOSwjL5ZB0wp/s-l300.jpg
p28
sa(dp29
g19
Vhttp://i.ebayimg.com/images/g/hCcAAOSw42dZB0ws/s-l1600.jpg
p30
sg21
Vhttp://i.ebayimg.com/images/g/hCcAAOSw42dZB0ws/s-l300.jpg
p31
sa(dp32
g19
Vhttp://i.ebayimg.com/images/g/XKMAAOSw~y9ZB0wt/s-l1600.jpg
p33
sg21
Vhttp://i.ebayimg.com/images/g/XKMAAOSw~y9ZB0wt/s-l300.jpg
p34
sa(dp35
g19
Vhttp://i.ebayimg.com/images/g/nBcAAOSwt0FZB0wu/s-l1600.jpg
p36
sg21
Vhttp://i.ebayimg.com/images/g/nBcAAOSwt0FZB0wu/s-l300.jpg
p37
sa(dp38
g19
Vhttp://i.ebayimg.com/images/g/6-oAAOSw-3FZB0ww/s-l1600.jpg
p39
sg21
Vhttp://i.ebayimg.com/images/g/6-oAAOSw-3FZB0ww/s-l300.jpg
p40
sa(dp41
g19
Vhttp://i.ebayimg.com/images/g/c-QAAOSwhvFZB0wx/s-l1600.jpg
p42
sg21
Vhttp://i.ebayimg.com/images/g/c-QAAOSwhvFZB0wx/s-l300.jpg
p43
sa(dp44
g19
Vhttp://i.ebayimg.com/images/g/e7oAAOSwnONZB0wy/s-l1600.jpg
p45
sg21
Vhttp://i.ebayimg.com/images/g/e7oAAOSwnONZB0wy/s-l300.jpg
p46
sa(dp47
g19
Vhttp://i.ebayimg.com/images/g/DK4AAOSww9xZB0w1/s-l1600.jpg
p48
sg21
Vhttp://i.ebayimg.com/images/g/DK4AAOSww9xZB0w1/s-l300.jpg
p49
sa(dp50
g19
Vhttp://i.ebayimg.com/images/g/fDoAAOSwnONZB0w3/s-l1600.jpg
p51
sg21
Vhttp://i.ebayimg.com/images/g/fDoAAOSwnONZB0w3/s-l300.jpg
p52
sa(dp53
g19
Vhttp://i.ebayimg.com/images/g/dZcAAOSwhvFZB0w4/s-l1600.jpg
p54
sg21
Vhttp://i.ebayimg.com/images/g/dZcAAOSwhvFZB0w4/s-l300.jpg
p55
sasS'shipping_info'
p56
(dp57
S'item_location'
p58
(lp59
V\u000aPlainview, New York, United States
p60
asS'delivery'
p61
(lp62
VVaries
p63
asS'posts_to'
p64
(lp65
VLocal pick-up only
p66
assS'id'
p67
S'122473977842'
p68
s.