(dp1
S'title'
p2
Vrare! large wild boar pig chocolate mold mould ~ unusual subject ~ germany
p3
sS'url'
p4
S'http://www.ebay.com/itm/RARE-Large-Wild-Boar-Pig-Chocolate-Mold-Mould-Unusual-Subject-Germany-/182446648744?hash=item2a7aaaeda8:g:U04AAOSwo4pYmLaJ'
p5
sS'price'
p6
VUS $995.00
p7
sS'seller'
p8
(dp9
g4
Vhttp://www.ebay.com/usr/brokum?_trksid=p2047675.l2559
p10
sS'name'
p11
V brokum
p12
ssS'description_links'
p13
(lp14
Vhttp://vi.vipr.ebaydesc.com/ws/eBayISAPI.dll?ViewItemDescV4&item=182446648744&t=1491326634000&tid=10&category=13926&seller=brokum&excSoj=1&excTrk=1&lsite=0&ittenable=false&domain=ebay.com&descgauge=1
p15
asS'images'
p16
(lp17
(dp18
S'maxImageUrl'
p19
Vhttp://i.ebayimg.com/images/g/U04AAOSwo4pYmLaJ/s-l1600.jpg
p20
sS'displayImgUrl'
p21
Vhttp://i.ebayimg.com/images/g/U04AAOSwo4pYmLaJ/s-l300.jpg
p22
sa(dp23
g19
Vhttp://i.ebayimg.com/images/g/XYEAAOSwjDZYmLaS/s-l1600.jpg
p24
sg21
Vhttp://i.ebayimg.com/images/g/XYEAAOSwjDZYmLaS/s-l300.jpg
p25
sa(dp26
g19
Vhttp://i.ebayimg.com/images/g/h6QAAOSw2xRYmLab/s-l1600.jpg
p27
sg21
Vhttp://i.ebayimg.com/images/g/h6QAAOSw2xRYmLab/s-l300.jpg
p28
sa(dp29
g19
Vhttp://i.ebayimg.com/images/g/RLEAAOSw5cNYmLaq/s-l1600.jpg
p30
sg21
Vhttp://i.ebayimg.com/images/g/RLEAAOSw5cNYmLaq/s-l300.jpg
p31
sa(dp32
g19
Vhttp://i.ebayimg.com/images/g/X6YAAOSwo4pYmLbA/s-l1600.jpg
p33
sg21
Vhttp://i.ebayimg.com/images/g/X6YAAOSwo4pYmLbA/s-l300.jpg
p34
sa(dp35
g19
Vhttp://i.ebayimg.com/images/g/q7UAAOSw241YmLbu/s-l1600.jpg
p36
sg21
Vhttp://i.ebayimg.com/images/g/q7UAAOSw241YmLbu/s-l300.jpg
p37
sa(dp38
g19
Vhttp://i.ebayimg.com/images/g/3-AAAOSwTglYmLbj/s-l1600.jpg
p39
sg21
Vhttp://i.ebayimg.com/images/g/3-AAAOSwTglYmLbj/s-l300.jpg
p40
sa(dp41
g19
Vhttp://i.ebayimg.com/images/g/tfwAAOSwopRYmLdI/s-l1600.jpg
p42
sg21
Vhttp://i.ebayimg.com/images/g/tfwAAOSwopRYmLdI/s-l300.jpg
p43
sa(dp44
g19
Vhttp://i.ebayimg.com/images/g/h8EAAOSwA3dYmLdQ/s-l1600.jpg
p45
sg21
Vhttp://i.ebayimg.com/images/g/h8EAAOSwA3dYmLdQ/s-l300.jpg
p46
sasS'shipping_info'
p47
(dp48
S'item_location'
p49
(lp50
V\u000aBay City, Michigan, United States
p51
asS'delivery'
p52
(lp53
VVaries
p54
asS'posts_to'
p55
(lp56
VWorldwide
p57
assS'id'
p58
S'182446648744'
p59
s.