(dp1
S'title'
p2
VHARLEY DAVIDSON 1980-2012 ROAD GLIDE WILD BOAR SHIFT LINKAGE
p3
sS'url'
p4
Vhttp://www.ecrater.com/p/23178576/harley-davidson-1980-2012-road-glide-wild?keywords=wild+boar
p5
sS'price'
p6
V$92.82
p7
sS'seller'
p8
Vhttp://vtcustoms.ecrater.com
p9
sS'description_links'
p10
V...YOU CAN NOW PICK UP YOUR PARTS IF YOU WANT TO AT OUR 2ND LOCATION IN CLINTON MD 301-234-0890....WE DO DISCOUNT SHIPPING ON MULTIPLE PURCHASES.DEPENDING ON THE WEIGHTS.......WAIT FOR INVOICE FIRST....THIS IS A KURYAKN PART NOT A CHINESE COPY....CHECK OUT ALL OF OUR KURYAKYN AND BIKER'S CHOICE PARTS FOR YOUR SPECIFIC MODEL USE YOUR INFO IN THE SEARCH BOX AFTER CLICKING THE STORE ICON.......1073....NICE CHROME PLATED SHIFT LINKAGEOUR NEW TECH LINE NUMBER IS 518 548 4495OUR NEW TECH LINE NUMBER IS 518 548 4495
p11
sS'images'
p12
(lp13
sS'shipping_info'
p14
(lp15
VOnly 1 available
p16
aVShipping:US-Mainland: free(more destinations)
p17
aVCondition: Brand new
p18
asS'id'
p19
V23178576
p20
s.