(dp1
S'title'
p2
V\u000aWild Boar Mask Scary Half Face Masks For Halloween Cost\u000a
p3
sS'url'
p4
Vhttp://www.ioffer.com/i/wild-boar-mask-scary-half-face-masks-for-halloween-cost-617545062
p5
sS'price'
p6
V$6.44
p7
sS'seller'
p8
(lp9
sS'description_links'
p10
VWild Boar Mask Scary Half Face Masks For Halloween Costumes Party       Wild Boar Mask Scary Half Face Masks For Halloween Costumes Party Description: Style: Wild Boar Half Face Mask Material: Emulsion Size:14*15cm Scary half face design Easy to wear with elastic strap Great for cosplay, Halloween costume, theme party, etc.Note: Products and images may exist chromatic aberration, please understanding. Compare the detail sizes with yours, please allow 1-2cm differs due to manual measurement.Packaging Included: 1 x Mask      946568
p11
sS'images'
p12
(lp13
Vhttp://cdn.iofferphoto.com/img/item/617/545/062/t_VxpZwild-boar-mask-scary-half-face-masks-for-halloween-cost.jpg
p14
aVhttp://cdn.iofferphoto.com/img/item/617/545/062/t_WiGAwild-boar-mask-scary-half-face-masks-for-halloween-cost.jpg
p15
aVhttp://cdn.iofferphoto.com/img/item/617/545/062/t_Xcfmwild-boar-mask-scary-half-face-masks-for-halloween-cost.jpg
p16
asS'shipping_info'
p17
(lp18
sS'id'
p19
V617545062_1497053442
p20
s.