(dp1
S'title'
p2
VMINK PELT, DEMI WILD - FEMALE
p3
sS'url'
p4
Vhttp://www.glacierwear.com/mink-pelt-for-sale-6909.html
p5
sS'price'
p6
V89.95
p7
sS'seller'
p8
(lp9
sS'description_links'
p10
VDemi Wild Ranch Mink Pelt - Female- Gold Label- North American Ranch Raised Mink- Garment Quality- Fresh Commercial Garment Tanned- Soft & Stretchy Leather- Measured Tip Of Nose To Base Of Tail
p11
sS'images'
p12
(lp13
Vhttp://www.glacierwear.com/media/catalog/product/cache/1/image/9df78eab33525d08d6e5fb8d27136e95/m/n/mnk-100-demi.jpg
p14
asS'shipping_info'
p15
VFree Shipping on $100.00+
p16
sS'id'
p17
V6909_1497053364
p18
s.