(dp1
S'title'
p2
VRUSSIAN SABLE - BAUM MARTIN
p3
sS'url'
p4
Vhttp://www.glacierwear.com/russian-sable-baum-martin.html
p5
sS'price'
p6
V149.95
p7
sS'seller'
p8
(lp9
sS'description_links'
p10
Vsbl1001Russian Sable - Baum Martin- Select Quality: Super Dense & Super Silky- A Wild Fur with a Natural Brown Color- A Light Weight but Ultra Warm- Commercially Garment Tanned. Soft & Stretchy Leather- Choose Sizes from Drop-Down - Measured from Tip of Nose to Base of TailRussian Sable - Considered to be the Ultimate, the Most Luxurious, the Finest of All Fur in the World
p11
sS'images'
p12
(lp13
Vhttp://www.glacierwear.com/media/catalog/product/cache/1/thumbnail/500x/17f82f742ffe127f42dca9de82fb58b1/s/_/s.jpg
p14
asS'shipping_info'
p15
VFree Shipping on $100.00+
p16
sS'id'
p17
Vmartin_1497053351
p18
s.