(dp1
S'title'
p2
VQUEBEC WILD RED FOX PELT
p3
sS'url'
p4
Vhttp://www.glacierwear.com/quebec-wild-red-fox-pelt.html
p5
sS'price'
p6
V49.95
p7
sS'seller'
p8
(lp9
sS'description_links'
p10
Vfxx7005- North Eastern Canada and United States Red Fox- Prime #1 Quality Fur: Semi Heavy, Glossy and Silky- Dark Brick/Cherry Red in Color- Fresh Commercial Garment Tanned- Super Soft & Stretchy Leather
p11
sS'images'
p12
(lp13
Vhttp://www.glacierwear.com/media/catalog/product/cache/1/thumbnail/500x/17f82f742ffe127f42dca9de82fb58b1/i/m/image002_79_27.png
p14
asS'shipping_info'
p15
VFree Shipping on $100.00+
p16
sS'id'
p17
Vpelt_1497053402
p18
s.