(dp1
S'title'
p2
VBat-Eared Fox Skull
p3
sS'url'
p4
Vhttp://www.boneroom.com/store/p1124/Bat-Eared_Fox_Skull.html
p5
sS'price'
p6
V$98.00
p7
sS'seller'
p8
(lp9
sS'description_links'
p10
VOtocyon megalotis4.5" in length
p11
sS'images'
p12
(lp13
Vhttp://www.boneroom.com//uploads/4/8/1/1/48118243/s521972503441136676_p1124_i1_w500.jpeg
p14
asS'shipping_info'
p15
(lp16
sS'id'
p17
Vp1124_1497063235
p18
s.