(dp1
S'title'
p2
V\u000aShark Fin Antenna For VW MK4 Golf Jetta Passat B5 B5.5 \u000a
p3
sS'url'
p4
Vhttp://www.ioffer.com/i/shark-fin-antenna-for-vw-mk4-golf-jetta-passat-b5-b5-5-634022171
p5
sS'price'
p6
V$22.23
p7
sS'seller'
p8
(lp9
sS'description_links'
p10
VShark Fin Antenna is available now from our US and UK warehouse Free shipping to US and UK in 3-6 business daysShip to Canada,Brazil in 7-10 days in US warehouseship to European countries in 7-10 days in UK warehouse Description: Single Plug VersionFitment:VW MK4 Golf / Jetta, Passat B5 / B5.5, Polo, New BeetleFor AM/FM ONLYFeatures:Black Color With Gasket                 Packages included: 1 xBlack Shark Fin Antenna For VW MK4 Golf Jetta Passat B5 B5.5 Polo  New Beetle
p11
sS'images'
p12
(lp13
Vhttp://cdn.iofferphoto.com/img3/item/634/022/171/t_9aO1shark-fin-antenna-for-vw-mk4-golf-jetta-passat-b5-b5-5.jpg
p14
aVhttp://cdn.iofferphoto.com/img3/item/634/022/171/t_RBpNshark-fin-antenna-for-vw-mk4-golf-jetta-passat-b5-b5-5.jpg
p15
aVhttp://cdn.iofferphoto.com/img3/item/634/022/171/t_mYYIshark-fin-antenna-for-vw-mk4-golf-jetta-passat-b5-b5-5.jpg
p16
asS'shipping_info'
p17
(lp18
sS'id'
p19
V634022171_1497080852
p20
s.