(dp1
S'title'
p2
VGiant Shark Tooth Cast
p3
sS'url'
p4
Vhttp://www.boneroom.com/store/p1574/Giant_Shark_Tooth_Cast.html
p5
sS'price'
p6
V$18.00
p7
sS'seller'
p8
(lp9
sS'description_links'
p10
VCarcharocles (Carcharodon) megalodon6.0" x 6.0" x 1.0" Available in light or dark finish.
p11
sS'images'
p12
(lp13
Vhttp://www.boneroom.com//uploads/4/8/1/1/48118243/s521972503441136676_p1574_i1_w439.jpeg
p14
asS'shipping_info'
p15
(lp16
sS'id'
p17
Vp1574_1497080883
p18
s.