(dp1
S'title'
p2
VMilk Cap Mushroom
p3
sS'url'
p4
Vhttp://www.boneroom.com/store/p2876/Milk_Cap_Mushroom.html
p5
sS'price'
p6
V$42.00
p7
sS'seller'
p8
(lp9
sS'description_links'
p10
(lp11
sS'images'
p12
(lp13
Vhttp://www.boneroom.com//uploads/4/8/1/1/48118243/s521972503441136676_p2876_i1_w640.jpeg
p14
asS'shipping_info'
p15
(lp16
sS'id'
p17
Vp2876_1497080860
p18
s.