(dp1
S'title'
p2
VArcher FX Seatbelt Belt - Cheryl's Pet Cat Ocelot Babou w/ Moon Night Background
p3
sS'url'
p4
Vhttp://www.ecrater.com/p/20518887/archer-fx-seatbelt-belt-cheryls?keywords=ocelot
p5
sS'price'
p6
V$26.99
p7
sS'seller'
p8
Vhttp://gottagift83.ecrater.com
p9
sS'description_links'
p10
VNylonOpens and closes like a seat belt.One size fits most. (Approximate Waist Size Men 28-38, Women 8-18)Product Dimensions:8.3 x 2.5 x 2.4 inches; 6.4 ouncesOfficially Licensed.0fe,RcmdId ViewItemDescV4,RlogId p4%60bo7%60jtb9%3Fuk%601d70f%2B%3E0fe-1481c6e7d0f-0xfb-->
p11
sS'images'
p12
(lp13
sS'shipping_info'
p14
(lp15
VOnly 1 available
p16
aVShipping:US-Mainland: free(more destinations)
p17
aVCondition: Used
p18
asS'id'
p19
V20518887
p20
s.