(dp1
S'title'
p2
VCoach Crossbody Pouch in Ocelot Print Coated Canvas
p3
sS'url'
p4
Vhttp://www.ecrater.com/p/23941332/coach-crossbody-pouch-in-ocelot-print?keywords=ocelot
p5
sS'price'
p6
V$98.00
p7
sS'seller'
p8
Vhttp://kimsdiscounts.ecrater.com
p9
sS'description_links'
p10
VOcelot Printed Coated CanvasZip Top Closure Fabric LiningInside Credit Card, Cell Phone and Multifunction PocketsLong Strap with 22" Drop for Shoulder or Crossbody Wear6 1/4" (L) x 3 1/2" (H) x 1 1/2 " (W)
p11
sS'images'
p12
(lp13
Vhttp://s.ecrater.com/stores/88618/566f65981347e_88618b.jpg
p14
asS'shipping_info'
p15
(lp16
VOnly 1 available
p17
aVShipping:US-Mainland: $5.99(more destinations)
p18
aVSales Tax: Wisconsin: 5.6%
p19
aVCondition: Brand new
p20
asS'id'
p21
V23941332
p22
s.