(dp1
S'title'
p2
VBaby Ocelot Cross Stitch Kit Jungle theme Candamar designs Kit 1992
p3
sS'url'
p4
Vhttp://www.ecrater.com/p/27246255/baby-ocelot-cross-stitch-kit?keywords=ocelot
p5
sS'price'
p6
V$31.27
p7
sS'seller'
p8
Vhttp://eclecticgoods.ecrater.com
p9
sS'description_links'
p10
VNew old Stock1992 Candamar designs Baby Ocelot picture Cross stitch kit.Finished size approx. 9"x12"Has package wear/damage where price sticker was attached.
p11
sS'images'
p12
(lp13
sS'shipping_info'
p14
(lp15
VOnly 1 available
p16
aVShipping:USPS calculated - check
p17
aVCondition: Used
p18
asS'id'
p19
V27246255
p20
s.