(dp1
S'title'
p2
V\u000aMinecraft Animal Plush Toys Stuffed Soft doll OCELOT\u000a
p3
sS'url'
p4
Vhttp://www.ioffer.com/i/minecraft-animal-plush-toys-stuffed-soft-doll-ocelot-623996345
p5
sS'price'
p6
V$7.00
p7
sS'seller'
p8
(lp9
sS'description_links'
p10
V...
p11
sS'images'
p12
(lp13
Vhttp://cdn.iofferphoto.com/img/item/623/996/345/t_minecraft-animal-plush-toys-stuffed-soft-doll-ocelot-db7b.jpg
p14
aVhttp://cdn.iofferphoto.com/img/item/623/996/345/t_minecraft-animal-plush-toys-stuffed-soft-doll-ocelot-7e48.jpg
p15
asS'shipping_info'
p16
VEstimated Shipping1 - 3 Days
p17
sS'id'
p18
V623996345_1497065889
p19
s.