(dp1
S'title'
p2
VCongo Democratic Republic 347 Black-and-white Colobus (Monkey) MNH
p3
sS'url'
p4
Vhttp://www.ecrater.com/p/4578238/congo-democratic-republic-347-black-and-white?keywords=colobus+monkey
p5
sS'price'
p6
V$0.45
p7
sS'seller'
p8
Vhttp://agcstamps.ecrater.com
p9
sS'description_links'
p10
V1960 issueNote: If multiple items are purchased, shipping and handling will be combined and excess shipping and handling costs will be refunded when the order is filled. APS since 1987
p11
sS'images'
p12
(lp13
sS'shipping_info'
p14
(lp15
VOnly 1 available
p16
aVShipping:US-Mainland: $1.50(more destinations)
p17
aVCondition: Brand new
p18
asS'id'
p19
V4578238
p20
s.