(dp1
S'title'
p2
V\u000aLastest style DSQUARED2 D2 men's denim jacket Monkey \u000a
p3
sS'url'
p4
Vhttp://www.ioffer.com/i/lastest-style-dsquared2-d2-men-s-denim-jacket-monkey-609334464
p5
sS'price'
p6
V$90.00
p7
sS'seller'
p8
(lp9
sS'description_links'
p10
VDear buyer, Welcome to yanjiaosoho! We are committed to serving and providing good products to you, so please feel free to contact us for product information, order inquiry or aftersales follow up. Thanks for your trust!  Five points for clarification: *I accept Paypal, Credit Card - King365Pay and Western Union,\uff08Western Union enjoy 5% discount), thanks\uff01 *This price includes goods cost and shipping cost, Our items of good quality, the price we do not make much money, just want to small profits but quick turnover. *Once your payment received, we will ship the item within 3 business days and provide you the tracking number. In general, it'll take 2-3 weeks on the way to  by registered airmail, As we all know, the international shipping time is always out of control, What under our control is that we will ensure ship the item within certain biz days as described in item listing. Therefore, please prepare for all situation we might meet.  *There is a little chromatism between reality and pictures because of the different monitor resolution.All pictures taken by ourselves, the items you'll get is just as following pictures show. *Return Policy All items are carefully check to ensure they are in perfect condition before shipping .If the item is found to be faulty on arrival a full refund will be given .Refund must be requested within 3 days after receiving the package.All items must be return in original condition without any physical changes.You need to pay for the shipping of the original item and provide a tracking num.I will refund you the full amount after received item.  BestwishesYanjiaosoho!
p11
sS'images'
p12
(lp13
Vhttp://cdn.iofferphoto.com/img3/item/609/334/464/t_lastest-style-dsquared2-d2-men-s-denim-jacket-monkey-38a7.jpg
p14
aVhttp://cdn.iofferphoto.com/img3/item/609/334/464/t_lastest-style-dsquared2-d2-men-s-denim-jacket-monkey-6f17.jpg
p15
aVhttp://cdn.iofferphoto.com/img3/item/609/334/464/t_lastest-style-dsquared2-d2-men-s-denim-jacket-monkey-092e.jpg
p16
aVhttp://cdn.iofferphoto.com/img3/item/609/334/464/t_lastest-style-dsquared2-d2-men-s-denim-jacket-monkey-7baa.jpg
p17
aVhttp://cdn.iofferphoto.com/img3/item/609/334/464/t_lastest-style-dsquared2-d2-men-s-denim-jacket-monkey-63c2.jpg
p18
aVhttp://cdn.iofferphoto.com/img3/item/609/334/464/t_lastest-style-dsquared2-d2-men-s-denim-jacket-monkey-9cc1.jpg
p19
aVhttp://cdn.iofferphoto.com/img3/item/609/334/464/t_lastest-style-dsquared2-d2-men-s-denim-jacket-monkey-cdfd.jpg
p20
aVhttp://cdn.iofferphoto.com/img3/item/609/334/464/t_lastest-style-dsquared2-d2-men-s-denim-jacket-monkey-8f7a.jpg
p21
aVhttp://cdn.iofferphoto.com/img3/item/609/334/464/t_lastest-style-dsquared2-d2-men-s-denim-jacket-monkey-1619.jpg
p22
aVhttp://cdn.iofferphoto.com/img3/item/609/334/464/t_lastest-style-dsquared2-d2-men-s-denim-jacket-monkey-f3b6.jpg
p23
aVhttp://cdn.iofferphoto.com/img3/item/609/334/464/t_lastest-style-dsquared2-d2-men-s-denim-jacket-monkey-76f6.jpg
p24
asS'shipping_info'
p25
VAvailable ColorsAvailable SizesSizesMediumLargeX-LargeXXLEstimated Shipping10 - 15 Days
p26
sS'id'
p27
V609334464_1497072376
p28
s.