(dp1
S'title'
p2
V\u000aWomen Men Givenchy Cotton T Shirt rottweiler Monkey Tee\u000a
p3
sS'url'
p4
Vhttp://www.ioffer.com/i/women-men-givenchy-cotton-t-shirt-rottweiler-monkey-tee-625296577
p5
sS'price'
p6
V$20.00
p7
sS'seller'
p8
(lp9
sS'description_links'
p10
VS: Bust 90CM , Shoulder 40CM , Length 60CM  (women's size)M: Bust 102CM , Shoulder 48CM , Length 68CM (men's size)L: Bust 105CM , Shoulder 50CM , Length 70CM (men's size)XL: Bust 108CM , Shoulder 52CM , Length 72CM (men's size)
p11
sS'images'
p12
(lp13
Vhttp://cdn.iofferphoto.com/img/item/625/296/577/t_women-men-givenchy-cotton-t-shirt-rottweiler-monkey-tee-93f5.jpg
p14
aVhttp://cdn.iofferphoto.com/img/item/625/296/577/t_women-men-givenchy-cotton-t-shirt-rottweiler-monkey-tee-ea3e.jpg
p15
aVhttp://cdn.iofferphoto.com/img/item/625/296/577/t_women-men-givenchy-cotton-t-shirt-rottweiler-monkey-tee-4770.jpg
p16
aVhttp://cdn.iofferphoto.com/img/item/625/296/577/t_women-men-givenchy-cotton-t-shirt-rottweiler-monkey-tee-062a.jpg
p17
aVhttp://cdn.iofferphoto.com/img/item/625/296/577/t_women-men-givenchy-cotton-t-shirt-rottweiler-monkey-tee-e356.jpg
p18
aVhttp://cdn.iofferphoto.com/img/item/625/296/577/t_women-men-givenchy-cotton-t-shirt-rottweiler-monkey-tee-86eb.jpg
p19
aVhttp://cdn.iofferphoto.com/img/item/625/296/577/t_women-men-givenchy-cotton-t-shirt-rottweiler-monkey-tee-f0b1.jpg
p20
aVhttp://cdn.iofferphoto.com/img/item/625/296/577/t_women-men-givenchy-cotton-t-shirt-rottweiler-monkey-tee-7d71.jpg
p21
aVhttp://cdn.iofferphoto.com/img/item/625/296/577/t_women-men-givenchy-cotton-t-shirt-rottweiler-monkey-tee-23cf.jpg
p22
asS'shipping_info'
p23
VAvailable ColorsAvailable SizesSizesSmallMediumLargeX-LargeEstimated Shipping15 - 20 Days
p24
sS'id'
p25
V625296577_1497072374
p26
s.