(dp1
S'title'
p2
VCarved monkey skulls from Bali.
p3
sS'url'
p4
Vhttp://www.boneroom.com/store/p2967/Carved_monkey_skulls_from_Bali..html
p5
sS'price'
p6
V$400.00
p7
sS'seller'
p8
(lp9
sS'description_links'
p10
Von stainless steel stands, $400; skull on its own, $375Numbered from left to right 1, 2, 3\u200b#4 without stand
p11
sS'images'
p12
(lp13
Vhttp://www.boneroom.com//uploads/4/8/1/1/48118243/s521972503441136676_p2967_i1_w640.jpeg
p14
asS'shipping_info'
p15
(lp16
sS'id'
p17
Vp2967_1497072398
p18
s.