(dp1
S'title'
p2
V\u000aCyndi Lauper Gold LP Record Display Actually Plays "Gir\u000a
p3
sS'url'
p4
Vhttp://www.ioffer.com/i/cyndi-lauper-gold-lp-record-display-actually-plays-gir-550505136
p5
sS'price'
p6
V$159.95
p7
sS'seller'
p8
(lp9
sS'description_links'
p10
VThis CYNDI LAUPER  commemorative 24kt. GOLD LP Record award style display is brought to you by The Golden Age Of Rock- N -Roll, a company known for investment grade collectibles. ACTUALLY PLAYS "GIRLS JUST WANT TO HAVE FUN"...PLEASE SEE THE VIDEOABOVE TO HEAR AND SEE HOW THESE DISPLAYS PLAYS YOUR ARTIST'S SONG. COMES WITH AMINI VOICE MODULE AND SPEAKER ON THE REVERSE SIDE OF THE RECORD, PRESS THEBUTTON AND IT PLAYS 1 MINUTE OF THE SONG LISTED. GOOD FOR 1000 PLAYS AND BATTERIESARE REPLACEABLE.Sold in retail stores for $299 now made available to Ebay and other sites for $159.95 in limited quantities to sell them out. Only 500 of each design were manufactured and we are down to the last ones at below wholesale pricing. The Gold record memorabilia/collectible display is 16 inches wide and 20 inches tall. The heavy duty rock n roll black plaque is made of a scratch resistant material ready to hang. Comes with a full size graphic of the original album cover. The 24kt. GOLD clad HUGE 12 inch Long Playing Record is raised off the plaque to achieve a dynamic effect. The 24kt. GOLD company seal, top left corner, and a Certificate Of Authentication, mounted on the back of the Gold Record Award Style display, is your assurance of quality and originality. The actual number of your item out of the 500 made is stamped on the certificate. FREE DOMESTIC Shipping!  Weight of this item is 8 pounds and will come to you double boxed by priority mail. We guarantee your satisfaction with a no questions asked return policy. Simply return the item to us in good condition, with your name and address  for a full refund of your purchase price. European customers Please use the handy shipping calculator to your zip code for actual shipping price. We will be happy to combine shipping to save you money, please let us know so we can help. International Buyers \u2013 Please Note: Gold Record Outlet attempts to minimize your duty fee's by marking your purchase as a gift and declares a lower value "BUT" Import duties, taxes, and charges are not included in the item price or shipping cost. These charges are the buyer's responsibility. Please check with your country's customs office to determine what these additional costs will be prior to bidding or buying.Great for Home / Office / Dorm Room Decor Wall Art.Froo www.froo.com | Froo Cross Sell, Free Cross Sell, Cross promote, eBay Marketing, eBay listing Apps, eBay Apps, eBay ApplicationOn Mar-28-12 at 10:17:44 PDT, seller added the following information:
p11
sS'images'
p12
(lp13
Vhttp://cdn.iofferphoto.com/img3/item/550/505/136/t_tGcEcyndi-lauper-gold-lp-record-display-actually-plays-gir.jpg
p14
aVhttp://cdn.iofferphoto.com/img3/item/550/505/136/t_FXsicyndi-lauper-gold-lp-record-display-actually-plays-gir.jpg
p15
aVhttp://cdn.iofferphoto.com/img3/item/550/505/136/t_9BqLcyndi-lauper-gold-lp-record-display-actually-plays-gir.jpg
p16
aVhttp://cdn.iofferphoto.com/img3/item/550/505/136/t_xBsacyndi-lauper-gold-lp-record-display-actually-plays-gir.jpg
p17
aVhttp://cdn.iofferphoto.com/img3/item/550/505/136/t_uCh8cyndi-lauper-gold-lp-record-display-actually-plays-gir.jpg
p18
asS'shipping_info'
p19
VEstimated Shipping3 - 5 Days
p20
sS'id'
p21
V550505136_1497085463
p22
s.