(dp1
S'title'
p2
VVintage Bovine Bone and Metal Handle Bottle Opener Corkscrew Tire Bouchon 210 gr
p3
sS'url'
p4
Vhttp://www.ecrater.com/p/20305984/vintage-bovine-bone-and-metal-handle?keywords=bovine+bone
p5
sS'price'
p6
V$69.00
p7
sS'seller'
p8
Vhttp://bohochicboutique.ecrater.com
p9
sS'description_links'
p10
VYou are looking at a unique ox bone handled corkscrewmetal embellishment on both sides of handle handle is 4.2" wide; worm and body is 5" long.opener weighs 210 grams. excellent condition!
p11
sS'images'
p12
(lp13
sS'shipping_info'
p14
(lp15
VOnly 1 available
p16
aVShipping:US-Mainland: free(more destinations)
p17
aVCondition: Used
p18
asS'id'
p19
V20305984
p20
s.