(dp1
S'title'
p2
VBone Room Mascot T-Shirt
p3
sS'url'
p4
Vhttp://www.boneroom.com/store/p2687/Bone_Room_Mascot_T-Shirt.html
p5
sS'price'
p6
V$20.00
p7
sS'seller'
p8
(lp9
sS'description_links'
p10
V100% Cotton, pre-shrunk, color fast black tee. Unisex - standard sizing.
p11
sS'images'
p12
(lp13
Vhttp://www.boneroom.com//uploads/4/8/1/1/48118243/s521972503441136676_p2687_i3_w640.jpeg
p14
asS'shipping_info'
p15
(lp16
sS'id'
p17
Vp2687_1497026549
p18
s.