(dp1
S'title'
p2
VBLACK BEAR RUG #rgg1003
p3
sS'url'
p4
Vhttp://www.glacierwear.com/black-bear-rug-rgg1003.html
p5
sS'price'
p6
V1599.95
p7
sS'seller'
p8
(lp9
sS'description_links'
p10
Vrgg1003- Tip of Nose to Base of Tail: 69 inches- Tip of Nose to Rear Paw: 86 inches- From Front Paw to Front Paw: 74 inches- Prime Quality Fur: Semi-Heavy, Silky, Glossy- Brown in Color - Fall Bear (USA)- Double Felt Border with Padded Cloth backing- D-Rings for Hanging
p11
sS'images'
p12
(lp13
Vhttp://www.glacierwear.com/media/catalog/product/cache/1/thumbnail/500x/17f82f742ffe127f42dca9de82fb58b1/1/0/1003.jpg
p14
asS'shipping_info'
p15
VFree Shipping on $100.00+
p16
sS'id'
p17
Vrgg1003_1497050182
p18
s.