(dp1
S'title'
p2
Vinuit eskimo soapstone carving narwhal artist adamee alariaq
p3
sS'url'
p4
S'http://www.ebay.com/itm/Inuit-Eskimo-Soapstone-Carving-Narwhal-Artist-Adamee-Alariaq-/152563622669?hash=item238580230d:g:uQcAAOSwurZZKkks'
p5
sS'price'
p6
VUS $199.99
p7
sS'seller'
p8
(dp9
g4
Vhttp://www.ebay.com/usr/paxanwolf?_trksid=p2047675.l2559
p10
sS'name'
p11
V paxanwolf
p12
ssS'description_links'
p13
(lp14
Vhttp://vi.vipr.ebaydesc.com/ws/eBayISAPI.dll?ViewItemDescV4&item=152563622669&t=0&tid=10&category=179530&seller=paxanwolf&excSoj=1&excTrk=1&lsite=0&ittenable=false&domain=ebay.com&descgauge=1
p15
asS'images'
p16
(lp17
(dp18
S'maxImageUrl'
p19
Vhttp://i.ebayimg.com/images/g/uQcAAOSwurZZKkks/s-l1600.jpg
p20
sS'displayImgUrl'
p21
Vhttp://i.ebayimg.com/images/g/uQcAAOSwurZZKkks/s-l300.jpg
p22
sa(dp23
g19
Vhttp://i.ebayimg.com/images/g/pSIAAOSwJH1ZKkkw/s-l1600.jpg
p24
sg21
Vhttp://i.ebayimg.com/images/g/pSIAAOSwJH1ZKkkw/s-l300.jpg
p25
sa(dp26
g19
Vhttp://i.ebayimg.com/images/g/ZMEAAOSwjqVZKkk2/s-l1600.jpg
p27
sg21
Vhttp://i.ebayimg.com/images/g/ZMEAAOSwjqVZKkk2/s-l300.jpg
p28
sa(dp29
g19
Vhttp://i.ebayimg.com/images/g/SkQAAOSwEHpZKkk~/s-l1600.jpg
p30
sg21
Vhttp://i.ebayimg.com/images/g/SkQAAOSwEHpZKkk~/s-l300.jpg
p31
sa(dp32
g19
Vhttp://i.ebayimg.com/images/g/bLoAAOSwblZZKklF/s-l1600.jpg
p33
sg21
Vhttp://i.ebayimg.com/images/g/bLoAAOSwblZZKklF/s-l300.jpg
p34
sa(dp35
g19
Vhttp://i.ebayimg.com/images/g/ZfUAAOSwcgNZKklK/s-l1600.jpg
p36
sg21
Vhttp://i.ebayimg.com/images/g/ZfUAAOSwcgNZKklK/s-l300.jpg
p37
sa(dp38
g19
Vhttp://i.ebayimg.com/images/g/gAcAAOSwY3BZKklQ/s-l1600.jpg
p39
sg21
Vhttp://i.ebayimg.com/images/g/gAcAAOSwY3BZKklQ/s-l300.jpg
p40
sa(dp41
g19
Vhttp://i.ebayimg.com/images/g/OvwAAOSws5pZKkla/s-l1600.jpg
p42
sg21
Vhttp://i.ebayimg.com/images/g/OvwAAOSws5pZKkla/s-l300.jpg
p43
sasS'shipping_info'
p44
(dp45
S'item_location'
p46
(lp47
V\u000aDes Plaines, Illinois, United States
p48
asS'delivery'
p49
(lp50
VVaries
p51
asS'posts_to'
p52
(lp53
VWorldwide
p54
assS'id'
p55
S'152563622669'
p56
s.