(dp1
S'title'
p2
VUS NAVY SS-17 USS D-1 NARWHAL D-1 Class Submarine Military Patch CIRCA 1920s
p3
sS'url'
p4
Vhttp://www.ecrater.com/p/19214875/us-navy-ss-17-uss-d-1-narwhal?keywords=narwhal
p5
sS'price'
p6
V$11.99
p7
sS'seller'
p8
Vhttp://tlcraftsnsons.ecrater.com
p9
sS'description_links'
p10
VClick Here. Double your traffic. Get Vendio Gallery - Now FREE!This product is for ONE United States NAVYUSS D-1 NARWHAL D-1 CLASS SUBMARINESS-17Military Patch CIRCA 1920s REPLICASIZE: 5" X 3"USS D-1 (SS-17) was the lead ship of theD-class submarines of the United States Navy. Her keel was laid down by Fore River Shipbuilding Company in Quincy, Massachusetts, under a subcontract from Electric Boat Company of Groton, Connecticut, as Narwhal, making her the first ship of the United States Navy to be named for the narwhal, a gray and white arctic whale which averages 20 feet in length, the male of which has a long, twisted ivory tusk of commercial value. Narwhal was launched on 8 April 1909 sponsored by Mrs. G. C. Davison, and commissioned on 23 November 1909 with Lieutenant J. C. Townsend in command. On 15 July 1921, she was placed in commission, in ordinary. She was towed to Philadelphia Navy Yard arriving on 30 January 1922. Decommissioned on 8 February, her hulk was sold on 5 June.This is a TOP QUALITY Embroidered PatchBrand NEW, well detailed, and a great collectors pieceNevada buyers to pay 7.725% Sales TaxCome check out our eCRATER  or online atdiscounttoolguy.comIf we ain't got it........it ain't made!!!Be sure to add me to your favorites list!SHIPPINGWe ship First Class Mail, USPS. Product normally ships same day as purchase unless done so on a Weekend or Holiday. Payment must be made in 5 days to avoid an unpaid buyer claim.INTERNATIONAL BUYERS:There is a $2.00 S/H Charge for the first patch purchased. We do combine shipping on multiple purchases.Buyer must e-mail for combined shipping invoice before paying. Item(s) must be paid within 1 day of receiving invoice.All Regulations, Duties, Taxes, Cross Border Fees, Etc...are the responsibility of the Buyer with their respective Country. We do not know and cannot advise on any country's additional costs.SHIPPING ESTIMATED TIMEWe will promptly prepare and turn your items over to USPS for shipment. Please remember when leaving feedback that once accepted into the USPS Postal System we have ABSOLUTELY NO CONTROL over time in transit. Please rate our eCRATER shipping time by how quickly we prepared and turned your order over to the United States Postal Service, not on how long it took both our country's customs and postal systems to deliver it to you. USPS shipping time guesstimate 4-10 Business Days (Possibly 2-3 Weeks, and occasionally even longer). Shipping Time Varies By Destination.lm3vhp,RcmdId ViewItemDescV4,RlogId p4%60bo7%60jtb9%3Fuk%601d72f%2Bjw%60%3Elm3vhp-142eb43ab7f-0xf2-->
p11
sS'images'
p12
(lp13
Vhttp://s.ecrater.com/stores/320129/52ad30c5e4fba_320129b.jpg
p14
asS'shipping_info'
p15
(lp16
VOnly 1 available
p17
aVShipping:US-Mainland: free(more destinations)
p18
aVCondition: Used
p19
asS'id'
p20
V19214875
p21
s.