(dp1
S'title'
p2
VFlying Whale Narwhal w/ Wings in Clouds - FITS iPhone 5 5s Plastic Snap On Case
p3
sS'url'
p4
Vhttp://www.ecrater.com/p/20520876/flying-whale-narwhal-w-wings-in-clouds?keywords=narwhal
p5
sS'price'
p6
V$14.99
p7
sS'seller'
p8
Vhttp://gottagift83.ecrater.com
p9
sS'description_links'
p10
VFITS IPHONE 5 AND 5SOfficially Licensed by JMD ArtMeasures 4.87" x 2.37", Hard plastic, durable and lightweight.Protects edges and back of phone from bumps and scratchesCompatible with iPhone 5 / 5S universal Sprint - AT&T - Verizon
p11
sS'images'
p12
(lp13
Vhttp://s.ecrater.com/stores/307676/5402d1cec5ff9_307676b.jpg
p14
asS'shipping_info'
p15
(lp16
VOnly 1 available
p17
aVShipping:US-Mainland: free(more destinations)
p18
aVCondition: Used
p19
asS'id'
p20
V20520876
p21
s.