(dp1
S'title'
p2
Vfifth wheel arctic wolf 265dbh8 rv camper new and used travel trailers for sale
p3
sS'url'
p4
S'http://www.ebay.com/itm/Fifth-Wheel-Arctic-Wolf-265DBH8-RV-Camper-New-and-Used-Travel-Trailers-For-Sale-/132174406585?hash=item1ec63563b9:g:RSMAAOSwuMZZA4Ru&vxp=mtr'
p5
sS'price'
p6
VUS $29,999.00
p7
sS'seller'
p8
(dp9
g4
Vhttp://www.ebay.com/usr/rvsworldwide?_trksid=p2047675.l2559
p10
sS'name'
p11
V rvsworldwide
p12
ssS'description_links'
p13
(lp14
Vhttp://vi.vipr.ebaydesc.com/ws/eBayISAPI.dll?ViewItemDescV4&item=132174406585&t=0&tid=10&category=50062&seller=rvsworldwide&excSoj=1&excTrk=1&lsite=100&ittenable=false&domain=ebay.com&descgauge=1
p15
asS'images'
p16
(lp17
(dp18
S'maxImageUrl'
p19
Vhttp://i.ebayimg.com/images/g/RSMAAOSwuMZZA4Ru/s-l1600.jpg
p20
sS'displayImgUrl'
p21
Vhttp://i.ebayimg.com/images/g/RSMAAOSwuMZZA4Ru/s-l300.jpg
p22
sa(dp23
g19
Vhttp://i.ebayimg.com/images/g/V6sAAOSwX61ZA4Rv/s-l1600.png
p24
sg21
Vhttp://i.ebayimg.com/images/g/V6sAAOSwX61ZA4Rv/s-l300.png
p25
sa(dp26
g19
Vhttp://i.ebayimg.com/images/g/97QAAOSw42dZA4Ru/s-l1600.jpg
p27
sg21
Vhttp://i.ebayimg.com/images/g/97QAAOSw42dZA4Ru/s-l300.jpg
p28
sa(dp29
g19
Vhttp://i.ebayimg.com/images/g/okgAAOSwlndZA4Ru/s-l1600.jpg
p30
sg21
Vhttp://i.ebayimg.com/images/g/okgAAOSwlndZA4Ru/s-l300.jpg
p31
sa(dp32
g19
Vhttp://i.ebayimg.com/images/g/974AAOSw42dZA4Ru/s-l1600.jpg
p33
sg21
Vhttp://i.ebayimg.com/images/g/974AAOSw42dZA4Ru/s-l300.jpg
p34
sa(dp35
g19
Vhttp://i.ebayimg.com/images/g/dnYAAOSwjqVZA4Ru/s-l1600.jpg
p36
sg21
Vhttp://i.ebayimg.com/images/g/dnYAAOSwjqVZA4Ru/s-l300.jpg
p37
sa(dp38
g19
Vhttp://i.ebayimg.com/images/g/CsgAAOSwrhBZA4Ru/s-l1600.jpg
p39
sg21
Vhttp://i.ebayimg.com/images/g/CsgAAOSwrhBZA4Ru/s-l300.jpg
p40
sa(dp41
g19
Vhttp://i.ebayimg.com/images/g/98AAAOSw42dZA4Rv/s-l1600.jpg
p42
sg21
Vhttp://i.ebayimg.com/images/g/98AAAOSw42dZA4Rv/s-l300.jpg
p43
sa(dp44
g19
Vhttp://i.ebayimg.com/images/g/CsQAAOSwrhBZA4Ru/s-l1600.jpg
p45
sg21
Vhttp://i.ebayimg.com/images/g/CsQAAOSwrhBZA4Ru/s-l300.jpg
p46
sa(dp47
g19
Vhttp://i.ebayimg.com/images/g/p-UAAOSwCQZZA4Ru/s-l1600.jpg
p48
sg21
Vhttp://i.ebayimg.com/images/g/p-UAAOSwCQZZA4Ru/s-l300.jpg
p49
sa(dp50
g19
Vhttp://i.ebayimg.com/images/g/MVoAAOSwt0FZA4Rv/s-l1600.jpg
p51
sg21
Vhttp://i.ebayimg.com/images/g/MVoAAOSwt0FZA4Rv/s-l300.jpg
p52
sa(dp53
g19
Vhttp://i.ebayimg.com/images/g/Xf8AAOSw42JZA4Ru/s-l1600.jpg
p54
sg21
Vhttp://i.ebayimg.com/images/g/Xf8AAOSw42JZA4Ru/s-l300.jpg
p55
sa(dp56
g19
Vhttp://i.ebayimg.com/images/g/97YAAOSw42dZA4Ru/s-l1600.jpg
p57
sg21
Vhttp://i.ebayimg.com/images/g/97YAAOSw42dZA4Ru/s-l300.jpg
p58
sa(dp59
g19
Vhttp://i.ebayimg.com/images/g/970AAOSw42dZA4Ru/s-l1600.jpg
p60
sg21
Vhttp://i.ebayimg.com/images/g/970AAOSw42dZA4Ru/s-l300.jpg
p61
sa(dp62
g19
Vhttp://i.ebayimg.com/images/g/MUwAAOSwt0FZA4Ru/s-l1600.jpg
p63
sg21
Vhttp://i.ebayimg.com/images/g/MUwAAOSwt0FZA4Ru/s-l300.jpg
p64
sa(dp65
g19
Vhttp://i.ebayimg.com/images/g/b-QAAOSwdjNZA4Ru/s-l1600.jpg
p66
sg21
Vhttp://i.ebayimg.com/images/g/b-QAAOSwdjNZA4Ru/s-l300.jpg
p67
sa(dp68
g19
Vhttp://i.ebayimg.com/images/g/dngAAOSwjqVZA4Ru/s-l1600.jpg
p69
sg21
Vhttp://i.ebayimg.com/images/g/dngAAOSwjqVZA4Ru/s-l300.jpg
p70
sa(dp71
g19
Vhttp://i.ebayimg.com/images/g/cFAAAOSw-3FZA4Ru/s-l1600.jpg
p72
sg21
Vhttp://i.ebayimg.com/images/g/cFAAAOSw-3FZA4Ru/s-l300.jpg
p73
sa(dp74
g19
Vhttp://i.ebayimg.com/images/g/97IAAOSw42dZA4Ru/s-l1600.jpg
p75
sg21
Vhttp://i.ebayimg.com/images/g/97IAAOSw42dZA4Ru/s-l300.jpg
p76
sa(dp77
g19
Vhttp://i.ebayimg.com/images/g/GkAAAOSwhvFZA4Ru/s-l1600.jpg
p78
sg21
Vhttp://i.ebayimg.com/images/g/GkAAAOSwhvFZA4Ru/s-l300.jpg
p79
sa(dp80
g19
Vhttp://i.ebayimg.com/images/g/b-MAAOSwdjNZA4Ru/s-l1600.jpg
p81
sg21
Vhttp://i.ebayimg.com/images/g/b-MAAOSwdjNZA4Ru/s-l300.jpg
p82
sa(dp83
g19
Vhttp://i.ebayimg.com/images/g/CroAAOSwrhBZA4Ru/s-l1600.jpg
p84
sg21
Vhttp://i.ebayimg.com/images/g/CroAAOSwrhBZA4Ru/s-l300.jpg
p85
sa(dp86
g19
Vhttp://i.ebayimg.com/images/g/97sAAOSw42dZA4Ru/s-l1600.jpg
p87
sg21
Vhttp://i.ebayimg.com/images/g/97sAAOSw42dZA4Ru/s-l300.jpg
p88
sa(dp89
g19
Vhttp://i.ebayimg.com/images/g/RRsAAOSwuMZZA4Ru/s-l1600.jpg
p90
sg21
Vhttp://i.ebayimg.com/images/g/RRsAAOSwuMZZA4Ru/s-l300.jpg
p91
sasS'shipping_info'
p92
(dp93
S'item_location'
p94
(lp95
sS'delivery'
p96
(lp97
sS'posts_to'
p98
(lp99
VLocal pick-up only
p100
assS'id'
p101
S'132174406585'
p102
s.