(dp1
S'title'
p2
Vtoy hauler grey wolf 22rr rv camper - new and used fifth wheels for sale
p3
sS'url'
p4
S'http://www.ebay.com/itm/Toy-Hauler-Grey-Wolf-22RR-RV-Camper-New-and-Used-Fifth-Wheels-For-Sale-/132158118858?hash=item1ec53cdbca:g:BKUAAOSwc49Y74xi&vxp=mtr'
p5
sS'price'
p6
VUS $16,301.00
p7
sS'seller'
p8
(dp9
g4
Vhttp://www.ebay.com/usr/rvsworldwide?_trksid=p2047675.l2559
p10
sS'name'
p11
V rvsworldwide
p12
ssS'description_links'
p13
(lp14
Vhttp://vi.vipr.ebaydesc.com/ws/eBayISAPI.dll?ViewItemDescV4&item=132158118858&t=0&tid=10&category=50063&seller=rvsworldwide&excSoj=1&excTrk=1&lsite=100&ittenable=false&domain=ebay.com&descgauge=1
p15
asS'images'
p16
(lp17
(dp18
S'maxImageUrl'
p19
Vhttp://i.ebayimg.com/images/g/BKUAAOSwc49Y74xi/s-l1600.jpg
p20
sS'displayImgUrl'
p21
Vhttp://i.ebayimg.com/images/g/BKUAAOSwc49Y74xi/s-l300.jpg
p22
sa(dp23
g19
Vhttp://i.ebayimg.com/images/g/dn8AAOSwrddY74xj/s-l1600.png
p24
sg21
Vhttp://i.ebayimg.com/images/g/dn8AAOSwrddY74xj/s-l300.png
p25
sa(dp26
g19
Vhttp://i.ebayimg.com/images/g/oLwAAOSwpP9Y74xj/s-l1600.jpg
p27
sg21
Vhttp://i.ebayimg.com/images/g/oLwAAOSwpP9Y74xj/s-l300.jpg
p28
sa(dp29
g19
Vhttp://i.ebayimg.com/images/g/JBMAAOSw03lY74xj/s-l1600.jpg
p30
sg21
Vhttp://i.ebayimg.com/images/g/JBMAAOSw03lY74xj/s-l300.jpg
p31
sa(dp32
g19
Vhttp://i.ebayimg.com/images/g/DkQAAOSwZeVY74xk/s-l1600.jpg
p33
sg21
Vhttp://i.ebayimg.com/images/g/DkQAAOSwZeVY74xk/s-l300.jpg
p34
sa(dp35
g19
Vhttp://i.ebayimg.com/images/g/26gAAOSw3utY74xj/s-l1600.jpg
p36
sg21
Vhttp://i.ebayimg.com/images/g/26gAAOSw3utY74xj/s-l300.jpg
p37
sa(dp38
g19
Vhttp://i.ebayimg.com/images/g/uxgAAOSwAANY74xk/s-l1600.jpg
p39
sg21
Vhttp://i.ebayimg.com/images/g/uxgAAOSwAANY74xk/s-l300.jpg
p40
sa(dp41
g19
Vhttp://i.ebayimg.com/images/g/VZoAAOSwmgJY74xj/s-l1600.jpg
p42
sg21
Vhttp://i.ebayimg.com/images/g/VZoAAOSwmgJY74xj/s-l300.jpg
p43
sa(dp44
g19
Vhttp://i.ebayimg.com/images/g/L5cAAOSwls5Y74xk/s-l1600.jpg
p45
sg21
Vhttp://i.ebayimg.com/images/g/L5cAAOSwls5Y74xk/s-l300.jpg
p46
sa(dp47
g19
Vhttp://i.ebayimg.com/images/g/zDMAAOSwnF9Y74xk/s-l1600.jpg
p48
sg21
Vhttp://i.ebayimg.com/images/g/zDMAAOSwnF9Y74xk/s-l300.jpg
p49
sa(dp50
g19
Vhttp://i.ebayimg.com/images/g/FZAAAOSwTM5Y74xj/s-l1600.jpg
p51
sg21
Vhttp://i.ebayimg.com/images/g/FZAAAOSwTM5Y74xj/s-l300.jpg
p52
sa(dp53
g19
Vhttp://i.ebayimg.com/images/g/BPIAAOSwc49Y74xk/s-l1600.jpg
p54
sg21
Vhttp://i.ebayimg.com/images/g/BPIAAOSwc49Y74xk/s-l300.jpg
p55
sa(dp56
g19
Vhttp://i.ebayimg.com/images/g/f6kAAOSwU8hY74xj/s-l1600.jpg
p57
sg21
Vhttp://i.ebayimg.com/images/g/f6kAAOSwU8hY74xj/s-l300.jpg
p58
sa(dp59
g19
Vhttp://i.ebayimg.com/images/g/DlYAAOSwZeVY74xk/s-l1600.jpg
p60
sg21
Vhttp://i.ebayimg.com/images/g/DlYAAOSwZeVY74xk/s-l300.jpg
p61
sa(dp62
g19
Vhttp://i.ebayimg.com/images/g/BVIAAOSwc49Y74xm/s-l1600.jpg
p63
sg21
Vhttp://i.ebayimg.com/images/g/BVIAAOSwc49Y74xm/s-l300.jpg
p64
sa(dp65
g19
Vhttp://i.ebayimg.com/images/g/3F8AAOSwc-tY74xk/s-l1600.jpg
p66
sg21
Vhttp://i.ebayimg.com/images/g/3F8AAOSwc-tY74xk/s-l300.jpg
p67
sa(dp68
g19
Vhttp://i.ebayimg.com/images/g/zFMAAOSwnF9Y74xk/s-l1600.jpg
p69
sg21
Vhttp://i.ebayimg.com/images/g/zFMAAOSwnF9Y74xk/s-l300.jpg
p70
sa(dp71
g19
Vhttp://i.ebayimg.com/images/g/2~QAAOSw3utY74xk/s-l1600.jpg
p72
sg21
Vhttp://i.ebayimg.com/images/g/2~QAAOSw3utY74xk/s-l300.jpg
p73
sa(dp74
g19
Vhttp://i.ebayimg.com/images/g/L8sAAOSwls5Y74xl/s-l1600.jpg
p75
sg21
Vhttp://i.ebayimg.com/images/g/L8sAAOSwls5Y74xl/s-l300.jpg
p76
sa(dp77
g19
Vhttp://i.ebayimg.com/images/g/LNMAAOSw~CFY74xl/s-l1600.jpg
p78
sg21
Vhttp://i.ebayimg.com/images/g/LNMAAOSw~CFY74xl/s-l300.jpg
p79
sa(dp80
g19
Vhttp://i.ebayimg.com/images/g/4wQAAOSww3tY74xl/s-l1600.jpg
p81
sg21
Vhttp://i.ebayimg.com/images/g/4wQAAOSww3tY74xl/s-l300.jpg
p82
sa(dp83
g19
Vhttp://i.ebayimg.com/images/g/bNMAAOSwpkFY74xl/s-l1600.jpg
p84
sg21
Vhttp://i.ebayimg.com/images/g/bNMAAOSwpkFY74xl/s-l300.jpg
p85
sa(dp86
g19
Vhttp://i.ebayimg.com/images/g/VegAAOSwmgJY74xl/s-l1600.jpg
p87
sg21
Vhttp://i.ebayimg.com/images/g/VegAAOSwmgJY74xl/s-l300.jpg
p88
sa(dp89
g19
Vhttp://i.ebayimg.com/images/g/bOQAAOSwpkFY74xl/s-l1600.jpg
p90
sg21
Vhttp://i.ebayimg.com/images/g/bOQAAOSwpkFY74xl/s-l300.jpg
p91
sasS'shipping_info'
p92
(dp93
S'item_location'
p94
(lp95
sS'delivery'
p96
(lp97
sS'posts_to'
p98
(lp99
VLocal pick-up only
p100
assS'id'
p101
S'132158118858'
p102
s.