(dp1
S'title'
p2
Vtoy hauler grey wolf 19rr rv camper - new and used fifth wheels for sale
p3
sS'url'
p4
S'http://www.ebay.com/itm/Toy-Hauler-Grey-Wolf-19RR-RV-Camper-New-and-Used-Fifth-Wheels-For-Sale-/132158114699?hash=item1ec53ccb8b:g:fAgAAOSwnF9Y74qz&vxp=mtr'
p5
sS'price'
p6
VUS $15,118.00
p7
sS'seller'
p8
(dp9
g4
Vhttp://www.ebay.com/usr/rvsworldwide?_trksid=p2047675.l2559
p10
sS'name'
p11
V rvsworldwide
p12
ssS'description_links'
p13
(lp14
Vhttp://vi.vipr.ebaydesc.com/ws/eBayISAPI.dll?ViewItemDescV4&item=132158114699&t=0&tid=10&category=50063&seller=rvsworldwide&excSoj=1&excTrk=1&lsite=100&ittenable=false&domain=ebay.com&descgauge=1
p15
asS'images'
p16
(lp17
(dp18
S'maxImageUrl'
p19
Vhttp://i.ebayimg.com/images/g/fAgAAOSwnF9Y74qz/s-l1600.jpg
p20
sS'displayImgUrl'
p21
Vhttp://i.ebayimg.com/images/g/fAgAAOSwnF9Y74qz/s-l300.jpg
p22
sa(dp23
g19
Vhttp://i.ebayimg.com/images/g/49kAAOSwls5Y74q0/s-l1600.png
p24
sg21
Vhttp://i.ebayimg.com/images/g/49kAAOSwls5Y74q0/s-l300.png
p25
sa(dp26
g19
Vhttp://i.ebayimg.com/images/g/vWAAAOSwZeVY74q0/s-l1600.jpg
p27
sg21
Vhttp://i.ebayimg.com/images/g/vWAAAOSwZeVY74q0/s-l300.jpg
p28
sa(dp29
g19
Vhttp://i.ebayimg.com/images/g/mWAAAOSww3tY74q0/s-l1600.jpg
p30
sg21
Vhttp://i.ebayimg.com/images/g/mWAAAOSww3tY74q0/s-l300.jpg
p31
sa(dp32
g19
Vhttp://i.ebayimg.com/images/g/A3cAAOSwmgJY74q0/s-l1600.jpg
p33
sg21
Vhttp://i.ebayimg.com/images/g/A3cAAOSwmgJY74q0/s-l300.jpg
p34
sa(dp35
g19
Vhttp://i.ebayimg.com/images/g/b1IAAOSwAANY74q0/s-l1600.jpg
p36
sg21
Vhttp://i.ebayimg.com/images/g/b1IAAOSwAANY74q0/s-l300.jpg
p37
sa(dp38
g19
Vhttp://i.ebayimg.com/images/g/A2IAAOSwmgJY74q0/s-l1600.jpg
p39
sg21
Vhttp://i.ebayimg.com/images/g/A2IAAOSwmgJY74q0/s-l300.jpg
p40
sa(dp41
g19
Vhttp://i.ebayimg.com/images/g/fF4AAOSwnF9Y74q1/s-l1600.jpg
p42
sg21
Vhttp://i.ebayimg.com/images/g/fF4AAOSwnF9Y74q1/s-l300.jpg
p43
sa(dp44
g19
Vhttp://i.ebayimg.com/images/g/uecAAOSwc49Y74q1/s-l1600.jpg
p45
sg21
Vhttp://i.ebayimg.com/images/g/uecAAOSwc49Y74q1/s-l300.jpg
p46
sa(dp47
g19
Vhttp://i.ebayimg.com/images/g/kaYAAOSw3utY74q1/s-l1600.jpg
p48
sg21
Vhttp://i.ebayimg.com/images/g/kaYAAOSw3utY74q1/s-l300.jpg
p49
sa(dp50
g19
Vhttp://i.ebayimg.com/images/g/zLEAAOSwTM5Y74q1/s-l1600.jpg
p51
sg21
Vhttp://i.ebayimg.com/images/g/zLEAAOSwTM5Y74q1/s-l300.jpg
p52
sa(dp53
g19
Vhttp://i.ebayimg.com/images/g/maQAAOSww3tY74q1/s-l1600.jpg
p54
sg21
Vhttp://i.ebayimg.com/images/g/maQAAOSww3tY74q1/s-l300.jpg
p55
sa(dp56
g19
Vhttp://i.ebayimg.com/images/g/ud0AAOSwc49Y74q1/s-l1600.jpg
p57
sg21
Vhttp://i.ebayimg.com/images/g/ud0AAOSwc49Y74q1/s-l300.jpg
p58
sa(dp59
g19
Vhttp://i.ebayimg.com/images/g/ue0AAOSwc49Y74q1/s-l1600.jpg
p60
sg21
Vhttp://i.ebayimg.com/images/g/ue0AAOSwc49Y74q1/s-l300.jpg
p61
sa(dp62
g19
Vhttp://i.ebayimg.com/images/g/zLoAAOSwTM5Y74q1/s-l1600.jpg
p63
sg21
Vhttp://i.ebayimg.com/images/g/zLoAAOSwTM5Y74q1/s-l300.jpg
p64
sa(dp65
g19
Vhttp://i.ebayimg.com/images/g/1goAAOSw03lY74q2/s-l1600.jpg
p66
sg21
Vhttp://i.ebayimg.com/images/g/1goAAOSw03lY74q2/s-l300.jpg
p67
sa(dp68
g19
Vhttp://i.ebayimg.com/images/g/vboAAOSwZeVY74q2/s-l1600.jpg
p69
sg21
Vhttp://i.ebayimg.com/images/g/vboAAOSwZeVY74q2/s-l300.jpg
p70
sa(dp71
g19
Vhttp://i.ebayimg.com/images/g/IiMAAOSwpkFY74q2/s-l1600.jpg
p72
sg21
Vhttp://i.ebayimg.com/images/g/IiMAAOSwpkFY74q2/s-l300.jpg
p73
sa(dp74
g19
Vhttp://i.ebayimg.com/images/g/A8kAAOSwmgJY74q2/s-l1600.jpg
p75
sg21
Vhttp://i.ebayimg.com/images/g/A8kAAOSwmgJY74q2/s-l300.jpg
p76
sa(dp77
g19
Vhttp://i.ebayimg.com/images/g/fHkAAOSwnF9Y74q2/s-l1600.jpg
p78
sg21
Vhttp://i.ebayimg.com/images/g/fHkAAOSwnF9Y74q2/s-l300.jpg
p79
sasS'shipping_info'
p80
(dp81
S'item_location'
p82
(lp83
sS'delivery'
p84
(lp85
sS'posts_to'
p86
(lp87
VLocal pick-up only
p88
assS'id'
p89
S'132158114699'
p90
s.