(dp1
S'title'
p2
Vnew 2017 grey wolf 22rr travel trailer bunkhouse - 8989
p3
sS'url'
p4
S'http://www.ebay.com/itm/New-2017-Grey-Wolf-22RR-Travel-Trailer-Bunkhouse-8989-/142274458557?hash=item212037f3bd:g:UvkAAOSw4CFYnc-t&vxp=mtr'
p5
sS'price'
p6
VUS $16,833.00
p7
sS'seller'
p8
(dp9
g4
Vhttp://www.ebay.com/usr/rvsworldwide?_trksid=p2047675.l2559
p10
sS'name'
p11
V rvsworldwide
p12
ssS'description_links'
p13
(lp14
Vhttp://vi.vipr.ebaydesc.com/ws/eBayISAPI.dll?ViewItemDescV4&item=142274458557&t=0&tid=10&category=50063&seller=rvsworldwide&excSoj=1&excTrk=1&lsite=100&ittenable=false&domain=ebay.com&descgauge=1
p15
asS'images'
p16
(lp17
(dp18
S'maxImageUrl'
p19
Vhttp://i.ebayimg.com/images/g/UvkAAOSw4CFYnc-t/s-l1600.jpg
p20
sS'displayImgUrl'
p21
Vhttp://i.ebayimg.com/images/g/UvkAAOSw4CFYnc-t/s-l300.jpg
p22
sa(dp23
g19
Vhttp://i.ebayimg.com/images/g/r5sAAOSwr~lYnc-u/s-l1600.png
p24
sg21
Vhttp://i.ebayimg.com/images/g/r5sAAOSwr~lYnc-u/s-l300.png
p25
sa(dp26
g19
Vhttp://i.ebayimg.com/images/g/r4MAAOSwr~lYnc-t/s-l1600.jpg
p27
sg21
Vhttp://i.ebayimg.com/images/g/r4MAAOSwr~lYnc-t/s-l300.jpg
p28
sa(dp29
g19
Vhttp://i.ebayimg.com/images/g/V7kAAOSwax5Ync-t/s-l1600.jpg
p30
sg21
Vhttp://i.ebayimg.com/images/g/V7kAAOSwax5Ync-t/s-l300.jpg
p31
sa(dp32
g19
Vhttp://i.ebayimg.com/images/g/7fAAAOSw32lYnc-t/s-l1600.jpg
p33
sg21
Vhttp://i.ebayimg.com/images/g/7fAAAOSw32lYnc-t/s-l300.jpg
p34
sa(dp35
g19
Vhttp://i.ebayimg.com/images/g/ouAAAOSwWxNYnc-t/s-l1600.jpg
p36
sg21
Vhttp://i.ebayimg.com/images/g/ouAAAOSwWxNYnc-t/s-l300.jpg
p37
sa(dp38
g19
Vhttp://i.ebayimg.com/images/g/mcQAAOSwdGFYnc-u/s-l1600.jpg
p39
sg21
Vhttp://i.ebayimg.com/images/g/mcQAAOSwdGFYnc-u/s-l300.jpg
p40
sa(dp41
g19
Vhttp://i.ebayimg.com/images/g/a~gAAOSwCU1Ync-t/s-l1600.jpg
p42
sg21
Vhttp://i.ebayimg.com/images/g/a~gAAOSwCU1Ync-t/s-l300.jpg
p43
sa(dp44
g19
Vhttp://i.ebayimg.com/images/g/V0MAAOSwtfhYnc-t/s-l1600.jpg
p45
sg21
Vhttp://i.ebayimg.com/images/g/V0MAAOSwtfhYnc-t/s-l300.jpg
p46
sa(dp47
g19
Vhttp://i.ebayimg.com/images/g/XH0AAOSwfVpYnc-t/s-l1600.jpg
p48
sg21
Vhttp://i.ebayimg.com/images/g/XH0AAOSwfVpYnc-t/s-l300.jpg
p49
sa(dp50
g19
Vhttp://i.ebayimg.com/images/g/TNYAAOSwx6pYnc-t/s-l1600.jpg
p51
sg21
Vhttp://i.ebayimg.com/images/g/TNYAAOSwx6pYnc-t/s-l300.jpg
p52
sa(dp53
g19
Vhttp://i.ebayimg.com/images/g/mbUAAOSwdGFYnc-t/s-l1600.jpg
p54
sg21
Vhttp://i.ebayimg.com/images/g/mbUAAOSwdGFYnc-t/s-l300.jpg
p55
sa(dp56
g19
Vhttp://i.ebayimg.com/images/g/7e8AAOSw32lYnc-t/s-l1600.jpg
p57
sg21
Vhttp://i.ebayimg.com/images/g/7e8AAOSw32lYnc-t/s-l300.jpg
p58
sa(dp59
g19
Vhttp://i.ebayimg.com/images/g/7eAAAOSw32lYnc-t/s-l1600.jpg
p60
sg21
Vhttp://i.ebayimg.com/images/g/7eAAAOSw32lYnc-t/s-l300.jpg
p61
sa(dp62
g19
Vhttp://i.ebayimg.com/images/g/5TQAAOSwOgdYnc-t/s-l1600.jpg
p63
sg21
Vhttp://i.ebayimg.com/images/g/5TQAAOSwOgdYnc-t/s-l300.jpg
p64
sa(dp65
g19
Vhttp://i.ebayimg.com/images/g/r4IAAOSwr~lYnc-t/s-l1600.jpg
p66
sg21
Vhttp://i.ebayimg.com/images/g/r4IAAOSwr~lYnc-t/s-l300.jpg
p67
sa(dp68
g19
Vhttp://i.ebayimg.com/images/g/7ekAAOSw32lYnc-t/s-l1600.jpg
p69
sg21
Vhttp://i.ebayimg.com/images/g/7ekAAOSw32lYnc-t/s-l300.jpg
p70
sa(dp71
g19
Vhttp://i.ebayimg.com/images/g/UvUAAOSw4CFYnc-t/s-l1600.jpg
p72
sg21
Vhttp://i.ebayimg.com/images/g/UvUAAOSw4CFYnc-t/s-l300.jpg
p73
sa(dp74
g19
Vhttp://i.ebayimg.com/images/g/5T8AAOSwOgdYnc-t/s-l1600.jpg
p75
sg21
Vhttp://i.ebayimg.com/images/g/5T8AAOSwOgdYnc-t/s-l300.jpg
p76
sa(dp77
g19
Vhttp://i.ebayimg.com/images/g/aIkAAOSw3v5Ync-t/s-l1600.jpg
p78
sg21
Vhttp://i.ebayimg.com/images/g/aIkAAOSw3v5Ync-t/s-l300.jpg
p79
sa(dp80
g19
Vhttp://i.ebayimg.com/images/g/G20AAOSw2gxYnc-t/s-l1600.jpg
p81
sg21
Vhttp://i.ebayimg.com/images/g/G20AAOSw2gxYnc-t/s-l300.jpg
p82
sasS'shipping_info'
p83
(dp84
S'item_location'
p85
(lp86
sS'delivery'
p87
(lp88
sS'posts_to'
p89
(lp90
VLocal pick-up only
p91
assS'id'
p92
S'142274458557'
p93
s.