(dp1
S'title'
p2
Vnew 2017 arctic wolf 285drl4 5th wheel rear living - 0258
p3
sS'url'
p4
S'http://www.ebay.com/itm/New-2017-Arctic-Wolf-285DRL4-5th-Wheel-Rear-Living-0258-/142289748322?hash=item2121214162:g:NPgAAOSw32lYrvqx&vxp=mtr'
p5
sS'price'
p6
VUS $31,788.00
p7
sS'seller'
p8
(dp9
g4
Vhttp://www.ebay.com/usr/rvsworldwide?_trksid=p2047675.l2559
p10
sS'name'
p11
V rvsworldwide
p12
ssS'description_links'
p13
(lp14
Vhttp://vi.vipr.ebaydesc.com/ws/eBayISAPI.dll?ViewItemDescV4&item=142289748322&t=0&tid=10&category=50062&seller=rvsworldwide&excSoj=1&excTrk=1&lsite=100&ittenable=false&domain=ebay.com&descgauge=1
p15
asS'images'
p16
(lp17
(dp18
S'maxImageUrl'
p19
Vhttp://i.ebayimg.com/images/g/NPgAAOSw32lYrvqx/s-l1600.jpg
p20
sS'displayImgUrl'
p21
Vhttp://i.ebayimg.com/images/g/NPgAAOSw32lYrvqx/s-l300.jpg
p22
sa(dp23
g19
Vhttp://i.ebayimg.com/images/g/7xkAAOSw~AVYrvqx/s-l1600.png
p24
sg21
Vhttp://i.ebayimg.com/images/g/7xkAAOSw~AVYrvqx/s-l300.png
p25
sa(dp26
g19
Vhttp://i.ebayimg.com/images/g/IzUAAOSwfVpYrvqy/s-l1600.jpg
p27
sg21
Vhttp://i.ebayimg.com/images/g/IzUAAOSwfVpYrvqy/s-l300.jpg
p28
sa(dp29
g19
Vhttp://i.ebayimg.com/images/g/t7oAAOSw2gxYrvqw/s-l1600.jpg
p30
sg21
Vhttp://i.ebayimg.com/images/g/t7oAAOSw2gxYrvqw/s-l300.jpg
p31
sa(dp32
g19
Vhttp://i.ebayimg.com/images/g/IAkAAOSwTuJYrvqx/s-l1600.jpg
p33
sg21
Vhttp://i.ebayimg.com/images/g/IAkAAOSwTuJYrvqx/s-l300.jpg
p34
sa(dp35
g19
Vhttp://i.ebayimg.com/images/g/fBkAAOSwtfhYrvqw/s-l1600.jpg
p36
sg21
Vhttp://i.ebayimg.com/images/g/fBkAAOSwtfhYrvqw/s-l300.jpg
p37
sa(dp38
g19
Vhttp://i.ebayimg.com/images/g/mZ4AAOSwWxNYrvqw/s-l1600.jpg
p39
sg21
Vhttp://i.ebayimg.com/images/g/mZ4AAOSwWxNYrvqw/s-l300.jpg
p40
sa(dp41
g19
Vhttp://i.ebayimg.com/images/g/6FUAAOSwCU1Yrvqx/s-l1600.jpg
p42
sg21
Vhttp://i.ebayimg.com/images/g/6FUAAOSwCU1Yrvqx/s-l300.jpg
p43
sa(dp44
g19
Vhttp://i.ebayimg.com/images/g/IAQAAOSwTuJYrvqw/s-l1600.jpg
p45
sg21
Vhttp://i.ebayimg.com/images/g/IAQAAOSwTuJYrvqw/s-l300.jpg
p46
sa(dp47
g19
Vhttp://i.ebayimg.com/images/g/NM0AAOSw32lYrvqw/s-l1600.jpg
p48
sg21
Vhttp://i.ebayimg.com/images/g/NM0AAOSw32lYrvqw/s-l300.jpg
p49
sa(dp50
g19
Vhttp://i.ebayimg.com/images/g/IvYAAOSwfVpYrvqx/s-l1600.jpg
p51
sg21
Vhttp://i.ebayimg.com/images/g/IvYAAOSwfVpYrvqx/s-l300.jpg
p52
sa(dp53
g19
Vhttp://i.ebayimg.com/images/g/vJkAAOSwx6pYrvqw/s-l1600.jpg
p54
sg21
Vhttp://i.ebayimg.com/images/g/vJkAAOSwx6pYrvqw/s-l300.jpg
p55
sa(dp56
g19
Vhttp://i.ebayimg.com/images/g/NMsAAOSw32lYrvqw/s-l1600.jpg
p57
sg21
Vhttp://i.ebayimg.com/images/g/NMsAAOSw32lYrvqw/s-l300.jpg
p58
sa(dp59
g19
Vhttp://i.ebayimg.com/images/g/6DcAAOSwCU1Yrvqw/s-l1600.jpg
p60
sg21
Vhttp://i.ebayimg.com/images/g/6DcAAOSwCU1Yrvqw/s-l300.jpg
p61
sa(dp62
g19
Vhttp://i.ebayimg.com/images/g/XdIAAOSw4CFYrvqw/s-l1600.jpg
p63
sg21
Vhttp://i.ebayimg.com/images/g/XdIAAOSw4CFYrvqw/s-l300.jpg
p64
sa(dp65
g19
Vhttp://i.ebayimg.com/images/g/SkoAAOSw3v5Yrvqw/s-l1600.jpg
p66
sg21
Vhttp://i.ebayimg.com/images/g/SkoAAOSw3v5Yrvqw/s-l300.jpg
p67
sa(dp68
g19
Vhttp://i.ebayimg.com/images/g/pskAAOSwB-1Yrvqw/s-l1600.jpg
p69
sg21
Vhttp://i.ebayimg.com/images/g/pskAAOSwB-1Yrvqw/s-l300.jpg
p70
sa(dp71
g19
Vhttp://i.ebayimg.com/images/g/XcoAAOSw4CFYrvqw/s-l1600.jpg
p72
sg21
Vhttp://i.ebayimg.com/images/g/XcoAAOSw4CFYrvqw/s-l300.jpg
p73
sa(dp74
g19
Vhttp://i.ebayimg.com/images/g/t7cAAOSw2gxYrvqw/s-l1600.jpg
p75
sg21
Vhttp://i.ebayimg.com/images/g/t7cAAOSw2gxYrvqw/s-l300.jpg
p76
sa(dp77
g19
Vhttp://i.ebayimg.com/images/g/SkwAAOSw3v5Yrvqw/s-l1600.jpg
p78
sg21
Vhttp://i.ebayimg.com/images/g/SkwAAOSw3v5Yrvqw/s-l300.jpg
p79
sa(dp80
g19
Vhttp://i.ebayimg.com/images/g/7vkAAOSw~AVYrvqw/s-l1600.jpg
p81
sg21
Vhttp://i.ebayimg.com/images/g/7vkAAOSw~AVYrvqw/s-l300.jpg
p82
sasS'shipping_info'
p83
(dp84
S'item_location'
p85
(lp86
sS'delivery'
p87
(lp88
sS'posts_to'
p89
(lp90
VLocal pick-up only
p91
assS'id'
p92
S'142289748322'
p93
s.