(dp1
S'title'
p2
Vnew 2017 grey wolf 27dbs travel trailer bunkhouse - 2379
p3
sS'url'
p4
S'http://www.ebay.com/itm/New-2017-Grey-Wolf-27DBS-Travel-Trailer-Bunkhouse-2379-/142274499639?hash=item2120389437:g:2lQAAOSwfVpYndo7&vxp=mtr'
p5
sS'price'
p6
VUS $18,996.00
p7
sS'seller'
p8
(dp9
g4
Vhttp://www.ebay.com/usr/rvsworldwide?_trksid=p2047675.l2559
p10
sS'name'
p11
V rvsworldwide
p12
ssS'description_links'
p13
(lp14
Vhttp://vi.vipr.ebaydesc.com/ws/eBayISAPI.dll?ViewItemDescV4&item=142274499639&t=0&tid=10&category=50063&seller=rvsworldwide&excSoj=1&excTrk=1&lsite=100&ittenable=false&domain=ebay.com&descgauge=1
p15
asS'images'
p16
(lp17
(dp18
S'maxImageUrl'
p19
Vhttp://i.ebayimg.com/images/g/2lQAAOSwfVpYndo7/s-l1600.jpg
p20
sS'displayImgUrl'
p21
Vhttp://i.ebayimg.com/images/g/2lQAAOSwfVpYndo7/s-l300.jpg
p22
sa(dp23
g19
Vhttp://i.ebayimg.com/images/g/uL8AAOSw4A5Yndo7/s-l1600.png
p24
sg21
Vhttp://i.ebayimg.com/images/g/uL8AAOSw4A5Yndo7/s-l300.png
p25
sa(dp26
g19
Vhttp://i.ebayimg.com/images/g/xhEAAOSwdGFYndo6/s-l1600.jpg
p27
sg21
Vhttp://i.ebayimg.com/images/g/xhEAAOSwdGFYndo6/s-l300.jpg
p28
sa(dp29
g19
Vhttp://i.ebayimg.com/images/g/0NAAAOSwx6pYndo6/s-l1600.jpg
p30
sg21
Vhttp://i.ebayimg.com/images/g/0NAAAOSwx6pYndo6/s-l300.jpg
p31
sa(dp32
g19
Vhttp://i.ebayimg.com/images/g/L4gAAOSwB-1Yndo6/s-l1600.jpg
p33
sg21
Vhttp://i.ebayimg.com/images/g/L4gAAOSwB-1Yndo6/s-l300.jpg
p34
sa(dp35
g19
Vhttp://i.ebayimg.com/images/g/xhQAAOSwdGFYndo7/s-l1600.jpg
p36
sg21
Vhttp://i.ebayimg.com/images/g/xhQAAOSwdGFYndo7/s-l300.jpg
p37
sa(dp38
g19
Vhttp://i.ebayimg.com/images/g/2lAAAOSwfVpYndo6/s-l1600.jpg
p39
sg21
Vhttp://i.ebayimg.com/images/g/2lAAAOSwfVpYndo6/s-l300.jpg
p40
sa(dp41
g19
Vhttp://i.ebayimg.com/images/g/L44AAOSwB-1Yndo6/s-l1600.jpg
p42
sg21
Vhttp://i.ebayimg.com/images/g/L44AAOSwB-1Yndo6/s-l300.jpg
p43
sa(dp44
g19
Vhttp://i.ebayimg.com/images/g/1hMAAOSwTuJYndo6/s-l1600.jpg
p45
sg21
Vhttp://i.ebayimg.com/images/g/1hMAAOSwTuJYndo6/s-l300.jpg
p46
sa(dp47
g19
Vhttp://i.ebayimg.com/images/g/2k4AAOSwfVpYndo6/s-l1600.jpg
p48
sg21
Vhttp://i.ebayimg.com/images/g/2k4AAOSwfVpYndo6/s-l300.jpg
p49
sa(dp50
g19
Vhttp://i.ebayimg.com/images/g/0M4AAOSwx6pYndo6/s-l1600.jpg
p51
sg21
Vhttp://i.ebayimg.com/images/g/0M4AAOSwx6pYndo6/s-l300.jpg
p52
sa(dp53
g19
Vhttp://i.ebayimg.com/images/g/uLAAAOSw4A5Yndo6/s-l1600.jpg
p54
sg21
Vhttp://i.ebayimg.com/images/g/uLAAAOSw4A5Yndo6/s-l300.jpg
p55
sa(dp56
g19
Vhttp://i.ebayimg.com/images/g/JBgAAOSwWxNYndo6/s-l1600.jpg
p57
sg21
Vhttp://i.ebayimg.com/images/g/JBgAAOSwWxNYndo6/s-l300.jpg
p58
sa(dp59
g19
Vhttp://i.ebayimg.com/images/g/0M8AAOSwx6pYndo6/s-l1600.jpg
p60
sg21
Vhttp://i.ebayimg.com/images/g/0M8AAOSwx6pYndo6/s-l300.jpg
p61
sa(dp62
g19
Vhttp://i.ebayimg.com/images/g/988AAOSw4CFYndo6/s-l1600.jpg
p63
sg21
Vhttp://i.ebayimg.com/images/g/988AAOSw4CFYndo6/s-l300.jpg
p64
sa(dp65
g19
Vhttp://i.ebayimg.com/images/g/wQsAAOSw2gxYndo6/s-l1600.jpg
p66
sg21
Vhttp://i.ebayimg.com/images/g/wQsAAOSw2gxYndo6/s-l300.jpg
p67
sa(dp68
g19
Vhttp://i.ebayimg.com/images/g/JBwAAOSwWxNYndo6/s-l1600.jpg
p69
sg21
Vhttp://i.ebayimg.com/images/g/JBwAAOSwWxNYndo6/s-l300.jpg
p70
sa(dp71
g19
Vhttp://i.ebayimg.com/images/g/JBcAAOSwWxNYndo6/s-l1600.jpg
p72
sg21
Vhttp://i.ebayimg.com/images/g/JBcAAOSwWxNYndo6/s-l300.jpg
p73
sa(dp74
g19
Vhttp://i.ebayimg.com/images/g/O08AAOSwOgdYndo7/s-l1600.jpg
p75
sg21
Vhttp://i.ebayimg.com/images/g/O08AAOSwOgdYndo7/s-l300.jpg
p76
sa(dp77
g19
Vhttp://i.ebayimg.com/images/g/QCwAAOSw~AVYndo6/s-l1600.jpg
p78
sg21
Vhttp://i.ebayimg.com/images/g/QCwAAOSw~AVYndo6/s-l300.jpg
p79
sasS'shipping_info'
p80
(dp81
S'item_location'
p82
(lp83
sS'delivery'
p84
(lp85
sS'posts_to'
p86
(lp87
VLocal pick-up only
p88
assS'id'
p89
S'142274499639'
p90
s.