(dp1
S'title'
p2
Vnew 2017 grey wolf 26rr toy hauler full bath - 2467
p3
sS'url'
p4
S'http://www.ebay.com/itm/New-2017-Grey-Wolf-26RR-Toy-Hauler-Full-Bath-2467-/142287145825?hash=item2120f98b61:g:~F8AAOSwB-1YrGbL&vxp=mtr'
p5
sS'price'
p6
VUS $16,669.00
p7
sS'seller'
p8
(dp9
g4
Vhttp://www.ebay.com/usr/rvsworldwide?_trksid=p2047675.l2559
p10
sS'name'
p11
V rvsworldwide
p12
ssS'description_links'
p13
(lp14
Vhttp://vi.vipr.ebaydesc.com/ws/eBayISAPI.dll?ViewItemDescV4&item=142287145825&t=0&tid=10&category=50063&seller=rvsworldwide&excSoj=1&excTrk=1&lsite=100&ittenable=false&domain=ebay.com&descgauge=1
p15
asS'images'
p16
(lp17
(dp18
S'maxImageUrl'
p19
Vhttp://i.ebayimg.com/images/g/~F8AAOSwB-1YrGbL/s-l1600.jpg
p20
sS'displayImgUrl'
p21
Vhttp://i.ebayimg.com/images/g/~F8AAOSwB-1YrGbL/s-l300.jpg
p22
sa(dp23
g19
Vhttp://i.ebayimg.com/images/g/6CMAAOSw3v5YrGbL/s-l1600.png
p24
sg21
Vhttp://i.ebayimg.com/images/g/6CMAAOSw3v5YrGbL/s-l300.png
p25
sa(dp26
g19
Vhttp://i.ebayimg.com/images/g/XYsAAOSwOgdYrGbL/s-l1600.jpg
p27
sg21
Vhttp://i.ebayimg.com/images/g/XYsAAOSwOgdYrGbL/s-l300.jpg
p28
sa(dp29
g19
Vhttp://i.ebayimg.com/images/g/~A8AAOSwCU1YrGbL/s-l1600.jpg
p30
sg21
Vhttp://i.ebayimg.com/images/g/~A8AAOSwCU1YrGbL/s-l300.jpg
p31
sa(dp32
g19
Vhttp://i.ebayimg.com/images/g/lOcAAOSwtfhYrGbL/s-l1600.jpg
p33
sg21
Vhttp://i.ebayimg.com/images/g/lOcAAOSwtfhYrGbL/s-l300.jpg
p34
sa(dp35
g19
Vhttp://i.ebayimg.com/images/g/EqkAAOSw~AVYrGbL/s-l1600.jpg
p36
sg21
Vhttp://i.ebayimg.com/images/g/EqkAAOSw~AVYrGbL/s-l300.jpg
p37
sa(dp38
g19
Vhttp://i.ebayimg.com/images/g/6CIAAOSw3v5YrGbL/s-l1600.jpg
p39
sg21
Vhttp://i.ebayimg.com/images/g/6CIAAOSw3v5YrGbL/s-l300.jpg
p40
sa(dp41
g19
Vhttp://i.ebayimg.com/images/g/lNoAAOSwtfhYrGbL/s-l1600.jpg
p42
sg21
Vhttp://i.ebayimg.com/images/g/lNoAAOSwtfhYrGbL/s-l300.jpg
p43
sa(dp44
g19
Vhttp://i.ebayimg.com/images/g/pGEAAOSw32lYrGbL/s-l1600.jpg
p45
sg21
Vhttp://i.ebayimg.com/images/g/pGEAAOSw32lYrGbL/s-l300.jpg
p46
sa(dp47
g19
Vhttp://i.ebayimg.com/images/g/LxMAAOSwTuJYrGbL/s-l1600.jpg
p48
sg21
Vhttp://i.ebayimg.com/images/g/LxMAAOSwTuJYrGbL/s-l300.jpg
p49
sa(dp50
g19
Vhttp://i.ebayimg.com/images/g/3dwAAOSw2gxYrGbL/s-l1600.jpg
p51
sg21
Vhttp://i.ebayimg.com/images/g/3dwAAOSw2gxYrGbL/s-l300.jpg
p52
sa(dp53
g19
Vhttp://i.ebayimg.com/images/g/Eq8AAOSw~AVYrGbL/s-l1600.jpg
p54
sg21
Vhttp://i.ebayimg.com/images/g/Eq8AAOSw~AVYrGbL/s-l300.jpg
p55
sa(dp56
g19
Vhttp://i.ebayimg.com/images/g/JxIAAOSwx6pYrGbL/s-l1600.jpg
p57
sg21
Vhttp://i.ebayimg.com/images/g/JxIAAOSwx6pYrGbL/s-l300.jpg
p58
sa(dp59
g19
Vhttp://i.ebayimg.com/images/g/lOEAAOSwtfhYrGbL/s-l1600.jpg
p60
sg21
Vhttp://i.ebayimg.com/images/g/lOEAAOSwtfhYrGbL/s-l300.jpg
p61
sa(dp62
g19
Vhttp://i.ebayimg.com/images/g/vp0AAOSw4CFYrGbL/s-l1600.jpg
p63
sg21
Vhttp://i.ebayimg.com/images/g/vp0AAOSw4CFYrGbL/s-l300.jpg
p64
sa(dp65
g19
Vhttp://i.ebayimg.com/images/g/3coAAOSw2gxYrGbL/s-l1600.jpg
p66
sg21
Vhttp://i.ebayimg.com/images/g/3coAAOSw2gxYrGbL/s-l300.jpg
p67
sasS'shipping_info'
p68
(dp69
S'item_location'
p70
(lp71
sS'delivery'
p72
(lp73
sS'posts_to'
p74
(lp75
VLocal pick-up only
p76
assS'id'
p77
S'142287145825'
p78
s.