(dp1
S'title'
p2
Vnew 2017 grey wolf 27rr toy hauler rear garage - 2342
p3
sS'url'
p4
S'http://www.ebay.com/itm/New-2017-Grey-Wolf-27RR-Toy-Hauler-Rear-Garage-2342-/142274649676?hash=item21203ade4c:g:D8YAAOSw4CFYngZA&vxp=mtr'
p5
sS'price'
p6
VUS $18,549.00
p7
sS'seller'
p8
(dp9
g4
Vhttp://www.ebay.com/usr/rvsworldwide?_trksid=p2047675.l2559
p10
sS'name'
p11
V rvsworldwide
p12
ssS'description_links'
p13
(lp14
Vhttp://vi.vipr.ebaydesc.com/ws/eBayISAPI.dll?ViewItemDescV4&item=142274649676&t=0&tid=10&category=50063&seller=rvsworldwide&excSoj=1&excTrk=1&lsite=100&ittenable=false&domain=ebay.com&descgauge=1
p15
asS'images'
p16
(lp17
(dp18
S'maxImageUrl'
p19
Vhttp://i.ebayimg.com/images/g/D8YAAOSw4CFYngZA/s-l1600.jpg
p20
sS'displayImgUrl'
p21
Vhttp://i.ebayimg.com/images/g/D8YAAOSw4CFYngZA/s-l300.jpg
p22
sa(dp23
g19
Vhttp://i.ebayimg.com/images/g/eh8AAOSw3v5YngZD/s-l1600.png
p24
sg21
Vhttp://i.ebayimg.com/images/g/eh8AAOSw3v5YngZD/s-l300.png
p25
sa(dp26
g19
Vhttp://i.ebayimg.com/images/g/QKoAAOSwB-1YngZA/s-l1600.jpg
p27
sg21
Vhttp://i.ebayimg.com/images/g/QKoAAOSwB-1YngZA/s-l300.jpg
p28
sa(dp29
g19
Vhttp://i.ebayimg.com/images/g/BzAAAOSwtfhYngZA/s-l1600.jpg
p30
sg21
Vhttp://i.ebayimg.com/images/g/BzAAAOSwtfhYngZA/s-l300.jpg
p31
sa(dp32
g19
Vhttp://i.ebayimg.com/images/g/71cAAOSwax5YngZA/s-l1600.jpg
p33
sg21
Vhttp://i.ebayimg.com/images/g/71cAAOSwax5YngZA/s-l300.jpg
p34
sa(dp35
g19
Vhttp://i.ebayimg.com/images/g/U9gAAOSwfVpYngZA/s-l1600.jpg
p36
sg21
Vhttp://i.ebayimg.com/images/g/U9gAAOSwfVpYngZA/s-l300.jpg
p37
sa(dp38
g19
Vhttp://i.ebayimg.com/images/g/By0AAOSwtfhYngZA/s-l1600.jpg
p39
sg21
Vhttp://i.ebayimg.com/images/g/By0AAOSwtfhYngZA/s-l300.jpg
p40
sa(dp41
g19
Vhttp://i.ebayimg.com/images/g/xKUAAOSw2gxYngZA/s-l1600.jpg
p42
sg21
Vhttp://i.ebayimg.com/images/g/xKUAAOSw2gxYngZA/s-l300.jpg
p43
sa(dp44
g19
Vhttp://i.ebayimg.com/images/g/71QAAOSwax5YngZA/s-l1600.jpg
p45
sg21
Vhttp://i.ebayimg.com/images/g/71QAAOSwax5YngZA/s-l300.jpg
p46
sa(dp47
g19
Vhttp://i.ebayimg.com/images/g/mecAAOSwWxNYngZA/s-l1600.jpg
p48
sg21
Vhttp://i.ebayimg.com/images/g/mecAAOSwWxNYngZA/s-l300.jpg
p49
sa(dp50
g19
Vhttp://i.ebayimg.com/images/g/zw4AAOSwdGFYngZA/s-l1600.jpg
p51
sg21
Vhttp://i.ebayimg.com/images/g/zw4AAOSwdGFYngZA/s-l300.jpg
p52
sa(dp53
g19
Vhttp://i.ebayimg.com/images/g/edsAAOSw3v5YngZA/s-l1600.jpg
p54
sg21
Vhttp://i.ebayimg.com/images/g/edsAAOSw3v5YngZA/s-l300.jpg
p55
sa(dp56
g19
Vhttp://i.ebayimg.com/images/g/710AAOSwax5YngZA/s-l1600.jpg
p57
sg21
Vhttp://i.ebayimg.com/images/g/710AAOSwax5YngZA/s-l300.jpg
p58
sa(dp59
g19
Vhttp://i.ebayimg.com/images/g/VrsAAOSwTuJYngZA/s-l1600.jpg
p60
sg21
Vhttp://i.ebayimg.com/images/g/VrsAAOSwTuJYngZA/s-l300.jpg
p61
sa(dp62
g19
Vhttp://i.ebayimg.com/images/g/QJwAAOSwB-1YngZA/s-l1600.jpg
p63
sg21
Vhttp://i.ebayimg.com/images/g/QJwAAOSwB-1YngZA/s-l300.jpg
p64
sa(dp65
g19
Vhttp://i.ebayimg.com/images/g/72EAAOSwax5YngZA/s-l1600.jpg
p66
sg21
Vhttp://i.ebayimg.com/images/g/72EAAOSwax5YngZA/s-l300.jpg
p67
sasS'shipping_info'
p68
(dp69
S'item_location'
p70
(lp71
sS'delivery'
p72
(lp73
sS'posts_to'
p74
(lp75
VLocal pick-up only
p76
assS'id'
p77
S'142274649676'
p78
s.