(dp1
S'title'
p2
Vnew 2017 wolf pack 285pack13 fifth wheel toy hauler rear garage - 9837
p3
sS'url'
p4
S'http://www.ebay.com/itm/New-2017-Wolf-Pack-285PACK13-Fifth-Wheel-Toy-Hauler-Rear-Garage-9837-/142274696296?hash=item21203b9468:g:Bp8AAOSwCU1YnhFW&vxp=mtr'
p5
sS'price'
p6
VUS $33,381.00
p7
sS'seller'
p8
(dp9
g4
Vhttp://www.ebay.com/usr/rvsworldwide?_trksid=p2047675.l2559
p10
sS'name'
p11
V rvsworldwide
p12
ssS'description_links'
p13
(lp14
Vhttp://vi.vipr.ebaydesc.com/ws/eBayISAPI.dll?ViewItemDescV4&item=142274696296&t=0&tid=10&category=50062&seller=rvsworldwide&excSoj=1&excTrk=1&lsite=100&ittenable=false&domain=ebay.com&descgauge=1
p15
asS'images'
p16
(lp17
(dp18
S'maxImageUrl'
p19
Vhttp://i.ebayimg.com/images/g/Bp8AAOSwCU1YnhFW/s-l1600.jpg
p20
sS'displayImgUrl'
p21
Vhttp://i.ebayimg.com/images/g/Bp8AAOSwCU1YnhFW/s-l300.jpg
p22
sa(dp23
g19
Vhttp://i.ebayimg.com/images/g/yK4AAOSw4CFYnhFW/s-l1600.png
p24
sg21
Vhttp://i.ebayimg.com/images/g/yK4AAOSw4CFYnhFW/s-l300.png
p25
sa(dp26
g19
Vhttp://i.ebayimg.com/images/g/-JYAAOSwB-1YnhFW/s-l1600.jpg
p27
sg21
Vhttp://i.ebayimg.com/images/g/-JYAAOSwB-1YnhFW/s-l300.jpg
p28
sa(dp29
g19
Vhttp://i.ebayimg.com/images/g/a9oAAOSwOgdYnhFW/s-l1600.jpg
p30
sg21
Vhttp://i.ebayimg.com/images/g/a9oAAOSwOgdYnhFW/s-l300.jpg
p31
sa(dp32
g19
Vhttp://i.ebayimg.com/images/g/CLcAAOSwdGFYnhFW/s-l1600.jpg
p33
sg21
Vhttp://i.ebayimg.com/images/g/CLcAAOSwdGFYnhFW/s-l300.jpg
p34
sa(dp35
g19
Vhttp://i.ebayimg.com/images/g/yIoAAOSw4CFYnhFV/s-l1600.jpg
p36
sg21
Vhttp://i.ebayimg.com/images/g/yIoAAOSw4CFYnhFV/s-l300.jpg
p37
sa(dp38
g19
Vhttp://i.ebayimg.com/images/g/Y~UAAOSwax5YnhFW/s-l1600.jpg
p39
sg21
Vhttp://i.ebayimg.com/images/g/Y~UAAOSwax5YnhFW/s-l300.jpg
p40
sa(dp41
g19
Vhttp://i.ebayimg.com/images/g/BqYAAOSwCU1YnhFW/s-l1600.jpg
p42
sg21
Vhttp://i.ebayimg.com/images/g/BqYAAOSwCU1YnhFW/s-l300.jpg
p43
sa(dp44
g19
Vhttp://i.ebayimg.com/images/g/ny4AAOSw32lYnhFW/s-l1600.jpg
p45
sg21
Vhttp://i.ebayimg.com/images/g/ny4AAOSw32lYnhFW/s-l300.jpg
p46
sa(dp47
g19
Vhttp://i.ebayimg.com/images/g/BqQAAOSwCU1YnhFW/s-l1600.jpg
p48
sg21
Vhttp://i.ebayimg.com/images/g/BqQAAOSwCU1YnhFW/s-l300.jpg
p49
sa(dp50
g19
Vhttp://i.ebayimg.com/images/g/gTcAAOSw2gxYnhFW/s-l1600.jpg
p51
sg21
Vhttp://i.ebayimg.com/images/g/gTcAAOSw2gxYnhFW/s-l300.jpg
p52
sa(dp53
g19
Vhttp://i.ebayimg.com/images/g/gTIAAOSw2gxYnhFW/s-l1600.jpg
p54
sg21
Vhttp://i.ebayimg.com/images/g/gTIAAOSw2gxYnhFW/s-l300.jpg
p55
sa(dp56
g19
Vhttp://i.ebayimg.com/images/g/BqMAAOSwCU1YnhFW/s-l1600.jpg
p57
sg21
Vhttp://i.ebayimg.com/images/g/BqMAAOSwCU1YnhFW/s-l300.jpg
p58
sa(dp59
g19
Vhttp://i.ebayimg.com/images/g/TsAAAOSw~AVYnhFX/s-l1600.jpg
p60
sg21
Vhttp://i.ebayimg.com/images/g/TsAAAOSw~AVYnhFX/s-l300.jpg
p61
sa(dp62
g19
Vhttp://i.ebayimg.com/images/g/FRkAAOSw3v5YnhFW/s-l1600.jpg
p63
sg21
Vhttp://i.ebayimg.com/images/g/FRkAAOSw3v5YnhFW/s-l300.jpg
p64
sa(dp65
g19
Vhttp://i.ebayimg.com/images/g/e80AAOSwtfhYnhFW/s-l1600.jpg
p66
sg21
Vhttp://i.ebayimg.com/images/g/e80AAOSwtfhYnhFW/s-l300.jpg
p67
sa(dp68
g19
Vhttp://i.ebayimg.com/images/g/4iQAAOSwfVpYnhFW/s-l1600.jpg
p69
sg21
Vhttp://i.ebayimg.com/images/g/4iQAAOSwfVpYnhFW/s-l300.jpg
p70
sa(dp71
g19
Vhttp://i.ebayimg.com/images/g/gToAAOSw2gxYnhFW/s-l1600.jpg
p72
sg21
Vhttp://i.ebayimg.com/images/g/gToAAOSw2gxYnhFW/s-l300.jpg
p73
sa(dp74
g19
Vhttp://i.ebayimg.com/images/g/AgAAAOSwx6pYnhFW/s-l1600.jpg
p75
sg21
Vhttp://i.ebayimg.com/images/g/AgAAAOSwx6pYnhFW/s-l300.jpg
p76
sa(dp77
g19
Vhttp://i.ebayimg.com/images/g/gS8AAOSw2gxYnhFW/s-l1600.jpg
p78
sg21
Vhttp://i.ebayimg.com/images/g/gS8AAOSw2gxYnhFW/s-l300.jpg
p79
sasS'shipping_info'
p80
(dp81
S'item_location'
p82
(lp83
sS'delivery'
p84
(lp85
sS'posts_to'
p86
(lp87
VLocal pick-up only
p88
assS'id'
p89
S'142274696296'
p90
s.