(dp1
S'title'
p2
Vnew 2017 grey wolf 22rr travel trailer toy hauler - 2774
p3
sS'url'
p4
S'http://www.ebay.com/itm/New-2017-Grey-Wolf-22RR-Travel-Trailer-Toy-Hauler-2774-/142274471726?hash=item212038272e:g:XgcAAOSwOgdYndNJ&vxp=mtr'
p5
sS'price'
p6
VUS $16,639.00
p7
sS'seller'
p8
(dp9
g4
Vhttp://www.ebay.com/usr/rvsworldwide?_trksid=p2047675.l2559
p10
sS'name'
p11
V rvsworldwide
p12
ssS'description_links'
p13
(lp14
Vhttp://vi.vipr.ebaydesc.com/ws/eBayISAPI.dll?ViewItemDescV4&item=142274471726&t=0&tid=10&category=50063&seller=rvsworldwide&excSoj=1&excTrk=1&lsite=100&ittenable=false&domain=ebay.com&descgauge=1
p15
asS'images'
p16
(lp17
(dp18
S'maxImageUrl'
p19
Vhttp://i.ebayimg.com/images/g/XgcAAOSwOgdYndNJ/s-l1600.jpg
p20
sS'displayImgUrl'
p21
Vhttp://i.ebayimg.com/images/g/XgcAAOSwOgdYndNJ/s-l300.jpg
p22
sa(dp23
g19
Vhttp://i.ebayimg.com/images/g/HP4AAOSwWxNYndNK/s-l1600.png
p24
sg21
Vhttp://i.ebayimg.com/images/g/HP4AAOSwWxNYndNK/s-l300.png
p25
sa(dp26
g19
Vhttp://i.ebayimg.com/images/g/7x0AAOSw3v5YndNJ/s-l1600.jpg
p27
sg21
Vhttp://i.ebayimg.com/images/g/7x0AAOSw3v5YndNJ/s-l300.jpg
p28
sa(dp29
g19
Vhttp://i.ebayimg.com/images/g/HOAAAOSwWxNYndNJ/s-l1600.jpg
p30
sg21
Vhttp://i.ebayimg.com/images/g/HOAAAOSwWxNYndNJ/s-l300.jpg
p31
sa(dp32
g19
Vhttp://i.ebayimg.com/images/g/zoYAAOSwtfhYndNJ/s-l1600.jpg
p33
sg21
Vhttp://i.ebayimg.com/images/g/zoYAAOSwtfhYndNJ/s-l300.jpg
p34
sa(dp35
g19
Vhttp://i.ebayimg.com/images/g/HOgAAOSwWxNYndNJ/s-l1600.jpg
p36
sg21
Vhttp://i.ebayimg.com/images/g/HOgAAOSwWxNYndNJ/s-l300.jpg
p37
sa(dp38
g19
Vhttp://i.ebayimg.com/images/g/0LoAAOSw4A5YndNJ/s-l1600.jpg
p39
sg21
Vhttp://i.ebayimg.com/images/g/0LoAAOSw4A5YndNJ/s-l300.jpg
p40
sa(dp41
g19
Vhttp://i.ebayimg.com/images/g/03sAAOSwx6pYndNJ/s-l1600.jpg
p42
sg21
Vhttp://i.ebayimg.com/images/g/03sAAOSwx6pYndNJ/s-l300.jpg
p43
sa(dp44
g19
Vhttp://i.ebayimg.com/images/g/qnwAAOSw2gxYndNJ/s-l1600.jpg
p45
sg21
Vhttp://i.ebayimg.com/images/g/qnwAAOSw2gxYndNJ/s-l300.jpg
p46
sa(dp47
g19
Vhttp://i.ebayimg.com/images/g/qoEAAOSw2gxYndNJ/s-l1600.jpg
p48
sg21
Vhttp://i.ebayimg.com/images/g/qoEAAOSw2gxYndNJ/s-l300.jpg
p49
sa(dp50
g19
Vhttp://i.ebayimg.com/images/g/H6wAAOSwB-1YndNK/s-l1600.jpg
p51
sg21
Vhttp://i.ebayimg.com/images/g/H6wAAOSwB-1YndNK/s-l300.jpg
p52
sa(dp53
g19
Vhttp://i.ebayimg.com/images/g/0ZoAAOSwCU1YndNJ/s-l1600.jpg
p54
sg21
Vhttp://i.ebayimg.com/images/g/0ZoAAOSwCU1YndNJ/s-l300.jpg
p55
sasS'shipping_info'
p56
(dp57
S'item_location'
p58
(lp59
sS'delivery'
p60
(lp61
sS'posts_to'
p62
(lp63
VLocal pick-up only
p64
assS'id'
p65
S'142274471726'
p66
s.