(dp1
S'title'
p2
Vnew 2017 arctic wolf 285drl4 5th wheel rear living - 0217
p3
sS'url'
p4
S'http://www.ebay.com/itm/New-2017-Arctic-Wolf-285DRL4-5th-Wheel-Rear-Living-0217-/142289744801?hash=item21212133a1:g:AnQAAOSw4A5Yrvl7&vxp=mtr'
p5
sS'price'
p6
VUS $31,788.00
p7
sS'seller'
p8
(dp9
g4
Vhttp://www.ebay.com/usr/rvsworldwide?_trksid=p2047675.l2559
p10
sS'name'
p11
V rvsworldwide
p12
ssS'description_links'
p13
(lp14
Vhttp://vi.vipr.ebaydesc.com/ws/eBayISAPI.dll?ViewItemDescV4&item=142289744801&t=0&tid=10&category=50062&seller=rvsworldwide&excSoj=1&excTrk=1&lsite=100&ittenable=false&domain=ebay.com&descgauge=1
p15
asS'images'
p16
(lp17
(dp18
S'maxImageUrl'
p19
Vhttp://i.ebayimg.com/images/g/AnQAAOSw4A5Yrvl7/s-l1600.jpg
p20
sS'displayImgUrl'
p21
Vhttp://i.ebayimg.com/images/g/AnQAAOSw4A5Yrvl7/s-l300.jpg
p22
sa(dp23
g19
Vhttp://i.ebayimg.com/images/g/bDEAAOSwB-1Yrvl8/s-l1600.png
p24
sg21
Vhttp://i.ebayimg.com/images/g/bDEAAOSwB-1Yrvl8/s-l300.png
p25
sa(dp26
g19
Vhttp://i.ebayimg.com/images/g/aFEAAOSwWxNYrvl7/s-l1600.jpg
p27
sg21
Vhttp://i.ebayimg.com/images/g/aFEAAOSwWxNYrvl7/s-l300.jpg
p28
sa(dp29
g19
Vhttp://i.ebayimg.com/images/g/AoQAAOSw4A5Yrvl7/s-l1600.jpg
p30
sg21
Vhttp://i.ebayimg.com/images/g/AoQAAOSw4A5Yrvl7/s-l300.jpg
p31
sa(dp32
g19
Vhttp://i.ebayimg.com/images/g/bBYAAOSwB-1Yrvl7/s-l1600.jpg
p33
sg21
Vhttp://i.ebayimg.com/images/g/bBYAAOSwB-1Yrvl7/s-l300.jpg
p34
sa(dp35
g19
Vhttp://i.ebayimg.com/images/g/KbYAAOSwax5Yrvl7/s-l1600.jpg
p36
sg21
Vhttp://i.ebayimg.com/images/g/KbYAAOSwax5Yrvl7/s-l300.jpg
p37
sa(dp38
g19
Vhttp://i.ebayimg.com/images/g/aFgAAOSwWxNYrvl7/s-l1600.jpg
p39
sg21
Vhttp://i.ebayimg.com/images/g/aFgAAOSwWxNYrvl7/s-l300.jpg
p40
sa(dp41
g19
Vhttp://i.ebayimg.com/images/g/iDUAAOSwx6pYrvl7/s-l1600.jpg
p42
sg21
Vhttp://i.ebayimg.com/images/g/iDUAAOSwx6pYrvl7/s-l300.jpg
p43
sa(dp44
g19
Vhttp://i.ebayimg.com/images/g/u0AAAOSw~AVYrvl7/s-l1600.jpg
p45
sg21
Vhttp://i.ebayimg.com/images/g/u0AAAOSw~AVYrvl7/s-l300.jpg
p46
sa(dp47
g19
Vhttp://i.ebayimg.com/images/g/a~wAAOSwB-1Yrvl7/s-l1600.jpg
p48
sg21
Vhttp://i.ebayimg.com/images/g/a~wAAOSwB-1Yrvl7/s-l300.jpg
p49
sa(dp50
g19
Vhttp://i.ebayimg.com/images/g/fugAAOSw2gxYrvl7/s-l1600.jpg
p51
sg21
Vhttp://i.ebayimg.com/images/g/fugAAOSw2gxYrvl7/s-l300.jpg
p52
sa(dp53
g19
Vhttp://i.ebayimg.com/images/g/vykAAOSwCU1Yrvl7/s-l1600.jpg
p54
sg21
Vhttp://i.ebayimg.com/images/g/vykAAOSwCU1Yrvl7/s-l300.jpg
p55
sa(dp56
g19
Vhttp://i.ebayimg.com/images/g/TRMAAOSwtfhYrvl7/s-l1600.jpg
p57
sg21
Vhttp://i.ebayimg.com/images/g/TRMAAOSwtfhYrvl7/s-l300.jpg
p58
sa(dp59
g19
Vhttp://i.ebayimg.com/images/g/9CgAAOSwTuJYrvl7/s-l1600.jpg
p60
sg21
Vhttp://i.ebayimg.com/images/g/9CgAAOSwTuJYrvl7/s-l300.jpg
p61
sa(dp62
g19
Vhttp://i.ebayimg.com/images/g/u0IAAOSw~AVYrvl7/s-l1600.jpg
p63
sg21
Vhttp://i.ebayimg.com/images/g/u0IAAOSw~AVYrvl7/s-l300.jpg
p64
sa(dp65
g19
Vhttp://i.ebayimg.com/images/g/FAIAAOSw3v5Yrvl7/s-l1600.jpg
p66
sg21
Vhttp://i.ebayimg.com/images/g/FAIAAOSw3v5Yrvl7/s-l300.jpg
p67
sa(dp68
g19
Vhttp://i.ebayimg.com/images/g/a~0AAOSwB-1Yrvl7/s-l1600.jpg
p69
sg21
Vhttp://i.ebayimg.com/images/g/a~0AAOSwB-1Yrvl7/s-l300.jpg
p70
sa(dp71
g19
Vhttp://i.ebayimg.com/images/g/uzgAAOSw~AVYrvl7/s-l1600.jpg
p72
sg21
Vhttp://i.ebayimg.com/images/g/uzgAAOSw~AVYrvl7/s-l300.jpg
p73
sa(dp74
g19
Vhttp://i.ebayimg.com/images/g/y1UAAOSwOgdYrvl7/s-l1600.jpg
p75
sg21
Vhttp://i.ebayimg.com/images/g/y1UAAOSwOgdYrvl7/s-l300.jpg
p76
sasS'shipping_info'
p77
(dp78
S'item_location'
p79
(lp80
sS'delivery'
p81
(lp82
sS'posts_to'
p83
(lp84
VLocal pick-up only
p85
assS'id'
p86
S'142289744801'
p87
s.