(dp1
S'title'
p2
Vtravel trailer grey wolf 23dbh rv camper \u2013 new and used fifth wheels for sale
p3
sS'url'
p4
S'http://www.ebay.com/itm/Travel-Trailer-Grey-Wolf-23DBH-RV-Camper-New-and-Used-Fifth-Wheels-For-Sale-/142348149309?hash=item21249c623d:g:ASEAAOSwAANY796u&vxp=mtr'
p5
sS'price'
p6
VUS $17,249.00
p7
sS'seller'
p8
(dp9
g4
Vhttp://www.ebay.com/usr/rvsworldwide?_trksid=p2047675.l2559
p10
sS'name'
p11
V rvsworldwide
p12
ssS'description_links'
p13
(lp14
Vhttp://vi.vipr.ebaydesc.com/ws/eBayISAPI.dll?ViewItemDescV4&item=142348149309&t=0&tid=10&category=50063&seller=rvsworldwide&excSoj=1&excTrk=1&lsite=100&ittenable=false&domain=ebay.com&descgauge=1
p15
asS'images'
p16
(lp17
(dp18
S'maxImageUrl'
p19
Vhttp://i.ebayimg.com/images/g/ASEAAOSwAANY796u/s-l1600.jpg
p20
sS'displayImgUrl'
p21
Vhttp://i.ebayimg.com/images/g/ASEAAOSwAANY796u/s-l300.jpg
p22
sa(dp23
g19
Vhttp://i.ebayimg.com/images/g/AUQAAOSwAANY796v/s-l1600.png
p24
sg21
Vhttp://i.ebayimg.com/images/g/AUQAAOSwAANY796v/s-l300.png
p25
sa(dp26
g19
Vhttp://i.ebayimg.com/images/g/IRkAAOSww3tY796u/s-l1600.jpg
p27
sg21
Vhttp://i.ebayimg.com/images/g/IRkAAOSww3tY796u/s-l300.jpg
p28
sa(dp29
g19
Vhttp://i.ebayimg.com/images/g/lZ4AAOSwB-1Y796u/s-l1600.jpg
p30
sg21
Vhttp://i.ebayimg.com/images/g/lZ4AAOSwB-1Y796u/s-l300.jpg
p31
sa(dp32
g19
Vhttp://i.ebayimg.com/images/g/m~MAAOSwmgJY796u/s-l1600.jpg
p33
sg21
Vhttp://i.ebayimg.com/images/g/m~MAAOSwmgJY796u/s-l300.jpg
p34
sa(dp35
g19
Vhttp://i.ebayimg.com/images/g/uTIAAOSw4CFY796u/s-l1600.jpg
p36
sg21
Vhttp://i.ebayimg.com/images/g/uTIAAOSw4CFY796u/s-l300.jpg
p37
sa(dp38
g19
Vhttp://i.ebayimg.com/images/g/DhMAAOSwnF9Y796u/s-l1600.jpg
p39
sg21
Vhttp://i.ebayimg.com/images/g/DhMAAOSwnF9Y796u/s-l300.jpg
p40
sa(dp41
g19
Vhttp://i.ebayimg.com/images/g/Su8AAOSw03lY796u/s-l1600.jpg
p42
sg21
Vhttp://i.ebayimg.com/images/g/Su8AAOSw03lY796u/s-l300.jpg
p43
sa(dp44
g19
Vhttp://i.ebayimg.com/images/g/YkgAAOSwc49Y796u/s-l1600.jpg
p45
sg21
Vhttp://i.ebayimg.com/images/g/YkgAAOSwc49Y796u/s-l300.jpg
p46
sa(dp47
g19
Vhttp://i.ebayimg.com/images/g/G6YAAOSwTM5Y796u/s-l1600.jpg
p48
sg21
Vhttp://i.ebayimg.com/images/g/G6YAAOSwTM5Y796u/s-l300.jpg
p49
sa(dp50
g19
Vhttp://i.ebayimg.com/images/g/8lIAAOSwls5Y796u/s-l1600.jpg
p51
sg21
Vhttp://i.ebayimg.com/images/g/8lIAAOSwls5Y796u/s-l300.jpg
p52
sa(dp53
g19
Vhttp://i.ebayimg.com/images/g/6CcAAOSwpP9Y796u/s-l1600.jpg
p54
sg21
Vhttp://i.ebayimg.com/images/g/6CcAAOSwpP9Y796u/s-l300.jpg
p55
sa(dp56
g19
Vhttp://i.ebayimg.com/images/g/JBUAAOSwZeVY796u/s-l1600.jpg
p57
sg21
Vhttp://i.ebayimg.com/images/g/JBUAAOSwZeVY796u/s-l300.jpg
p58
sa(dp59
g19
Vhttp://i.ebayimg.com/images/g/G5sAAOSwTM5Y796u/s-l1600.jpg
p60
sg21
Vhttp://i.ebayimg.com/images/g/G5sAAOSwTM5Y796u/s-l300.jpg
p61
sa(dp62
g19
Vhttp://i.ebayimg.com/images/g/SuwAAOSw03lY796u/s-l1600.jpg
p63
sg21
Vhttp://i.ebayimg.com/images/g/SuwAAOSw03lY796u/s-l300.jpg
p64
sa(dp65
g19
Vhttp://i.ebayimg.com/images/g/IRsAAOSww3tY796u/s-l1600.jpg
p66
sg21
Vhttp://i.ebayimg.com/images/g/IRsAAOSww3tY796u/s-l300.jpg
p67
sa(dp68
g19
Vhttp://i.ebayimg.com/images/g/Yj4AAOSwc49Y796u/s-l1600.jpg
p69
sg21
Vhttp://i.ebayimg.com/images/g/Yj4AAOSwc49Y796u/s-l300.jpg
p70
sasS'shipping_info'
p71
(dp72
S'item_location'
p73
(lp74
sS'delivery'
p75
(lp76
sS'posts_to'
p77
(lp78
VLocal pick-up only
p79
assS'id'
p80
S'142348149309'
p81
s.