(dp1
S'title'
p2
Vtoy hauler grey wolf 22rr rv camper - new and used fifth wheels for sale
p3
sS'url'
p4
S'http://www.ebay.com/itm/Toy-Hauler-Grey-Wolf-22RR-RV-Camper-New-and-Used-Fifth-Wheels-For-Sale-/142347853636?hash=item212497df44:g:-NwAAOSw3utY74z6&vxp=mtr'
p5
sS'price'
p6
VUS $16,301.00
p7
sS'seller'
p8
(dp9
g4
Vhttp://www.ebay.com/usr/rvsworldwide?_trksid=p2047675.l2559
p10
sS'name'
p11
V rvsworldwide
p12
ssS'description_links'
p13
(lp14
Vhttp://vi.vipr.ebaydesc.com/ws/eBayISAPI.dll?ViewItemDescV4&item=142347853636&t=0&tid=10&category=50063&seller=rvsworldwide&excSoj=1&excTrk=1&lsite=100&ittenable=false&domain=ebay.com&descgauge=1
p15
asS'images'
p16
(lp17
(dp18
S'maxImageUrl'
p19
Vhttp://i.ebayimg.com/images/g/-NwAAOSw3utY74z6/s-l1600.jpg
p20
sS'displayImgUrl'
p21
Vhttp://i.ebayimg.com/images/g/-NwAAOSw3utY74z6/s-l300.jpg
p22
sa(dp23
g19
Vhttp://i.ebayimg.com/images/g/krsAAOSwrddY74z7/s-l1600.png
p24
sg21
Vhttp://i.ebayimg.com/images/g/krsAAOSwrddY74z7/s-l300.png
p25
sa(dp26
g19
Vhttp://i.ebayimg.com/images/g/ni4AAOSwU8hY74z8/s-l1600.jpg
p27
sg21
Vhttp://i.ebayimg.com/images/g/ni4AAOSwU8hY74z8/s-l300.jpg
p28
sa(dp29
g19
Vhttp://i.ebayimg.com/images/g/9OgAAOSwc-tY74z8/s-l1600.jpg
p30
sg21
Vhttp://i.ebayimg.com/images/g/9OgAAOSwc-tY74z8/s-l300.jpg
p31
sa(dp32
g19
Vhttp://i.ebayimg.com/images/g/KLcAAOSwZeVY74z8/s-l1600.jpg
p33
sg21
Vhttp://i.ebayimg.com/images/g/KLcAAOSwZeVY74z8/s-l300.jpg
p34
sa(dp35
g19
Vhttp://i.ebayimg.com/images/g/PakAAOSw03lY74z8/s-l1600.jpg
p36
sg21
Vhttp://i.ebayimg.com/images/g/PakAAOSw03lY74z8/s-l300.jpg
p37
sa(dp38
g19
Vhttp://i.ebayimg.com/images/g/MgcAAOSwTM5Y74z9/s-l1600.jpg
p39
sg21
Vhttp://i.ebayimg.com/images/g/MgcAAOSwTM5Y74z9/s-l300.jpg
p40
sa(dp41
g19
Vhttp://i.ebayimg.com/images/g/-UYAAOSw3utY74z8/s-l1600.jpg
p42
sg21
Vhttp://i.ebayimg.com/images/g/-UYAAOSw3utY74z8/s-l300.jpg
p43
sa(dp44
g19
Vhttp://i.ebayimg.com/images/g/nlYAAOSwU8hY74z9/s-l1600.jpg
p45
sg21
Vhttp://i.ebayimg.com/images/g/nlYAAOSwU8hY74z9/s-l300.jpg
p46
sa(dp47
g19
Vhttp://i.ebayimg.com/images/g/bv4AAOSwmgJY74z9/s-l1600.jpg
p48
sg21
Vhttp://i.ebayimg.com/images/g/bv4AAOSwmgJY74z9/s-l300.jpg
p49
sa(dp50
g19
Vhttp://i.ebayimg.com/images/g/ItsAAOSwc49Y74z9/s-l1600.jpg
p51
sg21
Vhttp://i.ebayimg.com/images/g/ItsAAOSwc49Y74z9/s-l300.jpg
p52
sa(dp53
g19
Vhttp://i.ebayimg.com/images/g/9Q4AAOSwc-tY74z9/s-l1600.jpg
p54
sg21
Vhttp://i.ebayimg.com/images/g/9Q4AAOSwc-tY74z9/s-l300.jpg
p55
sasS'shipping_info'
p56
(dp57
S'item_location'
p58
(lp59
sS'delivery'
p60
(lp61
sS'posts_to'
p62
(lp63
VLocal pick-up only
p64
assS'id'
p65
S'142347853636'
p66
s.