(dp1
S'title'
p2
Vtoy hauler grey wolf 26rr rv camper - new and used fifth wheels for sale
p3
sS'url'
p4
S'http://www.ebay.com/itm/Toy-Hauler-Grey-Wolf-26RR-RV-Camper-New-and-Used-Fifth-Wheels-For-Sale-/142347863958?hash=item2124980796:g:EvMAAOSwpP9Y7498&vxp=mtr'
p5
sS'price'
p6
VUS $16,067.00
p7
sS'seller'
p8
(dp9
g4
Vhttp://www.ebay.com/usr/rvsworldwide?_trksid=p2047675.l2559
p10
sS'name'
p11
V rvsworldwide
p12
ssS'description_links'
p13
(lp14
Vhttp://vi.vipr.ebaydesc.com/ws/eBayISAPI.dll?ViewItemDescV4&item=142347863958&t=0&tid=10&category=50063&seller=rvsworldwide&excSoj=1&excTrk=1&lsite=100&ittenable=false&domain=ebay.com&descgauge=1
p15
asS'images'
p16
(lp17
(dp18
S'maxImageUrl'
p19
Vhttp://i.ebayimg.com/images/g/EvMAAOSwpP9Y7498/s-l1600.jpg
p20
sS'displayImgUrl'
p21
Vhttp://i.ebayimg.com/images/g/EvMAAOSwpP9Y7498/s-l300.jpg
p22
sa(dp23
g19
Vhttp://i.ebayimg.com/images/g/8qYAAOSwB-1Y7498/s-l1600.png
p24
sg21
Vhttp://i.ebayimg.com/images/g/8qYAAOSwB-1Y7498/s-l300.png
p25
sa(dp26
g19
Vhttp://i.ebayimg.com/images/g/cBEAAOSw3utY7497/s-l1600.jpg
p27
sg21
Vhttp://i.ebayimg.com/images/g/cBEAAOSw3utY7497/s-l300.jpg
p28
sa(dp29
g19
Vhttp://i.ebayimg.com/images/g/3oQAAOSwmgJY7497/s-l1600.jpg
p30
sg21
Vhttp://i.ebayimg.com/images/g/3oQAAOSwmgJY7497/s-l300.jpg
p31
sa(dp32
g19
Vhttp://i.ebayimg.com/images/g/n6cAAOSw~CFY7498/s-l1600.jpg
p33
sg21
Vhttp://i.ebayimg.com/images/g/n6cAAOSw~CFY7498/s-l300.jpg
p34
sa(dp35
g19
Vhttp://i.ebayimg.com/images/g/mtIAAOSwZeVY7498/s-l1600.jpg
p36
sg21
Vhttp://i.ebayimg.com/images/g/mtIAAOSwZeVY7498/s-l300.jpg
p37
sa(dp38
g19
Vhttp://i.ebayimg.com/images/g/8NwAAOSwpkFY7497/s-l1600.jpg
p39
sg21
Vhttp://i.ebayimg.com/images/g/8NwAAOSwpkFY7497/s-l300.jpg
p40
sa(dp41
g19
Vhttp://i.ebayimg.com/images/g/tC0AAOSwls5Y7498/s-l1600.jpg
p42
sg21
Vhttp://i.ebayimg.com/images/g/tC0AAOSwls5Y7498/s-l300.jpg
p43
sa(dp44
g19
Vhttp://i.ebayimg.com/images/g/RncAAOSwAANY7497/s-l1600.jpg
p45
sg21
Vhttp://i.ebayimg.com/images/g/RncAAOSwAANY7497/s-l300.jpg
p46
sa(dp47
g19
Vhttp://i.ebayimg.com/images/g/a1AAAOSwnF9Y7498/s-l1600.jpg
p48
sg21
Vhttp://i.ebayimg.com/images/g/a1AAAOSwnF9Y7498/s-l300.jpg
p49
sa(dp50
g19
Vhttp://i.ebayimg.com/images/g/cBUAAOSw3utY7497/s-l1600.jpg
p51
sg21
Vhttp://i.ebayimg.com/images/g/cBUAAOSw3utY7497/s-l300.jpg
p52
sa(dp53
g19
Vhttp://i.ebayimg.com/images/g/mXEAAOSwc49Y7497/s-l1600.jpg
p54
sg21
Vhttp://i.ebayimg.com/images/g/mXEAAOSwc49Y7497/s-l300.jpg
p55
sa(dp56
g19
Vhttp://i.ebayimg.com/images/g/rfEAAOSw03lY7498/s-l1600.jpg
p57
sg21
Vhttp://i.ebayimg.com/images/g/rfEAAOSw03lY7498/s-l300.jpg
p58
sasS'shipping_info'
p59
(dp60
S'item_location'
p61
(lp62
sS'delivery'
p63
(lp64
sS'posts_to'
p65
(lp66
VLocal pick-up only
p67
assS'id'
p68
S'142347863958'
p69
s.