(dp1
S'title'
p2
Vtoy hauler grey wolf 26rr rv camper - new and used fifth wheels for sale
p3
sS'url'
p4
S'http://www.ebay.com/itm/Toy-Hauler-Grey-Wolf-26RR-RV-Camper-New-and-Used-Fifth-Wheels-For-Sale-/142347863685?hash=item2124980685:g:2xEAAOSwmgJY749m&vxp=mtr'
p5
sS'price'
p6
VUS $16,067.00
p7
sS'seller'
p8
(dp9
g4
Vhttp://www.ebay.com/usr/rvsworldwide?_trksid=p2047675.l2559
p10
sS'name'
p11
V rvsworldwide
p12
ssS'description_links'
p13
(lp14
Vhttp://vi.vipr.ebaydesc.com/ws/eBayISAPI.dll?ViewItemDescV4&item=142347863685&t=0&tid=10&category=50063&seller=rvsworldwide&excSoj=1&excTrk=1&lsite=100&ittenable=false&domain=ebay.com&descgauge=1
p15
asS'images'
p16
(lp17
(dp18
S'maxImageUrl'
p19
Vhttp://i.ebayimg.com/images/g/2xEAAOSwmgJY749m/s-l1600.jpg
p20
sS'displayImgUrl'
p21
Vhttp://i.ebayimg.com/images/g/2xEAAOSwmgJY749m/s-l300.jpg
p22
sa(dp23
g19
Vhttp://i.ebayimg.com/images/g/dCQAAOSww3tY749m/s-l1600.png
p24
sg21
Vhttp://i.ebayimg.com/images/g/dCQAAOSww3tY749m/s-l300.png
p25
sa(dp26
g19
Vhttp://i.ebayimg.com/images/g/QwAAAOSwAANY749m/s-l1600.jpg
p27
sg21
Vhttp://i.ebayimg.com/images/g/QwAAAOSwAANY749m/s-l300.jpg
p28
sa(dp29
g19
Vhttp://i.ebayimg.com/images/g/QvoAAOSwAANY749m/s-l1600.jpg
p30
sg21
Vhttp://i.ebayimg.com/images/g/QvoAAOSwAANY749m/s-l300.jpg
p31
sa(dp32
g19
Vhttp://i.ebayimg.com/images/g/dBYAAOSww3tY749m/s-l1600.jpg
p33
sg21
Vhttp://i.ebayimg.com/images/g/dBYAAOSww3tY749m/s-l300.jpg
p34
sa(dp35
g19
Vhttp://i.ebayimg.com/images/g/7bIAAOSwpkFY749n/s-l1600.jpg
p36
sg21
Vhttp://i.ebayimg.com/images/g/7bIAAOSwpkFY749n/s-l300.jpg
p37
sa(dp38
g19
Vhttp://i.ebayimg.com/images/g/BF8AAOSwrddY749m/s-l1600.jpg
p39
sg21
Vhttp://i.ebayimg.com/images/g/BF8AAOSwrddY749m/s-l300.jpg
p40
sa(dp41
g19
Vhttp://i.ebayimg.com/images/g/pA0AAOSwTM5Y749m/s-l1600.jpg
p42
sg21
Vhttp://i.ebayimg.com/images/g/pA0AAOSwTM5Y749m/s-l300.jpg
p43
sa(dp44
g19
Vhttp://i.ebayimg.com/images/g/qpMAAOSw03lY749m/s-l1600.jpg
p45
sg21
Vhttp://i.ebayimg.com/images/g/qpMAAOSw03lY749m/s-l300.jpg
p46
sa(dp47
g19
Vhttp://i.ebayimg.com/images/g/sKUAAOSwls5Y749m/s-l1600.jpg
p48
sg21
Vhttp://i.ebayimg.com/images/g/sKUAAOSwls5Y749m/s-l300.jpg
p49
sa(dp50
g19
Vhttp://i.ebayimg.com/images/g/bCEAAOSw3utY749m/s-l1600.jpg
p51
sg21
Vhttp://i.ebayimg.com/images/g/bCEAAOSw3utY749m/s-l300.jpg
p52
sa(dp53
g19
Vhttp://i.ebayimg.com/images/g/lbQAAOSwc49Y749m/s-l1600.jpg
p54
sg21
Vhttp://i.ebayimg.com/images/g/lbQAAOSwc49Y749m/s-l300.jpg
p55
sasS'shipping_info'
p56
(dp57
S'item_location'
p58
(lp59
sS'delivery'
p60
(lp61
sS'posts_to'
p62
(lp63
VLocal pick-up only
p64
assS'id'
p65
S'142347863685'
p66
s.