(dp1
S'title'
p2
Vtoy hauler grey wolf 26rr rv camper - new and used fifth wheels for sale
p3
sS'url'
p4
S'http://www.ebay.com/itm/Toy-Hauler-Grey-Wolf-26RR-RV-Camper-New-and-Used-Fifth-Wheels-For-Sale-/142347863169?hash=item2124980481:g:~wgAAOSwrddY749J&vxp=mtr'
p5
sS'price'
p6
VUS $16,406.00
p7
sS'seller'
p8
(dp9
g4
Vhttp://www.ebay.com/usr/rvsworldwide?_trksid=p2047675.l2559
p10
sS'name'
p11
V rvsworldwide
p12
ssS'description_links'
p13
(lp14
Vhttp://vi.vipr.ebaydesc.com/ws/eBayISAPI.dll?ViewItemDescV4&item=142347863169&t=0&tid=10&category=50063&seller=rvsworldwide&excSoj=1&excTrk=1&lsite=100&ittenable=false&domain=ebay.com&descgauge=1
p15
asS'images'
p16
(lp17
(dp18
S'maxImageUrl'
p19
Vhttp://i.ebayimg.com/images/g/~wgAAOSwrddY749J/s-l1600.jpg
p20
sS'displayImgUrl'
p21
Vhttp://i.ebayimg.com/images/g/~wgAAOSwrddY749J/s-l300.jpg
p22
sa(dp23
g19
Vhttp://i.ebayimg.com/images/g/ZuEAAOSw3utY749J/s-l1600.png
p24
sg21
Vhttp://i.ebayimg.com/images/g/ZuEAAOSw3utY749J/s-l300.png
p25
sa(dp26
g19
Vhttp://i.ebayimg.com/images/g/nngAAOSwTM5Y749K/s-l1600.jpg
p27
sg21
Vhttp://i.ebayimg.com/images/g/nngAAOSwTM5Y749K/s-l300.jpg
p28
sa(dp29
g19
Vhttp://i.ebayimg.com/images/g/q6AAAOSwls5Y749J/s-l1600.jpg
p30
sg21
Vhttp://i.ebayimg.com/images/g/q6AAAOSwls5Y749J/s-l300.jpg
p31
sa(dp32
g19
Vhttp://i.ebayimg.com/images/g/PdkAAOSwAANY749J/s-l1600.jpg
p33
sg21
Vhttp://i.ebayimg.com/images/g/PdkAAOSwAANY749J/s-l300.jpg
p34
sa(dp35
g19
Vhttp://i.ebayimg.com/images/g/Pg4AAOSwAANY749K/s-l1600.jpg
p36
sg21
Vhttp://i.ebayimg.com/images/g/Pg4AAOSwAANY749K/s-l300.jpg
p37
sa(dp38
g19
Vhttp://i.ebayimg.com/images/g/khcAAOSwZeVY749J/s-l1600.jpg
p39
sg21
Vhttp://i.ebayimg.com/images/g/khcAAOSwZeVY749J/s-l300.jpg
p40
sa(dp41
g19
Vhttp://i.ebayimg.com/images/g/khsAAOSwZeVY749J/s-l1600.jpg
p42
sg21
Vhttp://i.ebayimg.com/images/g/khsAAOSwZeVY749J/s-l300.jpg
p43
sa(dp44
g19
Vhttp://i.ebayimg.com/images/g/6JgAAOSwpkFY749J/s-l1600.jpg
p45
sg21
Vhttp://i.ebayimg.com/images/g/6JgAAOSwpkFY749J/s-l300.jpg
p46
sa(dp47
g19
Vhttp://i.ebayimg.com/images/g/YTwAAOSwnF9Y749J/s-l1600.jpg
p48
sg21
Vhttp://i.ebayimg.com/images/g/YTwAAOSwnF9Y749J/s-l300.jpg
p49
sa(dp50
g19
Vhttp://i.ebayimg.com/images/g/6JoAAOSwpkFY749J/s-l1600.jpg
p51
sg21
Vhttp://i.ebayimg.com/images/g/6JoAAOSwpkFY749J/s-l300.jpg
p52
sa(dp53
g19
Vhttp://i.ebayimg.com/images/g/nk8AAOSwTM5Y749J/s-l1600.jpg
p54
sg21
Vhttp://i.ebayimg.com/images/g/nk8AAOSwTM5Y749J/s-l300.jpg
p55
sa(dp56
g19
Vhttp://i.ebayimg.com/images/g/noAAAOSwTM5Y749K/s-l1600.jpg
p57
sg21
Vhttp://i.ebayimg.com/images/g/noAAAOSwTM5Y749K/s-l300.jpg
p58
sa(dp59
g19
Vhttp://i.ebayimg.com/images/g/ZvYAAOSw3utY749J/s-l1600.jpg
p60
sg21
Vhttp://i.ebayimg.com/images/g/ZvYAAOSw3utY749J/s-l300.jpg
p61
sa(dp62
g19
Vhttp://i.ebayimg.com/images/g/lnYAAOSw4CFY749J/s-l1600.jpg
p63
sg21
Vhttp://i.ebayimg.com/images/g/lnYAAOSw4CFY749J/s-l300.jpg
p64
sa(dp65
g19
Vhttp://i.ebayimg.com/images/g/WEsAAOSwc-tY749J/s-l1600.jpg
p66
sg21
Vhttp://i.ebayimg.com/images/g/WEsAAOSwc-tY749J/s-l300.jpg
p67
sa(dp68
g19
Vhttp://i.ebayimg.com/images/g/khYAAOSwZeVY749J/s-l1600.jpg
p69
sg21
Vhttp://i.ebayimg.com/images/g/khYAAOSwZeVY749J/s-l300.jpg
p70
sa(dp71
g19
Vhttp://i.ebayimg.com/images/g/kDsAAOSwc49Y749J/s-l1600.jpg
p72
sg21
Vhttp://i.ebayimg.com/images/g/kDsAAOSwc49Y749J/s-l300.jpg
p73
sa(dp74
g19
Vhttp://i.ebayimg.com/images/g/lnQAAOSw4CFY749J/s-l1600.jpg
p75
sg21
Vhttp://i.ebayimg.com/images/g/lnQAAOSw4CFY749J/s-l300.jpg
p76
sa(dp77
g19
Vhttp://i.ebayimg.com/images/g/nlEAAOSwTM5Y749J/s-l1600.jpg
p78
sg21
Vhttp://i.ebayimg.com/images/g/nlEAAOSwTM5Y749J/s-l300.jpg
p79
sa(dp80
g19
Vhttp://i.ebayimg.com/images/g/6wEAAOSwB-1Y749J/s-l1600.jpg
p81
sg21
Vhttp://i.ebayimg.com/images/g/6wEAAOSwB-1Y749J/s-l300.jpg
p82
sa(dp83
g19
Vhttp://i.ebayimg.com/images/g/~y0AAOSwrddY749J/s-l1600.jpg
p84
sg21
Vhttp://i.ebayimg.com/images/g/~y0AAOSwrddY749J/s-l300.jpg
p85
sasS'shipping_info'
p86
(dp87
S'item_location'
p88
(lp89
sS'delivery'
p90
(lp91
sS'posts_to'
p92
(lp93
VLocal pick-up only
p94
assS'id'
p95
S'142347863169'
p96
s.