(dp1
S'title'
p2
Vtravel trailer toy hauler grey wolf 26rr rv camper new and used 5th wheel sales
p3
sS'url'
p4
S'http://www.ebay.com/itm/Travel-Trailer-Toy-Hauler-Grey-Wolf-26RR-RV-Camper-New-and-Used-5th-Wheel-Sales-/142381000908?hash=item212691a8cc:g:HacAAOSwfRdZFcxC&vxp=mtr'
p5
sS'price'
p6
VUS $20,054.00
p7
sS'seller'
p8
(dp9
g4
Vhttp://www.ebay.com/usr/rvsworldwide?_trksid=p2047675.l2559
p10
sS'name'
p11
V rvsworldwide
p12
ssS'description_links'
p13
(lp14
Vhttp://vi.vipr.ebaydesc.com/ws/eBayISAPI.dll?ViewItemDescV4&item=142381000908&t=0&tid=10&category=50063&seller=rvsworldwide&excSoj=1&excTrk=1&lsite=100&ittenable=false&domain=ebay.com&descgauge=1
p15
asS'images'
p16
(lp17
(dp18
S'maxImageUrl'
p19
Vhttp://i.ebayimg.com/images/g/HacAAOSwfRdZFcxC/s-l1600.jpg
p20
sS'displayImgUrl'
p21
Vhttp://i.ebayimg.com/images/g/HacAAOSwfRdZFcxC/s-l300.jpg
p22
sa(dp23
g19
Vhttp://i.ebayimg.com/images/g/sosAAOSw3gJZFcxC/s-l1600.png
p24
sg21
Vhttp://i.ebayimg.com/images/g/sosAAOSw3gJZFcxC/s-l300.png
p25
sa(dp26
g19
Vhttp://i.ebayimg.com/images/g/qIUAAOSwn-tZFcxC/s-l1600.jpg
p27
sg21
Vhttp://i.ebayimg.com/images/g/qIUAAOSwn-tZFcxC/s-l300.jpg
p28
sa(dp29
g19
Vhttp://i.ebayimg.com/images/g/igcAAOSw1WJZFcxC/s-l1600.jpg
p30
sg21
Vhttp://i.ebayimg.com/images/g/igcAAOSw1WJZFcxC/s-l300.jpg
p31
sa(dp32
g19
Vhttp://i.ebayimg.com/images/g/ev8AAOSwaEhZFcxC/s-l1600.jpg
p33
sg21
Vhttp://i.ebayimg.com/images/g/ev8AAOSwaEhZFcxC/s-l300.jpg
p34
sa(dp35
g19
Vhttp://i.ebayimg.com/images/g/ZRwAAOSwcaFZFcxC/s-l1600.jpg
p36
sg21
Vhttp://i.ebayimg.com/images/g/ZRwAAOSwcaFZFcxC/s-l300.jpg
p37
sa(dp38
g19
Vhttp://i.ebayimg.com/images/g/oc4AAOSwcgNZFcxC/s-l1600.jpg
p39
sg21
Vhttp://i.ebayimg.com/images/g/oc4AAOSwcgNZFcxC/s-l300.jpg
p40
sa(dp41
g19
Vhttp://i.ebayimg.com/images/g/UQ8AAOSwZ4dZFcxC/s-l1600.jpg
p42
sg21
Vhttp://i.ebayimg.com/images/g/UQ8AAOSwZ4dZFcxC/s-l300.jpg
p43
sa(dp44
g19
Vhttp://i.ebayimg.com/images/g/RqUAAOSwX9FZFcxC/s-l1600.jpg
p45
sg21
Vhttp://i.ebayimg.com/images/g/RqUAAOSwX9FZFcxC/s-l300.jpg
p46
sa(dp47
g19
Vhttp://i.ebayimg.com/images/g/qIQAAOSwn-tZFcxC/s-l1600.jpg
p48
sg21
Vhttp://i.ebayimg.com/images/g/qIQAAOSwn-tZFcxC/s-l300.jpg
p49
sa(dp50
g19
Vhttp://i.ebayimg.com/images/g/n~8AAOSwblZZFcxC/s-l1600.jpg
p51
sg21
Vhttp://i.ebayimg.com/images/g/n~8AAOSwblZZFcxC/s-l300.jpg
p52
sa(dp53
g19
Vhttp://i.ebayimg.com/images/g/iGMAAOSwcB5ZFcxC/s-l1600.jpg
p54
sg21
Vhttp://i.ebayimg.com/images/g/iGMAAOSwcB5ZFcxC/s-l300.jpg
p55
sa(dp56
g19
Vhttp://i.ebayimg.com/images/g/dmMAAOSwDiBZFcxC/s-l1600.jpg
p57
sg21
Vhttp://i.ebayimg.com/images/g/dmMAAOSwDiBZFcxC/s-l300.jpg
p58
sa(dp59
g19
Vhttp://i.ebayimg.com/images/g/igQAAOSw1WJZFcxB/s-l1600.jpg
p60
sg21
Vhttp://i.ebayimg.com/images/g/igQAAOSw1WJZFcxB/s-l300.jpg
p61
sa(dp62
g19
Vhttp://i.ebayimg.com/images/g/boMAAOSw5cRZFcxC/s-l1600.jpg
p63
sg21
Vhttp://i.ebayimg.com/images/g/boMAAOSw5cRZFcxC/s-l300.jpg
p64
sa(dp65
g19
Vhttp://i.ebayimg.com/images/g/wxMAAOSwPh5ZFcxC/s-l1600.jpg
p66
sg21
Vhttp://i.ebayimg.com/images/g/wxMAAOSwPh5ZFcxC/s-l300.jpg
p67
sa(dp68
g19
Vhttp://i.ebayimg.com/images/g/CxIAAOSwi7RZFcxC/s-l1600.jpg
p69
sg21
Vhttp://i.ebayimg.com/images/g/CxIAAOSwi7RZFcxC/s-l300.jpg
p70
sasS'shipping_info'
p71
(dp72
S'item_location'
p73
(lp74
sS'delivery'
p75
(lp76
sS'posts_to'
p77
(lp78
VLocal pick-up only
p79
assS'id'
p80
S'142381000908'
p81
s.