(dp1
S'title'
p2
Vfifth wheel arctic wolf 265dbh8 rv camper new and used travel trailers for sale
p3
sS'url'
p4
S'http://www.ebay.com/itm/Fifth-Wheel-Arctic-Wolf-265DBH8-RV-Camper-New-and-Used-Travel-Trailers-For-Sale-/142381253178?hash=item212695823a:g:5ZoAAOSwKytZFhDI&vxp=mtr'
p5
sS'price'
p6
VUS $29,999.00
p7
sS'seller'
p8
(dp9
g4
Vhttp://www.ebay.com/usr/rvsworldwide?_trksid=p2047675.l2559
p10
sS'name'
p11
V rvsworldwide
p12
ssS'description_links'
p13
(lp14
Vhttp://vi.vipr.ebaydesc.com/ws/eBayISAPI.dll?ViewItemDescV4&item=142381253178&t=0&tid=10&category=50062&seller=rvsworldwide&excSoj=1&excTrk=1&lsite=100&ittenable=false&domain=ebay.com&descgauge=1
p15
asS'images'
p16
(lp17
(dp18
S'maxImageUrl'
p19
Vhttp://i.ebayimg.com/images/g/5ZoAAOSwKytZFhDI/s-l1600.jpg
p20
sS'displayImgUrl'
p21
Vhttp://i.ebayimg.com/images/g/5ZoAAOSwKytZFhDI/s-l300.jpg
p22
sa(dp23
g19
Vhttp://i.ebayimg.com/images/g/pEMAAOSwH09ZFhDH/s-l1600.png
p24
sg21
Vhttp://i.ebayimg.com/images/g/pEMAAOSwH09ZFhDH/s-l300.png
p25
sa(dp26
g19
Vhttp://i.ebayimg.com/images/g/5PEAAOSwrhBZFhDH/s-l1600.jpg
p27
sg21
Vhttp://i.ebayimg.com/images/g/5PEAAOSwrhBZFhDH/s-l300.jpg
p28
sa(dp29
g19
Vhttp://i.ebayimg.com/images/g/r2oAAOSwR29ZFhDH/s-l1600.jpg
p30
sg21
Vhttp://i.ebayimg.com/images/g/r2oAAOSwR29ZFhDH/s-l300.jpg
p31
sa(dp32
g19
Vhttp://i.ebayimg.com/images/g/QCUAAOSwsXFZFhDH/s-l1600.jpg
p33
sg21
Vhttp://i.ebayimg.com/images/g/QCUAAOSwsXFZFhDH/s-l300.jpg
p34
sa(dp35
g19
Vhttp://i.ebayimg.com/images/g/iuAAAOSw42JZFhDH/s-l1600.jpg
p36
sg21
Vhttp://i.ebayimg.com/images/g/iuAAAOSw42JZFhDH/s-l300.jpg
p37
sa(dp38
g19
Vhttp://i.ebayimg.com/images/g/Q2wAAOSwblZZFhDH/s-l1600.jpg
p39
sg21
Vhttp://i.ebayimg.com/images/g/Q2wAAOSwblZZFhDH/s-l300.jpg
p40
sa(dp41
g19
Vhttp://i.ebayimg.com/images/g/COsAAOSwi7RZFhDI/s-l1600.jpg
p42
sg21
Vhttp://i.ebayimg.com/images/g/COsAAOSwi7RZFhDI/s-l300.jpg
p43
sa(dp44
g19
Vhttp://i.ebayimg.com/images/g/blcAAOSwhvFZFhDI/s-l1600.jpg
p45
sg21
Vhttp://i.ebayimg.com/images/g/blcAAOSwhvFZFhDI/s-l300.jpg
p46
sa(dp47
g19
Vhttp://i.ebayimg.com/images/g/mS0AAOSwcB5ZFhDI/s-l1600.jpg
p48
sg21
Vhttp://i.ebayimg.com/images/g/mS0AAOSwcB5ZFhDI/s-l300.jpg
p49
sa(dp50
g19
Vhttp://i.ebayimg.com/images/g/NpMAAOSw0hlZFhDI/s-l1600.jpg
p51
sg21
Vhttp://i.ebayimg.com/images/g/NpMAAOSw0hlZFhDI/s-l300.jpg
p52
sa(dp53
g19
Vhttp://i.ebayimg.com/images/g/iusAAOSw42JZFhDJ/s-l1600.jpg
p54
sg21
Vhttp://i.ebayimg.com/images/g/iusAAOSw42JZFhDJ/s-l300.jpg
p55
sa(dp56
g19
Vhttp://i.ebayimg.com/images/g/NhgAAOSw8HBZFhDI/s-l1600.jpg
p57
sg21
Vhttp://i.ebayimg.com/images/g/NhgAAOSw8HBZFhDI/s-l300.jpg
p58
sa(dp59
g19
Vhttp://i.ebayimg.com/images/g/bVgAAOSwX61ZFhDJ/s-l1600.jpg
p60
sg21
Vhttp://i.ebayimg.com/images/g/bVgAAOSwX61ZFhDJ/s-l300.jpg
p61
sa(dp62
g19
Vhttp://i.ebayimg.com/images/g/pFkAAOSwxu5ZFhDJ/s-l1600.jpg
p63
sg21
Vhttp://i.ebayimg.com/images/g/pFkAAOSwxu5ZFhDJ/s-l300.jpg
p64
sa(dp65
g19
Vhttp://i.ebayimg.com/images/g/WncAAOSw9OFZFhDJ/s-l1600.jpg
p66
sg21
Vhttp://i.ebayimg.com/images/g/WncAAOSw9OFZFhDJ/s-l300.jpg
p67
sa(dp68
g19
Vhttp://i.ebayimg.com/images/g/r4AAAOSwR29ZFhDK/s-l1600.jpg
p69
sg21
Vhttp://i.ebayimg.com/images/g/r4AAAOSwR29ZFhDK/s-l300.jpg
p70
sa(dp71
g19
Vhttp://i.ebayimg.com/images/g/1ZgAAOSwtGlZFhDJ/s-l1600.jpg
p72
sg21
Vhttp://i.ebayimg.com/images/g/1ZgAAOSwtGlZFhDJ/s-l300.jpg
p73
sa(dp74
g19
Vhttp://i.ebayimg.com/images/g/5QwAAOSwrhBZFhDK/s-l1600.jpg
p75
sg21
Vhttp://i.ebayimg.com/images/g/5QwAAOSwrhBZFhDK/s-l300.jpg
p76
sa(dp77
g19
Vhttp://i.ebayimg.com/images/g/xc0AAOSww5hZFhDK/s-l1600.jpg
p78
sg21
Vhttp://i.ebayimg.com/images/g/xc0AAOSww5hZFhDK/s-l300.jpg
p79
sa(dp80
g19
Vhttp://i.ebayimg.com/images/g/Iq0AAOSw1WJZFhDK/s-l1600.jpg
p81
sg21
Vhttp://i.ebayimg.com/images/g/Iq0AAOSw1WJZFhDK/s-l300.jpg
p82
sa(dp83
g19
Vhttp://i.ebayimg.com/images/g/asQAAOSwBt5ZFhDK/s-l1600.jpg
p84
sg21
Vhttp://i.ebayimg.com/images/g/asQAAOSwBt5ZFhDK/s-l300.jpg
p85
sa(dp86
g19
Vhttp://i.ebayimg.com/images/g/WpcAAOSwaeRZFhDK/s-l1600.jpg
p87
sg21
Vhttp://i.ebayimg.com/images/g/WpcAAOSwaeRZFhDK/s-l300.jpg
p88
sa(dp89
g19
Vhttp://i.ebayimg.com/images/g/KoEAAOSwK6RZFhDK/s-l1600.jpg
p90
sg21
Vhttp://i.ebayimg.com/images/g/KoEAAOSwK6RZFhDK/s-l300.jpg
p91
sasS'shipping_info'
p92
(dp93
S'item_location'
p94
(lp95
sS'delivery'
p96
(lp97
sS'posts_to'
p98
(lp99
VLocal pick-up only
p100
assS'id'
p101
S'142381253178'
p102
s.