(dp1
S'title'
p2
Vtoy hauler grey wolf 19rr rv camper - new and used fifth wheels for sale
p3
sS'url'
p4
S'http://www.ebay.com/itm/Toy-Hauler-Grey-Wolf-19RR-RV-Camper-New-and-Used-Fifth-Wheels-For-Sale-/142347848586?hash=item212497cb8a:g:fLUAAOSwnF9Y74q3&vxp=mtr'
p5
sS'price'
p6
VUS $15,118.00
p7
sS'seller'
p8
(dp9
g4
Vhttp://www.ebay.com/usr/rvsworldwide?_trksid=p2047675.l2559
p10
sS'name'
p11
V rvsworldwide
p12
ssS'description_links'
p13
(lp14
Vhttp://vi.vipr.ebaydesc.com/ws/eBayISAPI.dll?ViewItemDescV4&item=142347848586&t=0&tid=10&category=50063&seller=rvsworldwide&excSoj=1&excTrk=1&lsite=100&ittenable=false&domain=ebay.com&descgauge=1
p15
asS'images'
p16
(lp17
(dp18
S'maxImageUrl'
p19
Vhttp://i.ebayimg.com/images/g/fLUAAOSwnF9Y74q3/s-l1600.jpg
p20
sS'displayImgUrl'
p21
Vhttp://i.ebayimg.com/images/g/fLUAAOSwnF9Y74q3/s-l300.jpg
p22
sa(dp23
g19
Vhttp://i.ebayimg.com/images/g/fNoAAOSwnF9Y74q4/s-l1600.png
p24
sg21
Vhttp://i.ebayimg.com/images/g/fNoAAOSwnF9Y74q4/s-l300.png
p25
sa(dp26
g19
Vhttp://i.ebayimg.com/images/g/umcAAOSwc49Y74q4/s-l1600.jpg
p27
sg21
Vhttp://i.ebayimg.com/images/g/umcAAOSwc49Y74q4/s-l300.jpg
p28
sa(dp29
g19
Vhttp://i.ebayimg.com/images/g/zPoAAOSw4CFY74q4/s-l1600.jpg
p30
sg21
Vhttp://i.ebayimg.com/images/g/zPoAAOSw4CFY74q4/s-l300.jpg
p31
sa(dp32
g19
Vhttp://i.ebayimg.com/images/g/k60AAOSwc-tY74q4/s-l1600.jpg
p33
sg21
Vhttp://i.ebayimg.com/images/g/k60AAOSwc-tY74q4/s-l300.jpg
p34
sa(dp35
g19
Vhttp://i.ebayimg.com/images/g/zUsAAOSwTM5Y74q4/s-l1600.jpg
p36
sg21
Vhttp://i.ebayimg.com/images/g/zUsAAOSwTM5Y74q4/s-l300.jpg
p37
sa(dp38
g19
Vhttp://i.ebayimg.com/images/g/aGEAAOSwpP9Y74q5/s-l1600.jpg
p39
sg21
Vhttp://i.ebayimg.com/images/g/aGEAAOSwpP9Y74q5/s-l300.jpg
p40
sa(dp41
g19
Vhttp://i.ebayimg.com/images/g/zQwAAOSw4CFY74q4/s-l1600.jpg
p42
sg21
Vhttp://i.ebayimg.com/images/g/zQwAAOSw4CFY74q4/s-l300.jpg
p43
sa(dp44
g19
Vhttp://i.ebayimg.com/images/g/8fYAAOSw~CFY74q5/s-l1600.jpg
p45
sg21
Vhttp://i.ebayimg.com/images/g/8fYAAOSw~CFY74q5/s-l300.jpg
p46
sa(dp47
g19
Vhttp://i.ebayimg.com/images/g/1qAAAOSw03lY74q5/s-l1600.jpg
p48
sg21
Vhttp://i.ebayimg.com/images/g/1qAAAOSw03lY74q5/s-l300.jpg
p49
sa(dp50
g19
Vhttp://i.ebayimg.com/images/g/NrkAAOSwB-1Y74q6/s-l1600.jpg
p51
sg21
Vhttp://i.ebayimg.com/images/g/NrkAAOSwB-1Y74q6/s-l300.jpg
p52
sa(dp53
g19
Vhttp://i.ebayimg.com/images/g/zYMAAOSwTM5Y74q5/s-l1600.jpg
p54
sg21
Vhttp://i.ebayimg.com/images/g/zYMAAOSwTM5Y74q5/s-l300.jpg
p55
sa(dp56
g19
Vhttp://i.ebayimg.com/images/g/fRgAAOSwnF9Y74q5/s-l1600.jpg
p57
sg21
Vhttp://i.ebayimg.com/images/g/fRgAAOSwnF9Y74q5/s-l300.jpg
p58
sa(dp59
g19
Vhttp://i.ebayimg.com/images/g/1roAAOSw03lY74q5/s-l1600.jpg
p60
sg21
Vhttp://i.ebayimg.com/images/g/1roAAOSw03lY74q5/s-l300.jpg
p61
sa(dp62
g19
Vhttp://i.ebayimg.com/images/g/BJEAAOSwmgJY74q6/s-l1600.jpg
p63
sg21
Vhttp://i.ebayimg.com/images/g/BJEAAOSwmgJY74q6/s-l300.jpg
p64
sa(dp65
g19
Vhttp://i.ebayimg.com/images/g/fSoAAOSwnF9Y74q6/s-l1600.jpg
p66
sg21
Vhttp://i.ebayimg.com/images/g/fSoAAOSwnF9Y74q6/s-l300.jpg
p67
sa(dp68
g19
Vhttp://i.ebayimg.com/images/g/knUAAOSw3utY74q6/s-l1600.jpg
p69
sg21
Vhttp://i.ebayimg.com/images/g/knUAAOSw3utY74q6/s-l300.jpg
p70
sa(dp71
g19
Vhttp://i.ebayimg.com/images/g/L1YAAOSwrddY74q5/s-l1600.jpg
p72
sg21
Vhttp://i.ebayimg.com/images/g/L1YAAOSwrddY74q5/s-l300.jpg
p73
sa(dp74
g19
Vhttp://i.ebayimg.com/images/g/NpIAAOSwU8hY74q7/s-l1600.jpg
p75
sg21
Vhttp://i.ebayimg.com/images/g/NpIAAOSwU8hY74q7/s-l300.jpg
p76
sasS'shipping_info'
p77
(dp78
S'item_location'
p79
(lp80
sS'delivery'
p81
(lp82
sS'posts_to'
p83
(lp84
VLocal pick-up only
p85
assS'id'
p86
S'142347848586'
p87
s.