(dp1
S'title'
p2
Vtravel trailer 2018 grey wolf 26dbh rv camper new and used fifth wheels for sale
p3
sS'url'
p4
S'http://www.ebay.com/itm/Travel-Trailer-2018-Grey-Wolf-26DBH-RV-Camper-New-and-Used-Fifth-Wheels-For-Sale-/142381260928?hash=item212695a080:g:3jcAAOSwurZZFhMl&vxp=mtr'
p5
sS'price'
p6
VUS $16,901.00
p7
sS'seller'
p8
(dp9
g4
Vhttp://www.ebay.com/usr/rvsworldwide?_trksid=p2047675.l2559
p10
sS'name'
p11
V rvsworldwide
p12
ssS'description_links'
p13
(lp14
Vhttp://vi.vipr.ebaydesc.com/ws/eBayISAPI.dll?ViewItemDescV4&item=142381260928&t=0&tid=10&category=50063&seller=rvsworldwide&excSoj=1&excTrk=1&lsite=100&ittenable=false&domain=ebay.com&descgauge=1
p15
asS'images'
p16
(lp17
(dp18
S'maxImageUrl'
p19
Vhttp://i.ebayimg.com/images/g/3jcAAOSwurZZFhMl/s-l1600.jpg
p20
sS'displayImgUrl'
p21
Vhttp://i.ebayimg.com/images/g/3jcAAOSwurZZFhMl/s-l300.jpg
p22
sa(dp23
g19
Vhttp://i.ebayimg.com/images/g/VMkAAOSw8HBZFhMm/s-l1600.png
p24
sg21
Vhttp://i.ebayimg.com/images/g/VMkAAOSw8HBZFhMm/s-l300.png
p25
sa(dp26
g19
Vhttp://i.ebayimg.com/images/g/qjEAAOSwGJlZFhMl/s-l1600.jpg
p27
sg21
Vhttp://i.ebayimg.com/images/g/qjEAAOSwGJlZFhMl/s-l300.jpg
p28
sa(dp29
g19
Vhttp://i.ebayimg.com/images/g/ugsAAOSwcB5ZFhMl/s-l1600.jpg
p30
sg21
Vhttp://i.ebayimg.com/images/g/ugsAAOSwcB5ZFhMl/s-l300.jpg
p31
sa(dp32
g19
Vhttp://i.ebayimg.com/images/g/jsAAAOSwX61ZFhMl/s-l1600.jpg
p33
sg21
Vhttp://i.ebayimg.com/images/g/jsAAAOSwX61ZFhMl/s-l300.jpg
p34
sa(dp35
g19
Vhttp://i.ebayimg.com/images/g/BbsAAOSwKytZFhMl/s-l1600.jpg
p36
sg21
Vhttp://i.ebayimg.com/images/g/BbsAAOSwKytZFhMl/s-l300.jpg
p37
sa(dp38
g19
Vhttp://i.ebayimg.com/images/g/cwkAAOSwaEhZFhMl/s-l1600.jpg
p39
sg21
Vhttp://i.ebayimg.com/images/g/cwkAAOSwaEhZFhMl/s-l300.jpg
p40
sa(dp41
g19
Vhttp://i.ebayimg.com/images/g/eIIAAOSwaeRZFhMl/s-l1600.jpg
p42
sg21
Vhttp://i.ebayimg.com/images/g/eIIAAOSwaeRZFhMl/s-l300.jpg
p43
sa(dp44
g19
Vhttp://i.ebayimg.com/images/g/VLwAAOSw8HBZFhMl/s-l1600.jpg
p45
sg21
Vhttp://i.ebayimg.com/images/g/VLwAAOSw8HBZFhMl/s-l300.jpg
p46
sa(dp47
g19
Vhttp://i.ebayimg.com/images/g/FxMAAOSw5cRZFhMl/s-l1600.jpg
p48
sg21
Vhttp://i.ebayimg.com/images/g/FxMAAOSw5cRZFhMl/s-l300.jpg
p49
sa(dp50
g19
Vhttp://i.ebayimg.com/images/g/qi8AAOSwGJlZFhMl/s-l1600.jpg
p51
sg21
Vhttp://i.ebayimg.com/images/g/qi8AAOSwGJlZFhMl/s-l300.jpg
p52
sa(dp53
g19
Vhttp://i.ebayimg.com/images/g/yagAAOSwR29ZFhMl/s-l1600.jpg
p54
sg21
Vhttp://i.ebayimg.com/images/g/yagAAOSwR29ZFhMl/s-l300.jpg
p55
sa(dp56
g19
Vhttp://i.ebayimg.com/images/g/wjAAAOSw-3FZFhMl/s-l1600.jpg
p57
sg21
Vhttp://i.ebayimg.com/images/g/wjAAAOSw-3FZFhMl/s-l300.jpg
p58
sa(dp59
g19
Vhttp://i.ebayimg.com/images/g/FxIAAOSw5cRZFhMl/s-l1600.jpg
p60
sg21
Vhttp://i.ebayimg.com/images/g/FxIAAOSw5cRZFhMl/s-l300.jpg
p61
sa(dp62
g19
Vhttp://i.ebayimg.com/images/g/v-8AAOSwxu5ZFhMl/s-l1600.jpg
p63
sg21
Vhttp://i.ebayimg.com/images/g/v-8AAOSwxu5ZFhMl/s-l300.jpg
p64
sa(dp65
g19
Vhttp://i.ebayimg.com/images/g/ZmcAAOSwIQdZFhMl/s-l1600.jpg
p66
sg21
Vhttp://i.ebayimg.com/images/g/ZmcAAOSwIQdZFhMl/s-l300.jpg
p67
sa(dp68
g19
Vhttp://i.ebayimg.com/images/g/0esAAOSw~y9ZFhMl/s-l1600.jpg
p69
sg21
Vhttp://i.ebayimg.com/images/g/0esAAOSw~y9ZFhMl/s-l300.jpg
p70
sa(dp71
g19
Vhttp://i.ebayimg.com/images/g/eH4AAOSwaeRZFhMl/s-l1600.jpg
p72
sg21
Vhttp://i.ebayimg.com/images/g/eH4AAOSwaeRZFhMl/s-l300.jpg
p73
sa(dp74
g19
Vhttp://i.ebayimg.com/images/g/VFYAAOSw0hlZFhMl/s-l1600.jpg
p75
sg21
Vhttp://i.ebayimg.com/images/g/VFYAAOSw0hlZFhMl/s-l300.jpg
p76
sa(dp77
g19
Vhttp://i.ebayimg.com/images/g/AnIAAOSwrhBZFhMl/s-l1600.jpg
p78
sg21
Vhttp://i.ebayimg.com/images/g/AnIAAOSwrhBZFhMl/s-l300.jpg
p79
sa(dp80
g19
Vhttp://i.ebayimg.com/images/g/D0MAAOSwlMFZFhMl/s-l1600.jpg
p81
sg21
Vhttp://i.ebayimg.com/images/g/D0MAAOSwlMFZFhMl/s-l300.jpg
p82
sa(dp83
g19
Vhttp://i.ebayimg.com/images/g/KawAAOSwi7RZFhMl/s-l1600.jpg
p84
sg21
Vhttp://i.ebayimg.com/images/g/KawAAOSwi7RZFhMl/s-l300.jpg
p85
sa(dp86
g19
Vhttp://i.ebayimg.com/images/g/RfgAAOSwK6RZFhMl/s-l1600.jpg
p87
sg21
Vhttp://i.ebayimg.com/images/g/RfgAAOSwK6RZFhMl/s-l300.jpg
p88
sa(dp89
g19
Vhttp://i.ebayimg.com/images/g/qjIAAOSwGJlZFhMl/s-l1600.jpg
p90
sg21
Vhttp://i.ebayimg.com/images/g/qjIAAOSwGJlZFhMl/s-l300.jpg
p91
sasS'shipping_info'
p92
(dp93
S'item_location'
p94
(lp95
sS'delivery'
p96
(lp97
sS'posts_to'
p98
(lp99
VLocal pick-up only
p100
assS'id'
p101
S'142381260928'
p102
s.