(dp1
S'title'
p2
Vtravel trailer toy hauler wolf pack 24pack14+ rv camper new and used 5th wheels
p3
sS'url'
p4
S'http://www.ebay.com/itm/Travel-Trailer-Toy-Hauler-Wolf-Pack-24PACK14-RV-Camper-New-and-Used-5th-Wheels-/142381244794?hash=item212695617a:g:0mMAAOSwfRdZFg6-&vxp=mtr'
p5
sS'price'
p6
VUS $21,796.00
p7
sS'seller'
p8
(dp9
g4
Vhttp://www.ebay.com/usr/rvsworldwide?_trksid=p2047675.l2559
p10
sS'name'
p11
V rvsworldwide
p12
ssS'description_links'
p13
(lp14
Vhttp://vi.vipr.ebaydesc.com/ws/eBayISAPI.dll?ViewItemDescV4&item=142381244794&t=0&tid=10&category=50063&seller=rvsworldwide&excSoj=1&excTrk=1&lsite=100&ittenable=false&domain=ebay.com&descgauge=1
p15
asS'images'
p16
(lp17
(dp18
S'maxImageUrl'
p19
Vhttp://i.ebayimg.com/images/g/0mMAAOSwfRdZFg6-/s-l1600.jpg
p20
sS'displayImgUrl'
p21
Vhttp://i.ebayimg.com/images/g/0mMAAOSwfRdZFg6-/s-l300.jpg
p22
sa(dp23
g19
Vhttp://i.ebayimg.com/images/g/VyQAAOSwhvFZFg6-/s-l1600.png
p24
sg21
Vhttp://i.ebayimg.com/images/g/VyQAAOSwhvFZFg6-/s-l300.png
p25
sa(dp26
g19
Vhttp://i.ebayimg.com/images/g/Be8AAOSw8lpZFg6-/s-l1600.jpg
p27
sg21
Vhttp://i.ebayimg.com/images/g/Be8AAOSw8lpZFg6-/s-l300.jpg
p28
sa(dp29
g19
Vhttp://i.ebayimg.com/images/g/fuIAAOSwcB5ZFg6-/s-l1600.jpg
p30
sg21
Vhttp://i.ebayimg.com/images/g/fuIAAOSwcB5ZFg6-/s-l300.jpg
p31
sa(dp32
g19
Vhttp://i.ebayimg.com/images/g/h8oAAOSwn-tZFg6-/s-l1600.jpg
p33
sg21
Vhttp://i.ebayimg.com/images/g/h8oAAOSwn-tZFg6-/s-l300.jpg
p34
sa(dp35
g19
Vhttp://i.ebayimg.com/images/g/yEQAAOSw~FJZFg6-/s-l1600.jpg
p36
sg21
Vhttp://i.ebayimg.com/images/g/yEQAAOSw~FJZFg6-/s-l300.jpg
p37
sa(dp38
g19
Vhttp://i.ebayimg.com/images/g/w98AAOSwtGlZFg6-/s-l1600.jpg
p39
sg21
Vhttp://i.ebayimg.com/images/g/w98AAOSwtGlZFg6-/s-l300.jpg
p40
sa(dp41
g19
Vhttp://i.ebayimg.com/images/g/tfgAAOSww5hZFg6-/s-l1600.jpg
p42
sg21
Vhttp://i.ebayimg.com/images/g/tfgAAOSww5hZFg6-/s-l300.jpg
p43
sa(dp44
g19
Vhttp://i.ebayimg.com/images/g/71YAAOSwCQZZFg6-/s-l1600.jpg
p45
sg21
Vhttp://i.ebayimg.com/images/g/71YAAOSwCQZZFg6-/s-l300.jpg
p46
sa(dp47
g19
Vhttp://i.ebayimg.com/images/g/4zsAAOSww9xZFg6-/s-l1600.jpg
p48
sg21
Vhttp://i.ebayimg.com/images/g/4zsAAOSww9xZFg6-/s-l300.jpg
p49
sa(dp50
g19
Vhttp://i.ebayimg.com/images/g/UtAAAOSwX61ZFg6-/s-l1600.jpg
p51
sg21
Vhttp://i.ebayimg.com/images/g/UtAAAOSwX61ZFg6-/s-l300.jpg
p52
sa(dp53
g19
Vhttp://i.ebayimg.com/images/g/0M4AAOSwX9FZFg6-/s-l1600.jpg
p54
sg21
Vhttp://i.ebayimg.com/images/g/0M4AAOSwX9FZFg6-/s-l300.jpg
p55
sa(dp56
g19
Vhttp://i.ebayimg.com/images/g/KwoAAOSwblZZFg6-/s-l1600.jpg
p57
sg21
Vhttp://i.ebayimg.com/images/g/KwoAAOSwblZZFg6-/s-l300.jpg
p58
sasS'shipping_info'
p59
(dp60
S'item_location'
p61
(lp62
sS'delivery'
p63
(lp64
sS'posts_to'
p65
(lp66
VLocal pick-up only
p67
assS'id'
p68
S'142381244794'
p69
s.