(dp1
S'title'
p2
V2013 forest river grey wolf m-26 dbh
p3
sS'url'
p4
S'http://www.ebay.com/itm/2013-Forest-River-Grey-Wolf-M-26-DBH-/152480653493?hash=item23808e20b5:g:uZ8AAOSwmCVZALQz&vxp=mtr'
p5
sS'price'
p6
VUS $14,500.00
p7
sS'seller'
p8
(dp9
g4
Vhttp://www.ebay.com/usr/poprvs?_trksid=p2047675.l2559
p10
sS'name'
p11
V poprvs
p12
ssS'description_links'
p13
(lp14
Vhttp://vi.vipr.ebaydesc.com/ws/eBayISAPI.dll?ViewItemDescV4&item=152480653493&t=1495895947000&tid=10&category=50063&seller=poprvs&excSoj=1&excTrk=1&lsite=100&ittenable=false&domain=ebay.com&descgauge=1
p15
asS'images'
p16
(lp17
(dp18
S'maxImageUrl'
p19
Vhttp://i.ebayimg.com/images/g/uZ8AAOSwmCVZALQz/s-l1600.jpg
p20
sS'displayImgUrl'
p21
Vhttp://i.ebayimg.com/images/g/uZ8AAOSwmCVZALQz/s-l300.jpg
p22
sa(dp23
g19
Vhttp://i.ebayimg.com/images/g/pGAAAOSwvihZALQ1/s-l1600.jpg
p24
sg21
Vhttp://i.ebayimg.com/images/g/pGAAAOSwvihZALQ1/s-l300.jpg
p25
sa(dp26
g19
Vhttp://i.ebayimg.com/images/g/G40AAOSwuspZALQ8/s-l1600.jpg
p27
sg21
Vhttp://i.ebayimg.com/images/g/G40AAOSwuspZALQ8/s-l300.jpg
p28
sa(dp29
g19
Vhttp://i.ebayimg.com/images/g/BD4AAOSwVm5ZALQ-/s-l1600.jpg
p30
sg21
Vhttp://i.ebayimg.com/images/g/BD4AAOSwVm5ZALQ-/s-l300.jpg
p31
sa(dp32
g19
Nsg21
Vhttp://i.ebayimg.com/images/g/G80AAOSwuspZALQ~/s-l300.jpg
p33
sa(dp34
g19
Nsg21
Vhttp://i.ebayimg.com/images/g/~RgAAOSwIWVZALRC/s-l300.jpg
p35
sa(dp36
g19
Nsg21
Vhttp://i.ebayimg.com/images/g/sfUAAOSwE0JZALRD/s-l300.jpg
p37
sa(dp38
g19
Vhttp://i.ebayimg.com/images/g/vj4AAOSw3ZRZALRF/s-l1600.jpg
p39
sg21
Vhttp://i.ebayimg.com/images/g/vj4AAOSw3ZRZALRF/s-l300.jpg
p40
sa(dp41
g19
Vhttp://i.ebayimg.com/images/g/4CcAAOSwtZJZALRH/s-l1600.jpg
p42
sg21
Vhttp://i.ebayimg.com/images/g/4CcAAOSwtZJZALRH/s-l300.jpg
p43
sa(dp44
g19
Vhttp://i.ebayimg.com/images/g/y5QAAOSwRUhZALRJ/s-l1600.jpg
p45
sg21
Vhttp://i.ebayimg.com/images/g/y5QAAOSwRUhZALRJ/s-l300.jpg
p46
sa(dp47
g19
Vhttp://i.ebayimg.com/images/g/EGkAAOSwN6JZALRL/s-l1600.jpg
p48
sg21
Vhttp://i.ebayimg.com/images/g/EGkAAOSwN6JZALRL/s-l300.jpg
p49
sa(dp50
g19
Vhttp://i.ebayimg.com/images/g/2N0AAOSw7U5ZALRP/s-l1600.jpg
p51
sg21
Vhttp://i.ebayimg.com/images/g/2N0AAOSw7U5ZALRP/s-l300.jpg
p52
sasS'shipping_info'
p53
(dp54
S'item_location'
p55
(lp56
sS'delivery'
p57
(lp58
sS'posts_to'
p59
(lp60
VLocal pick-up only
p61
assS'id'
p62
S'152480653493'
p63
s.