(dp1
S'title'
p2
Vindustrial air handling unit wolf-klimatechnik
p3
sS'url'
p4
S'http://www.ebay.com/itm/Industrial-Air-Handling-Unit-Wolf-Klimatechnik-/222524900676?hash=item33cf848544:g:bhYAAOSwWWxY9mID'
p5
sS'price'
p6
VUS $28,000.00
p7
sS'seller'
p8
(dp9
g4
Vhttp://www.ebay.com/usr/ankipatida_92?_trksid=p2047675.l2559
p10
sS'name'
p11
V ankipatida_92
p12
ssS'description_links'
p13
(lp14
Vhttp://vi.vipr.ebaydesc.com/ws/eBayISAPI.dll?ViewItemDescV4&item=222524900676&t=1494863023000&tid=10&category=42910&seller=ankipatida_92&excSoj=1&excTrk=1&lsite=0&ittenable=false&domain=ebay.com&descgauge=1
p15
asS'images'
p16
(lp17
(dp18
S'maxImageUrl'
p19
Vhttp://i.ebayimg.com/images/g/bhYAAOSwWWxY9mID/s-l1600.jpg
p20
sS'displayImgUrl'
p21
Vhttp://i.ebayimg.com/images/g/bhYAAOSwWWxY9mID/s-l300.jpg
p22
sasS'shipping_info'
p23
(dp24
S'item_location'
p25
(lp26
V\u000aCleveland, Ohio, United States
p27
asS'delivery'
p28
(lp29
VVaries
p30
asS'posts_to'
p31
(lp32
VLocal pick-up only
p33
assS'id'
p34
S'222524900676'
p35
s.