(dp1
S'title'
p2
VFREE SHIPPING Large 20"h Night Fairy with Pet Wolf Figurine Fantasy Figurine Gift Collectible
p3
sS'url'
p4
Vhttp://www.ecrater.com/p/24737097/large-20h-night-fairy-with-pet?keywords=wolf
p5
sS'price'
p6
V$179.95
p7
sS'seller'
p8
Vhttp://eyeofthemoon.ecrater.com
p9
sS'description_links'
p10
VWolf w Fairy Statue13 3/4" x 12" x 20" Hand painted Resin   eCRATER Marketing, eCRATER listing Apps, eCRATER Apps, eCRATER Application
p11
sS'images'
p12
(lp13
sS'shipping_info'
p14
(lp15
V4 available
p16
aVShipping:US-Mainland: free(more destinations)
p17
aVCondition: Brand new
p18
asS'id'
p19
V24737097
p20
s.