(dp1
S'title'
p2
VE-HOME Stretched LED Canvas Print Art  The Wolf Flash Effect LED Flashing Optical Fiber Print Set
p3
sS'url'
p4
Vhttp://www.ecrater.com/p/26629641/e-home-stretched-led-canvas-print?keywords=wolf
p5
sS'price'
p6
V$149.91
p7
sS'seller'
p8
Vhttp://wallart101.ecrater.com
p9
sS'description_links'
p10
VSpecificationsBrand: E-HOME,Products type: LED Canvas Art,Subject: Fantasy,Animal,Color: Reds,Collection: E-home,Dimensions: 24cm x 70cm(9inchx28inch) x3pcs,30cm x 90cm(12inchx35inch) x3pcs,Shipping Weight(kg): 1.6,For more help,please take a look our FAQHuge wall art in my store,welcome to take a look in my store! Kindly note,If there are option(color or size),you can send your choice via note or email:aftak47no3000@163.com after finish the order,and if no choice,we will ship the default(The product as first picture) to you.It's good for delivery when there are contact phone numbers,if you aren't sure the pick-up address.
p11
sS'images'
p12
(lp13
sS'shipping_info'
p14
(lp15
VMore than 10 available
p16
aVShipping:US-Mainland: $6.00(more destinations)
p17
aVCondition: Brand new
p18
asS'id'
p19
V26629641
p20
s.