(dp1
S'title'
p2
VBelarus 2007 20 Roubles~NGC PR-69 UC~Highest~WOLF With Golden Swarovski Crystals
p3
sS'url'
p4
Vhttp://www.ecrater.com/p/26754943/belarus-2007-20-roublesngc-pr-69-uchighestwolf-with-golden?keywords=wolf
p5
sS'price'
p6
V$169.99
p7
sS'seller'
p8
Vhttp://coin5555.ecrater.com
p9
sS'description_links'
p10
VCOIN5555 U.S. AND FOREIGN RARE COINS~SPECIAL OFFERING~*Belarus 2007 Silver 20 RoublesNGC Proof 69 Ultra CameoWith a Wolf (Canis Lupas)That Has EyesWith Golden Colored Swarovski Crystals On The Reverse a Low Mintage Of 7,000. There Is No Coin Graded Higher In The World.* WeHaveA Large Selection OfNumismatic Items.* Free Domestic Shipping. ~SHIPPING~* We Ship Fast As Our Customers Know, In Most Cases Your Order Will Be Processed And On The Way To You Within One Business Day.* All Items Are Packaged Professionally And With Extreme Care, Secure Shipping Is Our Standard.* No Returns On NGC Or PCGS Certified Coins.* International Orders Are Shipped Either 1st Class International Or Global Priority Mail.~PAYMENT~* We Accept All Major Credit Cards Thru Paypal.Powered by eCRATER . List your items fast and easy and manage your active items.
p11
sS'images'
p12
(lp13
sS'shipping_info'
p14
(lp15
VOnly 1 available
p16
aVShipping:US-Mainland: free(more destinations)
p17
aVCondition: Used
p18
asS'id'
p19
V26754943
p20
s.