(dp1
S'title'
p2
VThe Lone Wolf Series DVD-R
p3
sS'url'
p4
Vhttp://www.ecrater.com/p/27127824/the-lone-wolf-series-dvd-r?keywords=wolf
p5
sS'price'
p6
V$167.89
p7
sS'seller'
p8
Vhttp://sterecta1.ecrater.com
p9
sS'description_links'
p10
VGet all 16 Lone Wolf films for 30% off their individual prices! The Lone Wolf was Columbia's "B" series about a gentleman thief. Light-hearted mysteries in the vein of The Thin Man series. This 16 movie set includes False Faces (1919), The Lone Wolf Returns (1935), Lone Wolf in Paris (1938), Lone Wolf Spy Hunt (1939), The Lone Wolf Strikes (1940), Lone Wolf Meets a Lady (1940), Lone Wolf Keeps a Date (1941), Lone Wolf Takes a Chance (1941), Secrets of the Lone Wolf (1941), Counter Espionage (1942), One Dangerous Night (1943), Passport to Suez (1943), The Notorious Lone Wolf (1946), Lone Wolf in London (1947), Lone Wolf in Mexico (1947) and Lone Wolf and His Lady. (1949)
p11
sS'images'
p12
(lp13
sS'shipping_info'
p14
(lp15
V3 available
p16
aVShipping:USPS calculated - check
p17
aVCondition: Brand new
p18
asS'id'
p19
V27127824
p20
s.