(dp1
S'title'
p2
VWOLF PELT #782556
p3
sS'url'
p4
Vhttp://www.glacierwear.com/wolf-pelt-782556.html
p5
sS'price'
p6
V499.95
p7
sS'seller'
p8
(lp9
sS'description_links'
p10
V- Tip of Nose to Tip of Tail:77 inches - Select Quality Fur: X-Heavy, Glossy, X-Silky - Color: Black- Life-Size- All Claws, Paws and Toe Pads- Ears Turned. Lips Split.- No Lower Jaw- Origin: Canada
p11
sS'images'
p12
(lp13
Vhttp://www.glacierwear.com/media/catalog/product/cache/1/thumbnail/500x/17f82f742ffe127f42dca9de82fb58b1/7/8/782556.jpg
p14
asS'shipping_info'
p15
VFree Shipping on $100.00+
p16
sS'id'
p17
V782556_1497069227
p18
s.