(dp1
S'title'
p2
VManed wolf Skull
p3
sS'url'
p4
Vhttp://www.boneroom.com/store/p1146/Maned_wolf_Skull.html
p5
sS'price'
p6
V$144.00
p7
sS'seller'
p8
(lp9
sS'description_links'
p10
VChrysocyon brachyurus8.9" in length
p11
sS'images'
p12
(lp13
Vhttp://www.boneroom.com//uploads/4/8/1/1/48118243/s521972503441136676_p1146_i1_w500.jpeg
p14
asS'shipping_info'
p15
(lp16
sS'id'
p17
Vp1146_1497069295
p18
s.