(dp1
S'title'
p2
VDire Wolf Skull Cast
p3
sS'url'
p4
Vhttp://www.boneroom.com/store/p1558/Dire_Wolf_Skull_Cast.html
p5
sS'price'
p6
V$231.00
p7
sS'seller'
p8
(lp9
sS'description_links'
p10
VCanis dirus 12.2" long
p11
sS'images'
p12
(lp13
Vhttp://www.boneroom.com//uploads/4/8/1/1/48118243/s521972503441136676_p1558_i1_w437.jpeg
p14
asS'shipping_info'
p15
(lp16
sS'id'
p17
Vp1558_1497069298
p18
s.