(dp1
S'title'
p2
VDire Wolf Baculum Cast
p3
sS'url'
p4
Vhttp://www.boneroom.com/store/p1559/Dire_Wolf_Baculum_Cast.html
p5
sS'price'
p6
V$18.00
p7
sS'seller'
p8
(lp9
sS'description_links'
p10
VCanis dirus  7.0" x 7.5" x 0.5"
p11
sS'images'
p12
(lp13
Vhttp://www.boneroom.com//uploads/4/8/1/1/48118243/s521972503441136676_p1559_i1_w545.jpeg
p14
asS'shipping_info'
p15
(lp16
sS'id'
p17
Vp1559_1497069301
p18
s.