(dp1
S'title'
p2
VSheared Mink Fur Scarf #13
p3
sS'url'
p4
Vhttp://www.glacierwear.com/sheared-mink-fur-scarf-13.html
p5
sS'price'
p6
V179.95
p7
sS'seller'
p8
(lp9
sS'description_links'
p10
Vmnk120013Sheared Mink Fur Scarf #13Fringe StyleFringe Scarf approx. 58" long.
p11
sS'images'
p12
(lp13
Vhttp://www.glacierwear.com/media/catalog/product/cache/1/thumbnail/500x/17f82f742ffe127f42dca9de82fb58b1/i/m/img_3001.jpg
p14
asS'shipping_info'
p15
VFree Shipping on $100.00+
p16
sS'id'
p17
V13_1497084784
p18
s.