(dp1
S'title'
p2
Vvintage acl soda pop bottle: green scot of sturgeon, pa   -7 oz acl
p3
sS'url'
p4
S'http://www.ebay.com/itm/vintage-ACL-Soda-POP-Bottle-green-SCOT-of-STURGEON-PA-7-oz-ACL-/331591273327?hash=item4d34614b6f:g:Mk4AAOSw9N1VjLLa'
p5
sS'price'
p6
VUS $29.99
p7
sS'seller'
p8
(dp9
g4
Vhttp://www.ebay.com/usr/bagheracat?_trksid=p2047675.l2559
p10
sS'name'
p11
V bagheracat
p12
ssS'description_links'
p13
(lp14
Vhttp://vi.vipr.ebaydesc.com/ws/eBayISAPI.dll?ViewItemDescV4&item=331591273327&t=1435281915000&tid=10&category=13915&seller=bagheracat&excSoj=1&excTrk=1&lsite=0&ittenable=false&domain=ebay.com&descgauge=1
p15
asS'images'
p16
(lp17
(dp18
S'maxImageUrl'
p19
Vhttp://i.ebayimg.com/images/g/Mk4AAOSw9N1VjLLa/s-l1600.jpg
p20
sS'displayImgUrl'
p21
Vhttp://i.ebayimg.com/images/g/Mk4AAOSw9N1VjLLa/s-l300.jpg
p22
sa(dp23
g19
Vhttp://i.ebayimg.com/images/g/lGgAAOSwDNdVjLLc/s-l1600.jpg
p24
sg21
Vhttp://i.ebayimg.com/images/g/lGgAAOSwDNdVjLLc/s-l300.jpg
p25
sa(dp26
g19
Vhttp://i.ebayimg.com/images/g/MtAAAOSw9N1VjLLg/s-l1600.jpg
p27
sg21
Vhttp://i.ebayimg.com/images/g/MtAAAOSw9N1VjLLg/s-l300.jpg
p28
sasS'shipping_info'
p29
(dp30
S'item_location'
p31
(lp32
V\u000aMurrysville, Pennsylvania, United States
p33
asS'delivery'
p34
(lp35
VVaries
p36
asS'posts_to'
p37
(lp38
VWorldwide
p39
assS'id'
p40
S'331591273327'
p41
s.