(dp1
S'title'
p2
V\u000aBoys Girl STAN SMITH SUPERSTAR SPORTS SHOES WHITE/GREEN\u000a
p3
sS'url'
p4
Vhttp://www.ioffer.com/i/boys-girl-stan-smith-superstar-sports-shoes-white-green-629877673
p5
sS'price'
p6
V$18.00
p7
sS'seller'
p8
(lp9
sS'description_links'
p10
VADIDAS MEN WOMENS  STAN SMITH SUPERSTAR SPORTS SHOES WHITE/GREENSIZE:EUR  3,6\uff0c37\uff0c38\uff0c39\uff0c40\uff0c41\uff0c42\uff0c43\uff0c44 NOTE: please tell me EUR size, if you have order.  HI friend. you can pay in Visa,master Card, JCB,or Western Union, Paypal(Please tell me your paypal Email, i can send paypal invoice to you. Thanks :)
p11
sS'images'
p12
(lp13
Vhttp://cdn.iofferphoto.com/img/item/629/877/673/t_boys-girl-stan-smith-superstar-sports-shoes-white-green-df9f.jpg
p14
aVhttp://cdn.iofferphoto.com/img/item/629/877/673/t_boys-girl-stan-smith-superstar-sports-shoes-white-green-8d27.jpg
p15
aVhttp://cdn.iofferphoto.com/img/item/629/877/673/t_boys-girl-stan-smith-superstar-sports-shoes-white-green-4c04.jpg
p16
aVhttp://cdn.iofferphoto.com/img/item/629/877/673/t_boys-girl-stan-smith-superstar-sports-shoes-white-green-5ee1.jpg
p17
aVhttp://cdn.iofferphoto.com/img/item/629/877/673/t_boys-girl-stan-smith-superstar-sports-shoes-white-green-3a30.jpg
p18
aVhttp://cdn.iofferphoto.com/img/item/629/877/673/t_boys-girl-stan-smith-superstar-sports-shoes-white-green-c989.jpg
p19
aVhttp://cdn.iofferphoto.com/img/item/629/877/673/t_boys-girl-stan-smith-superstar-sports-shoes-white-green-15e7.jpg
p20
aVhttp://cdn.iofferphoto.com/img/item/629/877/673/t_boys-girl-stan-smith-superstar-sports-shoes-white-green-4ade.jpg
p21
aVhttp://cdn.iofferphoto.com/img/item/629/877/673/t_boys-girl-stan-smith-superstar-sports-shoes-white-green-1d1e.jpg
p22
aVhttp://cdn.iofferphoto.com/img/item/629/877/673/t_boys-girl-stan-smith-superstar-sports-shoes-white-green-8713.jpg
p23
aVhttp://cdn.iofferphoto.com/img/item/629/877/673/t_boys-girl-stan-smith-superstar-sports-shoes-white-green-4617.jpg
p24
aVhttp://cdn.iofferphoto.com/img/item/629/877/673/t_boys-girl-stan-smith-superstar-sports-shoes-white-green-4b1b.jpg
p25
aVhttp://cdn.iofferphoto.com/img/item/629/877/673/t_boys-girl-stan-smith-superstar-sports-shoes-white-green-8098.jpg
p26
asS'shipping_info'
p27
VAvailable ColorsAvailable SizesWomen's Shoe SizesUSA5.56.57.58.59.51010.511.512.5UK3.54.55.56.57.588.59.510.5European363738394041.5424344Japan21.522.524.525.526.52727.528.529.5LogoAdidasEstimated Shipping1 - 3 Days
p28
sS'id'
p29
V629877673_1497084843
p30
s.