(dp1
S'title'
p2
V\u000aBoys Girl STAN SMITH SUPERSTAR SPORTS SHOES WHITE/GREEN\u000a
p3
sS'url'
p4
Vhttp://www.ioffer.com/i/boys-girl-stan-smith-superstar-sports-shoes-white-green-631257731
p5
sS'price'
p6
V$17.90
p7
sS'seller'
p8
(lp9
sS'description_links'
p10
VMEN WOMENS  STAN SMITH SUPERSTAR SPORTS SHOES WHITE/GREENSIZE:EUR  3,6\uff0c37\uff0c38\uff0c39\uff0c40\uff0c41\uff0c42\uff0c43\uff0c44 NOTE: please tell me EUR size, if you have order.  HI friend. you can pay in Visa,master Card, JCB,or Western Union, Paypal(Please tell me your paypal Email, i can send paypal invoice to you. Thanks :)
p11
sS'images'
p12
(lp13
Vhttp://cdn.iofferphoto.com/img3/item/631/257/731/t_boys-girl-stan-smith-superstar-sports-shoes-white-green-68ab.jpg
p14
aVhttp://cdn.iofferphoto.com/img3/item/631/257/731/t_boys-girl-stan-smith-superstar-sports-shoes-white-green-32d8.jpg
p15
aVhttp://cdn.iofferphoto.com/img3/item/631/257/731/t_boys-girl-stan-smith-superstar-sports-shoes-white-green-9145.jpg
p16
aVhttp://cdn.iofferphoto.com/img3/item/631/257/731/t_boys-girl-stan-smith-superstar-sports-shoes-white-green-aef0.jpg
p17
aVhttp://cdn.iofferphoto.com/img3/item/631/257/731/t_boys-girl-stan-smith-superstar-sports-shoes-white-green-5fa3.jpg
p18
aVhttp://cdn.iofferphoto.com/img3/item/631/257/731/t_boys-girl-stan-smith-superstar-sports-shoes-white-green-f6d8.jpg
p19
aVhttp://cdn.iofferphoto.com/img3/item/631/257/731/t_boys-girl-stan-smith-superstar-sports-shoes-white-green-7af5.jpg
p20
aVhttp://cdn.iofferphoto.com/img3/item/631/257/731/t_boys-girl-stan-smith-superstar-sports-shoes-white-green-0b80.jpg
p21
aVhttp://cdn.iofferphoto.com/img3/item/631/257/731/t_boys-girl-stan-smith-superstar-sports-shoes-white-green-e42a.jpg
p22
aVhttp://cdn.iofferphoto.com/img3/item/631/257/731/t_boys-girl-stan-smith-superstar-sports-shoes-white-green-6777.jpg
p23
aVhttp://cdn.iofferphoto.com/img3/item/631/257/731/t_boys-girl-stan-smith-superstar-sports-shoes-white-green-ab66.jpg
p24
aVhttp://cdn.iofferphoto.com/img3/item/631/257/731/t_boys-girl-stan-smith-superstar-sports-shoes-white-green-ac14.jpg
p25
asS'shipping_info'
p26
VAvailable ColorsAvailable SizesWomen's Shoe SizesUSA4.55.56.57.58.59.51010.511.512.5UK2.53.54.55.56.57.588.59.510.5European35363738394041.5424344Japan20.521.522.524.525.526.52727.528.529.5Estimated Shipping1 - 3 Days
p27
sS'id'
p28
V631257731_1497084867
p29
s.