(dp1
S'title'
p2
VGreen Iguana Skull Cast
p3
sS'url'
p4
Vhttp://www.boneroom.com/store/p1496/Green_Iguana_Skull_Cast.html
p5
sS'price'
p6
V$102.00
p7
sS'seller'
p8
(lp9
sS'description_links'
p10
VIguana iguana4.5" in length
p11
sS'images'
p12
(lp13
Vhttp://www.boneroom.com//uploads/4/8/1/1/48118243/s521972503441136676_p1496_i1_w500.jpeg
p14
asS'shipping_info'
p15
(lp16
sS'id'
p17
Vp1496_1497084899
p18
s.