(dp1
S'title'
p2
VAbalone-Green
p3
sS'url'
p4
Vhttp://www.boneroom.com/store/p501/Abalone-Green.html
p5
sS'price'
p6
V$5.00
p7
sS'seller'
p8
(lp9
sS'description_links'
p10
VOpalescent half shells with a striated turquoise tint. Approximately 3" total length
p11
sS'images'
p12
(lp13
Vhttp://www.boneroom.com//uploads/4/8/1/1/48118243/s521972503441136676_p501_i2_w600.jpeg
p14
asS'shipping_info'
p15
(lp16
sS'id'
p17
Vp501_1497084878
p18
s.