(dp1
S'title'
p2
VGreen Cross Ottertail Paddle
p3
sS'url'
p4
Vhttp://www.glacierwear.com/green-cross-ottertail-paddle.html
p5
sS'price'
p6
V164.95
p7
sS'seller'
p8
(lp9
sS'description_links'
p10
VNEW ITEM!LOW INTRODUCTORY PRICE!\u2022 Hand-Crafted, White-Ash Ottertail Paddle\u2022 Classic Guide Grip\u2022 5 3/4" Blade and 57" long (custom sizes available)
p11
sS'images'
p12
(lp13
Vhttp://www.glacierwear.com/media/catalog/product/cache/1/thumbnail/500x/17f82f742ffe127f42dca9de82fb58b1/1/-/1-img_3214.jpg
p14
asS'shipping_info'
p15
VFree Shipping on $100.00+
p16
sS'id'
p17
Vpaddle_1497084790
p18
s.