(dp1
S'title'
p2
VPIG SUEDE - SEA FOAM 
p3
sS'url'
p4
Vhttp://www.glacierwear.com/pig-suede-sea-foam.html
p5
sS'price'
p6
V39
p7
sS'seller'
p8
(lp9
sS'description_links'
p10
Vlth1824Pig Suede Leather- Sea Foam Color- Suede Finish with Smooth Back- Approximate Weight\u20141-2 oz. (1 oz = 1/64 of an inch in thickness) - First Quality Leather: Will Have Natural Imperfections, Scarring, Holes (No Center Holes).One Piece Only
p11
sS'images'
p12
(lp13
Vhttp://www.glacierwear.com/media/catalog/product/cache/1/thumbnail/500x/17f82f742ffe127f42dca9de82fb58b1/l/t/lth1824.jpg
p14
asS'shipping_info'
p15
VFree Shipping on $100.00+
p16
sS'id'
p17
Vfoam_1497084329
p18
s.