(dp1
S'title'
p2
VABALONE SHELL
p3
sS'url'
p4
Vhttp://www.glacierwear.com/abalone-shell.html
p5
sS'price'
p6
V7.95
p7
sS'seller'
p8
(lp9
sS'description_links'
p10
Vaba1000shlAbalone Shell
p11
sS'images'
p12
(lp13
Vhttp://www.glacierwear.com/media/catalog/product/cache/1/thumbnail/500x/17f82f742ffe127f42dca9de82fb58b1/i/m/img_8331.jpg
p14
asS'shipping_info'
p15
VFree Shipping on $100.00+
p16
sS'id'
p17
Vshell_1497084330
p18
s.