(dp1
S'title'
p2
V1890 antique french singing bird cage music box automaton taxidermy hummingbird
p3
sS'url'
p4
S'http://www.ebay.com/itm/1890-Antique-French-Singing-Bird-Cage-Music-Box-Automaton-Taxidermy-Hummingbird-/122174891049?hash=item1c7230e429:g:6fEAAOSwgZ1XqgVN'
p5
sS'price'
p6
VUS $22,450.00
p7
sS'seller'
p8
(dp9
g4
Vhttp://www.ebay.com/usr/collectibles8899?_trksid=p2047675.l2559
p10
sS'name'
p11
V collectibles8899
p12
ssS'description_links'
p13
(lp14
Vhttp://vi.vipr.ebaydesc.com/ws/eBayISAPI.dll?ViewItemDescV4&item=122174891049&t=1470945003000&tid=10&category=156295&seller=collectibles8899&excSoj=1&excTrk=1&lsite=0&ittenable=false&domain=ebay.com&descgauge=1
p15
asS'images'
p16
(lp17
(dp18
S'maxImageUrl'
p19
Vhttp://i.ebayimg.com/images/g/6fEAAOSwgZ1XqgVN/s-l1600.jpg
p20
sS'displayImgUrl'
p21
Vhttp://i.ebayimg.com/images/g/6fEAAOSwgZ1XqgVN/s-l300.jpg
p22
sa(dp23
g19
Vhttp://i.ebayimg.com/images/g/Go0AAOSwZVlXqgUp/s-l1600.jpg
p24
sg21
Vhttp://i.ebayimg.com/images/g/Go0AAOSwZVlXqgUp/s-l300.jpg
p25
sa(dp26
g19
Vhttp://i.ebayimg.com/images/g/8WYAAOSw0UdXqgUw/s-l1600.jpg
p27
sg21
Vhttp://i.ebayimg.com/images/g/8WYAAOSw0UdXqgUw/s-l300.jpg
p28
sa(dp29
g19
Vhttp://i.ebayimg.com/images/g/TLwAAOSwIgNXqgUw/s-l1600.jpg
p30
sg21
Vhttp://i.ebayimg.com/images/g/TLwAAOSwIgNXqgUw/s-l300.jpg
p31
sa(dp32
g19
Vhttp://i.ebayimg.com/images/g/82AAAOSwHoFXqgU9/s-l1600.jpg
p33
sg21
Vhttp://i.ebayimg.com/images/g/82AAAOSwHoFXqgU9/s-l300.jpg
p34
sa(dp35
g19
Vhttp://i.ebayimg.com/images/g/~bYAAOSw9NdXqgU7/s-l1600.jpg
p36
sg21
Vhttp://i.ebayimg.com/images/g/~bYAAOSw9NdXqgU7/s-l300.jpg
p37
sa(dp38
g19
Vhttp://i.ebayimg.com/images/g/dv0AAOSwV0RXqgU9/s-l1600.jpg
p39
sg21
Vhttp://i.ebayimg.com/images/g/dv0AAOSwV0RXqgU9/s-l300.jpg
p40
sa(dp41
g19
Vhttp://i.ebayimg.com/images/g/dmUAAOSwaB5XqgVA/s-l1600.jpg
p42
sg21
Vhttp://i.ebayimg.com/images/g/dmUAAOSwaB5XqgVA/s-l300.jpg
p43
sa(dp44
g19
Vhttp://i.ebayimg.com/images/g/~5oAAOSw9NdXqgVF/s-l1600.jpg
p45
sg21
Vhttp://i.ebayimg.com/images/g/~5oAAOSw9NdXqgVF/s-l300.jpg
p46
sa(dp47
g19
Vhttp://i.ebayimg.com/images/g/6qAAAOSwgZ1XqgVR/s-l1600.jpg
p48
sg21
Vhttp://i.ebayimg.com/images/g/6qAAAOSwgZ1XqgVR/s-l300.jpg
p49
sa(dp50
g19
Vhttp://i.ebayimg.com/images/g/7kMAAOSwU-pXqgWO/s-l1600.jpg
p51
sg21
Vhttp://i.ebayimg.com/images/g/7kMAAOSwU-pXqgWO/s-l300.jpg
p52
sa(dp53
g19
Vhttp://i.ebayimg.com/images/g/AEEAAOSwHoFXqgVw/s-l1600.jpg
p54
sg21
Vhttp://i.ebayimg.com/images/g/AEEAAOSwHoFXqgVw/s-l300.jpg
p55
sasS'shipping_info'
p56
(dp57
S'item_location'
p58
(lp59
V\u000aFullerton, California, United States
p60
asS'delivery'
p61
(lp62
VVaries
p63
asS'posts_to'
p64
(lp65
VWorldwide
p66
assS'id'
p67
S'122174891049'
p68
s.