(dp1
S'title'
p2
V2017 jayco hummingbird 17fd travel trailer 2715 lbs sleeps 4 blowout clearance
p3
sS'url'
p4
S'http://www.ebay.com/itm/2017-Jayco-Hummingbird-17FD-Travel-Trailer-2715-Lbs-Sleeps-4-BLOWOUT-CLEARANCE-/192209524840?hash=item2cc0949868:g:EccAAOSwq1JZNtn3&vxp=mtr'
p5
sS'price'
p6
VUS $14,420.00
p7
sS'seller'
p8
(dp9
g4
Vhttp://www.ebay.com/usr/bestrvprice?_trksid=p2047675.l2559
p10
sS'name'
p11
V bestrvprice
p12
ssS'description_links'
p13
(lp14
Vhttp://vi.vipr.ebaydesc.com/ws/eBayISAPI.dll?ViewItemDescV4&item=192209524840&t=0&tid=10&category=50063&seller=bestrvprice&excSoj=1&excTrk=1&lsite=100&ittenable=false&domain=ebay.com&descgauge=1
p15
asS'images'
p16
(lp17
(dp18
S'maxImageUrl'
p19
Vhttp://i.ebayimg.com/images/g/EccAAOSwq1JZNtn3/s-l1600.jpg
p20
sS'displayImgUrl'
p21
Vhttp://i.ebayimg.com/images/g/EccAAOSwq1JZNtn3/s-l300.jpg
p22
sa(dp23
g19
Vhttp://i.ebayimg.com/images/g/yJMAAOSw7GRZNtn3/s-l1600.png
p24
sg21
Vhttp://i.ebayimg.com/images/g/yJMAAOSw7GRZNtn3/s-l300.png
p25
sa(dp26
g19
Vhttp://i.ebayimg.com/images/g/PK0AAOSwYlRZNtn3/s-l1600.jpg
p27
sg21
Vhttp://i.ebayimg.com/images/g/PK0AAOSwYlRZNtn3/s-l300.jpg
p28
sa(dp29
g19
Vhttp://i.ebayimg.com/images/g/JiAAAOSwurZZNtn5/s-l1600.jpg
p30
sg21
Vhttp://i.ebayimg.com/images/g/JiAAAOSwurZZNtn5/s-l300.jpg
p31
sa(dp32
g19
Vhttp://i.ebayimg.com/images/g/8VIAAOSwYvFZNtn3/s-l1600.jpg
p33
sg21
Vhttp://i.ebayimg.com/images/g/8VIAAOSwYvFZNtn3/s-l300.jpg
p34
sa(dp35
g19
Vhttp://i.ebayimg.com/images/g/V2EAAOSws5pZNtn3/s-l1600.jpg
p36
sg21
Vhttp://i.ebayimg.com/images/g/V2EAAOSws5pZNtn3/s-l300.jpg
p37
sa(dp38
g19
Vhttp://i.ebayimg.com/images/g/fYwAAOSw5cRZNtn3/s-l1600.jpg
p39
sg21
Vhttp://i.ebayimg.com/images/g/fYwAAOSw5cRZNtn3/s-l300.jpg
p40
sa(dp41
g19
Vhttp://i.ebayimg.com/images/g/HCcAAOSwlndZNtn3/s-l1600.jpg
p42
sg21
Vhttp://i.ebayimg.com/images/g/HCcAAOSwlndZNtn3/s-l300.jpg
p43
sa(dp44
g19
Vhttp://i.ebayimg.com/images/g/PLMAAOSwYlRZNtn3/s-l1600.jpg
p45
sg21
Vhttp://i.ebayimg.com/images/g/PLMAAOSwYlRZNtn3/s-l300.jpg
p46
sa(dp47
g19
Vhttp://i.ebayimg.com/images/g/YmIAAOSwaeRZNtn3/s-l1600.jpg
p48
sg21
Vhttp://i.ebayimg.com/images/g/YmIAAOSwaeRZNtn3/s-l300.jpg
p49
sa(dp50
g19
Vhttp://i.ebayimg.com/images/g/Aq0AAOSwPh5ZNtn3/s-l1600.jpg
p51
sg21
Vhttp://i.ebayimg.com/images/g/Aq0AAOSwPh5ZNtn3/s-l300.jpg
p52
sa(dp53
g19
Vhttp://i.ebayimg.com/images/g/y~EAAOSwrhBZNtn3/s-l1600.jpg
p54
sg21
Vhttp://i.ebayimg.com/images/g/y~EAAOSwrhBZNtn3/s-l300.jpg
p55
sa(dp56
g19
Vhttp://i.ebayimg.com/images/g/y-4AAOSwrhBZNtn3/s-l1600.jpg
p57
sg21
Vhttp://i.ebayimg.com/images/g/y-4AAOSwrhBZNtn3/s-l300.jpg
p58
sa(dp59
g19
Vhttp://i.ebayimg.com/images/g/qDYAAOSwfpVZNtn3/s-l1600.jpg
p60
sg21
Vhttp://i.ebayimg.com/images/g/qDYAAOSwfpVZNtn3/s-l300.jpg
p61
sasS'shipping_info'
p62
(dp63
S'item_location'
p64
(lp65
sS'delivery'
p66
(lp67
sS'posts_to'
p68
(lp69
VLocal pick-up only
p70
assS'id'
p71
S'192209524840'
p72
s.