(dp1
S'title'
p2
VHummingbird Pansy Basket Ceramic Tile Mural BackSplash 12pc 4.25" KilnFiredDecor
p3
sS'url'
p4
Vhttp://www.ecrater.com/p/20447302/hummingbird-pansy-basket-ceramic-tile?keywords=hummingbird
p5
sS'price'
p6
V$69.95
p7
sS'seller'
p8
Vhttp://mottlesmuralsceramictiles.ecrater.com
p9
sS'description_links'
p10
VHummingbird Pansy Flower Ceramic tile Mural This mural consists of TWELVE individual 4.25" x 4.25" white gloss standard grade ceramic wall tiles.The over all size of this mural 17.00" x 12.75"4 tiles wide by 3 tiles down.Tiles are kiln fired in Youngstown Ohio. USA. All questions are welcome. Please email mottlesmurals@gmail.com or call 330-729-0355 regarding quantity, price, price of shipping. Thank you.
p11
sS'images'
p12
(lp13
Vhttp://s.ecrater.com/stores/340580/53f07a0151523_340580b.jpg
p14
asS'shipping_info'
p15
(lp16
VOnly 1 available
p17
aVShipping:US-Mainland: free(more destinations)
p18
aVSales Tax: Ohio: 7.25%
p19
aVCondition: Brand new
p20
asS'id'
p21
V20447302
p22
s.