(dp1
S'title'
p2
Vnew 2017 jayco hummingbird 17rb travel trailer
p3
sS'url'
p4
S'http://www.ebay.com/itm/New-2017-Jayco-Hummingbird-17RB-Travel-Trailer-/252683622481?hash=item3ad51e1851:g:kE8AAOSw5cNYUwoR&vxp=mtr'
p5
sS'price'
p6
VUS $16,987.00
p7
sS'seller'
p8
(dp9
g4
Vhttp://www.ebay.com/usr/terrytownrv?_trksid=p2047675.l2559
p10
sS'name'
p11
V terrytownrv
p12
ssS'description_links'
p13
(lp14
Vhttp://vi.vipr.ebaydesc.com/ws/eBayISAPI.dll?ViewItemDescV4&item=252683622481&t=0&tid=10&category=50063&seller=terrytownrv&excSoj=1&excTrk=1&lsite=100&ittenable=false&domain=ebay.com&descgauge=1
p15
asS'images'
p16
(lp17
(dp18
S'maxImageUrl'
p19
Vhttp://i.ebayimg.com/images/g/kE8AAOSw5cNYUwoR/s-l1600.jpg
p20
sS'displayImgUrl'
p21
Vhttp://i.ebayimg.com/images/g/kE8AAOSw5cNYUwoR/s-l300.jpg
p22
sa(dp23
g19
Vhttp://i.ebayimg.com/images/g/cRMAAOSwa~BYUwoR/s-l1600.jpg
p24
sg21
Vhttp://i.ebayimg.com/images/g/cRMAAOSwa~BYUwoR/s-l300.jpg
p25
sa(dp26
g19
Vhttp://i.ebayimg.com/images/g/S8IAAOSw4GVYUwoR/s-l1600.jpg
p27
sg21
Vhttp://i.ebayimg.com/images/g/S8IAAOSw4GVYUwoR/s-l300.jpg
p28
sa(dp29
g19
Vhttp://i.ebayimg.com/images/g/cQ0AAOSwa~BYUwoR/s-l1600.jpg
p30
sg21
Vhttp://i.ebayimg.com/images/g/cQ0AAOSwa~BYUwoR/s-l300.jpg
p31
sa(dp32
g19
Vhttp://i.ebayimg.com/images/g/WDkAAOSw-0xYUwoR/s-l1600.jpg
p33
sg21
Vhttp://i.ebayimg.com/images/g/WDkAAOSw-0xYUwoR/s-l300.jpg
p34
sa(dp35
g19
Vhttp://i.ebayimg.com/images/g/9nQAAOSw44BYUwoR/s-l1600.jpg
p36
sg21
Vhttp://i.ebayimg.com/images/g/9nQAAOSw44BYUwoR/s-l300.jpg
p37
sa(dp38
g19
Vhttp://i.ebayimg.com/images/g/9nAAAOSw44BYUwoR/s-l1600.jpg
p39
sg21
Vhttp://i.ebayimg.com/images/g/9nAAAOSw44BYUwoR/s-l300.jpg
p40
sa(dp41
g19
Vhttp://i.ebayimg.com/images/g/7EAAAOSw6DtYUwoR/s-l1600.jpg
p42
sg21
Vhttp://i.ebayimg.com/images/g/7EAAAOSw6DtYUwoR/s-l300.jpg
p43
sa(dp44
g19
Vhttp://i.ebayimg.com/images/g/pfIAAOSwux5YUwoR/s-l1600.jpg
p45
sg21
Vhttp://i.ebayimg.com/images/g/pfIAAOSwux5YUwoR/s-l300.jpg
p46
sa(dp47
g19
Vhttp://i.ebayimg.com/images/g/9m4AAOSw44BYUwoR/s-l1600.jpg
p48
sg21
Vhttp://i.ebayimg.com/images/g/9m4AAOSw44BYUwoR/s-l300.jpg
p49
sa(dp50
g19
Vhttp://i.ebayimg.com/images/g/cRUAAOSwa~BYUwoR/s-l1600.jpg
p51
sg21
Vhttp://i.ebayimg.com/images/g/cRUAAOSwa~BYUwoR/s-l300.jpg
p52
sa(dp53
g19
Vhttp://i.ebayimg.com/images/g/dbYAAOSw2xRYUwoR/s-l1600.jpg
p54
sg21
Vhttp://i.ebayimg.com/images/g/dbYAAOSw2xRYUwoR/s-l300.jpg
p55
sa(dp56
g19
Vhttp://i.ebayimg.com/images/g/JSIAAOSwJ7RYUwoR/s-l1600.jpg
p57
sg21
Vhttp://i.ebayimg.com/images/g/JSIAAOSwJ7RYUwoR/s-l300.jpg
p58
sa(dp59
g19
Vhttp://i.ebayimg.com/images/g/7eoAAOSwEzxYUwoR/s-l1600.jpg
p60
sg21
Vhttp://i.ebayimg.com/images/g/7eoAAOSwEzxYUwoR/s-l300.jpg
p61
sa(dp62
g19
Vhttp://i.ebayimg.com/images/g/n28AAOSwOtdYUwoR/s-l1600.jpg
p63
sg21
Vhttp://i.ebayimg.com/images/g/n28AAOSwOtdYUwoR/s-l300.jpg
p64
sa(dp65
g19
Vhttp://i.ebayimg.com/images/g/n2UAAOSwOtdYUwoR/s-l1600.jpg
p66
sg21
Vhttp://i.ebayimg.com/images/g/n2UAAOSwOtdYUwoR/s-l300.jpg
p67
sa(dp68
g19
Vhttp://i.ebayimg.com/images/g/16gAAOSwnHZYUwoR/s-l1600.jpg
p69
sg21
Vhttp://i.ebayimg.com/images/g/16gAAOSwnHZYUwoR/s-l300.jpg
p70
sa(dp71
g19
Vhttp://i.ebayimg.com/images/g/Is0AAOSwA3dYUwoR/s-l1600.jpg
p72
sg21
Vhttp://i.ebayimg.com/images/g/Is0AAOSwA3dYUwoR/s-l300.jpg
p73
sa(dp74
g19
Vhttp://i.ebayimg.com/images/g/2CUAAOSwcUBYUwoR/s-l1600.jpg
p75
sg21
Vhttp://i.ebayimg.com/images/g/2CUAAOSwcUBYUwoR/s-l300.jpg
p76
sa(dp77
g19
Vhttp://i.ebayimg.com/images/g/aYcAAOSwo4pYUwoR/s-l1600.jpg
p78
sg21
Vhttp://i.ebayimg.com/images/g/aYcAAOSwo4pYUwoR/s-l300.jpg
p79
sasS'shipping_info'
p80
(dp81
S'item_location'
p82
(lp83
sS'delivery'
p84
(lp85
sS'posts_to'
p86
(lp87
VLocal pick-up only
p88
assS'id'
p89
S'252683622481'
p90
s.