(dp1
S'title'
p2
VBronze & Silver Plated Bronze Hummingbird Skull Necklace
p3
sS'url'
p4
Vhttp://www.boneroom.com/store/p1863/Bronze_%26_Silver_Plated_Bronze_Hummingbird_Skull_Necklace.html
p5
sS'price'
p6
V$60.00
p7
sS'seller'
p8
(lp9
sS'description_links'
p10
VA delicate little hummingbird skull replica to adorn your neck.The pendant is approximately 1" in length, and the chain measures 18".This piece is part of our collection by Moon Raven Designs.
p11
sS'images'
p12
(lp13
Vhttp://www.boneroom.com//uploads/4/8/1/1/48118243/s521972503441136676_p1863_i3_w640.jpeg
p14
asS'shipping_info'
p15
(lp16
sS'id'
p17
Vp1863_1497082719
p18
s.