(dp1
S'title'
p2
VIvory Faux Mink Wedding Wrap With Double Lining
p3
sS'url'
p4
Vhttp://www.ecrater.com/p/15786718/ivory-faux-mink-wedding-wrap-with?keywords=faux+ivory
p5
sS'price'
p6
V$39.99
p7
sS'seller'
p8
Vhttp://megafurs.ecrater.com
p9
sS'description_links'
p10
VSKU# 306NM-IVYIvory faux mink shrug, fully lining inside in Ivory color, double lining for better insulation.Fabric length: 49 in X12 in.A pair of Hidden Hooks is included.Remarks:Dry clean only. Price is NOT included any rhinestones brooch pin, SOLD it SEPARATEDLY.
p11
sS'images'
p12
(lp13
Vhttp://s.ecrater.com/stores/29477/52606f896d3c1_29477b.jpg
p14
asS'shipping_info'
p15
(lp16
VMore than 10 available
p17
aVShipping:USPS calculated - check
p18
aVCondition: Brand new
p19
asS'id'
p20
V15786718
p21
s.