(dp1
S'title'
p2
VHandmade Bridal accessories;faux fur ivory bolero jacket ;shawl or wrap sh20i
p3
sS'url'
p4
Vhttp://www.ecrater.com/p/19813845/handmade-bridal-accessoriesfaux-fur-ivory?keywords=faux+ivory
p5
sS'price'
p6
V$36.00
p7
sS'seller'
p8
Vhttp://elegancebridal.ecrater.com
p9
sS'description_links'
p10
V***free worldwide regular shipping at any order!ITEM NO. : SH020iCONDITION : NEW DESIGN  :  free size for all .Description :faux fur ivory bolero jacket will add both glamour and warmth to your bridal occasion or  wedding party especially keep your neck very warm.
p11
sS'images'
p12
(lp13
sS'shipping_info'
p14
(lp15
VOnly 1 available
p16
aVShipping:US-Mainland: free(more destinations)
p17
aVCondition: Brand new
p18
asS'id'
p19
V19813845
p20
s.