(dp1
S'title'
p2
VIvory Faux Fur Jacket
p3
sS'url'
p4
Vhttp://www.ecrater.com/p/20614587/ivory-faux-fur-jacket?keywords=faux+ivory
p5
sS'price'
p6
V$69.99
p7
sS'seller'
p8
Vhttp://megafurs.ecrater.com
p9
sS'description_links'
p10
VQuality low priced, Ivory Faux Fur Jackets long sleeve in assorted colors, sizes and styles. Perfect for formal evening wear, winter weddings, brides and bridesmaids. Fabulous fur jacket by Tion Design. A faux fur bridal jacket might be the perfect thing to add to you, or your bridesmaids dresses. This accessory will not only keep you warm, but looking absolutely stunning during this winter wedding season. Add a vintage brooch for some extra elegance. open to the front, and very good for style fit. Size from Small to XL size. Shoulder width : S = 14" M = 15" L = 16.5" XL = 17.25" Sleeve length : S = 14" M = 14.5" L = 16" XL = 16.5" Height of back : S = 13" M = 13.5" L = 13.5" XL = 13.5" Info and Care Shell Material: 25% Modacrylic, 60% Acrylic, 15% Polyester Lining: 100% Polyester Dry Clean ONLY
p11
sS'images'
p12
(lp13
Vhttp://s.ecrater.com/stores/29477/541bea52bb432_29477b.jpg
p14
asS'shipping_info'
p15
(lp16
VMore than 10 available
p17
aVShipping:USPS calculated - check
p18
aVCondition: Brand new
p19
asS'id'
p20
V20614587
p21
s.