(dp1
S'title'
p2
VHANDMADE Wedding Brooch Bouquet Artificial Ivory Flower Faux pearl Posy WB01
p3
sS'url'
p4
Vhttp://www.ecrater.com/p/21049491/handmade-wedding-brooch-bouquet-artificial?keywords=faux+ivory
p5
sS'price'
p6
V$49.99
p7
sS'seller'
p8
Vhttp://myfreerange.ecrater.com
p9
sS'description_links'
p10
Vmyfreerange store        HANDMADE Wedding Brooch Bouquet Artificial Ivory Flower Faux pearl Posy WB01Every buyer gets a MyStoreRewards invitation for cash back    `4`,RcmdId ViewItemDescV4,RlogId p4%60bo7%60jtb9%3Feog4d71f%2B%3E%604%60-14946926725-0x10a-->
p11
sS'images'
p12
(lp13
Vhttp://s.ecrater.com/stores/212519/544cbc622e7a1_212519b.jpg
p14
asS'shipping_info'
p15
(lp16
VOnly 1 available
p17
aVShipping:US-Mainland: free(more destinations)
p18
aVCondition: Used
p19
asS'id'
p20
V21049491
p21
s.