(dp1
S'title'
p2
V20 cm Bridal Brooch Bouquet White Ivory Artificial Flower Faux pearl Posy WB20
p3
sS'url'
p4
Vhttp://www.ecrater.com/p/24819814/20-cm-bridal-brooch-bouquet-white?keywords=faux+ivory
p5
sS'price'
p6
V$55.99
p7
sS'seller'
p8
Vhttp://myfreerange.ecrater.com
p9
sS'description_links'
p10
Vmyfreerange Store                                 Every buyer gets a MyStoreRewards invitation for cash back    Powered by SoldEazy
p11
sS'images'
p12
(lp13
Vhttp://s.ecrater.com/stores/212519/574e75b4db6aa_212519b.jpg
p14
asS'shipping_info'
p15
(lp16
VOnly 1 available
p17
aVShipping:US-Mainland: free(more destinations)
p18
aVCondition: Used
p19
asS'id'
p20
V24819814
p21
s.