(dp1
S'title'
p2
Vminiature cribbage board dawson city yukon faux ivory
p3
sS'url'
p4
S'http://www.ebay.com/itm/Miniature-cribbage-board-Dawson-city-Yukon-Faux-ivory-/282458247203?hash=item41c3d2d023:g:dNgAAOSw~y9ZCZbF'
p5
sS'price'
p6
VUS $109.95
p7
sS'seller'
p8
(dp9
g4
Vhttp://www.ebay.com/usr/burntblanket?_trksid=p2047675.l2559
p10
sS'name'
p11
V burntblanket
p12
ssS'description_links'
p13
(lp14
Vhttp://vi.vipr.ebaydesc.com/ws/eBayISAPI.dll?ViewItemDescV4&item=282458247203&t=0&tid=10&category=146004&seller=burntblanket&excSoj=1&excTrk=1&lsite=0&ittenable=false&domain=ebay.com&descgauge=1
p15
asS'images'
p16
(lp17
(dp18
S'maxImageUrl'
p19
Vhttp://i.ebayimg.com/images/g/dNgAAOSw~y9ZCZbF/s-l1600.jpg
p20
sS'displayImgUrl'
p21
Vhttp://i.ebayimg.com/images/g/dNgAAOSw~y9ZCZbF/s-l300.jpg
p22
sa(dp23
g19
Vhttp://i.ebayimg.com/images/g/qCAAAOSw-3FZCZbT/s-l1600.jpg
p24
sg21
Vhttp://i.ebayimg.com/images/g/qCAAAOSw-3FZCZbT/s-l300.jpg
p25
sa(dp26
g19
Vhttp://i.ebayimg.com/images/g/gwYAAOSwnONZCZbj/s-l1600.jpg
p27
sg21
Vhttp://i.ebayimg.com/images/g/gwYAAOSwnONZCZbj/s-l300.jpg
p28
sa(dp29
g19
Vhttp://i.ebayimg.com/images/g/bBoAAOSwhvFZCZbw/s-l1600.jpg
p30
sg21
Vhttp://i.ebayimg.com/images/g/bBoAAOSwhvFZCZbw/s-l300.jpg
p31
sa(dp32
g19
Vhttp://i.ebayimg.com/images/g/I~8AAOSww9xZCZb8/s-l1600.jpg
p33
sg21
Vhttp://i.ebayimg.com/images/g/I~8AAOSww9xZCZb8/s-l300.jpg
p34
sa(dp35
g19
Vhttp://i.ebayimg.com/images/g/u6kAAOSwtGlZCZcS/s-l1600.jpg
p36
sg21
Vhttp://i.ebayimg.com/images/g/u6kAAOSwtGlZCZcS/s-l300.jpg
p37
sa(dp38
g19
Vhttp://i.ebayimg.com/images/g/L54AAOSww9xZCZc6/s-l1600.jpg
p39
sg21
Vhttp://i.ebayimg.com/images/g/L54AAOSww9xZCZc6/s-l300.jpg
p40
sasS'shipping_info'
p41
(dp42
S'item_location'
p43
(lp44
V\u000aCitrus Heights, California, United States
p45
asS'delivery'
p46
(lp47
VVaries
p48
asS'posts_to'
p49
(lp50
VUnited States
p51
assS'id'
p52
S'282458247203'
p53
s.