(dp1
S'title'
p2
VMARIELL IVORY FAUX FOX FUR STOLE FORMAL BRIDAL WEDDING WRAP
p3
sS'url'
p4
Vhttp://www.ecrater.com/p/5903104/mariell-ivory-faux-fox-fur?keywords=faux+ivory
p5
sS'price'
p6
V$79.99
p7
sS'seller'
p8
Vhttp://affordableeleganceonline.ecrater.com
p9
sS'description_links'
p10
VIVORY FAUX FOX FUR STOLE FORMAL BRIDAL WRAP!                                                                             ABSOLUTELY GORGEOUS FORMAL WRAP FOR YOUR EVENING GOWN OR WEDDING DRESS!Perfect for Winter  Weddings!By Mariell, a Leader in Bridal and Formal Accessories for Over 20 Years!This Beautiful Faux Fur Wrap is the Perfect Accessory for Your Formal Gown! Wonderful as a Wrap for your  Bridesmaid Gowns, Wedding Dress, Mother of the Bride or Groom Dress  or Evening Gown!Need Several for Your Bridesmaids? Just Email me for a Discount for Multiple Items! This Ivory Creme Faux Fox Fur Wrap is 48" x 11." (Brooch Pictured is Not Included.) Includes Small Front Hook and Eye For ClosureThis Style is Also Available in White and Black in Separate products.So Elegant! The Perfect Way to Provide a Bit of Coverage and Warmth with Your Formal Gown!CONDITION: New With Tags. Please Allow Ten days for Standard Delivery in the U.S.As is Customary in the Bridal Industry, All Sales are Final. Please Ask All Questions before Purchase!w116 cr Shipping for this item is by Priority Mail. I am Happy To Combine Shipping - Just Email Me for a Quote.                                                                                                                                                                                  UK and all International Buyers Please Note: Import Duties, Taxes and Customs Charges (Typically Collected Upon Pickup or Delivery) are the Buyer's Responsibility and are Not Included in the Item Price or Shipping Charges. Please Check with Your Country's Customs Office Prior To Bidding to Determine What These Additional Costs Will Be.
p11
sS'images'
p12
(lp13
sS'shipping_info'
p14
(lp15
VOnly 1 available
p16
aVShipping:US-Mainland: $11.59(more destinations)
p17
aVCondition: Brand new
p18
asS'id'
p19
V5903104
p20
s.