(dp1
S'title'
p2
VIvory Faux Fox Furs Stole With Clasp
p3
sS'url'
p4
Vhttp://www.ecrater.com/p/6096062/ivory-faux-fox-furs-stole-with?keywords=faux+ivory
p5
sS'price'
p6
V$79.99
p7
sS'seller'
p8
Vhttp://megafurs.ecrater.com
p9
sS'description_links'
p10
VIvory Faux Fox Stole With Clasp[88900229F-IVY]This design is made of white FOX furs to keep your extra warm in this January and February Wedding. Fur is about 3/4" high.  There is ivory satin lining on the inner side. The plastic tree leaf shape clasp can be adjustable to shorten/enlarge length of full length.  This will be a perfect gift for her or bride. It can be reusable as a pretty faux fur wrap for each Winter and white snow Christmas.62" Full Length12" Edge Height*Price is not included necklace and white flower pin.
p11
sS'images'
p12
(lp13
sS'shipping_info'
p14
(lp15
VMore than 10 available
p16
aVShipping:USPS calculated - check
p17
aVCondition: Brand new
p18
asS'id'
p19
V6096062
p20
s.