(dp1
S'title'
p2
V\u000aCoffee Table AMBELLA HOME Small Ivory Embossed Faux\u000a
p3
sS'url'
p4
Vhttp://www.ioffer.com/i/coffee-table-ambella-home-small-ivory-embossed-faux-637686953
p5
sS'price'
p6
V$789.00
p7
sS'seller'
p8
(lp9
sS'description_links'
p10
VItem #:AH-1293 Overall measurements (inches) 20H x 16W x 16D .Overall Condition is New.Material(s): Embossed Faux Shagreen,Solid Brass,Leather. Dates to circa New.
p11
sS'images'
p12
(lp13
Vhttp://cdn.iofferphoto.com/img3/item/637/686/953/t_coffee-table-ambella-home-small-ivory-embossed-faux-0247.jpg
p14
aVhttp://cdn.iofferphoto.com/img3/item/637/686/953/t_coffee-table-ambella-home-small-ivory-embossed-faux-6580.jpg
p15
aVhttp://cdn.iofferphoto.com/img3/item/637/686/953/t_coffee-table-ambella-home-small-ivory-embossed-faux-d498.jpg
p16
asS'shipping_info'
p17
VObjectCoffee TableEstimated Shipping5 - 10 Days
p18
sS'id'
p19
V637686953_1497025965
p20
s.