(dp1
S'title'
p2
VIvory Sweater w/Faux Fur & Embellishments
p3
sS'url'
p4
Vhttp://www.ecrater.com/p/651552/ivory-sweater-w-faux-fur-embellishments?keywords=faux+ivory
p5
sS'price'
p6
V$46.00
p7
sS'seller'
p8
Vhttp://sondrart.ecrater.com
p9
sS'description_links'
p10
VThis is a Brand New Sweater by Designers Originals Studio, size:  Medium ( 8  10 ).  This sweater is a beautiful ivory color, with bead and sequin embellishments and shoulder pads (can be snipped out, if you do not like shoulder pads).  The sweater has a faux fur detachable collar and button front.  The sweater comes with an extra button and the hang tag is still attached.  The sweater body is:  55% ramie and 45% cotton and the collar is:  100% acrylic with a 100% acetate backing.  The care instructions read:  remove detachable collar before washing, turn garment inside out, hand wash cold, reshape and dry flat.  The sweater was bought from J. C. Penney and has never been worn.  The picture shows the sweater and a couple close-ups of the embellishment detail.  The sweater is New, in Mint Condition and comes from a non-smoking home.
p11
sS'images'
p12
(lp13
Vhttp://s.ecrater.com/stores/16616/45baa742735d5_16616b.jpg
p14
asS'shipping_info'
p15
(lp16
VOnly 1 available
p17
aVShipping:US-Mainland: $7.50(more destinations)
p18
aVCondition: Brand new
p19
asS'id'
p20
V651552
p21
s.