(dp1
S'title'
p2
VRaccoon Tail Cap
p3
sS'url'
p4
Vhttp://www.boneroom.com/store/p1838/Raccoon_Tail_Cap.html
p5
sS'price'
p6
V$7.50
p7
sS'seller'
p8
(lp9
sS'description_links'
p10
VFaux fur cap with a real raccoon tail for a classic look.
p11
sS'images'
p12
(lp13
Vhttp://www.boneroom.com//uploads/4/8/1/1/48118243/s521972503441136676_p1838_i2_w640.jpeg
p14
asS'shipping_info'
p15
(lp16
sS'id'
p17
Vp1838_1497025980
p18
s.