(dp1
S'title'
p2
VStanding River Otter Taxidermy Mount For Sale
p3
sS'url'
p4
Vhttp://www.thetaxidermystore.com/river-otter-standing-life-size-taxidermy-mount-11966.html
p5
sS'price'
p6
V$0.00
p7
sS'seller'
p8
(lp9
sS'description_links'
p10
VDetailsDescriptionFor sale is a great River Otter life size taxidermy mount. It it posed in a standing position on a natural habitat covered wood base with the head turned sharply over its left shoulder. This otter has good hair, color and taxidermy work, earning our Excellent\u2122 overall quality rating. All applicable dimensions are included to help ensure this item will fit within your intended display space.- This item comes on habitat covered wood base for display.- Perfect for the mantle, table, counter top, shelf, ledge, etc...About the River Otter (Lontra canadensis)The North American river otter can actually be found as far north as Canada and even Alaska, and prefers to make residence near or on a riverbank, where it has easy access to both land and water. The river otter is an excellent swimmer, using its sleek watershedding brown fur, webbed feet and its long body, the river otter can cruise upsteam without much effort, often able to hold their breath for up to 8 minutes. The river otter prefers to dine on fish, though it will eat frogs and crayfish as well. SpecificationsDimensions:*Depth: 15"Height: 11"Width: 32"Weight: 6 lbs
p11
sS'images'
p12
(lp13
Vhttp://www.thetaxidermystore.com/skin/frontend/default/blanco_customization/images/logo.png
p14
aVhttp://www.thetaxidermystore.com/media/wysiwyg/ttsgraphics/sales_banners/Spring-Sale-612.jpg
p15
aVhttp://www.thetaxidermystore.com/media/wysiwyg/ttsgraphics/sales_banners/Spring-Green-CP.jpg
p16
aVhttp://www.thetaxidermystore.com/media/wysiwyg/ttsgraphics/sales_banners/Spring-Sale-612.jpg
p17
aVhttp://www.thetaxidermystore.com/media/wysiwyg/ttsgraphics/sales_banners/Spring-Green-CP.jpg
p18
aVhttp://www.thetaxidermystore.com/media/catalog/product/cache/1/image/396x396/9df78eab33525d08d6e5fb8d27136e95/r/i/river-otter-life-size-taxidermy-mount-_11966-for-sale-_-the-taxidermy-store.jpg
p19
aVhttp://www.thetaxidermystore.com/media/catalog/product/cache/1/thumbnail/70x70/9df78eab33525d08d6e5fb8d27136e95/r/i/river-otter-life-size-taxidermy-mount-_11966-for-sale-_-the-taxidermy-store.jpg
p20
aVhttp://www.thetaxidermystore.com/media/catalog/product/cache/1/thumbnail/70x70/9df78eab33525d08d6e5fb8d27136e95/1/1/11966_-_11302.jpg
p21
aVhttp://www.thetaxidermystore.com/media/catalog/product/cache/1/thumbnail/70x70/9df78eab33525d08d6e5fb8d27136e95/1/1/11966_-_11301.jpg
p22
aVhttp://www.thetaxidermystore.com/media/catalog/product/cache/1/thumbnail/70x70/9df78eab33525d08d6e5fb8d27136e95/1/1/11966_-_11305.jpg
p23
aVhttp://www.thetaxidermystore.com/media/catalog/product/cache/1/thumbnail/70x70/9df78eab33525d08d6e5fb8d27136e95/1/1/11966_-_11304.jpg
p24
aVhttp://www.thetaxidermystore.com/media/catalog/product/cache/1/thumbnail/70x70/9df78eab33525d08d6e5fb8d27136e95/1/1/11966_-_11303.jpg
p25
aVhttp://www.thetaxidermystore.com/media/catalog/product/cache/1/thumbnail/70x70/9df78eab33525d08d6e5fb8d27136e95/1/1/11966_-_11307.jpg
p26
aVhttp://www.thetaxidermystore.com/media/catalog/product/cache/1/thumbnail/70x70/9df78eab33525d08d6e5fb8d27136e95/1/1/11966_-_11308.jpg
p27
aVhttp://www.thetaxidermystore.com//media/wysiwyg/grade/cache/225x225/excellent.png
p28
aVhttp://www.thetaxidermystore.com/skin/frontend/default/blanco_customization/images/loading.gif
p29
aVhttp://www.thetaxidermystore.com/media/wysiwyg/ttsgraphics/Certificate.png
p30
aVhttp://www.thetaxidermystore.com/media/catalog/product/cache/1/thumbnail/228x/9df78eab33525d08d6e5fb8d27136e95/r/i/river-otter-life-size-standing-taxidermy-mount-_11826-for-sale-_-the-taxidermy-store.jpg
p31
aVhttp://www.thetaxidermystore.com/media/catalog/product/cache/1/thumbnail/228x/9df78eab33525d08d6e5fb8d27136e95/r/i/river-otter-life-size-taxidermy-mount-_11785-for-sale-_-the-taxidermy-store.jpg
p32
aVhttp://www.thetaxidermystore.com/media/catalog/product/cache/1/thumbnail/228x/9df78eab33525d08d6e5fb8d27136e95/r/i/river-otter-life-size-standing-taxidermy-mount-_11825-for-sale-_-the-taxidermy-store.jpg
p33
aVhttp://www.thetaxidermystore.com/media/wysiwyg/ttsgraphics/ttshomepage/pinterest-logo.jpg
p34
aV/skin/frontend/default/blanco_customization/images/icon-twitter.png
p35
aV/skin/frontend/default/blanco_customization/images/icon-paypal.png
p36
aV/skin/frontend/default/blanco_customization/images/icon-discover.png
p37
aV/skin/frontend/default/blanco_customization/images/icon-visa.png
p38
aV/skin/frontend/default/blanco_customization/images/icon-american-express.png
p39
aV/skin/frontend/default/blanco_customization/images/icon-mastercard.png
p40
asS'shipping_info'
p41
(lp42
sS'id'
p43
V11966_1497073848
p44
s.