(dp1
S'title'
p2
Vwyland original, 2014, signed chinese brush-otter in the sea. framed
p3
sS'url'
p4
S'http://www.ebay.com/itm/Wyland-original-2014-signed-Chinese-Brush-Otter-in-the-Sea-Framed-/172708236712?hash=item2836368da8:g:FSgAAOSw8lpZME48'
p5
sS'price'
p6
VUS $7,350.00
p7
sS'seller'
p8
(dp9
g4
Vhttp://www.ebay.com/usr/dorigus2015?_trksid=p2047675.l2559
p10
sS'name'
p11
V dorigus2015
p12
ssS'description_links'
p13
(lp14
Vhttp://vi.vipr.ebaydesc.com/ws/eBayISAPI.dll?ViewItemDescV4&item=172708236712&t=0&tid=10&category=551&seller=dorigus2015&excSoj=1&excTrk=1&lsite=0&ittenable=false&domain=ebay.com&descgauge=1
p15
asS'images'
p16
(lp17
(dp18
S'maxImageUrl'
p19
Vhttp://i.ebayimg.com/images/g/FSgAAOSw8lpZME48/s-l1600.jpg
p20
sS'displayImgUrl'
p21
Vhttp://i.ebayimg.com/images/g/FSgAAOSw8lpZME48/s-l300.jpg
p22
sa(dp23
g19
Vhttp://i.ebayimg.com/images/g/gKsAAOSwsXFZMFCw/s-l1600.jpg
p24
sg21
Vhttp://i.ebayimg.com/images/g/gKsAAOSwsXFZMFCw/s-l300.jpg
p25
sa(dp26
g19
Vhttp://i.ebayimg.com/images/g/OuUAAOSw9OFZME56/s-l1600.jpg
p27
sg21
Vhttp://i.ebayimg.com/images/g/OuUAAOSw9OFZME56/s-l300.jpg
p28
sa(dp29
g19
Vhttp://i.ebayimg.com/images/g/9ZoAAOSwaEhZME58/s-l1600.jpg
p30
sg21
Vhttp://i.ebayimg.com/images/g/9ZoAAOSwaEhZME58/s-l300.jpg
p31
sa(dp32
g19
Vhttp://i.ebayimg.com/images/g/KrYAAOSw8HBZME56/s-l1600.jpg
p33
sg21
Vhttp://i.ebayimg.com/images/g/KrYAAOSw8HBZME56/s-l300.jpg
p34
sa(dp35
g19
Vhttp://i.ebayimg.com/images/g/14gAAOSwY3BZME58/s-l1600.jpg
p36
sg21
Vhttp://i.ebayimg.com/images/g/14gAAOSwY3BZME58/s-l300.jpg
p37
sa(dp38
g19
Vhttp://i.ebayimg.com/images/g/VNQAAOSwIaFZME59/s-l1600.jpg
p39
sg21
Vhttp://i.ebayimg.com/images/g/VNQAAOSwIaFZME59/s-l300.jpg
p40
sasS'shipping_info'
p41
(dp42
S'item_location'
p43
(lp44
V\u000aMesa, Arizona, United States
p45
asS'delivery'
p46
(lp47
VVaries
p48
asS'posts_to'
p49
(lp50
VUnited States
p51
assS'id'
p52
S'172708236712'
p53
s.