(dp1
S'title'
p2
VAdvice From Sea Otter T shirt Water Wildlife Cotton Unisex S M L XL 2XL NWT NEW
p3
sS'url'
p4
Vhttp://www.ecrater.com/p/22174915/advice-from-sea-otter-t-shirt-water?keywords=sea+otter
p5
sS'price'
p6
V$18.30
p7
sS'seller'
p8
Vhttp://judyscorner.ecrater.com
p9
sS'description_links'
p10
VAdvice From A Sea Otter T-shirtTake time to play, Keep your whiskers cleanCherish clean water, Be spontaneousStay active, Don't be afraid to get your feet wetBe otterly amazing!Adult             T-Shirt Sizes: Small (38): Armpit to armpit: 18", Length 28"Medium (40): Armpit to armpit: 20", Length 29"Large (44): Armpit to armpit: 22", Length 30"X-Large (48): Armpit to armpit: 24", Length 31"XX-Large (52): Armpit to armpit: 26", Length 32"100% Cotton - PreshrunkBrand New with Tags Froo www.froo.com | Froo Cross Sell, Free Cross Sell, Cross promote, eCRATER Marketing, eCRATER listing Apps, eCRATER Apps, eCRATER Application
p11
sS'images'
p12
(lp13
Vhttp://s.ecrater.com/stores/355356/5508f14a9f765_355356b.jpg
p14
asS'shipping_info'
p15
(lp16
VOnly 1 available
p17
aVShipping:US-Mainland: free(more destinations)
p18
aVCondition: Used
p19
asS'id'
p20
V22174915
p21
s.