(dp1
S'title'
p2
V1995 #18 Sea Otter Good or Better
p3
sS'url'
p4
Vhttp://www.ecrater.com/p/23625426/1995-18-sea-otter-good-or-better?keywords=sea+otter
p5
sS'price'
p6
V$0.25
p7
sS'seller'
p8
Vhttp://joystarr.ecrater.com
p9
sS'description_links'
p10
V1995 #18 Sea Otter Good or Better
p11
sS'images'
p12
(lp13
sS'shipping_info'
p14
(lp15
V2 available
p16
aVShipping:USPS calculated - check
p17
aVCondition: Brand new
p18
asS'id'
p19
V23625426
p20
s.