(dp1
S'title'
p2
Vherend sea otter black fishnet first edition!
p3
sS'url'
p4
S'http://www.ebay.com/itm/HEREND-Sea-Otter-Black-Fishnet-FIRST-EDITION-/262988500352?hash=item3d3b560d80:g:bEcAAOSwLF1X2sVp'
p5
sS'price'
p6
VUS $365.00
p7
sS'seller'
p8
(dp9
g4
Vhttp://www.ebay.com/usr/rebeccasfabrications?_trksid=p2047675.l2559
p10
sS'name'
p11
V rebeccasfabrications
p12
ssS'description_links'
p13
(lp14
Vhttp://vi.vipr.ebaydesc.com/ws/eBayISAPI.dll?ViewItemDescV4&item=262988500352&t=0&tid=10&category=2803&seller=rebeccasfabrications&excSoj=1&excTrk=1&lsite=0&ittenable=false&domain=ebay.com&descgauge=1
p15
asS'images'
p16
(lp17
(dp18
S'maxImageUrl'
p19
Vhttp://i.ebayimg.com/images/g/bEcAAOSwLF1X2sVp/s-l1600.jpg
p20
sS'displayImgUrl'
p21
Vhttp://i.ebayimg.com/images/g/bEcAAOSwLF1X2sVp/s-l300.jpg
p22
sa(dp23
g19
Vhttp://i.ebayimg.com/images/g/9HwAAOSwYIxX2sVv/s-l1600.jpg
p24
sg21
Vhttp://i.ebayimg.com/images/g/9HwAAOSwYIxX2sVv/s-l300.jpg
p25
sa(dp26
g19
Vhttp://i.ebayimg.com/images/g/hgsAAOSw8w1X2sV1/s-l1600.jpg
p27
sg21
Vhttp://i.ebayimg.com/images/g/hgsAAOSw8w1X2sV1/s-l300.jpg
p28
sa(dp29
g19
Vhttp://i.ebayimg.com/images/g/6P4AAOSwPCVX2sV4/s-l1600.jpg
p30
sg21
Vhttp://i.ebayimg.com/images/g/6P4AAOSwPCVX2sV4/s-l300.jpg
p31
sasS'shipping_info'
p32
(dp33
S'item_location'
p34
(lp35
V\u000aSouthport, North Carolina, United States
p36
asS'delivery'
p37
(lp38
VVaries
p39
asS'posts_to'
p40
(lp41
VUnited States
p42
assS'id'
p43
S'262988500352'
p44
s.