(dp1
S'title'
p2
VSea Otter Car Wash (Monterey Bay, California), Brass 25mm
p3
sS'url'
p4
Vhttp://www.ecrater.com/p/26377666/sea-otter-car-wash-monterey?keywords=sea+otter
p5
sS'price'
p6
V$3.50
p7
sS'seller'
p8
Vhttp://gettysburghobbyshop.ecrater.com
p9
sS'description_links'
p10
VSea Otter Car Wash (Monterey Bay, California), Brass 25mm.Circulated. You're purchasing the item depicted.Domestic US sales only. If you are a foreign buyer, contact me first.Shipping/handling may be further reduced on multiple item orders for further savings. If eCrater check out fails to discount for multiple purchases, I'll will refund the difference if prepaid by Pay Pal or mail, or send an invoice with the corrected amount.
p11
sS'images'
p12
(lp13
Vhttp://s.ecrater.com/stores/338270/58a5d4cc91b40_338270b.jpg
p14
asS'shipping_info'
p15
(lp16
VOnly 1 available
p17
aVShipping:US-Mainland: $3.25(more destinations)
p18
aVCondition: Used
p19
asS'id'
p20
V26377666
p21
s.