(dp1
S'title'
p2
V\u000aBaby Sea Otter Animal Taking A Bath Cigarette Card Case\u000a
p3
sS'url'
p4
Vhttp://www.ioffer.com/i/baby-sea-otter-animal-taking-a-bath-cigarette-card-case-587062511
p5
sS'price'
p6
V$27.92
p7
sS'seller'
p8
(lp9
sS'description_links'
p10
VBaby Sea Otter Animal Taking a Bath Cigarette Card Case WalletThis is a gorgeous fine art silver chrome metal money, credit card, business card, receipt, or cigarette case (holder) that makes a perfect gift for any occasion--or a great purchase for yourself! Why settle for that boring old credit card holder or cigarette case when you use it so much and it's so visible when you do? This case snaps shut securely and has chrome holders on each side to hold in your credit or business cards, money, cigarettes, receipts, or whatever else you choose to carry inside. The case is double sided (see photo below) and the outside image is coated in a hard, crystal-clear enamel for protection from the elements and water, and for long, durable wear. Fits credit cards, business cards, money, notes, and/or cigarettes (both regular king and 100s sizes, quantity of 16 at one time). The image will not discolor or fade over time. Comes well-packed in a padded mailer and enclosed in its own black cardboard box with view window.Product Features:High quality chrome metal construction Clear, hard enamel coating over image Durable and long-lasting Measures 4" wide/long x 2.25" high/wide and 1/2" Will not discolor or fade over time Surface: flat and NOT texturedProduct SHIPS from HONG KONG - SHIPS from HONG KONG  (NO tracking availble on economy package, but delivery guaranteed) SKU Number: 15608032
p11
sS'images'
p12
(lp13
Vhttp://cdn.iofferphoto.com/img3/item/587/062/511/t_OM7zbaby-sea-otter-animal-taking-a-bath-cigarette-card-case.jpg
p14
aVhttp://cdn.iofferphoto.com/img3/item/587/062/511/t_QpAIbaby-sea-otter-animal-taking-a-bath-cigarette-card-case.jpg
p15
asS'shipping_info'
p16
(lp17
sS'id'
p18
V587062511_1497073963
p19
s.