(dp1
S'title'
p2
VGiant South American Otter Skull Cast
p3
sS'url'
p4
Vhttp://www.boneroom.com/store/p1447/Giant_South_American_Otter_Skull_Cast.html
p5
sS'price'
p6
V$132.00
p7
sS'seller'
p8
(lp9
sS'description_links'
p10
VPteronura brasiliensis6.5" in length
p11
sS'images'
p12
(lp13
Vhttp://www.boneroom.com//uploads/4/8/1/1/48118243/s521972503441136676_p1447_i1_w500.jpeg
p14
asS'shipping_info'
p15
(lp16
sS'id'
p17
Vp1447_1497073987
p18
s.