(dp1
S'title'
p2
VThe Small Mammal Manuscript
p3
sS'url'
p4
Vhttp://www.boneroom.com/store/p26/The_Small_Mammal_Manuscript.html
p5
sS'price'
p6
V$40.00
p7
sS'seller'
p8
(lp9
sS'description_links'
p10
VThis manual is on the techniques for the  articulation of mammals smaller than a wolf, using  a lynx and a sea otter as primary examples, and  details from a rabbit. A brief write-up about the  oxidization of preparing a ligamentary skeleton is  included.
p11
sS'images'
p12
(lp13
Vhttp://www.boneroom.com//uploads/4/8/1/1/48118243/s521972503441136676_p26_i2_w640.jpeg
p14
asS'shipping_info'
p15
(lp16
sS'id'
p17
Vp26_1497073976
p18
s.