(dp1
S'title'
p2
VSea Urchins
p3
sS'url'
p4
Vhttp://www.boneroom.com/store/p521/Sea_Urchins.html
p5
sS'price'
p6
V$1.00
p7
sS'seller'
p8
(lp9
sS'description_links'
p10
VMiniature sea urchins in shades of pink and green.Pink- Approx. 1"\u200bGreen- Approx. 1.75"
p11
sS'images'
p12
(lp13
Vhttp://www.boneroom.com//uploads/4/8/1/1/48118243/s521972503441136676_p521_i2_w640.jpeg
p14
asS'shipping_info'
p15
(lp16
sS'id'
p17
Vp521_1497073984
p18
s.