(dp1
S'title'
p2
VSteller's Sea Eagle 
p3
sS'url'
p4
Vhttp://store.yahoo.com/yhst-66562580642243/stellar39s-sea-eagle-photo-reference-39.html
p5
sS'price'
p6
(lp7
sS'seller'
p8
(lp9
sS'description_links'
p10
VSteller's Sea Eagle Photo Reference Cd
p11
sS'images'
p12
(lp13
Vhttp://ep.yimg.com/ay/yhst-66562580642243/steller-39-s-sea-eagle-photo-reference-cd-2.gif
p14
asS'shipping_info'
p15
(lp16
sS'id'
p17
Vstellar39s-sea-eagle-photo-reference-39_1497073949
p18
s.