(dp1
S'title'
p2
VCheetah Skull Cast
p3
sS'url'
p4
Vhttp://www.boneroom.com/store/p1173/Cheetah_Skull_Cast.html
p5
sS'price'
p6
V$191.00
p7
sS'seller'
p8
(lp9
sS'description_links'
p10
VMale: Acinonyx jubatus6.3 " in length Female: Acinonyx jubatu4.0" in length
p11
sS'images'
p12
(lp13
Vhttp://www.boneroom.com//uploads/4/8/1/1/48118243/s521972503441136676_p1173_i1_w500.jpeg
p14
asS'shipping_info'
p15
(lp16
sS'id'
p17
Vp1173_1497067267
p18
s.