(dp1
S'title'
p2
VCustom Personalized Iron-on Patch - Walrus
p3
sS'url'
p4
Vhttp://www.ecrater.com/p/10522798/custom-personalized-iron-on-patch-walrus?keywords=walrus
p5
sS'price'
p6
V$7.95
p7
sS'seller'
p8
Vhttp://laurensembroideryboutique.ecrater.com
p9
sS'description_links'
p10
VHello.You are looking at a walrus patch that is iron-on and 100% embroidered. The patch shown measures 3 inches by 2 1/4 inches but the final size will depend on the name. The patch will be personalized with your name in blue letters (if you prefer a different color please ask).This patch is a great way to label personal items including backpacks, book bags, lunch bags etc. It can also be ironed on a shirt or hat for a special gift. The patch will adhere to most materials. If you choose to buy just let me know the name you would like on the patch (up to 9 letters) and I will embroider it and get it out to you right away.All my items are professionally made and come from a smoke free environment.Thank You,Lauren
p11
sS'images'
p12
(lp13
Vhttp://s.ecrater.com/stores/137112/5001edb8e9a33_137112b.jpg
p14
asS'shipping_info'
p15
(lp16
VMore than 10 available
p17
aVShipping:US-Mainland: free(more destinations)
p18
aVCondition: Brand new
p19
asS'id'
p20
V10522798
p21
s.