(dp1
S'title'
p2
VSir Winston Walrus and the Great Rescue Book ( Shamu and His Crew ) ~ 1994 Sea World
p3
sS'url'
p4
Vhttp://www.ecrater.com/p/1064039/sir-winston-walrus-and-the-great?keywords=walrus
p5
sS'price'
p6
V$8.00
p7
sS'seller'
p8
Vhttp://sondrart.ecrater.com
p9
sS'description_links'
p10
VThis is a Hard-cover book: Sir Winston Walrus and the Great Rescue (A book about discovery - A Sea World Book - A Shamu and his Crew Adventure), by Elaine Lonergan and illustrated by William Langley Studios, 32 pages, copyright 1994 and published by Third Story Books - Connecticut. This book is in Excellent condition, showing no wear, tears or markings. The book is complete and readable and the spine is strong. This book is OUT-OF-PRINT. NO PAPER JACKET.
p11
sS'images'
p12
(lp13
sS'shipping_info'
p14
(lp15
VOnly 1 available
p16
aVShipping:US-Mainland: $3.50(more destinations)
p17
aVCondition: Brand new
p18
asS'id'
p19
V1064039
p20
s.