(dp1
S'title'
p2
VWALRUS - Now You Know CD casket / 24HR POST !!
p3
sS'url'
p4
Vhttp://www.ecrater.com/p/13556588/walrus-now-you-know-cd?keywords=walrus
p5
sS'price'
p6
V$6.18
p7
sS'seller'
p8
Vhttp://astrodisc-cds.ecrater.com
p9
sS'description_links'
p10
VYour browser does not support JavaScript.To view this page, enable JavaScript if it is disabled or upgrade your browser.    Click Here.  Double your traffic.  Get Vendio Gallery - Now FREE!ALL ITEMS IN STOCK. ALL ITEMS POSTED WITHIN 24 HOURS OF RECEIVING PAYMENT [MON -FRI]NEWWALRUS - Now You Know CD casket Records1. Circus 2. Play 3. The Time is Now! 4. Sorry 5. Take it From Me 6. Give it Up 7. Nothing Left 8. A Place Called Home 9. The Truth 10. FUBAR 11. Now You Know!!Your browser does not support JavaScript.To view this page, enable JavaScript if it is disabled or upgrade your browser.
p11
sS'images'
p12
(lp13
sS'shipping_info'
p14
(lp15
VOnly 1 available
p16
aVShipping:USPS calculated - check
p17
aVCondition: Brand new
p18
asS'id'
p19
V13556588
p20
s.