(dp1
S'title'
p2
V\u000aWolf Original Sculptured Walrus Figure with Baby\u000a
p3
sS'url'
p4
Vhttp://www.ioffer.com/i/wolf-original-sculptured-walrus-figure-with-baby-140784097
p5
sS'price'
p6
V$27.49
p7
sS'seller'
p8
(lp9
sS'description_links'
p10
VWolf Original Sculptured Walrus Figure with Babyby Edmund Wolfsigned with WE trademarkMade in CanadaReproductions of original soapstone carvings madein a mold with a mixture of stone and marble and then handfinishedWonderful detail on mother and baby walrus7 x 3 3/4 inchesBottom has gold Wolf Sculptures labelIn excellent vintage conditionShipping is our actual cost from post office withno handling fees chargedPlease contact us for exact shipping cost
p11
sS'images'
p12
(lp13
Vhttp://cdn.iofferphoto.com/img3/item/140/784/097/t_wolf-original-sculptured-walrus-figure-with-baby-5886d.jpg
p14
aVhttp://cdn.iofferphoto.com/img3/item/140/784/097/t_wolf-original-sculptured-walrus-figure-with-baby-0f23e.jpg
p15
aVhttp://cdn.iofferphoto.com/img3/item/140/784/097/t_wolf-original-sculptured-walrus-figure-with-baby-fe398.jpg
p16
aVhttp://cdn.iofferphoto.com/img3/item/140/784/097/t_wolf-original-sculptured-walrus-figure-with-baby-34f67.jpg
p17
asS'shipping_info'
p18
(lp19
sS'id'
p20
V140784097_1497057349
p21
s.