(dp1
S'title'
p2
V1998 Coca Cola Walrus sitting on ice cube with coke bottle
p3
sS'url'
p4
Vhttp://www.ecrater.com/p/16207466/1998-coca-cola-walrus-sitting-on-ice?keywords=walrus
p5
sS'price'
p6
V$5.00
p7
sS'seller'
p8
Vhttp://henhousegiftsandcollectibles.ecrater.com
p9
sS'description_links'
p10
VUsed but in very good condition.Box shows wear..Approx 2 1/2  in. tall,plastic
p11
sS'images'
p12
(lp13
sS'shipping_info'
p14
(lp15
VOnly 1 available
p16
aVShipping:US-Mainland: $5.00(more destinations)
p17
aVCondition: Used
p18
asS'id'
p19
V16207466
p20
s.