(dp1
S'title'
p2
VHallmark MINIATURE Keepsake Christmas Ornament Ice Block Buddies 2003 Walrus VGB ~*~
p3
sS'url'
p4
Vhttp://www.ecrater.com/p/16318160/hallmark-miniature-keepsake-christmas-ornament?keywords=walrus
p5
sS'price'
p6
V$4.95
p7
sS'seller'
p8
Vhttp://lollyskeepsakes.ecrater.com
p9
sS'description_links'
p10
VDated 2003.  Fourth in the miniature ICE BLOCK BUDDIES series!  Walrus on top of an ice cube.Very Good box w/tag.1012STOCK PHOTO - for reference only.
p11
sS'images'
p12
(lp13
sS'shipping_info'
p14
(lp15
VOnly 1 available
p16
aVShipping:US-Mainland: $3.00(more destinations)
p17
aVCondition: Brand new
p18
asS'id'
p19
V16318160
p20
s.