(dp1
S'title'
p2
VUSS WALRUS K-4 (SS-35) K-CLASS Submarine Military Patch - UNITED STATES NAVY
p3
sS'url'
p4
Vhttp://www.ecrater.com/p/19215722/uss-walrus-k-4-ss-35-class-submarine?keywords=walrus
p5
sS'price'
p6
V$11.99
p7
sS'seller'
p8
Vhttp://tlcraftsnsons.ecrater.com
p9
sS'description_links'
p10
VClick Here. Double your traffic. Get Vendio Gallery - Now FREE!This product is for ONE USS WALRUSK-4 (SS-35)K-CLASS Submarine Military Patch SIZE: 4 1/2" ROUNDThis is a TOP QUALITY Embroidered PatchBrand NEW, well detailed, and a great collectors pieceNevada buyers to pay 7.725% Sales TaxCome check out our eCRATER store or online atdiscounttoolguy.comIf we ain't got it........it ain't made!!!SHIPPINGWe ship First Class Mail, USPS. Product normally ships same day as purchase unlessdone so on a Weekend or HolidayINTERNATIONAL BUYERS:There is a $2.00 S/H Charge for the first patch purchased. We do combine shipping on multiple purchases.Buyer must e-mail for combined shipping invoice before paying. Item(s) must be paid within 1 day of receiving invoice.All Regulations, Duties, Taxes, Cross Border Fees, Etc...are the responsibility of the Buyer with their respective Country. We do not know and cannot advise on any country's additional costs.SHIPPING ESTIMATED TIMEWe will promptly prepare and turn your items over to USPS for shipment. Please remember when leaving feedback that once accepted into the USPS Postal System we have ABSOLUTELY NO CONTROL over time in transit. Please rate our eCRATER shipping time by how quickly we prepared and turned your order over to the United States Postal Service, not on how long it took both our country's customs and postal systems to deliver it to you. USPS shipping time guesstimate 4-10 Business Days (Possibly 2-3 Weeks, and occasionally even longer). Shipping Time Varies By Destination.
p11
sS'images'
p12
(lp13
Vhttp://s.ecrater.com/stores/320129/52ad347b535d1_320129b.jpg
p14
asS'shipping_info'
p15
(lp16
VOnly 1 available
p17
aVShipping:US-Mainland: free(more destinations)
p18
aVCondition: Used
p19
asS'id'
p20
V19215722
p21
s.