(dp1
S'title'
p2
Vvintage Hallmark Jolly Walrus ornament Christmas 1988 QX4731
p3
sS'url'
p4
Vhttp://www.ecrater.com/p/19350775/vintage-hallmark-jolly-walrus-ornament?keywords=walrus
p5
sS'price'
p6
V$5.00
p7
sS'seller'
p8
Vhttp://oakteakstore.ecrater.com
p9
sS'description_links'
p10
VCute, vintage, Hallmark, Jolly Walrus, Christmas ornament, 1988, QX4731. It is 1-7/8" high and 2" long, pre-owned and in great shape. No box.From a non-smoking home.Please visit my other listings.
p11
sS'images'
p12
(lp13
Vhttp://s.ecrater.com/stores/52230/52d42294bdd95_52230b.jpg
p14
asS'shipping_info'
p15
(lp16
VOnly 1 available
p17
aVShipping:US-Mainland: $5.05(more destinations)
p18
aVCondition: Used
p19
asS'id'
p20
V19350775
p21
s.