(dp1
S'title'
p2
VVintage Mosser Glass Crystal Two Entwined Seals Seal Walrus Figurine Paperweight
p3
sS'url'
p4
Vhttp://www.ecrater.com/p/21803470/vintage-mosser-glass-crystal-two?keywords=walrus
p5
sS'price'
p6
V$20.00
p7
sS'seller'
p8
Vhttp://theeclecticcat.ecrater.com
p9
sS'description_links'
p10
VVintage MOSSER GLASS Crystal Two Entwined Seals Seal Walrus Figurine Paperweight Offered here is a beautiful vintage crystal figurine or paperweight.  It features a charming pair of seals that are entwined together atop a rock.  Perhaps they are a mom and her baby or a male and female seal that are snuggling.  They're adorable either way!  This lovely paperweight was made by the Mosser Glass Company.  Mosser Glass Company is a small family run business making quality art glass in Cambridge, Ohio USA!  It measures approximately 3.5" tall by 3" long and is solid glass.   It would make a wonderful gift for your favorite animal lover!Please see our other listings for more great art glass and items for pets and pet lovers!We do combine shipping.  Free delivery confirmation and tracking are provided for all shipments within the United States as well as International shipments using Priority Mail International.  Customs charges or duty taxes are the responsibility of the International buyer.Please feel free to contact us directly at our e-mail address on our "contact" page with any questions or concerns you may have.  Thank you!
p11
sS'images'
p12
(lp13
sS'shipping_info'
p14
(lp15
VOnly 1 available
p16
aVShipping:USPS calculated - check
p17
aVSales Tax: Minnesota: 7.38%
p18
aVCondition: Brand new
p19
asS'id'
p20
V21803470
p21
s.