(dp1
S'title'
p2
Voriginal lost-in-time, graffiti tattoo pop art surreal walrus pocket watch fish
p3
sS'url'
p4
S'http://www.ebay.com/itm/ORIGINAL-LOST-IN-TIME-graffiti-tattoo-pop-art-surreal-walrus-pocket-watch-fish-/282067026978?hash=item41ac814422:g:OaAAAOSwEzxYSLoc'
p5
sS'price'
p6
VUS $4,500.00
p7
sS'seller'
p8
(dp9
g4
Vhttp://www.ebay.com/usr/nickatomic7?_trksid=p2047675.l2559
p10
sS'name'
p11
V nickatomic7
p12
ssS'description_links'
p13
(lp14
Vhttp://vi.vipr.ebaydesc.com/ws/eBayISAPI.dll?ViewItemDescV4&item=282067026978&t=1481162748000&tid=10&category=60437&seller=nickatomic7&excSoj=1&excTrk=1&lsite=0&ittenable=false&domain=ebay.com&descgauge=1
p15
asS'images'
p16
(lp17
(dp18
S'maxImageUrl'
p19
Vhttp://i.ebayimg.com/images/g/OaAAAOSwEzxYSLoc/s-l1600.jpg
p20
sS'displayImgUrl'
p21
Vhttp://i.ebayimg.com/images/g/OaAAAOSwEzxYSLoc/s-l300.jpg
p22
sa(dp23
g19
Vhttp://i.ebayimg.com/images/g/xxkAAOSw-0xYSLny/s-l1600.jpg
p24
sg21
Vhttp://i.ebayimg.com/images/g/xxkAAOSw-0xYSLny/s-l300.jpg
p25
sa(dp26
g19
Vhttp://i.ebayimg.com/images/g/n-UAAOSw44BYSLn8/s-l1600.jpg
p27
sg21
Vhttp://i.ebayimg.com/images/g/n-UAAOSw44BYSLn8/s-l300.jpg
p28
sa(dp29
g19
Vhttp://i.ebayimg.com/images/g/NDAAAOSwEzxYSLn3/s-l1600.jpg
p30
sg21
Vhttp://i.ebayimg.com/images/g/NDAAAOSwEzxYSLn3/s-l300.jpg
p31
sa(dp32
g19
Vhttp://i.ebayimg.com/images/g/S7MAAOSw2xRYSLoB/s-l1600.jpg
p33
sg21
Vhttp://i.ebayimg.com/images/g/S7MAAOSw2xRYSLoB/s-l300.jpg
p34
sa(dp35
g19
Vhttp://i.ebayimg.com/images/g/aAwAAOSw-0xYSL~z/s-l1600.jpg
p36
sg21
Vhttp://i.ebayimg.com/images/g/aAwAAOSw-0xYSL~z/s-l300.jpg
p37
sa(dp38
g19
Vhttp://i.ebayimg.com/images/g/58AAAOSwepJXXqFD/s-l1600.jpg
p39
sg21
Vhttp://i.ebayimg.com/images/g/58AAAOSwepJXXqFD/s-l300.jpg
p40
sasS'shipping_info'
p41
(dp42
S'item_location'
p43
(lp44
V\u000aSpring Green, Wisconsin, United States
p45
asS'delivery'
p46
(lp47
VVaries
p48
asS'posts_to'
p49
(lp50
VUnited States
p51
assS'id'
p52
S'282067026978'
p53
s.