(dp1
S'title'
p2
V\u000aGlass Figurine Walrus Russian Murano Blown Handmade F13\u000a
p3
sS'url'
p4
Vhttp://www.ioffer.com/i/glass-figurine-walrus-russian-murano-blown-handmade-f13-614995938
p5
sS'price'
p6
V$24.00
p7
sS'seller'
p8
(lp9
sS'description_links'
p10
V
sS'images'
p11
(lp12
Vhttp://cdn.iofferphoto.com/img3/item/614/995/938/t_Hl4Qglass-figurine-walrus-russian-murano-blown-handmade-f13.jpg
p13
aVhttp://cdn.iofferphoto.com/img3/item/614/995/938/t_WFWzglass-figurine-walrus-russian-murano-blown-handmade-f13.jpg
p14
aVhttp://cdn.iofferphoto.com/img3/item/614/995/938/t_vDjdglass-figurine-walrus-russian-murano-blown-handmade-f13.jpg
p15
aVhttp://cdn.iofferphoto.com/img3/item/614/995/938/t_YGXnglass-figurine-walrus-russian-murano-blown-handmade-f13.jpg
p16
aVhttp://cdn.iofferphoto.com/img3/item/614/995/938/t_m3Oeglass-figurine-walrus-russian-murano-blown-handmade-f13.jpg
p17
asS'shipping_info'
p18
(lp19
sS'id'
p20
V614995938_1497057360
p21
s.