(dp1
S'title'
p2
V\u000aWALRUS WALAUS TPH2T1KS WATER PUMP\u000a
p3
sS'url'
p4
Vhttp://www.ioffer.com/i/walrus-walaus-tph2t1ks-water-pump-630679369
p5
sS'price'
p6
V$157.90
p7
sS'seller'
p8
(lp9
sS'description_links'
p10
V
sS'images'
p11
(lp12
Vhttp://cdn.iofferphoto.com/img/item/630/679/369/t_4HETwalrus-walaus-tph2t1ks-water-pump.jpg
p13
aVhttp://cdn.iofferphoto.com/img/item/630/679/369/t_j732walrus-walaus-tph2t1ks-water-pump.jpg
p14
aVhttp://cdn.iofferphoto.com/img/item/630/679/369/t_b0k8walrus-walaus-tph2t1ks-water-pump.jpg
p15
aVhttp://cdn.iofferphoto.com/img/item/630/679/369/t_IHGwwalrus-walaus-tph2t1ks-water-pump.jpg
p16
aVhttp://cdn.iofferphoto.com/img/item/630/679/369/t_XKwawalrus-walaus-tph2t1ks-water-pump.jpg
p17
asS'shipping_info'
p18
(lp19
sS'id'
p20
V630679369_1497057342
p21
s.