(dp1
S'title'
p2
V\u000aWALRUS WATER PUMP TPH2T1KS 80567795 ISO 9001 370W\u000a
p3
sS'url'
p4
Vhttp://www.ioffer.com/i/walrus-water-pump-tph2t1ks-80567795-iso-9001-370w-637447012
p5
sS'price'
p6
V$283.00
p7
sS'seller'
p8
(lp9
sS'description_links'
p10
V
sS'images'
p11
(lp12
Vhttp://cdn.iofferphoto.com/img3/item/637/447/012/t_1WZGwalrus-water-pump-tph2t1ks-80567795-iso-9001-370w.jpg
p13
aVhttp://cdn.iofferphoto.com/img3/item/637/447/012/t_iECYwalrus-water-pump-tph2t1ks-80567795-iso-9001-370w.jpg
p14
aVhttp://cdn.iofferphoto.com/img3/item/637/447/012/t_3zBIwalrus-water-pump-tph2t1ks-80567795-iso-9001-370w.jpg
p15
aVhttp://cdn.iofferphoto.com/img3/item/637/447/012/t_lEybwalrus-water-pump-tph2t1ks-80567795-iso-9001-370w.jpg
p16
aVhttp://cdn.iofferphoto.com/img3/item/637/447/012/t_Mocbwalrus-water-pump-tph2t1ks-80567795-iso-9001-370w.jpg
p17
aVhttp://cdn.iofferphoto.com/img3/item/637/447/012/t_XxZtwalrus-water-pump-tph2t1ks-80567795-iso-9001-370w.jpg
p18
aVhttp://cdn.iofferphoto.com/img3/item/637/447/012/t_QChKwalrus-water-pump-tph2t1ks-80567795-iso-9001-370w.jpg
p19
asS'shipping_info'
p20
(lp21
sS'id'
p22
V637447012_1497057340
p23
s.