(dp1
S'title'
p2
VMiniature Merry Walruses Peaceful Pandas Noah's Ark Animal Collection Hallmark
p3
sS'url'
p4
Vhttp://www.ecrater.com/p/9557715/miniature-merry-walruses-peaceful-pandas?keywords=walrus
p5
sS'price'
p6
V$8.99
p7
sS'seller'
p8
Vhttp://ornaments4christmas.ecrater.com
p9
sS'description_links'
p10
VMiniature Merry Walruses and Peaceful Pandas are two ornaments from 1995 and 1998 produced to compliment the 1994 Noah's Ark Special Edition.  The ornaments were sculpted by Hallmark artist Linda Sickman and come in their original boxes.  The ornaments are new having never been displayed and the boxes have very little if any shelf wear, price tabs are still intact on the boxes.
p11
sS'images'
p12
(lp13
Vhttp://s.ecrater.com/stores/119103/4ccae171f1ff9_119103b.jpg
p14
asS'shipping_info'
p15
(lp16
VOnly 1 available
p17
aVShipping:US-Mainland: $5.50(more destinations)
p18
aVCondition: Brand new
p19
asS'id'
p20
V9557715
p21
s.