(dp1
S'title'
p2
VWalrus Baculum Cast - Pathological
p3
sS'url'
p4
Vhttp://www.boneroom.com/store/p1567/Walrus_Baculum_Cast_-_Pathological.html
p5
sS'price'
p6
V$60.00
p7
sS'seller'
p8
(lp9
sS'description_links'
p10
VOdobenus rosmarius  Total length 21.0"
p11
sS'images'
p12
(lp13
Vhttp://www.boneroom.com//uploads/4/8/1/1/48118243/s521972503441136676_p1567_i1_w430.jpeg
p14
asS'shipping_info'
p15
(lp16
sS'id'
p17
Vp1567_1497057383
p18
s.