(dp1
S'title'
p2
VBag-O-Bones
p3
sS'url'
p4
Vhttp://www.skullsunlimited.com/record_variant.php?id=10059
p5
sS'price'
p6
V$149.00
p7
sS'seller'
p8
(lp9
sS'description_links'
p10
VThis one-of-a-kind bag of bones includes hundreds of individual bones. This bag is from an old veterinary anatomist's private collection. These bones are being sold as-is with no further cleaning. To view the rest of the collection, click here.Several species are included in this bag, and some bones may be greasy.This bag-o-bones would make a fun art project.Please see photos for details.Please call with any questions.
p11
sS'images'
p12
(lp13
Vhttp://www.skullsunlimited.com/userfiles/image/variants_10059.jpg
p14
asS'shipping_info'
p15
(lp16
sS'id'
p17
V10059_1497042713
p18
s.