(dp1
S'title'
p2
VBag-O-Muskrat and Woodchuck Skulls
p3
sS'url'
p4
Vhttp://www.skullsunlimited.com/record_variant.php?id=10070
p5
sS'price'
p6
V$95.00
p7
sS'seller'
p8
(lp9
sS'description_links'
p10
VThis one-of-a-kind bag of bones has two muskrat skulls and one woodchuck skull included. Some vertebra are also included.This bag is from an old veterinary anatomist's private collection. These bones are being sold as-is with no further cleaning. To view the rest of the collection, click here.Please see photos for details.Please call with any questions.
p11
sS'images'
p12
(lp13
Vhttp://www.skullsunlimited.com/userfiles/image/variants_10070.jpg
p14
asS'shipping_info'
p15
(lp16
sS'id'
p17
V10070_1497044668
p18
s.