(dp1
S'title'
p2
VComplete Disarticulated Dog Foot Hindlimb
p3
sS'url'
p4
Vhttp://www.skullsunlimited.com/record_variant.php?id=10568
p5
sS'price'
p6
V$149.00                                                     This item can ship for only $5.95* (*Within the contiguous United States only.)
p7
sS'seller'
p8
(lp9
sS'description_links'
p10
VThis dis-articulated specimen is from the hindlimb of domestic dog. This unique foot has five toes. Although we are unsure of what causes this particular anomaly it would make a great teaching tool for veterinarians or collectors.Please see photograph for details and feel free to call with any questions.
p11
sS'images'
p12
(lp13
Vhttp://www.skullsunlimited.com/userfiles/image/variants_10568.jpg
p14
asS'shipping_info'
p15
(lp16
sS'id'
p17
V10568_1497044594
p18
s.