(dp1
S'title'
p2
VBag-o-Turtle Skulls
p3
sS'url'
p4
Vhttp://www.skullsunlimited.com/record_variant.php?id=10645
p5
sS'price'
p6
V$89.00                                                     This item can ship for only $5.95* (*Within the contiguous United States only.)
p7
sS'seller'
p8
(lp9
sS'description_links'
p10
VThis bag-o-turtle will have five turtle skulls with their lower jaws included. This a great opportunity for any collector and would make a great addition to any collection. These particular specimen are from an old veterinary anatomist's private collection. These bones are being sold as is with no further cleaning.Please see photos for details and feel free to call with any questions.
p11
sS'images'
p12
(lp13
Vhttp://www.skullsunlimited.com/userfiles/image/variants_10645.jpg
p14
asS'shipping_info'
p15
(lp16
sS'id'
p17
V10645_1497044405
p18
s.