(dp1
S'title'
p2
VBag-O-Miscellaneous Snake Ribs
p3
sS'url'
p4
Vhttp://www.skullsunlimited.com/record_variant.php?id=10666
p5
sS'price'
p6
V$39.00                                                     This item can ship for only $5.95* (*Within the contiguous United States only.)
p7
sS'seller'
p8
(lp9
sS'description_links'
p10
VThis unique bag of snake ribs contains approximately 200 randomly sized ribs and would be Ideal for arts and craft projects. Ribs range in size, please see photos for details. Call with any questions.
p11
sS'images'
p12
(lp13
Vhttp://www.skullsunlimited.com/userfiles/image/variants_10666.jpg
p14
asS'shipping_info'
p15
(lp16
sS'id'
p17
V10666_1497042768
p18
s.