(dp1
S'title'
p2
VHinge-back Tortoise Shell - Large Shell Only
p3
sS'url'
p4
Vhttp://www.skullsunlimited.com/record_variant.php?id=10887
p5
sS'price'
p6
V$185.00
p7
sS'seller'
p8
(lp9
sS'description_links'
p10
VThese limited quantity Hinge-back tortoise shells and skulls will differ slightly is size and appearance from that pictured.
p11
sS'images'
p12
(lp13
Vhttp://www.skullsunlimited.com/userfiles/image/variants_10887.jpg
p14
asS'shipping_info'
p15
(lp16
sS'id'
p17
V10887_1497043191
p18
s.