(dp1
S'title'
p2
VRottweiler - Domestic Dog Skull
p3
sS'url'
p4
Vhttp://www.skullsunlimited.com/record_variant.php?id=10996
p5
sS'price'
p6
V$225.00
p7
sS'seller'
p8
(lp9
sS'description_links'
p10
VThe Rottweiler is one of the oldest, largest and most well-known breeds of domestic dogs. Rottweilers are often used as search and rescue dogs, guard dogs, police dogs and guide dogs for the blind. Product Type: Skull onlyNotes: Broken upper left incisiorPlease see photos for details and call with any questions.
p11
sS'images'
p12
(lp13
Vhttp://www.skullsunlimited.com/userfiles/image/variants_10996.jpg
p14
asS'shipping_info'
p15
(lp16
sS'id'
p17
V10996_1497043380
p18
s.