(dp1
S'title'
p2
VPrairie Vole Study Skin (No Skull)
p3
sS'url'
p4
Vhttp://www.skullsunlimited.com/record_variant.php?id=11041
p5
sS'price'
p6
V$79.00                                                     This item can ship for only $5.95* (*Within the contiguous United States only.)
p7
sS'seller'
p8
(lp9
sS'description_links'
p10
VThe prairie vole's scientific name, Microtus ochrogaster, is derived from Greek; the genus name translates to "small ear" and the specific epithet translates to "yellow belly". They are found in grasslands in the central United States and Canada; ranging from the eastern Rocky Mountains in the west to West Virginia in the east and into the Canadian Prairies to the north.This specimen is from an old veterinary anatomist's private collection. These specimens are being sold as-is with no further cleaning. To view the rest of the collection, click here.This skin shows no damage, please see photos for details. Call with any questions.
p11
sS'images'
p12
(lp13
Vhttp://www.skullsunlimited.com/userfiles/image/variants_11041.jpg
p14
asS'shipping_info'
p15
(lp16
sS'id'
p17
V11041_1497042685
p18
s.