(dp1
S'title'
p2
VEconomy Domestic Dog Skulls (Set of 2)
p3
sS'url'
p4
Vhttp://www.skullsunlimited.com/record_variant.php?id=11128
p5
sS'price'
p6
V$69.00
p7
sS'seller'
p8
(lp9
sS'description_links'
p10
VDomestic Canine Dog Skull - The domestic dog is believed to be a direct descendant from modern wolves. Dogs have been breed as pets for thousands of years with the earliest known domestication taking place as long as 12,000 years ago. Today, dogs serve man in many ways: as guides, search and rescue, for hunting purposes, to sniff out drugs or other contraband and even to track criminals. There are over 400 recognized breeds ranging from Chihuahua as the smallest example to the Irish wolfhound as the largest.Product Type: 2 dog skulls (skull only)Notes: Priced to sellVarious damageMay be missing teethAge of each skull variesPlease see photos for details and call with any questions.
p11
sS'images'
p12
(lp13
Vhttp://www.skullsunlimited.com/userfiles/image/variants_11128.jpg
p14
asS'shipping_info'
p15
(lp16
sS'id'
p17
V11128_1497043296
p18
s.