(dp1
S'title'
p2
VBag-O-Skulls (Bat Material)
p3
sS'url'
p4
Vhttp://www.skullsunlimited.com/record_variant.php?id=11321
p5
sS'price'
p6
V$20.00
p7
sS'seller'
p8
(lp9
sS'description_links'
p10
VBats are present throughout most of the world, with the exception of extremely cold regions. They are the second largest order of mammals (after the rodents), representing about 20% of all classified mammal species worldwideProduct Type: Whole and partial skullsNotes: Various damageApproximately 20 to 30 pieces in each bagPlease see photos for details and call with any questions.
p11
sS'images'
p12
(lp13
Vhttp://www.skullsunlimited.com/userfiles/image/variants_11321.jpg
p14
asS'shipping_info'
p15
(lp16
sS'id'
p17
V11321_1497043928
p18
s.