(dp1
S'title'
p2
VReal Human Fibula Real Human Fibula B-Quality
p3
sS'url'
p4
Vhttp://www.skullsunlimited.com/record_variant.php?id=11545
p5
sS'price'
p6
V$49.00
p7
sS'seller'
p8
(lp9
sS'description_links'
p10
V
sS'images'
p11
(lp12
sS'shipping_info'
p13
(lp14
sS'id'
p15
V11545_1497043148
p16
s.