(dp1
S'title'
p2
Vbone densitometer hologic
p3
sS'url'
p4
S'http://www.ebay.com/itm/BONE-DENSITOMETER-HOLOGIC-/142405562461?hash=item212808705d:g:FbEAAOSwDKtY2VcC'
p5
sS'price'
p6
VUS $12,500.00
p7
sS'seller'
p8
(dp9
g4
Vhttp://www.ebay.com/usr/ar-tec?_trksid=p2047675.l2559
p10
sS'name'
p11
V ar-tec
p12
ssS'description_links'
p13
(lp14
Vhttp://vi.vipr.ebaydesc.com/ws/eBayISAPI.dll?ViewItemDescV4&item=142405562461&t=1490641104000&tid=10&category=11816&seller=ar-tec&excSoj=1&excTrk=1&lsite=0&ittenable=false&domain=ebay.com&descgauge=1
p15
asS'images'
p16
(lp17
(dp18
S'maxImageUrl'
p19
Vhttp://i.ebayimg.com/images/g/FbEAAOSwDKtY2VcC/s-l1600.jpg
p20
sS'displayImgUrl'
p21
Vhttp://i.ebayimg.com/images/g/FbEAAOSwDKtY2VcC/s-l300.jpg
p22
sa(dp23
g19
Vhttp://i.ebayimg.com/images/g/7kAAAOSwTM5Y2Vb8/s-l1600.jpg
p24
sg21
Vhttp://i.ebayimg.com/images/g/7kAAAOSwTM5Y2Vb8/s-l300.jpg
p25
sa(dp26
g19
Vhttp://i.ebayimg.com/images/g/s1oAAOSwdGFY2Vbs/s-l1600.jpg
p27
sg21
Vhttp://i.ebayimg.com/images/g/s1oAAOSwdGFY2Vbs/s-l300.jpg
p28
sa(dp29
g19
Vhttp://i.ebayimg.com/images/g/ROsAAOSwax5Y2Vby/s-l1600.jpg
p30
sg21
Vhttp://i.ebayimg.com/images/g/ROsAAOSwax5Y2Vby/s-l300.jpg
p31
sa(dp32
g19
Vhttp://i.ebayimg.com/images/g/vXUAAOSwc-tY2Vb3/s-l1600.jpg
p33
sg21
Vhttp://i.ebayimg.com/images/g/vXUAAOSwc-tY2Vb3/s-l300.jpg
p34
sa(dp35
g19
Vhttp://i.ebayimg.com/images/g/79IAAOSwTM5Y2VcF/s-l1600.jpg
p36
sg21
Vhttp://i.ebayimg.com/images/g/79IAAOSwTM5Y2VcF/s-l300.jpg
p37
sasS'shipping_info'
p38
(dp39
S'item_location'
p40
(lp41
V\u000aMiami, Florida, United States
p42
asS'delivery'
p43
(lp44
VVaries
p45
asS'posts_to'
p46
(lp47
VLocal pick-up only
p48
assS'id'
p49
S'142405562461'
p50
s.