(dp1
S'title'
p2
V18K YELLOW GOLD PIN BROOCH EMERALD 14 DIAMOND MOUSE MICE WITH BONE RUBY 13.1DWT
p3
sS'url'
p4
Vhttp://www.ecrater.com/p/18579358/18k-yellow-gold-pin-brooch?keywords=bone
p5
sS'price'
p6
V$2,595.00
p7
sS'seller'
p8
Vhttp://morningstarsjewelers.ecrater.com
p9
sS'description_links'
p10
VYour browser does not support JavaScript.To view this page, enable JavaScript if it is disabled or upgrade your browser.    Click Here.  Double your traffic.  Get Vendio Gallery - Now FREE!                MorningstarJewelers Store                                                    18K YELLOW GOLD PIN WATCH BROOCH EMERALD 14 DIAMOND MOUSE WITH BONE RUBY 13.1DWT     We are offering this 18ktYellow Gold Pin Brooch with 2 Emerald, 14 Diamonds, 2 Rubies of a mouse with a Bone. Hallmark 18K We are jewelry store in Business for 55 years Weight:13.1 dwt Metal: 18ktyellow Gold 14 Diamond=0.25atw Measures: Approximately 2inch long x.8 inchwide approx tick 9mm aprox 14mm wide Your Price: $2,595.00     there is a 10% restocking fee in case of a return.                                    Your browser does not support JavaScript.To view this page, enable JavaScript if it is disabled or upgrade your browser.
p11
sS'images'
p12
(lp13
sS'shipping_info'
p14
(lp15
VOnly 1 available
p16
aVShipping:US-Mainland: $25.00(more destinations)
p17
aVCondition: Used
p18
asS'id'
p19
V18579358
p20
s.