(dp1
S'title'
p2
VWilliam Henry B04 WMMC Pikatti Wave Bone Folding Knife Wht Topaz #224/500
p3
sS'url'
p4
Vhttp://www.ecrater.com/p/23119421/william-henry-b04-wmmc-pikatti?keywords=bone
p5
sS'price'
p6
V$899.99
p7
sS'seller'
p8
Vhttp://luxebuster.ecrater.com
p9
sS'description_links'
p10
VeCRATER template William Henry B04 WMMC Pikatti Wave Bone Folding Knife Wht Topaz #224/500                    Click the preview button to view more images.Ad # 37527Item Description:Be sure to check our shipping calculator for the best shipping costs!William Henry B04 WMMC Pikatti Wave Bone Folding Knife Wht Topaz #224/500*** New in the Box***Designer: William HenryItem: Folding Pocket KnifeModel: Wave, B04-WMMCBrief Description :Blade Length: 2.15"Overall Length: 4.88"PRODUCT DESCRIPTION:    Status:    ArchivedType:    Limited EditionBlade:  'Copper Wave' damascus - VG5 coreFrame:  Heat-browned 'Wave' mokumeScale/Inlay: Fossil Mammoth boneGemstone:  White topazCarry System: ClipCaseMechanism:  One Hand Button LockNumber In Edition: 500Production Date(s):   February 2010 Number In Edition: 224/500Condition: This item is new, in the box.Guaranteed authentic, or your money back. This will appropriately packed to ensure safe arrival. QUESTIONS? FEEL FREE TO EMAIL US! or CALL US, 773 523 4900Return to top Use our Shipping Calculator to see a selection of shipping methods and costs.To get a real-time shipping quote to your destination, enter your country and zip / postal code information into the shipping calculator and click "Get Rate". Select Destination Country and ServiceUnited States USPS Priority MailShipping CostAdditional Item ShippingPowers Your Online MarketplaceMake order management a breeze with Kyozou eCRATER Order Management Software
p11
sS'images'
p12
(lp13
Vhttp://s.ecrater.com/stores/342561/55c6c942a76cd_342561b.jpg
p14
asS'shipping_info'
p15
(lp16
VOnly 1 available
p17
aVShipping:US-Mainland: free(more destinations)
p18
aVCondition: Used
p19
asS'id'
p20
V23119421
p21
s.