(dp1
S'title'
p2
VRiedell 220 Classic Bones Artistic roller skates NEW! All sizes, Be Smart- Buy NOW!! Save NOW!!
p3
sS'url'
p4
Vhttp://www.ecrater.com/p/24830339/riedell-220-classic-bones-artistic-roller?keywords=bone
p5
sS'price'
p6
V$649.95
p7
sS'seller'
p8
Vhttp://cvoptics.ecrater.com
p9
sS'description_links'
p10
VYou are purchasing a brand new factory sealed Riedell 220 Classic Bones Artistic Roller Skates. Specifications is as follows-Available colors: (Black), (White)Available in full and half sizes.Men's Sizes 3-14Ladies: , please go down one size for the best fitRiedell 220 leather boots, leather lining with memory foam padding, SGI Classic steel plates, trucks with adjustable pivot pins, Bones Elite wheels, Bones Swiss bearings, 5/8- adjustable dance stops.Please specify your desired size and color at end of purchase in the notes section of your Paypal payment.We are an authorized distributor for all brands listed and each purchase is backed by a full manufacturers warranty.Please note pics and descriptions are from the manufacturer.Delivery in the U.S. will take between 4 to 6 business days. Shipping within the United States via UPS. Most orders ship within 2 to 3 business days of purchase with tracking. We accept Paypal and all major credit cards via a merchant account. Items will only be shipped to confirmed Paypal addresses. NO EXCEPTIONS! Email us for any additional info or special order requests.Customer Service 1-(315)941-3429Monday-Friday 9am to 6pm eastern time
p11
sS'images'
p12
(lp13
sS'shipping_info'
p14
(lp15
V5 available
p16
aVShipping:US-Mainland: free(more destinations)
p17
aVCondition: Brand new
p18
asS'id'
p19
V24830339
p20
s.