(dp1
S'title'
p2
V20-inch 2 Stage Big Blue Whole House Filter with Bone Char Carbon & Activated Alumina Filters
p3
sS'url'
p4
Vhttp://www.ecrater.com/p/24953170/20-inch-2-stage-big-blue-whole?keywords=bone
p5
sS'price'
p6
V$359.00
p7
sS'seller'
p8
Vhttp://afwfilters.ecrater.com
p9
sS'description_links'
p10
VThis system reduces a wide range of contaminates with a single system! The activated alumina filter reduces arsenic and fluoride in your water without adding any harmful chemicals or substances to the water. The bone char carbon filter reduces fluoride, arsenic, radioactive isotopes, iron, lead, mercury, aluminum, silver, bromine, manganese, and more. Plus, it reduces chemicals, tastes and odors, chlorine, chloramine, herbicides, pesticides, MTBE, and THM better than standard carbon. NOTE: This system is not recommended for arsenic levels significantly exceeding the 10 ppb (.010 ppm) of arsenic recommended by the EPA./n /n Complete System Mounting Bracket/n Housings with 1"" In/Out/n Housing Wrench/n Bone Char Carbon/n Activated Alumina/n/n Standard-flow System Designed for homes with 2-4 bathrooms/n/n 20"" Big Blue Filters 4.5"" diameter Big Blue filters outperform standard 2.5"" filters/n/n Bone Char Carbon The bone char carbon filter reduces fluoride, arsenic, radioactive isotopes, iron, lead, mercury, aluminum, silver, bromine, manganese, and more. Plus, it reduces chemicals, tastes and odors, chlorine, chloramine, herbicides, pesticides, MTBE, and THM better than standard carbon./n/n Activated Alumina Filter The activated alumina filter reduces arsenic and fluoride in your water without adding any harmful chemicals or substances to the water./n/n 1"" Connection Large NPT connection for minimal flow restriction/n/n Pressure Release Provides simple pressure let off to reduce water spray when changing filters/n/n DIY Installation Simple in/out connection and installation instructions allow most home owners to install these systems on their own/n/n
p11
sS'images'
p12
(lp13
Vhttp://s.ecrater.com/stores/315713/5778c5bd91b43_315713b.jpg
p14
asS'shipping_info'
p15
(lp16
VMore than 10 available
p17
aVShipping:US-Mainland: $10.00(more destinations)
p18
aVSales Tax: Kansas: 6.3%
p19
aVCondition: Brand new
p20
asS'id'
p21
V24953170
p22
s.