(dp1
S'title'
p2
V20"" 3 Stage Big Blue Whole House Bone Char Carbon Filter for Low pH, Acidic Water, Fluoride, Radioa
p3
sS'url'
p4
Vhttp://www.ecrater.com/p/24953167/20-3-stage-big-blue-whole-house?keywords=bone
p5
sS'price'
p6
V$349.00
p7
sS'seller'
p8
Vhttp://afwfilters.ecrater.com
p9
sS'description_links'
p10
VThis system features 3 stages of filtration, a sediment filter, a bone char carbon filter, carbon block. Mounted on a heavy-duty steel mounting bracket. These filters combined will reduce or remove fluoride, arsenic, radioactive particles, sand, particles, chlorine, chloramine, tastes, and odors from the water. Includes filter housing wrench and instructions./n /n Complete System Mounting Bracket/n Housings with 1"" In/Out/n Housing Wrench/n Carbon Block Filter/n Bone Char Carbon Filer/nSediment Filter (5 mic.)/n/n Standard-flow System Designed for homes with 2-4 bathrooms/n/n 20"" Big Blue Filters 4.5"" diameter Big Blue filters outperform standard 2.5"" filters/n/n Carbon Block Filter Filters out a wide range of tastes, odors and chemicals, including chlorine, herbicides, and pesticides/n/n Bone Char Carbon Filter Reduces fluoride, arsenic, and radioactive particles/n/n Sediment Filter Removes sediment and particulates, providing cleaner, clearer water/n/n 1"" Connection Large NPT connection for minimal flow restriction/n/n Pressure Release Provides simple pressure let off to reduce water spray when changing filters/n/n Mounting Bracket System comes built on a white, powder-coated, heavy-duty steel mounting bracket./n/n DIY Installation Simple in/out connection and installation instructions allow most home owners to install these systems on their own/n/n Control your water with the 3-stage Fluoride, Radioactive Particles, Arsenic, Chlorine, Chemicals, Tastes and Odors water filter system! Remove dirt and particulates from your water for cleaner looking water. Reduce or remove fluoride, chlorine, chloramine, pesticides, herbicides, organics, MTBE, and THM./n 3 canister system provides cleaner, safer water, without electricity or waste water. Complete system includes 1"" NPT inlet/outlet filter housings with pressure relief valves, mounting bracket, filters, and filter housing wrench./n High Flow ""Big Blue"" Filters - Larger 4.5"" diameter filters provide more surface area and fewer flow restrictions than standard sized filters, allowing for higher service flow rates./n DIY Installation - We provide detailed installation instructions that allow most homeowners to install this system themselves. All it takes is some basic plumbing skills and some common knowledge! If you don't feel confident installing it yourself most plumbers can install it in about 1-2 hours./n/n
p11
sS'images'
p12
(lp13
Vhttp://s.ecrater.com/stores/315713/5778c5bacb4de_315713b.jpg
p14
asS'shipping_info'
p15
(lp16
VMore than 10 available
p17
aVShipping:US-Mainland: $10.00(more destinations)
p18
aVSales Tax: Kansas: 6.3%
p19
aVCondition: Brand new
p20
asS'id'
p21
V24953167
p22
s.