(dp1
S'title'
p2
VBone Carving
p3
sS'url'
p4
Vhttp://www.ecrater.com/p/26126395/bone-carving?keywords=bone
p5
sS'price'
p6
V$350.00
p7
sS'seller'
p8
Vhttp://roadshowcollectibles.ecrater.com
p9
sS'description_links'
p10
VChinese Hand Carved Bone, Horse & Cart.Bone carving is the act of creating art forms by carving into animal bones and often includes the carving of antlers and horns. It can result in the ornamentation of a bone, or the creation of a figure. It has been practiced by a variety of world cultures, sometimes as a cheaper, and recently a legal, substitute for ivory carvings.CODE - BON3D339QRGTo view more Collections Go To - www.roadshowcollectibles.caWidth: 8 1/4" Height: 2 3/8" Depth: 4 3/8"Weight: 359 g
p11
sS'images'
p12
(lp13
Vhttp://s.ecrater.com/stores/397559/5875a9ce51435_397559b.jpg
p14
asS'shipping_info'
p15
(lp16
VOnly 1 available
p17
aVShipping:US-Mainland: free(more destinations)
p18
aVCondition: Used
p19
asS'id'
p20
V26126395
p21
s.