(dp1
S'title'
p2
VJapanese Netsuke Handmade Bone Figure of a Geisha early 1930th
p3
sS'url'
p4
Vhttp://www.ecrater.com/p/26666709/japanese-netsuke-handmade-bone-figure-of-a?keywords=bone
p5
sS'price'
p6
V$350.00
p7
sS'seller'
p8
Vhttp://artroad14.ecrater.com
p9
sS'description_links'
p10
VJapanese Netsuke Handmade Bone Figure of a Geisha early 1930thA beautiful Japanese piece of art, handmade.Dimensions:Height: 25.5 inches - 10 inchesWidth (base): 7.5 inches - 3 inchesCondition:Good condition, as in attached pics'.
p11
sS'images'
p12
(lp13
sS'shipping_info'
p14
(lp15
VOnly 1 available
p16
aVShipping:US-Mainland: free(more destinations)
p17
aVCondition: Used
p18
asS'id'
p19
V26666709
p20
s.