(dp1
S'title'
p2
VGiant Armadillo  Skull
p3
sS'url'
p4
Vhttp://www.skullsunlimited.com/record_variant.php?id=3389
p5
sS'price'
p6
V$145.00
p7
sS'seller'
p8
(lp9
sS'description_links'
p10
VGiant Armadillo Skull - The giant armadillo, native to South America, is the largest of the armadillos with a weight of over 120 pounds. This species is nocturnal, foraging for food at night. The giant armadillo is an insectivore, a specialized carnivore, eating mainly insects and other small invertebrates. When this species is threatened, they will use their large claws for defense or to dig an escape.
p11
sS'images'
p12
(lp13
Vhttp://www.skullsunlimited.com/userfiles/image/variants_3389.jpg
p14
asS'shipping_info'
p15
(lp16
sS'id'
p17
V3389_1497040159
p18
s.