(dp1
S'title'
p2
VPolar Bear Baculum (21.8cm)
p3
sS'url'
p4
Vhttp://www.skullsunlimited.com/record_variant.php?id=3963
p5
sS'price'
p6
V$18.00                                                     This item can ship for only $5.95* (*Within the contiguous United States only.)
p7
sS'seller'
p8
(lp9
sS'description_links'
p10
VPolar Bear Skull - Polar Bears are extremely large predators and dangerous to humans. Often found on ice flows they lead a very nomadic life. This particular specimen is considered to be the second largest skull ever found.
p11
sS'images'
p12
(lp13
Vhttp://www.skullsunlimited.com/userfiles/image/variants_3963.jpg
p14
asS'shipping_info'
p15
(lp16
sS'id'
p17
V3963_1497042503
p18
s.