(dp1
S'title'
p2
VRabbit Skull
p3
sS'url'
p4
Vhttp://www.skullsunlimited.com/record_variant.php?id=3995
p5
sS'price'
p6
V$46.00                                                     This item can ship for only $5.95* (*Within the contiguous United States only.)
p7
sS'seller'
p8
(lp9
sS'description_links'
p10
VRabbit Skull - The European rabbit and the Hare, also called the Jackrabbit in the United States, is found throughout most of the world. They are born precocial, meaning they are born with hair and are independent shortly after birth. The European rabbit and Jackrabbit are probably best known for their large ears and powerful hind jumping legs.Specimen will be either a Jackrabbit  (Lepus townsendii), or an European Rabbit ( Oryctolagus cuniculus)
p11
sS'images'
p12
(lp13
Vhttp://www.skullsunlimited.com/userfiles/image/variants_3995.jpg
p14
asS'shipping_info'
p15
(lp16
sS'id'
p17
V3995_1497042104
p18
s.