(dp1
S'title'
p2
VFish Skeleton Skeleton
p3
sS'url'
p4
Vhttp://www.skullsunlimited.com/record_variant.php?id=4803
p5
sS'price'
p6
V$80.00
p7
sS'seller'
p8
(lp9
sS'description_links'
p10
VCarassius auratus, this species of carp is originally native to Asia but has been introduced throughout Europe. Specimen is mounted on a 4 x 10\u201d wood base.
p11
sS'images'
p12
(lp13
Vhttp://www.skullsunlimited.com/userfiles/image/variants_4803.jpg
p14
asS'shipping_info'
p15
(lp16
sS'id'
p17
V4803_1497042445
p18
s.