(dp1
S'title'
p2
VEuropean Hare  Skull
p3
sS'url'
p4
Vhttp://www.skullsunlimited.com/record_variant.php?id=4985
p5
sS'price'
p6
V$59.00                                                     This item can ship for only $5.95* (*Within the contiguous United States only.)
p7
sS'seller'
p8
(lp9
sS'description_links'
p10
VThe Hare, is found throughout most of the world. They are born precocial, meaning they are born with hair and are independent shortly after birth. Hares and Jackrabbits are probably best known for their large ears and powerful hind jumping legs. Average length 9.5cm.
p11
sS'images'
p12
(lp13
Vhttp://www.skullsunlimited.com/userfiles/image/variants_4985.jpg
p14
asS'shipping_info'
p15
(lp16
sS'id'
p17
V4985_1497043002
p18
s.