(dp1
S'title'
p2
VCamas Pocket Gopher  Skull
p3
sS'url'
p4
Vhttp://www.skullsunlimited.com/record_variant.php?id=5392
p5
sS'price'
p6
V$35.00
p7
sS'seller'
p8
(lp9
sS'description_links'
p10
VThomomys bulbivorus, like all other pocket gophers, the camas pocket gopher constructs extensive systems of tunnels under the ground. The camas dines on roots of fruit, and root crops of carrots and potatoes. Specimen may differ slightly in size and appearance from that pictured.
p11
sS'images'
p12
(lp13
Vhttp://www.skullsunlimited.com/userfiles/image/variants_5392.jpg
p14
asS'shipping_info'
p15
(lp16
sS'id'
p17
V5392_1497043065
p18
s.