(dp1
S'title'
p2
VReal Human Vertebra (Thoracic)
p3
sS'url'
p4
Vhttp://www.skullsunlimited.com/record_variant.php?id=5405
p5
sS'price'
p6
V$39.00                                                     This item can ship for only $5.95* (*Within the contiguous United States only.)
p7
sS'seller'
p8
(lp9
sS'description_links'
p10
V
sS'images'
p11
(lp12
Vhttp://www.skullsunlimited.com/userfiles/image/variants_5405.jpg
p13
asS'shipping_info'
p14
(lp15
sS'id'
p16
V5405_1497042312
p17
s.