(dp1
S'title'
p2
VHorse Hyoid Bones
p3
sS'url'
p4
Vhttp://www.skullsunlimited.com/record_variant.php?id=5430
p5
sS'price'
p6
V$130.00
p7
sS'seller'
p8
(lp9
sS'description_links'
p10
VThis 5 part horse hyoid is a limited quantity product.
p11
sS'images'
p12
(lp13
Vhttp://www.skullsunlimited.com/userfiles/image/variants_5430.jpg
p14
asS'shipping_info'
p15
(lp16
sS'id'
p17
V5430_1497043249
p18
s.