(dp1
S'title'
p2
VWhite-thighed Hornbill Skull (Female)
p3
sS'url'
p4
Vhttp://www.skullsunlimited.com/record_variant.php?id=5443
p5
sS'price'
p6
V
sS'seller'
p7
(lp8
sS'description_links'
p9
VWhite-thighed Hornbill
p10
sS'images'
p11
(lp12
Vhttp://www.skullsunlimited.com/userfiles/image/variants_5443.jpg
p13
asS'shipping_info'
p14
(lp15
sS'id'
p16
V5443_1497043105
p17
s.