(dp1
S'title'
p2
VYellow-casqued Hornbill Skull (Male)
p3
sS'url'
p4
Vhttp://www.skullsunlimited.com/record_variant.php?id=5444
p5
sS'price'
p6
V
sS'seller'
p7
(lp8
sS'description_links'
p9
VYellow-casqued Hornbill
p10
sS'images'
p11
(lp12
Vhttp://www.skullsunlimited.com/userfiles/image/variants_5444.jpg
p13
asS'shipping_info'
p14
(lp15
sS'id'
p16
V5444_1497043202
p17
s.