(dp1
S'title'
p2
VGreat Egret Egg (59mm)
p3
sS'url'
p4
Vhttp://www.skullsunlimited.com/record_variant.php?id=5511
p5
sS'price'
p6
V$27.00                                                     This item can ship for only $5.95* (*Within the contiguous United States only.)
p7
sS'seller'
p8
(lp9
sS'description_links'
p10
VThe Great Egret ,is a large egret distributed across most of the tropical and warmer temperate regions of the world. The great egret likes to nest high up (15-40ft); in mangroves or in nearby trees on saltwater keys. The nest can consist of sticks, twigs and tule stems, lined with smaller twigs and plant material. In the wild, the great egret can lay 3-6 eggs a season, the eggs are elliptical and greenish-blue in color.
p11
sS'images'
p12
(lp13
Vhttp://www.skullsunlimited.com/userfiles/image/variants_5511.jpg
p14
asS'shipping_info'
p15
(lp16
sS'id'
p17
V5511_1497040750
p18
s.