(dp1
S'title'
p2
VNorthern Flicker Egg (29mm)
p3
sS'url'
p4
Vhttp://www.skullsunlimited.com/record_variant.php?id=5517
p5
sS'price'
p6
V$22.00                                                     This item can ship for only $3.95*
p7
sS'seller'
p8
(lp9
sS'description_links'
p10
VThe Northern Flicker, is a medium-sized member of the woodpecker family. It is native to most of North America, parts of Central America, Cuba, the Cayman Islands.The nothern flicker is one of the few woodpecker species that migrates. In the wild, the northern flicker can lay 6-8 eggs in a season, the eggs are smooth and and oval in shape, and a cream-white in color.
p11
sS'images'
p12
(lp13
Vhttp://www.skullsunlimited.com/userfiles/image/category5_species_2779.jpg
p14
asS'shipping_info'
p15
(lp16
sS'id'
p17
V5517_1497040785
p18
s.