(dp1
S'title'
p2
VHuman Fetal Skulls Set of 3
p3
sS'url'
p4
Vhttp://www.skullsunlimited.com/record_variant.php?id=5748
p5
sS'price'
p6
V$225.00
p7
sS'seller'
p8
(lp9
sS'description_links'
p10
VA comparative set of 3 ages in fetal development, ranging from 31, 32, and 40 weeks (near term). BC-180, BC-181 and BC-182.
p11
sS'images'
p12
(lp13
Vhttp://www.skullsunlimited.com/userfiles/image/category5_species_2942.jpg
p14
asS'shipping_info'
p15
(lp16
sS'id'
p17
V5748_1497040829
p18
s.