(dp1
S'title'
p2
V\u000aLarge New Italian Rococo Dining Chair Mahogany Bone\u000a
p3
sS'url'
p4
Vhttp://www.ioffer.com/i/large-new-italian-rococo-dining-chair-mahogany-bone-631636825
p5
sS'price'
p6
V$459.00
p7
sS'seller'
p8
(lp9
sS'description_links'
p10
VItem #:P-29B Overall measurements (inches) 40.50H x 19W x 18DSeat 21.50H .Add elegance to your decor with this lovely reproduction Italian Rococo dining chair! Constructed of mahogany, this chair boasts a beautiful pierced back with decorations that look hand-carved. Curvy cabriole legs will support you in style. The attractive bone damask fabric speaks to the quality of this chair, and the color provides a wonderful contrast against the darker mahogany finish. This chair represents an exceptional value because it was a furniture store floor model and, as such, exhibits a few scuffs and dings. Those only add character! This beautiful reproduction Italian Rococo dining chair measures 40.5 inches high and will make a wonderful addition to your home office, living room, or bed-and-breakfast.Overall Condition is Used - Good. Shows minor wear to the finish and the uphostery due to age and use as a showroom sample. Material(s): Mahogany. Style: Rococo. Dates to circa 2002.
p11
sS'images'
p12
(lp13
Vhttp://cdn.iofferphoto.com/img3/item/631/636/825/t_large-new-italian-rococo-dining-chair-mahogany-bone-9753.jpg
p14
aVhttp://cdn.iofferphoto.com/img3/item/631/636/825/t_large-new-italian-rococo-dining-chair-mahogany-bone-04cd.jpg
p15
aVhttp://cdn.iofferphoto.com/img3/item/631/636/825/t_large-new-italian-rococo-dining-chair-mahogany-bone-0c70.jpg
p16
aVhttp://cdn.iofferphoto.com/img3/item/631/636/825/t_large-new-italian-rococo-dining-chair-mahogany-bone-419e.jpg
p17
aVhttp://cdn.iofferphoto.com/img3/item/631/636/825/t_large-new-italian-rococo-dining-chair-mahogany-bone-12cc.jpg
p18
aVhttp://cdn.iofferphoto.com/img3/item/631/636/825/t_large-new-italian-rococo-dining-chair-mahogany-bone-f430.jpg
p19
aVhttp://cdn.iofferphoto.com/img3/item/631/636/825/t_large-new-italian-rococo-dining-chair-mahogany-bone-53e0.jpg
p20
aVhttp://cdn.iofferphoto.com/img3/item/631/636/825/t_large-new-italian-rococo-dining-chair-mahogany-bone-0cff.jpg
p21
aVhttp://cdn.iofferphoto.com/img3/item/631/636/825/t_large-new-italian-rococo-dining-chair-mahogany-bone-9906.jpg
p22
asS'shipping_info'
p23
VObjectDining ChairEstimated Shipping5 - 10 Days
p24
sS'id'
p25
V631636825_1497045212
p26
s.