(dp1
S'title'
p2
V\u000aWriting Desk AMBELLA HOME Antique Gold Leaf Bone Light\u000a
p3
sS'url'
p4
Vhttp://www.ioffer.com/i/writing-desk-ambella-home-antique-gold-leaf-bone-light-637705975
p5
sS'price'
p6
V$3,989.00
p7
sS'seller'
p8
(lp9
sS'description_links'
p10
VItem #:AH-1214 Overall measurements (inches) 30H x 60W x 30D .Overall Condition is New.Material(s): Metal,Cast Iron,Solid Brass,American White Oak. Dates to circa New.
p11
sS'images'
p12
(lp13
Vhttp://cdn.iofferphoto.com/img/item/637/705/975/t_writing-desk-ambella-home-antique-gold-leaf-bone-light-077e.jpg
p14
aVhttp://cdn.iofferphoto.com/img/item/637/705/975/t_writing-desk-ambella-home-antique-gold-leaf-bone-light-f1dc.jpg
p15
aVhttp://cdn.iofferphoto.com/img/item/637/705/975/t_writing-desk-ambella-home-antique-gold-leaf-bone-light-a5e0.jpg
p16
aVhttp://cdn.iofferphoto.com/img/item/637/705/975/t_writing-desk-ambella-home-antique-gold-leaf-bone-light-37f6.jpg
p17
aVhttp://cdn.iofferphoto.com/img/item/637/705/975/t_writing-desk-ambella-home-antique-gold-leaf-bone-light-79a8.jpg
p18
aVhttp://cdn.iofferphoto.com/img/item/637/705/975/t_writing-desk-ambella-home-antique-gold-leaf-bone-light-f996.jpg
p19
asS'shipping_info'
p20
VOtherHand ForgedEstimated Shipping5 - 10 Days
p21
sS'id'
p22
V637705975_1497045122
p23
s.