(dp1
S'title'
p2
V\u000aWriting Desk AMBELLA HOME Bone Light Gray Wash\u000a
p3
sS'url'
p4
Vhttp://www.ioffer.com/i/writing-desk-ambella-home-bone-light-gray-wash-637768805
p5
sS'price'
p6
V$3,989.00
p7
sS'seller'
p8
(lp9
sS'description_links'
p10
VItem #:AH-1214 Overall measurements (inches) 30H x 60W x 30D .Overall Condition is New.Material(s): Cast Iron,Solid Brass,Metal,American White Oak. Dates to circa New.
p11
sS'images'
p12
(lp13
Vhttp://cdn.iofferphoto.com/img3/item/637/768/805/t_writing-desk-ambella-home-bone-light-gray-wash-e421.jpg
p14
aVhttp://cdn.iofferphoto.com/img3/item/637/768/805/t_writing-desk-ambella-home-bone-light-gray-wash-0413.jpg
p15
aVhttp://cdn.iofferphoto.com/img3/item/637/768/805/t_writing-desk-ambella-home-bone-light-gray-wash-492e.jpg
p16
aVhttp://cdn.iofferphoto.com/img3/item/637/768/805/t_writing-desk-ambella-home-bone-light-gray-wash-6a89.jpg
p17
aVhttp://cdn.iofferphoto.com/img3/item/637/768/805/t_writing-desk-ambella-home-bone-light-gray-wash-db0e.jpg
p18
aVhttp://cdn.iofferphoto.com/img3/item/637/768/805/t_writing-desk-ambella-home-bone-light-gray-wash-7228.jpg
p19
asS'shipping_info'
p20
VOtherHand ForgedEstimated Shipping5 - 10 Days
p21
sS'id'
p22
V637768805_1497045129
p23
s.