(dp1
S'title'
p2
VBag-O-Miscellaneous Snake Ribs
p3
sS'url'
p4
Vhttp://www.skullsunlimited.com/record_variant.php?id=6622
p5
sS'price'
p6
V$49.00                                                     This item can ship for only $5.95* (*Within the contiguous United States only.)
p7
sS'seller'
p8
(lp9
sS'description_links'
p10
VThis one-of-a-kind bag of snake ribs contains approximately 250 randomly sized ribs. These ribs range in size from approximately 8cms to less than 2cms in length.Ideal for arts and craft projects.
p11
sS'images'
p12
(lp13
Vhttp://www.skullsunlimited.com/userfiles/image/variants_6622.jpg
p14
asS'shipping_info'
p15
(lp16
sS'id'
p17
V6622_1497042914
p18
s.