(dp1
S'title'
p2
VBeaver Skeleton
p3
sS'url'
p4
Vhttp://www.skullsunlimited.com/record_variant.php?id=6877
p5
sS'price'
p6
V$499.00
p7
sS'seller'
p8
(lp9
sS'description_links'
p10
VThe American beaver is the largest rodent found in North America. These aquatic herbivores make large dams of wood and mud to flood and create habitat. Using their large incisors, beavers can chew through the biggest trees. It is for this reason that the American beaver has become a nuisance in some areas where they are overpopulated.These complete limited quantity beaver skeleton have no missing bones and include everything shown in picture.Multiple sizes available, please call with any questions.
p11
sS'images'
p12
(lp13
Vhttp://www.skullsunlimited.com/userfiles/image/variants_6877.jpg
p14
asS'shipping_info'
p15
(lp16
sS'id'
p17
V6877_1497043178
p18
s.