(dp1
S'title'
p2
VReal Bat in Acrylic Block - Large
p3
sS'url'
p4
Vhttp://www.skullsunlimited.com/record_variant.php?id=6882
p5
sS'price'
p6
V$65.00
p7
sS'seller'
p8
(lp9
sS'description_links'
p10
VGet this amazing bat specimen preserved indefinitely in an attractive acrylic display . This amazing species will make a great desk decoration. Display measures 7.5 inches wide, 4.5 inches tall, 1.5 inches thick.Bat specimen will vary slightly from shown. Pipistrellus abramus
p11
sS'images'
p12
(lp13
Vhttp://www.skullsunlimited.com/userfiles/image/variants_6882.jpg
p14
asS'shipping_info'
p15
(lp16
sS'id'
p17
V6882_1497041798
p18
s.