(dp1
S'title'
p2
VReal Turtle in Acrylic Block
p3
sS'url'
p4
Vhttp://www.skullsunlimited.com/record_variant.php?id=6924
p5
sS'price'
p6
V$25.00                                                     This item can ship for only $5.95* (*Within the contiguous United States only.)
p7
sS'seller'
p8
(lp9
sS'description_links'
p10
VGet this amazing turtle specimen preserved indefinitely in an attractive acrylic display . This amazing species will make a great desk decoration. Display measures 7.5 cms wide, 7.5 cms tall, and nearly 3 cms thick.Turtle specimen will vary slightly from shown.Trachemys scripta elegans
p11
sS'images'
p12
(lp13
Vhttp://www.skullsunlimited.com/userfiles/image/variants_6924.jpg
p14
asS'shipping_info'
p15
(lp16
sS'id'
p17
V6924_1497041839
p18
s.