(dp1
S'title'
p2
VReal Arachnids in Acrylic Spheres Scorpion
p3
sS'url'
p4
Vhttp://www.skullsunlimited.com/record_variant.php?id=6979
p5
sS'price'
p6
V$20.00                                                     This item can ship for only $5.95* (*Within the contiguous United States only.)
p7
sS'seller'
p8
(lp9
sS'description_links'
p10
VGet these amazing arachnid specimens preserved indefinitely in an attractive perfect acrylic sphere. These amazing species will make a great desk decoration. Spheres diameter is 2.25 inchesEach specimen is available separately or as a group.
p11
sS'images'
p12
(lp13
Vhttp://www.skullsunlimited.com/userfiles/image/variants_6979.jpg
p14
asS'shipping_info'
p15
(lp16
sS'id'
p17
V6979_1497042012
p18
s.