(dp1
S'title'
p2
VTurtle Skeleton With Scutes
p3
sS'url'
p4
Vhttp://www.skullsunlimited.com/record_variant.php?id=7125
p5
sS'price'
p6
V
sS'seller'
p7
(lp8
sS'description_links'
p9
VTrachemys scripta, this specimen is mounted on a 3 x 8.5\u201d wood base.
p10
sS'images'
p11
(lp12
Vhttp://www.skullsunlimited.com/userfiles/image/variants_7125.jpg
p13
asS'shipping_info'
p14
(lp15
sS'id'
p16
V7125_1497042458
p17
s.