(dp1
S'title'
p2
VFish Skeleton in Acrylic Block
p3
sS'url'
p4
Vhttp://www.skullsunlimited.com/record_variant.php?id=7221
p5
sS'price'
p6
V$80.00
p7
sS'seller'
p8
(lp9
sS'description_links'
p10
VThis beautiful specimen is a real fish skeleton, cleaned and specially treated for display.The bird skeleton is carefully positioned  and preserved beautifully in a durable acrylic block.
p11
sS'images'
p12
(lp13
Vhttp://www.skullsunlimited.com/userfiles/image/variants_7221.jpg
p14
asS'shipping_info'
p15
(lp16
sS'id'
p17
V7221_1497041755
p18
s.