(dp1
S'title'
p2
VBag-O-Damaged Mink Skulls
p3
sS'url'
p4
Vhttp://www.skullsunlimited.com/record_variant.php?id=7286
p5
sS'price'
p6
V$79.00
p7
sS'seller'
p8
(lp9
sS'description_links'
p10
VThese limited quantity bags of C Quality mink skulls will contain damage to the bone or several missing teeth. Each bag contains 5 mink skull specimens which vary in size and damage.The photograph displayed is an example of what each bag includes. Each bag is unique and size and damage may vary. This mink skull pack would be excellent for teachers, kids or even an art project.
p11
sS'images'
p12
(lp13
Vhttp://www.skullsunlimited.com/userfiles/image/variants_7286.jpg
p14
asS'shipping_info'
p15
(lp16
sS'id'
p17
V7286_1497043210
p18
s.