(dp1
S'title'
p2
VBlack Marsh Turtle Shell
p3
sS'url'
p4
Vhttp://www.skullsunlimited.com/record_variant.php?id=7968
p5
sS'price'
p6
V$35.00
p7
sS'seller'
p8
(lp9
sS'description_links'
p10
VBlack marsh turtles are a small species of water turtle found is Asia. They are largely aquatic and prefer slow-moving or still bodies of water with heavy vegetation such as ponds or lakes. Black marsh turtles are commonly found in the pet trade.These turtle shells might exhibit some missing scutes, however the bone itself is not damaged. These turtles would make wonderful additions to any collection. Please see photos for details.Call with any questions.
p11
sS'images'
p12
(lp13
Vhttp://www.skullsunlimited.com/userfiles/image/variants_7968.jpg
p14
asS'shipping_info'
p15
(lp16
sS'id'
p17
V7968_1497042612
p18
s.