(dp1
S'title'
p2
VBag-O-Monkey Skulls
p3
sS'url'
p4
Vhttp://www.skullsunlimited.com/record_variant.php?id=9803
p5
sS'price'
p6
V$399.00
p7
sS'seller'
p8
(lp9
sS'description_links'
p10
VThis one of a kind bag of a partial monkey skulls is a wonderful opportunity to obtain some various bones for arts and craft projects. This bag includes all bones shown in photograph.Please see photo for detail.Call with any questions.
p11
sS'images'
p12
(lp13
Vhttp://www.skullsunlimited.com/userfiles/image/variants_9803.jpg
p14
asS'shipping_info'
p15
(lp16
sS'id'
p17
V9803_1497044094
p18
s.