(dp1
S'title'
p2
VBone Room Patch
p3
sS'url'
p4
Vhttp://www.boneroom.com/store/p61/Bone_Room_Patch.html
p5
sS'price'
p6
V$3.00
p7
sS'seller'
p8
(lp9
sS'description_links'
p10
V6" x 6", 100% cotton duck canvas
p11
sS'images'
p12
(lp13
Vhttp://www.boneroom.com//uploads/4/8/1/1/48118243/s521972503441136676_p61_i3_w640.jpeg
p14
asS'shipping_info'
p15
(lp16
sS'id'
p17
Vp61_1497045227
p18
s.