(dp1
S'title'
p2
VREAL BONE CARVED KNIFE POINT
p3
sS'url'
p4
Vhttp://www.glacierwear.com/real-bone-carved-knife-point.html
p5
sS'price'
p6
V2.95
p7
sS'seller'
p8
(lp9
sS'description_links'
p10
VReal Bone Carved Point
p11
sS'images'
p12
(lp13
Vhttp://www.glacierwear.com/media/catalog/product/cache/1/image/9df78eab33525d08d6e5fb8d27136e95/i/m/img_2967.jpg
p14
asS'shipping_info'
p15
VFree Shipping on $100.00+
p16
sS'id'
p17
Vpoint_1497045058
p18
s.