(dp1
S'title'
p2
V\u000aNovelty Horse Head Mask Creepy Halloween Costume Theate\u000a
p3
sS'url'
p4
Vhttp://www.ioffer.com/i/novelty-horse-head-mask-creepy-halloween-costume-theate-547781494
p5
sS'price'
p6
V$19.99
p7
sS'seller'
p8
(lp9
sS'description_links'
p10
VFeatures:Brand new and high quality.One size fits all.Material: Latex.It's use professional and natural eco-friendly Latex Rubber material.It's durable and never deformatio, also have good elasticity and surface tension.You can use it in any occasion if you want , irrespective of age and gender.Our this item have exported to many countries , more and more people all over the world like it.Size:49cm x 27cm x 18cm - 19.29inch x 10.63inch x 7.09inch.The item is normally have a smell of latex , you can put it on the Ventilation place for a while.The actual item's colour maybe slightly different from the picture shown due to the lighting when the picture was shot and the monitors.Package Included:1 X Head MaskNO Retail Box. Packed Safely in Bubble Bag. Color: Black, Brown Payment:We only accept paypal. Shipping: Handling time: 36 hours Other countries: 15-30 buiness days TO Remote countries: 35-45 business days (Russia, Belarus,Argentina, Brazil, Lithuania,Mauritius, Armenia, Israel, Uruguay, Ukraine,Latvia,Croatia,Chile,Czech,Maldives,Bolivia,United Arab Emirates,India, Puerto Rico and some other countries of Europe, South America.)
p11
sS'images'
p12
(lp13
Vhttp://cdn.iofferphoto.com/img/item/547/781/494/t_novelty-horse-head-mask-creepy-halloween-costume-theate-2f4a.jpg
p14
aVhttp://cdn.iofferphoto.com/img/item/547/781/494/t_novelty-horse-head-mask-creepy-halloween-costume-theate-007d.jpg
p15
aVhttp://cdn.iofferphoto.com/img/item/547/781/494/t_novelty-horse-head-mask-creepy-halloween-costume-theate-2d1b.jpg
p16
aVhttp://cdn.iofferphoto.com/img/item/547/781/494/t_novelty-horse-head-mask-creepy-halloween-costume-theate-cd23.jpg
p17
aVhttp://cdn.iofferphoto.com/img/item/547/781/494/t_novelty-horse-head-mask-creepy-halloween-costume-theate-1184.jpg
p18
aVhttp://cdn.iofferphoto.com/img/item/547/781/494/t_novelty-horse-head-mask-creepy-halloween-costume-theate-d1b0.jpg
p19
aVhttp://cdn.iofferphoto.com/img/item/547/781/494/t_novelty-horse-head-mask-creepy-halloween-costume-theate-ed76.jpg
p20
aVhttp://cdn.iofferphoto.com/img/item/547/781/494/t_novelty-horse-head-mask-creepy-halloween-costume-theate-551c.jpg
p21
aVhttp://cdn.iofferphoto.com/img/item/547/781/494/t_novelty-horse-head-mask-creepy-halloween-costume-theate-f8ba.jpg
p22
aVhttp://cdn.iofferphoto.com/img/item/547/781/494/t_novelty-horse-head-mask-creepy-halloween-costume-theate-65be.jpg
p23
asS'shipping_info'
p24
VConditionNewNotePlease Read The Details Especially Shipping Carefully.PaymentWe Accept Only Paypal. Please Send Message When You Made Payment.ShippingChina,  No Tracking Number, and  And And It Shipped By Normal Airmail. If You Want Tracking Number Should Pay Extra 2$. Over 30$ Orders Tracking Number Is Free.Estimated Shipping15 - 20 Days
p25
sS'id'
p26
V547781494_1497074326
p27
s.