(dp1
S'title'
p2
V\u000aIRON HORSE COMPLETE SERIES \u000a
p3
sS'url'
p4
Vhttp://www.ioffer.com/i/iron-horse-complete-series-558920370
p5
sS'price'
p6
V$29.00
p7
sS'seller'
p8
(lp9
sS'description_links'
p10
Vthis auction is for : COMPLETE IRON HORSE SERIES WITH PILOT number of episodes: 47 number of dvds: 14 packaging: shipped in 1   dvd case. no artwork. quality:7 -8   of 10. screenshots are from the dvds you will receive source: fanmade collectors copy of rare show never released to retail. pay services: credit cards securely through ioffer automatic checkoutshipping: items paid for Tuesday though Thursday ships Friday. items paid Friday though Monday ships Tuesday
p11
sS'images'
p12
(lp13
Vhttp://cdn.iofferphoto.com/img3/item/558/920/370/t_iron-horse-complete-series-7859.jpg
p14
aVhttp://cdn.iofferphoto.com/img3/item/558/920/370/t_iron-horse-complete-series-b56e.jpg
p15
aVhttp://cdn.iofferphoto.com/img3/item/558/920/370/t_iron-horse-complete-series-c2cb.jpg
p16
aVhttp://cdn.iofferphoto.com/img3/item/558/920/370/t_iron-horse-complete-series-664e.jpg
p17
aVhttp://cdn.iofferphoto.com/img3/item/558/920/370/t_iron-horse-complete-series-0883.jpg
p18
aVhttp://cdn.iofferphoto.com/img3/item/558/920/370/t_iron-horse-complete-series-b4c2.jpg
p19
aVhttp://cdn.iofferphoto.com/img3/item/558/920/370/t_iron-horse-complete-series-d8d3.jpg
p20
aVhttp://cdn.iofferphoto.com/img3/item/558/920/370/t_iron-horse-complete-series-e5de.jpg
p21
asS'shipping_info'
p22
VEstimated Shipping3 - 5 Days
p23
sS'id'
p24
V558920370_1497074322
p25
s.