(dp1
S'title'
p2
VGENUINE HORSE HAIR BUNDLE - BROWN & BLACK
p3
sS'url'
p4
Vhttp://www.glacierwear.com/genuine-horse-hair-bundle-brown-black.html
p5
sS'price'
p6
V29.95
p7
sS'seller'
p8
(lp9
sS'description_links'
p10
VGenuine Horse Hair Bundle- Cleaned, Washed and Bundled - Project Ready
p11
sS'images'
p12
(lp13
Vhttp://www.glacierwear.com/media/catalog/product/cache/1/thumbnail/500x/17f82f742ffe127f42dca9de82fb58b1/1/-/1-img_2535.jpg
p14
asS'shipping_info'
p15
VFree Shipping on $100.00+
p16
sS'id'
p17
Vblack_1497074312
p18
s.