(dp1
S'title'
p2
VPropalaetherium hassiacum, Eocene horse from Germany.
p3
sS'url'
p4
Vhttp://www.boneroom.com/store/p2860/Propalaetherium_hassiacum%2C_Eocene_horse_from_Germany..html
p5
sS'price'
p6
V$250.00
p7
sS'seller'
p8
(lp9
sS'description_links'
p10
VPropalaetherium hassiacum, Eocene horse from Germany. 15" x16", can be hung on wall. $250
p11
sS'images'
p12
(lp13
Vhttp://www.boneroom.com//uploads/4/8/1/1/48118243/s521972503441136676_p2860_i1_w640.jpeg
p14
asS'shipping_info'
p15
(lp16
sS'id'
p17
Vp2860_1497074377
p18
s.