(dp1
S'title'
p2
V14K Yellow Gold Jewelry Diamond Multi Gemstone Elephant Ring [RR003]
p3
sS'url'
p4
Vhttp://www.ecrater.com/p/17036226/14k-yellow-gold-jewelry-diamond?keywords=elephant
p5
sS'price'
p6
V$610.00
p7
sS'seller'
p8
Vhttp://bkgjewelry.ecrater.com
p9
sS'description_links'
p10
VMy website: www.bkgjewelry.comRing informationMetal: Yellow Gold 14 KaratGold Weight: 4.60 gramsSize: 7(US),N (UK) ResizeableAppraisal Value: $1,300Ruby information:Shape or Cut: Cabochon and SquareQuantity: 2 and 4 StonesTotal Weight: 0.07 and 0.09 carats (100% Genuine Natural)Clarity: Eye very cleanColor: RedSapphire information:Shape or Cut: SquareQuantity: 4 StonesTotal Weight: 0.10 carats (100% Genuine Natural)Clarity: Eye very cleanColor: BlueEmerald information:Shape or Cut: SquareQuantity: 4 StonesTotal Weight:
p11
sS'images'
p12
(lp13
Vhttp://s.ecrater.com/stores/285518/50ff849d5f6f7_285518b.jpg
p14
asS'shipping_info'
p15
(lp16
VOnly 1 available
p17
aVShipping:USPS calculated - check
p18
aVCondition: Brand new
p19
asS'id'
p20
V17036226
p21
s.