(dp1
S'title'
p2
V14KT YELLOW GOLD RARE PENDANT ELEPHANT CIRCUS ON TOP OF CHAIR AND TOPAZ 6.5DWT
p3
sS'url'
p4
Vhttp://www.ecrater.com/p/18985868/14kt-yellow-gold-rare-pendant?keywords=elephant
p5
sS'price'
p6
V$795.00
p7
sS'seller'
p8
Vhttp://morningstarsjewelers.ecrater.com
p9
sS'description_links'
p10
VMorningstarJewelers Store          DescriptionWe are offering this 14ktYellow Gold ELEPHANT CIRCUS TRICK ON TOP OF CHAIR ON TOP OF A LARGE TOPAZ Pendant forSale!!!Type: 14ktYellowGold ELEPHANT ON TOP OF TOPAZ PendantWeight: 6.5dwtMetal: 14ktYellowGoldMeasures: Approximately1.5 inch long X 0.5 inchwideYour Price: $795.00      On Nov-07-13 at 00:29:01 PST, seller added the following information:Every buyer gets a MyStoreRewards invitation for cash back
p11
sS'images'
p12
(lp13
sS'shipping_info'
p14
(lp15
VOnly 1 available
p16
aVShipping:US-Mainland: $20.00(more destinations)
p17
aVCondition: Used
p18
asS'id'
p19
V18985868
p20
s.