(dp1
S'title'
p2
V2 gorgeous marble hand sculptured elephants, 3000 pounds each + silver swing
p3
sS'url'
p4
S'http://www.ebay.com/itm/2-Gorgeous-Marble-Hand-Sculptured-Elephants-3000-pounds-each-Silver-Swing-/191679081009?hash=item2ca0f6aa31:g:yuIAAOSwT6pV5OVS'
p5
sS'price'
p6
VUS $35,900.00
p7
sS'seller'
p8
(dp9
g4
Vhttp://www.ebay.com/usr/rsjsm1973?_trksid=p2047675.l2559
p10
sS'name'
p11
V rsjsm1973
p12
ssS'description_links'
p13
(lp14
Vhttp://vi.vipr.ebaydesc.com/ws/eBayISAPI.dll?ViewItemDescV4&item=191679081009&t=1471531562000&tid=10&category=553&seller=rsjsm1973&excSoj=1&excTrk=1&lsite=0&ittenable=false&domain=ebay.com&descgauge=1
p15
asS'images'
p16
(lp17
(dp18
S'maxImageUrl'
p19
Vhttp://i.ebayimg.com/images/g/yuIAAOSwT6pV5OVS/s-l1600.jpg
p20
sS'displayImgUrl'
p21
Vhttp://i.ebayimg.com/images/g/yuIAAOSwT6pV5OVS/s-l300.jpg
p22
sa(dp23
g19
Vhttp://i.ebayimg.com/images/g/1cAAAOSwLVZV5OVV/s-l1600.jpg
p24
sg21
Vhttp://i.ebayimg.com/images/g/1cAAAOSwLVZV5OVV/s-l300.jpg
p25
sa(dp26
g19
Vhttp://i.ebayimg.com/images/g/bDEAAOSw3ydV5OVJ/s-l1600.jpg
p27
sg21
Vhttp://i.ebayimg.com/images/g/bDEAAOSw3ydV5OVJ/s-l300.jpg
p28
sa(dp29
g19
Vhttp://i.ebayimg.com/images/g/ypUAAOSwT6pV5OVO/s-l1600.jpg
p30
sg21
Vhttp://i.ebayimg.com/images/g/ypUAAOSwT6pV5OVO/s-l300.jpg
p31
sa(dp32
g19
Vhttp://i.ebayimg.com/images/g/iEIAAOSwDNdV5OVZ/s-l1600.jpg
p33
sg21
Vhttp://i.ebayimg.com/images/g/iEIAAOSwDNdV5OVZ/s-l300.jpg
p34
sasS'shipping_info'
p35
(dp36
S'item_location'
p37
(lp38
V\u000aDanbury, Connecticut, United States
p39
asS'delivery'
p40
(lp41
VVaries
p42
asS'posts_to'
p43
(lp44
VLocal pick-up only
p45
assS'id'
p46
S'191679081009'
p47
s.