(dp1
S'title'
p2
V14K YELLOW WHITE GOLD ELEPHANT SOLID BRACELET BANGLE 6.8dwt GOOD LUCK BABY LINK
p3
sS'url'
p4
Vhttp://www.ecrater.com/p/19499445/14k-yellow-white-gold-elephant?keywords=elephant
p5
sS'price'
p6
V$975.00
p7
sS'seller'
p8
Vhttp://morningstarsjewelers.ecrater.com
p9
sS'description_links'
p10
VMorningstarJewelers Store        14K YELLOW WHITE GOLD ELEPHANT SOLID BRACELET BANGLE 6.8dwt GOOD LUCK BABY LINK    On Nov-07-13 at 00:33:20 PST, seller added the following information:Every buyer gets a MyStoreRewards invitation for cash backFREE!  Sellers: Add a FREE map to your listings. FREE!
p11
sS'images'
p12
(lp13
sS'shipping_info'
p14
(lp15
VOnly 1 available
p16
aVShipping:US-Mainland: $20.00(more destinations)
p17
aVCondition: Used
p18
asS'id'
p19
V19499445
p20
s.