(dp1
S'title'
p2
V14K GOLD ANIMAL CHARM - ELEPHANT #2306
p3
sS'url'
p4
Vhttp://www.ecrater.com/p/24285137/14k-gold-animal-charm-elephant-2306?keywords=elephant
p5
sS'price'
p6
V$635.00
p7
sS'seller'
p8
Vhttp://golden-charms.ecrater.com
p9
sS'description_links'
p10
V14K GOLD ANIMAL CHARM - ELEPHANT #2306Dimensions are 30 x 25 mm (height by width)14K Solid Gold - 9.6 gm3-D, Weights and dimensions are approximateOur 14k Gold Charm Comes in Beautiful Jewelry BoxAll Our Gold Jewelry is Made in USA
p11
sS'images'
p12
(lp13
sS'shipping_info'
p14
(lp15
VMore than 10 available
p16
aVShipping:US-Mainland: free(more destinations)
p17
aVCondition: Brand new
p18
asS'id'
p19
V24285137
p20
s.