(dp1
S'title'
p2
VFREDERICK COOPER Carved Wood Floor Lamp Stacked Elephants w/ Rice Paper Shade
p3
sS'url'
p4
Vhttp://www.ecrater.com/p/24812493/frederick-cooper-carved-wood-floor?keywords=elephant
p5
sS'price'
p6
V$599.99
p7
sS'seller'
p8
Vhttp://theprovincialpeacock.ecrater.com
p9
sS'description_links'
p10
VFabulous Frederick Cooper Floor LampCarved wood stacked elephants with small specks of gold throughoutDouble socketWorking conditionRice paper shade (has a very small hole in one spot towards the top)Stands approx 68" tall from bottom of base to top of finialNo, the base is not even. Part of it is turned. It is not broken, that's the way it was made.See photos for further description and detailsMost of our products are antique, vintage, or preloved items and as such might have imperfections. Many of our items are rare and hard to find. We try to stock a variety of items in both our storefront and in our eCRATER store. However, if there is a certain type of item that you are searching for, please feel free to contact us. We may be able to help!Photos serve as description.Return policy: we do not accept returns or give refunds of any kind on items listed as local pick up. We do not accept returns or give refunds of any kind on shipped items unless there is a gross error in the item description. We try our best to describe each item to the best of our ability. Please ask all questions prior to looking.We strive to give the highest level of customer service. Positive feedback will be left when positive feedback is received  ***SHIPPING: Buyer must arrange for freight shipping or buyer can pick item up.
p11
sS'images'
p12
(lp13
sS'shipping_info'
p14
(lp15
VOnly 1 available
p16
aVShipping:US-Mainland: free(more destinations)
p17
aVCondition: Used
p18
asS'id'
p19
V24812493
p20
s.