(dp1
S'title'
p2
V18KT WHITE GOLD PENDANT ELEPHANT DIAMOND 41 DIAMONDS .50 CARAT RUBY 5.4 GRAMS
p3
sS'url'
p4
Vhttp://www.ecrater.com/p/26667040/18kt-white-gold-pendant-elephant?keywords=elephant
p5
sS'price'
p6
V$1,125.00
p7
sS'seller'
p8
Vhttp://morningstarsjewelers.ecrater.com
p9
sS'description_links'
p10
V18KT WHITE GOLD PENDANT ELEPHANT DIAMOND 41 DIAMONDS .50 CARAT RUBY 5.4 GRAMSSave time & money withFREE Auctiva Image Hosting.Create listings that get noticed!with Auctiva's 1,800+ Templates.Auctiva,The complete eCRATER Selling Solution.    <div style="text-align:center"><a style="text-decoration:none" href="http://mostpopular.sellathon.com/?id=AC1036956"><img src="http://www.sellathon.com/Resources/Images/countercredit.gif" border="0"></a></div>On Feb-23-17 at 14:16:09 PST, seller added the following information:3c0,RcmdId ViewItemDescV4,RlogId p4%60bo7%60jtb9%3Feog4d71f%2B%3E3c0-15aa8321ed6-0x129-->
p11
sS'images'
p12
(lp13
sS'shipping_info'
p14
(lp15
VOnly 1 available
p16
aVShipping:US-Mainland: $25.00(more destinations)
p17
aVCondition: Used
p18
asS'id'
p19
V26667040
p20
s.