(dp1
S'title'
p2
V\u000a40-90cm pink kawaii green elephant skin coat pillow plu\u000a
p3
sS'url'
p4
Vhttp://www.ioffer.com/i/40-90cm-pink-kawaii-green-elephant-skin-coat-pillow-plu-637233315
p5
sS'price'
p6
V$16.34
p7
sS'seller'
p8
(lp9
sS'description_links'
p10
VFeatures: Stuffed & Plush,Educational,Soft,MiniItem Type: AnimalsAge Range: > 3 years oldType: Cushion/PillowFilling: PP CottonMaterial: PlushAnimals: DuckModel Number: 11Theme: TV & Movie CharacterBrand Name: YESFEIER Colors: elephant, bear
p11
sS'images'
p12
(lp13
Vhttp://cdn.iofferphoto.com/img3/item/637/233/315/t_1u5U40-90cm-pink-kawaii-green-elephant-skin-coat-pillow-plu.jpg
p14
aVhttp://cdn.iofferphoto.com/img3/item/637/233/315/t_pnjs40-90cm-pink-kawaii-green-elephant-skin-coat-pillow-plu.jpg
p15
aVhttp://cdn.iofferphoto.com/img3/item/637/233/315/t_u5ds40-90cm-pink-kawaii-green-elephant-skin-coat-pillow-plu.jpg
p16
asS'shipping_info'
p17
(lp18
sS'id'
p19
V637233315_1497024042
p20
s.