(dp1
S'title'
p2
VAsian Elephant
p3
sS'url'
p4
Vhttp://store.yahoo.com/yhst-66562580642243/asian-elephant.html
p5
sS'price'
p6
(lp7
sS'seller'
p8
(lp9
sS'description_links'
p10
VAsian Elephant Photo Reference Cd
p11
sS'images'
p12
(lp13
Vhttp://ep.yimg.com/ca/I/yhst-66562580642243_2251_74598439
p14
asS'shipping_info'
p15
(lp16
sS'id'
p17
Vasian-elephant_1497024032
p18
s.