(dp1
S'title'
p2
Vrare one off artist wood carving mammoth elephant invictus copy
p3
sS'url'
p4
S'http://www.ebay.com/itm/RARE-ONE-OFF-ARTIST-WOOD-CARVING-MAMMOTH-ELEPHANT-INVICTUS-COPY-/282504244200?hash=item41c690abe8:g:IdEAAOSwOdNXPz3g'
p5
sS'price'
p6
VUS $325.00
p7
sS'seller'
p8
(dp9
g4
Vhttp://www.ebay.com/usr/capstan21?_trksid=p2047675.l2559
p10
sS'name'
p11
V capstan21
p12
ssS'description_links'
p13
(lp14
Vhttp://vi.vipr.ebaydesc.com/ws/eBayISAPI.dll?ViewItemDescV4&item=282504244200&t=1463765852000&tid=10&category=3230&seller=capstan21&excSoj=1&excTrk=1&lsite=0&ittenable=false&domain=ebay.com&descgauge=1
p15
asS'images'
p16
(lp17
(dp18
S'maxImageUrl'
p19
Vhttp://i.ebayimg.com/images/g/IdEAAOSwOdNXPz3g/s-l1600.jpg
p20
sS'displayImgUrl'
p21
Vhttp://i.ebayimg.com/images/g/IdEAAOSwOdNXPz3g/s-l300.jpg
p22
sa(dp23
g19
Vhttp://i.ebayimg.com/images/g/2b8AAOSwuR5XPz3z/s-l1600.jpg
p24
sg21
Vhttp://i.ebayimg.com/images/g/2b8AAOSwuR5XPz3z/s-l300.jpg
p25
sa(dp26
g19
Vhttp://i.ebayimg.com/images/g/3WEAAOSwEOxXPz4K/s-l1600.jpg
p27
sg21
Vhttp://i.ebayimg.com/images/g/3WEAAOSwEOxXPz4K/s-l300.jpg
p28
sa(dp29
g19
Vhttp://i.ebayimg.com/images/g/2wgAAOSwGeBXPz4b/s-l1600.jpg
p30
sg21
Vhttp://i.ebayimg.com/images/g/2wgAAOSwGeBXPz4b/s-l300.jpg
p31
sa(dp32
g19
Vhttp://i.ebayimg.com/images/g/E3sAAOSwCM5XPz4u/s-l1600.jpg
p33
sg21
Vhttp://i.ebayimg.com/images/g/E3sAAOSwCM5XPz4u/s-l300.jpg
p34
sa(dp35
g19
Vhttp://i.ebayimg.com/images/g/rP8AAOSwPsJXPz4-/s-l1600.jpg
p36
sg21
Vhttp://i.ebayimg.com/images/g/rP8AAOSwPsJXPz4-/s-l300.jpg
p37
sa(dp38
g19
Vhttp://i.ebayimg.com/images/g/bcUAAOSw-jFXPz5O/s-l1600.jpg
p39
sg21
Vhttp://i.ebayimg.com/images/g/bcUAAOSw-jFXPz5O/s-l300.jpg
p40
sa(dp41
g19
Vhttp://i.ebayimg.com/images/g/GyQAAOSwCM5XPz5i/s-l1600.jpg
p42
sg21
Vhttp://i.ebayimg.com/images/g/GyQAAOSwCM5XPz5i/s-l300.jpg
p43
sa(dp44
g19
Vhttp://i.ebayimg.com/images/g/7I8AAOSwuR5XPz54/s-l1600.jpg
p45
sg21
Vhttp://i.ebayimg.com/images/g/7I8AAOSwuR5XPz54/s-l300.jpg
p46
sa(dp47
g19
Vhttp://i.ebayimg.com/images/g/U7sAAOSw9a5XPz6J/s-l1600.jpg
p48
sg21
Vhttp://i.ebayimg.com/images/g/U7sAAOSw9a5XPz6J/s-l300.jpg
p49
sa(dp50
g19
Vhttp://i.ebayimg.com/images/g/tYwAAOSwbPxXPz6Y/s-l1600.jpg
p51
sg21
Vhttp://i.ebayimg.com/images/g/tYwAAOSwbPxXPz6Y/s-l300.jpg
p52
sa(dp53
g19
Vhttp://i.ebayimg.com/images/g/JzAAAOSwCM5XPz6q/s-l1600.jpg
p54
sg21
Vhttp://i.ebayimg.com/images/g/JzAAAOSwCM5XPz6q/s-l300.jpg
p55
sasS'shipping_info'
p56
(dp57
S'item_location'
p58
(lp59
V\u000aPanama City, Florida, United States
p60
asS'delivery'
p61
(lp62
VVaries
p63
asS'posts_to'
p64
(lp65
VWorldwide
p66
assS'id'
p67
S'282504244200'
p68
s.