(dp1
S'title'
p2
V\u000aConsole Table AMBELLA HOME Ivory Wash Ceruse White\u000a
p3
sS'url'
p4
Vhttp://www.ioffer.com/i/console-table-ambella-home-ivory-wash-ceruse-white-631561547
p5
sS'price'
p6
V$1,679.00
p7
sS'seller'
p8
(lp9
sS'description_links'
p10
VItem #:AH-1239 Overall measurements (inches) 34H x 40W x 15D .Overall Condition is New.Material(s): Brushed American White Oak,Metal. Dates to circa New.
p11
sS'images'
p12
(lp13
Vhttp://cdn.iofferphoto.com/img/item/631/561/547/t_console-table-ambella-home-ivory-wash-ceruse-white-4bbc.jpg
p14
aVhttp://cdn.iofferphoto.com/img/item/631/561/547/t_console-table-ambella-home-ivory-wash-ceruse-white-36ca.jpg
p15
asS'shipping_info'
p16
VOtherAdjustable FeetEstimated Shipping5 - 10 Days
p17
sS'id'
p18
V631561547_1497039058
p19
s.