(dp1
S'title'
p2
V\u000aSink Chest AMBELLA HOME Demilune Natural White Ivory\u000a
p3
sS'url'
p4
Vhttp://www.ioffer.com/i/sink-chest-ambella-home-demilune-natural-white-ivory-637509891
p5
sS'price'
p6
V$2,309.00
p7
sS'seller'
p8
(lp9
sS'description_links'
p10
VItem #:AH-1285 Overall measurements (inches) 36H x 40W x 22D .Overall Condition is New.Material(s): Stone Top,Porcelain. Dates to circa New.
p11
sS'images'
p12
(lp13
Vhttp://cdn.iofferphoto.com/img3/item/637/509/891/t_sink-chest-ambella-home-demilune-natural-white-ivory-fa96.jpg
p14
aVhttp://cdn.iofferphoto.com/img3/item/637/509/891/t_sink-chest-ambella-home-demilune-natural-white-ivory-9a29.jpg
p15
asS'shipping_info'
p16
VOtherSink Bowl IncludedEstimated Shipping5 - 10 Days
p17
sS'id'
p18
V637509891_1497039054
p19
s.