(dp1
S'title'
p2
V\u000aDining Table AMBELLA HOME Star Pattern Silver Metal\u000a
p3
sS'url'
p4
Vhttp://www.ioffer.com/i/dining-table-ambella-home-star-pattern-silver-metal-637516855
p5
sS'price'
p6
V$3,359.00
p7
sS'seller'
p8
(lp9
sS'description_links'
p10
VItem #:AH-1234 Overall measurements (inches) 30H x 64W x 64D .Overall Condition is New.Material(s): American White Oak,Aluminum. Dates to circa New.
p11
sS'images'
p12
(lp13
Vhttp://cdn.iofferphoto.com/img3/item/637/516/855/t_dining-table-ambella-home-star-pattern-silver-metal-6170.jpg
p14
aVhttp://cdn.iofferphoto.com/img3/item/637/516/855/t_dining-table-ambella-home-star-pattern-silver-metal-c05f.jpg
p15
aVhttp://cdn.iofferphoto.com/img3/item/637/516/855/t_dining-table-ambella-home-star-pattern-silver-metal-9d96.jpg
p16
asS'shipping_info'
p17
VObjectDining TableEstimated Shipping5 - 10 Days
p18
sS'id'
p19
V637516855_1497039044
p20
s.