(dp1
S'title'
p2
VWoolly Mammoth Model
p3
sS'url'
p4
Vhttp://www.boneroom.com/store/p267/Woolly_Mammoth_Model.html
p5
sS'price'
p6
V$20.00
p7
sS'seller'
p8
(lp9
sS'description_links'
p10
VTinysaurs assemble into tiny dinosaurs from a postage stamp sized laser cut pattern. Assembly generally takes 20-30 minutes and the completed models stand roughly 1 inch tall.Recommended for ages 13 and up.The full kit includes the model, a display dome, tweezers, glue and a magnifier.
p11
sS'images'
p12
(lp13
Vhttp://www.boneroom.com//uploads/4/8/1/1/48118243/s521972503441136676_p267_i1_w640.jpeg
p14
asS'shipping_info'
p15
(lp16
sS'id'
p17
Vp267_1497039068
p18
s.