(dp1
S'title'
p2
VTOMMY ROE'S GREATEST HITS 12 IN A ROE LP gatefold cover
p3
sS'url'
p4
Vhttp://www.ecrater.com/p/11792561/tommy-roes-greatest-hits-12-in-a-roe?keywords=roe
p5
sS'price'
p6
V$15.99
p7
sS'seller'
p8
Vhttp://retrorecordsorlando.ecrater.com
p9
sS'description_links'
p10
VPLEASE NOTE WE WILL NO LONGERBE SHIPPING TO ITALY ---BUT WILL SHIP TO REST OF EUROPE NETHERLANDS INCLUDED--------TOMMY ROE'S GREATEST 12 IN A ROE A COLLECTION OFlp VINYL RECORD GATEFOLD COVER rare1969?release--STEREOABCS-700 ABC recordsRELEASE as pictured Made in U.S.A. --record is in vg++ or better/cover is inVG+ TO vg++condition.shipping fees are if shipping within U.S.A- $4.00 for media rate or $8.00 for priority/shipping to canada is $8.00///rest of the world it is $15.00 for shipping and handling...We have been in business since 1980 here in Orlando Retro Records Is just little east of downtown and now finally we are catching up with the computer/internet age and nowgoing on the web .If any questions please ask before looking and we will be happy to assist you.Thank you and good luck..
p11
sS'images'
p12
(lp13
sS'shipping_info'
p14
(lp15
VOnly 1 available
p16
aVShipping:US-Mainland: $4.00(more destinations)
p17
aVCondition: Used
p18
asS'id'
p19
V11792561
p20
s.