(dp1
S'title'
p2
VTOMMY ROE IT'S NOW WINTERS DAY LP MONO
p3
sS'url'
p4
Vhttp://www.ecrater.com/p/11792559/tommy-roe-its-now-winters?keywords=roe
p5
sS'price'
p6
V$14.99
p7
sS'seller'
p8
Vhttp://retrorecordsorlando.ecrater.com
p9
sS'description_links'
p10
VPLEASE NOTE WE WILL NO LONGERBE SHIPPING TO ITALY OR CANADA---BUT WILL SHIP TO REST OF EUROPE NETHERLANDS INCLUDED--------TOMMY ROE IT'S NOW WINTERS DAY lp VINYL RECORDrare1967release--MONOABC-594  ABC recordsRELEASE as pictured Made in U.S.A. --recordHAS A NICK SIDE 2 MIDDLE OF SONG 4 is in vg- or better/cover is inVG+ TO vg++condition.shipping fees are if shipping within U.S.A- $4.00 for media rate or $8.00 for priority/rest of the world it is $15.00 for shipping and handling...We have been in business since 1980 here in Orlando Retro Records Is just little east of downtown and now finally we are catching up with the computer/internet age and nowgoing on the web .If any questions please ask before looking and we will be happy to assist you.Thank you and good luck..
p11
sS'images'
p12
(lp13
sS'shipping_info'
p14
(lp15
VOnly 1 available
p16
aVShipping:US-Mainland: $4.00(more destinations)
p17
aVCondition: Used
p18
asS'id'
p19
V11792559
p20
s.