(dp1
S'title'
p2
VTOMMY ROE~Sheila~ ABC-Paramount 45-10329 1962, 45
p3
sS'url'
p4
Vhttp://www.ecrater.com/p/15451535/tommy-roesheila-abc-paramount-45-10329-1962?keywords=roe
p5
sS'price'
p6
V$6.50
p7
sS'seller'
p8
Vhttp://phoenixtools.ecrater.com
p9
sS'description_links'
p10
VArtist: Tommy RoeTitle: SheilaLabel/Cat#: ABC-Paramount 45-10329Made in: US 1962Media: 7", 45rpm, Genre: Pop, 1960'SFeatures: PS: VG+, abc-paramount sleeve, seam needs glueOverall Vinyl Grade: VG+Label Grade: vg+, tagVinyl Grade: vg+Tracks: Sheila / Save Your KissesGrading Scale (High to low): SS(Still Sealed), M-, VG++, VG+, VG, VG-, P. See Terms page at http://phoenixtools.ecrater.com/terms.php for detailed shipping costs.IMPORTANT: If Shipping is not calculated correctly please contact us for manual invoice!
p11
sS'images'
p12
(lp13
Vhttp://s.ecrater.com/stores/122819/4ffcedc62b818_122819b.jpg
p14
asS'shipping_info'
p15
(lp16
VOnly 1 available
p17
aVShipping:USPS calculated - check
p18
aVCondition: Used
p19
asS'id'
p20
V15451535
p21
s.