(dp1
S'title'
p2
VRoe, F. Gordon. English Cottage Furniture
p3
sS'url'
p4
Vhttp://www.ecrater.com/p/15591017/roe-f-gordon-english-cottage-furniture?keywords=roe
p5
sS'price'
p6
V$14.95
p7
sS'seller'
p8
Vhttp://hartmannbooks.ecrater.com
p9
sS'description_links'
p10
V(013305) Roe, F. Gordon. English Cottage Furniture. New York: Roy Pubs., 1961. Hardcover. 8vo. 240 pages. Fine in Fine DJ. B&W; Illustrations Account of cottage furniture from its earliest traces up to the late Victorian period (Cottage Furniture, Great Britain)
p11
sS'images'
p12
(lp13
sS'shipping_info'
p14
(lp15
VOnly 1 available
p16
aVShipping:US-Mainland: $4.50(more destinations)
p17
aVSales Tax: North Carolina: 6.75%
p18
aVCondition: Used
p19
asS'id'
p20
V15591017
p21
s.