(dp1
S'title'
p2
VHW-504 ACME ROE-IRR
p3
sS'url'
p4
Vhttp://www.ecrater.com/p/18583123/hw-504-acme-roe-irr?keywords=roe
p5
sS'price'
p6
V$10.00
p7
sS'seller'
p8
Vhttp://homework.ecrater.com
p9
sS'description_links'
p10
VYou know that when expanding and investing in projects overseas as Acme plans to, it is essential to understand such things as return on equity (ROE) and internal rate of return (IRR). Using Internet sources (you may want to start with the websites listed below) gather information on ROE and IRR. Post a two to three paragraph explanation for each of these terms and the advantages and disadvantages of using them when selecting projects to invest in overseas. Return on Equity vs. Return on Capital\u2026.. http://invest-faq.com/articles/analy-roe-vs-roc.html Return on Equity Definition \u2026 http://www.fool.com/investing/beginning/return-on-equity-an-introduction.aspx Keep Your Eye on the ROE http://www.investopedia.com/articles/fundamental/03/100103.asp#axzz1QySeeSaK IRR Example http://www.computerworld.com/s/article/78524/ROI_Guide_Internal_Rate_of_Return?taxonomyId=074 Select two companies from the same industry. Using the annual report information available on the company's website compute the ROE for each company. Each of these three questions needs an answer of a minimum length of 2-3 paragraphs. Provide a total of 6-9 paragraph analysis of your findings.Please update data of last part of answer. Data source provided.Answer will be sent by email.
p11
sS'images'
p12
(lp13
sS'shipping_info'
p14
(lp15
VMore than 10 available
p16
aVShipping:US-Mainland: free(more destinations)
p17
aVCondition: Used
p18
asS'id'
p19
V18583123
p20
s.