(dp1
S'title'
p2
VThe Utah Kid-Roe Richmond-Vintage Western Paperback-1953 Lion
p3
sS'url'
p4
Vhttp://www.ecrater.com/p/192665/the-utah-kid-roe-richmond?keywords=roe
p5
sS'price'
p6
V$5.95
p7
sS'seller'
p8
Vhttp://alexshanbooks.ecrater.com
p9
sS'description_links'
p10
VThe Utah Kid-Roe Richmond-Good used condition---1953 Lion Vintage Western Paperback--pages tanned-minor creasing-ship ASAP
p11
sS'images'
p12
(lp13
sS'shipping_info'
p14
(lp15
VMore than 10 available
p16
aVShipping:US-Mainland: $4.95(more destinations)
p17
aVCondition: Used
p18
asS'id'
p19
V192665
p20
s.