(dp1
S'title'
p2
VPreacher Roe Dodgers Auto Single Signed Official National League Baseball Autographed
p3
sS'url'
p4
Vhttp://www.ecrater.com/p/24159605/preacher-roe-dodgers-auto-single?keywords=roe
p5
sS'price'
p6
V$59.95
p7
sS'seller'
p8
Vhttp://topdogsportscards.ecrater.com
p9
sS'description_links'
p10
VMLB Official National League Baseball (Coleman) signed by Brooklyn Dodgers great Preacher Roe. This ball is in beautiful condition with a clean signature.This ball was pre-certified by PSA/DNA. I provide a 110 percent guarantee as to its authenticity. If PSA/DNA or James Spence determine that the signature is not authentic, you may return it for 110 percent of your purchase price. You must also include the documentation from the authenticator. Shipping: Ships Insured, via US Postal Service with tracking and delivery confirmation. You will be notified via email and provided tracking info when your item ships. (Same or next day after payment is received)
p11
sS'images'
p12
(lp13
Vhttp://s.ecrater.com/stores/280650/57d6625d6538a_280650b.jpg
p14
asS'shipping_info'
p15
(lp16
VOnly 1 available
p17
aVShipping:US-Mainland: $5.95(more destinations)
p18
aVCondition: Used
p19
asS'id'
p20
V24159605
p21
s.