(dp1
S'title'
p2
VBrooklyn Dodgers Greats Autographed Official NL Baseball Branca, Erskine, Roe, Snider, Don Zimmer
p3
sS'url'
p4
Vhttp://www.ecrater.com/p/24607784/brooklyn-dodgers-greats-autographed-official?keywords=roe
p5
sS'price'
p6
V$139.95
p7
sS'seller'
p8
Vhttp://topdogsportscards.ecrater.com
p9
sS'description_links'
p10
VOfficial Rawlings National League (William White) Baseball signed by an array of Brooklyn Dodger greats (11):Ralph Branca, Carl Erskine, Duke Snider (HOF), Ron Perranoski, Reggie Smith, Clem Labine, Rick Monday, Preacher Roe, Bill Russell, Jeff Torborg & Don Zimmer.Pre-Certified by PSA/DNAIncludes my personal c.o.a., which complies with The State of California's Memorabilia Act #AB-1570. (Buyer entitled to up to 10x original purchase price plus penalties and court costs for items misrepresented as authentic.)This ball will ship via USPS Insured Mail, with tracking & confirmation.
p11
sS'images'
p12
(lp13
sS'shipping_info'
p14
(lp15
VOnly 1 available
p16
aVShipping:US-Mainland: $6.95(more destinations)
p17
aVCondition: Used
p18
asS'id'
p19
V24607784
p20
s.