(dp1
S'title'
p2
VGarvey Cey Russell Lopes Lasorda Branca Erskine Roe Labine Dodgers Signed Official Baseball
p3
sS'url'
p4
Vhttp://www.ecrater.com/p/24610592/garvey-cey-russell-lopes-lasorda?keywords=roe
p5
sS'price'
p6
V$189.95
p7
sS'seller'
p8
Vhttp://topdogsportscards.ecrater.com
p9
sS'description_links'
p10
VThis Rawlings Official National League (Coleman) baseball contains autographs of the famous Dodgers infield of the 1970's Steve Garvey, Ron Cey, Bill Russell and Davey Lopes with Hall of Fame Manager Tom Lasorda on the sweet spot.Additional Dodger Old-timers include Ralph Branca, Carl Erskine, Clem Labine, Preacher Roe, Rick Monday, Jerry Reuss, Ted Sizemore and Reggie Smith.A terrific piece of Dodgers History capturing the signatures of players from the 1950's through the 1980's. This baseball is in beautiful condition and the autographs are sharp. Please see scans to verify. This baseball was signed at a Dodgers adult baseball camp back in 1995. A list of players who have signed this ball was hand-written by Ralph Branca's wife, Ann, and is included with your purchase. This ball was pre-certified by PSA/DNA. In addition, I will honor a 110 percent guarantee as to the authenticity of the signatures on this baseball for the life of the ball. (Or my life, whichever comes first. I'm 49!)You will also receive my COA which is a legal document and adheres to the standards set forth by California's Autograph and Memorabilia Law (AB-1570).Shipping: Ships Insured, via US Postal Service with tracking and delivery confirmation. You will be notified via email and provided tracking info when your item ships. (Same or next day after payment is received)
p11
sS'images'
p12
(lp13
sS'shipping_info'
p14
(lp15
VOnly 1 available
p16
aVShipping:US-Mainland: $7.95(more destinations)
p17
aVCondition: Used
p18
asS'id'
p19
V24610592
p20
s.