(dp1
S'title'
p2
VNew A is for Adrianne Landau Plush Roe with Faux fur Trim white 2x-3x
p3
sS'url'
p4
Vhttp://www.ecrater.com/p/25222253/a-is-for-adrianne-landau-plush-roe-with?keywords=roe
p5
sS'price'
p6
V$16.99
p7
sS'seller'
p8
Vhttp://browstew.ecrater.com
p9
sS'description_links'
p10
VA is for Adreenne Landeau plush robe. Donin white with animal print collar.  Size 2-3x.  Wrap style with defense tie.  Machine wash line dry
p11
sS'images'
p12
(lp13
Vhttp://s.ecrater.com/stores/352298/57c8ab1dd52de_352298b.jpg
p14
asS'shipping_info'
p15
(lp16
VOnly 1 available
p17
aVShipping:US-Mainland: $7.00(more destinations)
p18
aVCondition: Brand new
p19
asS'id'
p20
V25222253
p21
s.