(dp1
S'title'
p2
VTommy Roe - Dizzy - Circa 1969
p3
sS'url'
p4
Vhttp://www.ecrater.com/p/26094113/tommy-roe-dizzy-circa-1969?keywords=roe
p5
sS'price'
p6
V$5.99
p7
sS'seller'
p8
Vhttp://miggysvinyl.ecrater.com
p9
sS'description_links'
p10
VArtist/Title:  Tommy Roe - Dizzy Label:  ABC RecordsCat #:  ABCS-683Released: 1969Genre:  Pop / RockStyle: StereoCountry: USAFormat: Vinyl, LP  TracklistHeather Honey 2:52Raining In My Heart 2:51Cinnamon 2:55A Dollar's Worth Of Pennies 2:28Stormy 3:02Makin' Music 2:22Money Is My Pay 2:35Proud Mary 3:05Gotta Keep Rolling Along 2:47Look Out Girl 2:20Dizzy 2:55Overall Album Grading Cover Sleeve:    Very Good+Media/Vinyl:       Very Good+I visually grade all my products and test play if required. Before shipping the Media/Vinyl receives a good cleaning to remove any dust or debris. The Cover Sleeve is covered in a protective poly sleeve to keep your album protected. If you have any questions regarding our grading system you can review our \u201cGrading Policy\u201d located in our company policies.
p11
sS'images'
p12
(lp13
Vhttp://s.ecrater.com/stores/194635/586fae62bcf76_194635b.jpg
p14
asS'shipping_info'
p15
(lp16
VOnly 1 available
p17
aVShipping:US-Mainland: $3.99(more destinations)
p18
aVCondition: Used
p19
asS'id'
p20
V26094113
p21
s.