(dp1
S'title'
p2
VBrooklyn Dodgers 11x14 Photo Autographed by Preacher Roe Inscribed ""The Boys of Summer 1952"" & Joh
p3
sS'url'
p4
Vhttp://www.ecrater.com/p/27251704/brooklyn-dodgers-11x14-photo-autographed?keywords=roe
p5
sS'price'
p6
V$69.00
p7
sS'seller'
p8
Vhttp://powersautographs4.ecrater.com
p9
sS'description_links'
p10
VComes with certificate of authenticity from Athletic Promotional Events (APE).
p11
sS'images'
p12
(lp13
Vhttp://s.ecrater.com/stores/406576/59213a1f6ade1_406576b.jpg
p14
asS'shipping_info'
p15
(lp16
VOnly 1 available
p17
aVShipping:US-Mainland: free(more destinations)
p18
aVSales Tax: Missouri: 7.85%
p19
aVCondition: Brand new
p20
asS'id'
p21
V27251704
p22
s.