(dp1
S'title'
p2
V\u000aRoe, Tommy "Sweet Pea" 1966 LP Signed Autograph "Hooray\u000a
p3
sS'url'
p4
Vhttp://www.ioffer.com/i/roe-tommy-sweet-pea-1966-lp-signed-autograph-hooray-617234400
p5
sS'price'
p6
V$108.00
p7
sS'seller'
p8
(lp9
sS'description_links'
p10
VTommy Roe(ABC 575)-"Sweet Pea"-LP. A1 Hooray For Hazel 2:28 A2 Under My Thumb 3:19 A3 Pretty Flamingo 2:33 A4 Where Were You When I Needed You 2:48 A5 Wild Thing 2:29 A6 Sweet Pea 2:19 B1 Party Girl 2:36 B2 Everybody 1:56 B3 The Folk Singer 2:51 B4 Pleasing You Pleases Me 1:47 B5 Kick Me Charlie 2:47 B6 Sheila Thomas David "Tommy" Roe (born May 9, 1942, Atlanta, Georgia) is an American pop music singer-songwriter. Best-remembered for his hits "Sheila" (1962) and "Dizzy" (1969), Roe was "widely perceived as one of the archetypal bubblegum artists of the late 1960s, but Roe cut some pretty decent rockers along the way, especially early in his career", wrote critic Bill Dahl.The LP has been autographed on the front cover by Tommy Roe.........CONDITION OF VINYL,COVER AND AUTOGRAPH IS VG.RECORD IS IN ORIGINAL INNER SLEEVE.
p11
sS'images'
p12
(lp13
Vhttp://cdn.iofferphoto.com/img/item/617/234/400/t_Knv9roe-tommy-sweet-pea-1966-lp-signed-autograph-hooray.jpg
p14
aVhttp://cdn.iofferphoto.com/img/item/617/234/400/t_ToEOroe-tommy-sweet-pea-1966-lp-signed-autograph-hooray.jpg
p15
aVhttp://cdn.iofferphoto.com/img/item/617/234/400/t_O8Okroe-tommy-sweet-pea-1966-lp-signed-autograph-hooray.jpg
p16
asS'shipping_info'
p17
(lp18
sS'id'
p19
V617234400_1497047341
p20
s.