(dp1
S'title'
p2
V\u000aVADER Roal Bike Bicycle Cycling MTB Fibre Thicken Saddl\u000a
p3
sS'url'
p4
Vhttp://www.ioffer.com/i/vader-roal-bike-bicycle-cycling-mtb-fibre-thicken-saddl-618143400
p5
sS'price'
p6
V$22.58
p7
sS'seller'
p8
(lp9
sS'description_links'
p10
VVADER Roal Bike Bicycle Cycling MTB Fibre Thicken Saddle Seat       VADER Roal Bike Bicycle Cycling MTB Fibre Thicken Saddle Seat Specification: Product name: VADER Bicycle Bike MTB Fibre Thicken Saddle Weight: 350g Color: black,white Material: fibreFitting Instructions: 1.loosen seat postclamp 2.remove old seat 3.position new seat on seat post 4.tighten seat post clam securely 5.check all nuts and bolts, periodically for tightennessFeatures: Very cool design bike saddle mainly in white and black color. Suitable for on and/or off road riding and most of the bicycle and bike. Slim shape, soft sit-bone gel padding for comfort, reduces pressure and durable.Package Included: 1 x VADER Bicycle Bike MTB Fibre Thicken Saddle     916941
p11
sS'images'
p12
(lp13
Vhttp://cdn.iofferphoto.com/img/item/618/143/400/t_dTmNvader-roal-bike-bicycle-cycling-mtb-fibre-thicken-saddl.jpg
p14
aVhttp://cdn.iofferphoto.com/img/item/618/143/400/t_idwKvader-roal-bike-bicycle-cycling-mtb-fibre-thicken-saddl.jpg
p15
aVhttp://cdn.iofferphoto.com/img/item/618/143/400/t_TGNcvader-roal-bike-bicycle-cycling-mtb-fibre-thicken-saddl.jpg
p16
asS'shipping_info'
p17
(lp18
sS'id'
p19
V618143400_1497047388
p20
s.