(dp1
S'title'
p2
VAntique 1892 A Brave Little Quakeress and Other Stories  E.P. Roe
p3
sS'url'
p4
Vhttp://www.ecrater.com/p/6193661/antique-1892-a-brave-little-quakeress-and-other?keywords=roe
p5
sS'price'
p6
V$9.99
p7
sS'seller'
p8
Vhttp://comicvolcano.ecrater.com
p9
sS'description_links'
p10
VAntique 1892 A Brave Little Quakeress and Other Stories  by E.P. Roe Book: Very GoodJacket: FairBinding: HardcoverPublisher: Dodd, Mead and Company, New York NYDate Published: 1892Description: Very Good in Fair Dustjacket. DJ has chipping and tape. Former owner's inscription on inside of DJ and front flyleaf. 214pg.
p11
sS'images'
p12
(lp13
sS'shipping_info'
p14
(lp15
VOnly 1 available
p16
aVShipping:USPS calculated - check
p17
aVCondition: Used
p18
asS'id'
p19
V6193661
p20
s.