(dp1
S'title'
p2
V\u000aM61182 Sarah Wallet Leather Small Leather Goods ROES \u000a
p3
sS'url'
p4
Vhttp://www.ioffer.com/i/m61182-sarah-wallet-leather-small-leather-goods-roes-624108701
p5
sS'price'
p6
V$79.00
p7
sS'seller'
p8
(lp9
sS'description_links'
p10
VM61182 Sarah Wallet Leather Small Leather Goods ROES19 x 10 cm (Length x Height) lt includes a serial number, dust bag, authenticity card, care booklet and tag.
p11
sS'images'
p12
(lp13
Vhttp://cdn.iofferphoto.com/img/item/624/108/701/t_m61182-sarah-wallet-leather-small-leather-goods-roes-f9c5.jpg
p14
aVhttp://cdn.iofferphoto.com/img/item/624/108/701/t_m61182-sarah-wallet-leather-small-leather-goods-roes-ac4a.jpg
p15
asS'shipping_info'
p16
VAvailable ColorsAvailable SizesSizesMediumEstimated Shipping15 - 20 Days
p17
sS'id'
p18
V624108701_1497047363
p19
s.