(dp1
S'title'
p2
V\u000aThe horns of roe Rog. ROZHOK.\u000a
p3
sS'url'
p4
Vhttp://www.ioffer.com/i/the-horns-of-roe-rog-rozhok-626582085
p5
sS'price'
p6
V$59.99
p7
sS'seller'
p8
(lp9
sS'description_links'
p10
VNatural roe horns. The length of the skull to the bones - 21 cm. State of the photo.I invite you to review all lots!
p11
sS'images'
p12
(lp13
Vhttp://cdn.iofferphoto.com/img/item/626/582/085/t_the-horns-of-roe-rog-rozhok-bea8.jpg
p14
aVhttp://cdn.iofferphoto.com/img/item/626/582/085/t_the-horns-of-roe-rog-rozhok-fbe2.jpg
p15
aVhttp://cdn.iofferphoto.com/img/item/626/582/085/t_the-horns-of-roe-rog-rozhok-7025.jpg
p16
aVhttp://cdn.iofferphoto.com/img/item/626/582/085/t_the-horns-of-roe-rog-rozhok-e897.jpg
p17
aVhttp://cdn.iofferphoto.com/img/item/626/582/085/t_the-horns-of-roe-rog-rozhok-b70f.jpg
p18
aVhttp://cdn.iofferphoto.com/img/item/626/582/085/t_the-horns-of-roe-rog-rozhok-6db8.jpg
p19
aVhttp://cdn.iofferphoto.com/img/item/626/582/085/t_the-horns-of-roe-rog-rozhok-edd8.jpg
p20
aVhttp://cdn.iofferphoto.com/img/item/626/582/085/t_the-horns-of-roe-rog-rozhok-7c64.jpg
p21
asS'shipping_info'
p22
VEstimated Shipping15 - 20 Days
p23
sS'id'
p24
V626582085_1497047384
p25
s.