(dp1
S'title'
p2
V\u000aNatural Beautiful SKULL with Horn roe. Rog. ROZHOK. Tax\u000a
p3
sS'url'
p4
Vhttp://www.ioffer.com/i/natural-beautiful-skull-with-horn-roe-rog-rozhok-tax-626584813
p5
sS'price'
p6
V$89.99
p7
sS'seller'
p8
(lp9
sS'description_links'
p10
VNatural roe SKULL with Horn. Dimensions horn without skull: 23\u044513 cm. The dimensions of the skull: 18\u044510 cm. State of the photo.I invite you to review all lots!
p11
sS'images'
p12
(lp13
Vhttp://cdn.iofferphoto.com/img/item/626/584/813/t_natural-beautiful-skull-with-horn-roe-rog-rozhok-tax-0cdf.jpg
p14
aVhttp://cdn.iofferphoto.com/img/item/626/584/813/t_natural-beautiful-skull-with-horn-roe-rog-rozhok-tax-cdf8.jpg
p15
aVhttp://cdn.iofferphoto.com/img/item/626/584/813/t_natural-beautiful-skull-with-horn-roe-rog-rozhok-tax-0369.jpg
p16
aVhttp://cdn.iofferphoto.com/img/item/626/584/813/t_natural-beautiful-skull-with-horn-roe-rog-rozhok-tax-5869.jpg
p17
aVhttp://cdn.iofferphoto.com/img/item/626/584/813/t_natural-beautiful-skull-with-horn-roe-rog-rozhok-tax-c34f.jpg
p18
aVhttp://cdn.iofferphoto.com/img/item/626/584/813/t_natural-beautiful-skull-with-horn-roe-rog-rozhok-tax-9cf3.jpg
p19
aVhttp://cdn.iofferphoto.com/img/item/626/584/813/t_natural-beautiful-skull-with-horn-roe-rog-rozhok-tax-b531.jpg
p20
aVhttp://cdn.iofferphoto.com/img/item/626/584/813/t_natural-beautiful-skull-with-horn-roe-rog-rozhok-tax-8341.jpg
p21
aVhttp://cdn.iofferphoto.com/img/item/626/584/813/t_natural-beautiful-skull-with-horn-roe-rog-rozhok-tax-91d5.jpg
p22
aVhttp://cdn.iofferphoto.com/img/item/626/584/813/t_natural-beautiful-skull-with-horn-roe-rog-rozhok-tax-8670.jpg
p23
asS'shipping_info'
p24
VEstimated Shipping15 - 20 Days
p25
sS'id'
p26
V626584813_1497047348
p27
s.