(dp1
S'title'
p2
V\u000aVR46 roe shark fish T shirt MOTO-GP motorcycle t-shirt\u000a
p3
sS'url'
p4
Vhttp://www.ioffer.com/i/vr46-roe-shark-fish-t-shirt-moto-gp-motorcycle-t-shirt-637728702
p5
sS'price'
p6
V$19.00
p7
sS'seller'
p8
(lp9
sS'description_links'
p10
Vthe item Estimated delivery time:           United States ePacket   7-20 business days.           China Post Air Mail  Russia 25-35 days            Other countries: 15-40 business days.
p11
sS'images'
p12
(lp13
Vhttp://cdn.iofferphoto.com/img/item/637/728/702/t_vr46-roe-shark-fish-t-shirt-moto-gp-motorcycle-t-shirt-d2a3.jpg
p14
aVhttp://cdn.iofferphoto.com/img/item/637/728/702/t_vr46-roe-shark-fish-t-shirt-moto-gp-motorcycle-t-shirt-4ba6.jpg
p15
asS'shipping_info'
p16
VAvailable ColorsAvailable SizesSizesSmallMediumLargeX-LargeEstimated Shipping1 - 3 Days
p17
sS'id'
p18
V637728702_1497047352
p19
s.