(dp1
S'title'
p2
V\u000ahot NEW MEN WOMEN RUNNING SHOES SNEAKERS \u000a
p3
sS'url'
p4
Vhttp://www.ioffer.com/i/hot-new-men-women-running-shoes-sneakers-623376741
p5
sS'price'
p6
V$17.99
p7
sS'seller'
p8
(lp9
sS'description_links'
p10
V...
p11
sS'images'
p12
(lp13
Vhttp://cdn.iofferphoto.com/img3/item/623/376/741/t_hot-new-men-women-running-shoes-sneakers-a7e2.jpg
p14
aVhttp://cdn.iofferphoto.com/img3/item/623/376/741/t_hot-new-men-women-running-shoes-sneakers-6187.jpg
p15
aVhttp://cdn.iofferphoto.com/img3/item/623/376/741/t_hot-new-men-women-running-shoes-sneakers-ebf6.jpg
p16
aVhttp://cdn.iofferphoto.com/img3/item/623/376/741/t_hot-new-men-women-running-shoes-sneakers-2510.jpg
p17
aVhttp://cdn.iofferphoto.com/img3/item/623/376/741/t_hot-new-men-women-running-shoes-sneakers-27ed.jpg
p18
aVhttp://cdn.iofferphoto.com/img3/item/623/376/741/t_hot-new-men-women-running-shoes-sneakers-1c0a.jpg
p19
aVhttp://cdn.iofferphoto.com/img3/item/623/376/741/t_hot-new-men-women-running-shoes-sneakers-c1c4.jpg
p20
aVhttp://cdn.iofferphoto.com/img3/item/623/376/741/t_hot-new-men-women-running-shoes-sneakers-9698.jpg
p21
aVhttp://cdn.iofferphoto.com/img3/item/623/376/741/t_hot-new-men-women-running-shoes-sneakers-6173.jpg
p22
aVhttp://cdn.iofferphoto.com/img3/item/623/376/741/t_hot-new-men-women-running-shoes-sneakers-3f6c.jpg
p23
aVhttp://cdn.iofferphoto.com/img3/item/623/376/741/t_hot-new-men-women-running-shoes-sneakers-a859.jpg
p24
aVhttp://cdn.iofferphoto.com/img3/item/623/376/741/t_hot-new-men-women-running-shoes-sneakers-6e33.jpg
p25
asS'shipping_info'
p26
VAvailable ColorsAvailable SizesWomen's Shoe SizesUSA5.56.57.58.59.51010.511.512.513.5UK3.54.55.56.57.588.59.510.511.5European363738394041.542434445Japan21.522.524.525.526.52727.528.529.530.5Estimated Shipping15 - 20 Days
p27
sS'id'
p28
V623376741_1497085219
p29
s.