(dp1
S'title'
p2
VModern Vegetable Ivory buttons from Ecuador
p3
sS'url'
p4
Vhttp://www.ecrater.com/p/23429260/modern-vegetable-ivory-buttons-from-ecuador?keywords=vegetable+ivory
p5
sS'price'
p6
V$7.00
p7
sS'seller'
p8
Vhttp://pegsbuttons.ecrater.com
p9
sS'description_links'
p10
VModern Vegetable Ivory buttons from EcuadorSize 1/2 to 3/4..new condition
p11
sS'images'
p12
(lp13
Vhttp://s.ecrater.com/stores/24544/560f2f108744f_24544b.jpg
p14
asS'shipping_info'
p15
(lp16
VOnly 1 available
p17
aVShipping:US-Mainland: $3.15(more destinations)
p18
aVCondition: Brand new
p19
asS'id'
p20
V23429260
p21
s.