(dp1
S'title'
p2
V\u000aMichael Kor FASHION WATCHES WOMENS/MENS WATCH ROSE GOLD\u000a
p3
sS'url'
p4
Vhttp://www.ioffer.com/i/michael-kor-fashion-watches-womens-mens-watch-rose-gold-628217671
p5
sS'price'
p6
V$9.99
p7
sS'seller'
p8
(lp9
sS'description_links'
p10
VGUCCI high quality A+++($9.99)
p11
sS'images'
p12
(lp13
Vhttp://cdn.iofferphoto.com/img3/item/628/217/671/t_michael-kor-fashion-watches-womens-mens-watch-rose-gold-b320.jpg
p14
aVhttp://cdn.iofferphoto.com/img3/item/628/217/671/t_michael-kor-fashion-watches-womens-mens-watch-rose-gold-97c0.jpg
p15
aVhttp://cdn.iofferphoto.com/img3/item/628/217/671/t_michael-kor-fashion-watches-womens-mens-watch-rose-gold-b033.jpg
p16
aVhttp://cdn.iofferphoto.com/img3/item/628/217/671/t_michael-kor-fashion-watches-womens-mens-watch-rose-gold-71d5.jpg
p17
aVhttp://cdn.iofferphoto.com/img3/item/628/217/671/t_michael-kor-fashion-watches-womens-mens-watch-rose-gold-312e.jpg
p18
aVhttp://cdn.iofferphoto.com/img3/item/628/217/671/t_michael-kor-fashion-watches-womens-mens-watch-rose-gold-166f.jpg
p19
aVhttp://cdn.iofferphoto.com/img3/item/628/217/671/t_michael-kor-fashion-watches-womens-mens-watch-rose-gold-c585.jpg
p20
aVhttp://cdn.iofferphoto.com/img3/item/628/217/671/t_michael-kor-fashion-watches-womens-mens-watch-rose-gold-c17d.jpg
p21
asS'shipping_info'
p22
VAvailable ColorsGucciHigh Quality A+++($9.99)Estimated Shipping15 - 20 Days
p23
sS'id'
p24
V628217671_1501894441
p25
s.