(dp1
S'title'
p2
V\u000aHot Michael Kor Women's Handbag Purse Shoulder Bag#6821\u000a
p3
sS'url'
p4
Vhttp://www.ioffer.com/i/hot-michael-kor-women-s-handbag-purse-shoulder-bag-6821-629718279
p5
sS'price'
p6
V$18.88
p7
sS'seller'
p8
(lp9
sS'description_links'
p10
VItem Description ============================ I have many style So you can just tell me your style(color and size)  You will receive 100% as you see in picture All item is brand new never used and 100% condition For wholesale price please contact usColor: see picture 100% Brand new!!! Outstanding Quality! wholesale Price!!! what you see,what you get if you don't like the item,please not bid on it. thank you for your cooperation. ============================ Shipping\uff08All items will be declared as gift. \uff09============================  * We will ship out in 1-2 business days after receive payment always. ( We will not be delivered. Saturday and Sunday ) *Free airmail shipping to worldwide It usually take 12-24 days in normal to delivery Package arrived date,depending weather situation and airmail shipping . *EMS(Express Mail) Please contact us for price It usually take 4-10 days in normal to delivery  ============================ Payment method ============================ 1) Visa Card an Master Card  2) western union  ============================ Return policy ============================ If you are not satisfy please contact me You can return item for full money refund  All items are carefully check to ensure they are in perfect condition before shipping.If the item is found to be faulty on arrival a full refund will be given. Refund must be requested within 3 days after receiving the package.All items must be return in original condition without any physical changes.You need to pay for the shipping of the original item and provide a tracking number.I will refund you the full amount after received item. Thanks for your understanding!
p11
sS'images'
p12
(lp13
Vhttp://cdn.iofferphoto.com/img3/item/629/718/279/t_hot-michael-kor-women-s-handbag-purse-shoulder-bag-6821-d3b4.jpg
p14
aVhttp://cdn.iofferphoto.com/img3/item/629/718/279/t_hot-michael-kor-women-s-handbag-purse-shoulder-bag-6821-77fd.jpg
p15
aVhttp://cdn.iofferphoto.com/img3/item/629/718/279/t_hot-michael-kor-women-s-handbag-purse-shoulder-bag-6821-3237.jpg
p16
aVhttp://cdn.iofferphoto.com/img3/item/629/718/279/t_hot-michael-kor-women-s-handbag-purse-shoulder-bag-6821-22ac.jpg
p17
aVhttp://cdn.iofferphoto.com/img3/item/629/718/279/t_hot-michael-kor-women-s-handbag-purse-shoulder-bag-6821-596b.jpg
p18
aVhttp://cdn.iofferphoto.com/img3/item/629/718/279/t_hot-michael-kor-women-s-handbag-purse-shoulder-bag-6821-f6c5.jpg
p19
aVhttp://cdn.iofferphoto.com/img3/item/629/718/279/t_hot-michael-kor-women-s-handbag-purse-shoulder-bag-6821-bb5a.jpg
p20
aVhttp://cdn.iofferphoto.com/img3/item/629/718/279/t_hot-michael-kor-women-s-handbag-purse-shoulder-bag-6821-27bc.jpg
p21
aVhttp://cdn.iofferphoto.com/img3/item/629/718/279/t_hot-michael-kor-women-s-handbag-purse-shoulder-bag-6821-a0d5.jpg
p22
aVhttp://cdn.iofferphoto.com/img3/item/629/718/279/t_hot-michael-kor-women-s-handbag-purse-shoulder-bag-6821-3594.jpg
p23
aVhttp://cdn.iofferphoto.com/img3/item/629/718/279/t_hot-michael-kor-women-s-handbag-purse-shoulder-bag-6821-a247.jpg
p24
asS'shipping_info'
p25
VAvailable ColorsAvailable SizesSizesMediumEstimated Shipping15 - 20 Days
p26
sS'id'
p27
V629718279_1501894427
p28
s.