(dp1
S'title'
p2
VBlack Plonge Cow Hide Leather
p3
sS'url'
p4
Vhttp://www.glacierwear.com/black-plonge-hide.html
p5
sS'price'
p6
V247.5
p7
sS'seller'
p8
(lp9
sS'description_links'
p10
Vlth1113- Cow Leather- Black Color- Plonge Finish- Approximate Weight\u20143 oz. (3/64 inch or thickness of one dime)- Prime Quality Leather- Natural Imperfections, Scarring and a Few Holes (No Center Holes)- Dye Lots Vary in Color\u2014For Multiple Pieces Request to Match Colors if Necessary
p11
sS'images'
p12
(lp13
Vhttp://www.glacierwear.com/media/catalog/product/cache/1/thumbnail/500x/17f82f742ffe127f42dca9de82fb58b1/b/l/black_plonge_cowhide.jpg
p14
asS'shipping_info'
p15
VFree Shipping on $100.00+
p16
sS'id'
p17
Vhide_1501894414
p18
s.