(dp1
S'title'
p2
VCoyote Fur Scarf #SF
p3
sS'url'
p4
Vhttp://www.glacierwear.com/coyote-fur-scarf-sf.html
p5
sS'price'
p6
V349.95
p7
sS'seller'
p8
(lp9
sS'description_links'
p10
Vcty1200sf- Coyote Fur Scarf- Made from Prime #1 Quality Western Coyote- All Fur Scarf (Both Sides) - Made from Complete Pelts - Neither Pieces Nor Plates- 60 inches in Length and 6 inches in Width - A Warm and Stylish Natural Fur Scarf
p11
sS'images'
p12
(lp13
Vhttp://www.glacierwear.com/media/catalog/product/cache/1/thumbnail/500x/17f82f742ffe127f42dca9de82fb58b1/s/f/sfa.jpg
p14
asS'shipping_info'
p15
VFree Shipping on $100.00+
p16
sS'id'
p17
Vsf_1501894388
p18
s.