(dp1
S'title'
p2
V2016 jaguar f-type r **flawless**
p3
sS'url'
p4
S'http://www.ebay.com/itm/2016-Jaguar-F-Type-R-FLAWLESS-/122355184202?hash=item1c7ceff24a:i:122355184202&vxp=mtr'
p5
sS'price'
p6
VUS $84,612.00
p7
sS'seller'
p8
(dp9
g4
Vhttp://www.ebay.com/usr/rollsroycemontreal?_trksid=p2047675.l2559
p10
sS'name'
p11
V rollsroycemontreal
p12
ssS'description_links'
p13
(lp14
Vhttp://vi.vipr.ebaydesc.com/ws/eBayISAPI.dll?ViewItemDescV4&item=122355184202&t=1488492608000&tid=10&category=181465&seller=rollsroycemontreal&excSoj=1&excTrk=1&lsite=100&ittenable=false&domain=ebay.com&descgauge=1
p15
asS'images'
p16
(lp17
(dp18
S'maxImageUrl'
p19
Vhttp://pictures.dealer.com/r/rollsroycemotorscarsquebeclimitetc/1587/20343919416e3b5fbf35e5fbc0e0616fx.jpg
p20
sS'displayImgUrl'
p21
Vhttp://pictures.dealer.com/r/rollsroycemotorscarsquebeclimitetc/1587/20343919416e3b5fbf35e5fbc0e0616fx.jpg
p22
sa(dp23
g19
Vhttp://pictures.dealer.com/r/rollsroycemotorscarsquebeclimitetc/1615/1173fb28a927f16347f2ab4f157cec84x.jpg
p24
sg21
Vhttp://pictures.dealer.com/r/rollsroycemotorscarsquebeclimitetc/1615/1173fb28a927f16347f2ab4f157cec84x.jpg
p25
sa(dp26
g19
Vhttp://pictures.dealer.com/r/rollsroycemotorscarsquebeclimitetc/0278/2a57fd34efbf71e526aeb56d6a973704x.jpg
p27
sg21
Vhttp://pictures.dealer.com/r/rollsroycemotorscarsquebeclimitetc/0278/2a57fd34efbf71e526aeb56d6a973704x.jpg
p28
sa(dp29
g19
Vhttp://pictures.dealer.com/r/rollsroycemotorscarsquebeclimitetc/0868/3309508316a931c28805fcf847f10745x.jpg
p30
sg21
Vhttp://pictures.dealer.com/r/rollsroycemotorscarsquebeclimitetc/0868/3309508316a931c28805fcf847f10745x.jpg
p31
sa(dp32
g19
Vhttp://pictures.dealer.com/r/rollsroycemotorscarsquebeclimitetc/0824/2bf9a64374872eefccd52384876bd572x.jpg
p33
sg21
Vhttp://pictures.dealer.com/r/rollsroycemotorscarsquebeclimitetc/0824/2bf9a64374872eefccd52384876bd572x.jpg
p34
sa(dp35
g19
Vhttp://pictures.dealer.com/r/rollsroycemotorscarsquebeclimitetc/1963/03905426c35dc109b3b7a491001c099cx.jpg
p36
sg21
Vhttp://pictures.dealer.com/r/rollsroycemotorscarsquebeclimitetc/1963/03905426c35dc109b3b7a491001c099cx.jpg
p37
sa(dp38
g19
Vhttp://pictures.dealer.com/r/rollsroycemotorscarsquebeclimitetc/1559/e4e8a5815d2be6462cc9663913c7f1f1x.jpg
p39
sg21
Vhttp://pictures.dealer.com/r/rollsroycemotorscarsquebeclimitetc/1559/e4e8a5815d2be6462cc9663913c7f1f1x.jpg
p40
sa(dp41
g19
Vhttp://pictures.dealer.com/r/rollsroycemotorscarsquebeclimitetc/0555/090b5a4850ec8ed14654b05623b3a213x.jpg
p42
sg21
Vhttp://pictures.dealer.com/r/rollsroycemotorscarsquebeclimitetc/0555/090b5a4850ec8ed14654b05623b3a213x.jpg
p43
sa(dp44
g19
Vhttp://pictures.dealer.com/r/rollsroycemotorscarsquebeclimitetc/0087/9821e7fb2c88ab669bf3bee5f802f4e9x.jpg
p45
sg21
Vhttp://pictures.dealer.com/r/rollsroycemotorscarsquebeclimitetc/0087/9821e7fb2c88ab669bf3bee5f802f4e9x.jpg
p46
sa(dp47
g19
Vhttp://pictures.dealer.com/r/rollsroycemotorscarsquebeclimitetc/0433/a6b45248ba9f3b54e9a2b94e76779f3ax.jpg
p48
sg21
Vhttp://pictures.dealer.com/r/rollsroycemotorscarsquebeclimitetc/0433/a6b45248ba9f3b54e9a2b94e76779f3ax.jpg
p49
sa(dp50
g19
Vhttp://pictures.dealer.com/r/rollsroycemotorscarsquebeclimitetc/1974/27cea073774cbfd08f4a65b03c133c86x.jpg
p51
sg21
Vhttp://pictures.dealer.com/r/rollsroycemotorscarsquebeclimitetc/1974/27cea073774cbfd08f4a65b03c133c86x.jpg
p52
sa(dp53
g19
Vhttp://pictures.dealer.com/r/rollsroycemotorscarsquebeclimitetc/0311/dc545568d02834a595033196315f491ax.jpg
p54
sg21
Vhttp://pictures.dealer.com/r/rollsroycemotorscarsquebeclimitetc/0311/dc545568d02834a595033196315f491ax.jpg
p55
sasS'shipping_info'
p56
(dp57
S'item_location'
p58
(lp59
sS'delivery'
p60
(lp61
sS'posts_to'
p62
(lp63
VLocal pick-up only
p64
assS'id'
p65
S'122355184202'
p66
s.