(dp1
S'title'
p2
V1954 jaguar xk se convertible roadster
p3
sS'url'
p4
S'http://www.ebay.com/itm/1954-Jaguar-XK-SE-Convertible-Roadster-/122509240932?hash=item1c861eaa64:g:fGEAAOSw-3FZAg9m&vxp=mtr'
p5
sS'price'
p6
VUS $129,900.00
p7
sS'seller'
p8
(dp9
g4
Vhttp://www.ebay.com/usr/american-dream-machines?_trksid=p2047675.l2559
p10
sS'name'
p11
V american-dream-machines
p12
ssS'description_links'
p13
(lp14
Vhttp://vi.vipr.ebaydesc.com/ws/eBayISAPI.dll?ViewItemDescV4&item=122509240932&t=1496933070000&tid=10&category=6276&seller=american-dream-machines&excSoj=1&excTrk=1&lsite=100&ittenable=false&domain=ebay.com&descgauge=1
p15
asS'images'
p16
(lp17
(dp18
S'maxImageUrl'
p19
Vhttp://i.ebayimg.com/images/g/fGEAAOSw-3FZAg9m/s-l1600.jpg
p20
sS'displayImgUrl'
p21
Vhttp://i.ebayimg.com/images/g/fGEAAOSw-3FZAg9m/s-l300.jpg
p22
sa(dp23
g19
Vhttp://i.ebayimg.com/images/g/RuQAAOSwT-FZAg9o/s-l1600.jpg
p24
sg21
Vhttp://i.ebayimg.com/images/g/RuQAAOSwT-FZAg9o/s-l300.jpg
p25
sa(dp26
g19
Vhttp://i.ebayimg.com/images/g/NRoAAOSw7GRZAg9p/s-l1600.jpg
p27
sg21
Vhttp://i.ebayimg.com/images/g/NRoAAOSw7GRZAg9p/s-l300.jpg
p28
sa(dp29
g19
Vhttp://i.ebayimg.com/images/g/On4AAOSwuMZZAg9r/s-l1600.jpg
p30
sg21
Vhttp://i.ebayimg.com/images/g/On4AAOSwuMZZAg9r/s-l300.jpg
p31
sa(dp32
g19
Vhttp://i.ebayimg.com/images/g/p9wAAOSww9xZAg9t/s-l1600.jpg
p33
sg21
Vhttp://i.ebayimg.com/images/g/p9wAAOSww9xZAg9t/s-l300.jpg
p34
sa(dp35
g19
Vhttp://i.ebayimg.com/images/g/gNkAAOSwrhBZAg9v/s-l1600.jpg
p36
sg21
Vhttp://i.ebayimg.com/images/g/gNkAAOSwrhBZAg9v/s-l300.jpg
p37
sa(dp38
g19
Vhttp://i.ebayimg.com/images/g/fxsAAOSw-3FZAg90/s-l1600.jpg
p39
sg21
Vhttp://i.ebayimg.com/images/g/fxsAAOSw-3FZAg90/s-l300.jpg
p40
sa(dp41
g19
Vhttp://i.ebayimg.com/images/g/PCoAAOSwuMZZAg92/s-l1600.jpg
p42
sg21
Vhttp://i.ebayimg.com/images/g/PCoAAOSwuMZZAg92/s-l300.jpg
p43
sa(dp44
g19
Vhttp://i.ebayimg.com/images/g/QN8AAOSwlndZAg94/s-l1600.jpg
p45
sg21
Vhttp://i.ebayimg.com/images/g/QN8AAOSwlndZAg94/s-l300.jpg
p46
sa(dp47
g19
Vhttp://i.ebayimg.com/images/g/sBwAAOSwjqVZAg96/s-l1600.jpg
p48
sg21
Vhttp://i.ebayimg.com/images/g/sBwAAOSwjqVZAg96/s-l300.jpg
p49
sa(dp50
g19
Vhttp://i.ebayimg.com/images/g/g9EAAOSwrhBZAg98/s-l1600.jpg
p51
sg21
Vhttp://i.ebayimg.com/images/g/g9EAAOSwrhBZAg98/s-l300.jpg
p52
sa(dp53
g19
Vhttp://i.ebayimg.com/images/g/lt0AAOSw42dZAg9-/s-l1600.jpg
p54
sg21
Vhttp://i.ebayimg.com/images/g/lt0AAOSw42dZAg9-/s-l300.jpg
p55
sasS'shipping_info'
p56
(dp57
S'item_location'
p58
(lp59
sS'delivery'
p60
(lp61
sS'posts_to'
p62
(lp63
VLocal pick-up only
p64
assS'id'
p65
S'122509240932'
p66
s.