(dp1
S'title'
p2
V\u000aJaguar XJR 2004 rear electronic module-brand new\u000a
p3
sS'url'
p4
Vhttp://www.ioffer.com/i/jaguar-xjr-2004-rear-electronic-module-brand-new-149200075
p5
sS'price'
p6
V$500.00
p7
sS'seller'
p8
(lp9
sS'description_links'
p10
VJaguar XJR 2004 rear electronic module.Serial # XS18003PJ4I bought it for my car from Galpin Jaguar Dealer brand new,never used.Original price $ $ 785. I have a receipt.Call Mila at 818 304-4617
p11
sS'images'
p12
(lp13
Vhttp://cdn.iofferphoto.com/img/item/149/200/075/t_KiykZqZRuM8RiVv.jpg
p14
aVhttp://cdn.iofferphoto.com/img/item/149/200/075/t_d55nreRDDoa6a36.jpg
p15
aVhttp://cdn.iofferphoto.com/img/item/149/200/075/t_mb0oKcJI01uOnnj.jpg
p16
asS'shipping_info'
p17
VEstimated Shipping5 - 10 Days
p18
sS'id'
p19
V149200075_1497067840
p20
s.