(dp1
S'title'
p2
V1952 jaguar xk --
p3
sS'url'
p4
S'http://www.ebay.com/itm/1952-Jaguar-XK-/162325041597?hash=item25cb5391bd:g:D-AAAOSwZKBZN6Mj&vxp=mtr'
p5
sS'price'
p6
VUS $113,000.00
p7
sS'seller'
p8
(dp9
g4
Vhttp://www.ebay.com/usr/gateway-classic-cars?_trksid=p2047675.l2559
p10
sS'name'
p11
V gateway-classic-cars
p12
ssS'description_links'
p13
(lp14
Vhttp://vi.vipr.ebaydesc.com/ws/eBayISAPI.dll?ViewItemDescV4&item=162325041597&t=1496818461000&tid=10&category=6276&seller=gateway-classic-cars&excSoj=1&excTrk=1&lsite=100&ittenable=false&domain=ebay.com&descgauge=1
p15
asS'images'
p16
(lp17
(dp18
S'maxImageUrl'
p19
Vhttp://i.ebayimg.com/images/g/D-AAAOSwZKBZN6Mj/s-l1600.jpg
p20
sS'displayImgUrl'
p21
Vhttp://i.ebayimg.com/images/g/D-AAAOSwZKBZN6Mj/s-l300.jpg
p22
sa(dp23
g19
Vhttp://i.ebayimg.com/images/g/usAAAOSw8HBZN6Mj/s-l1600.jpg
p24
sg21
Vhttp://i.ebayimg.com/images/g/usAAAOSw8HBZN6Mj/s-l300.jpg
p25
sa(dp26
g19
Vhttp://i.ebayimg.com/images/g/PlYAAOSwBt5ZN6Mj/s-l1600.jpg
p27
sg21
Vhttp://i.ebayimg.com/images/g/PlYAAOSwBt5ZN6Mj/s-l300.jpg
p28
sa(dp29
g19
Vhttp://i.ebayimg.com/images/g/N-oAAOSww5hZN6Mj/s-l1600.jpg
p30
sg21
Vhttp://i.ebayimg.com/images/g/N-oAAOSww5hZN6Mj/s-l300.jpg
p31
sa(dp32
g19
Vhttp://i.ebayimg.com/images/g/qlgAAOSwlMFZN6Mj/s-l1600.jpg
p33
sg21
Vhttp://i.ebayimg.com/images/g/qlgAAOSwlMFZN6Mj/s-l300.jpg
p34
sa(dp35
g19
Vhttp://i.ebayimg.com/images/g/Pk8AAOSwiOFZN6Mj/s-l1600.jpg
p36
sg21
Vhttp://i.ebayimg.com/images/g/Pk8AAOSwiOFZN6Mj/s-l300.jpg
p37
sa(dp38
g19
Vhttp://i.ebayimg.com/images/g/PlUAAOSwBt5ZN6Mj/s-l1600.jpg
p39
sg21
Vhttp://i.ebayimg.com/images/g/PlUAAOSwBt5ZN6Mj/s-l300.jpg
p40
sa(dp41
g19
Vhttp://i.ebayimg.com/images/g/ib4AAOSwPh5ZN6Mk/s-l1600.jpg
p42
sg21
Vhttp://i.ebayimg.com/images/g/ib4AAOSwPh5ZN6Mk/s-l300.jpg
p43
sa(dp44
g19
Vhttp://i.ebayimg.com/images/g/qlsAAOSwlMFZN6Mj/s-l1600.jpg
p45
sg21
Vhttp://i.ebayimg.com/images/g/qlsAAOSwlMFZN6Mj/s-l300.jpg
p46
sa(dp47
g19
Vhttp://i.ebayimg.com/images/g/iksAAOSws5pZN6Mj/s-l1600.jpg
p48
sg21
Vhttp://i.ebayimg.com/images/g/iksAAOSws5pZN6Mj/s-l300.jpg
p49
sa(dp50
g19
Vhttp://i.ebayimg.com/images/g/8t8AAOSwKflZN6Mj/s-l1600.jpg
p51
sg21
Vhttp://i.ebayimg.com/images/g/8t8AAOSwKflZN6Mj/s-l300.jpg
p52
sa(dp53
g19
Vhttp://i.ebayimg.com/images/g/ibwAAOSwPh5ZN6Mj/s-l1600.jpg
p54
sg21
Vhttp://i.ebayimg.com/images/g/ibwAAOSwPh5ZN6Mj/s-l300.jpg
p55
sasS'shipping_info'
p56
(dp57
S'item_location'
p58
(lp59
sS'delivery'
p60
(lp61
sS'posts_to'
p62
(lp63
VLocal pick-up only
p64
assS'id'
p65
S'162325041597'
p66
s.