(dp1
S'title'
p2
V1953 jaguar xk se
p3
sS'url'
p4
S'http://www.ebay.com/itm/1953-Jaguar-XK-SE-/192151282914?hash=item2cbd1be4e2:g:z00AAOSwXYtYy38l&vxp=mtr'
p5
sS'price'
p6
VUS $129,990.00
p7
sS'seller'
p8
(dp9
g4
Vhttp://www.ebay.com/usr/rosner_motorsports?_trksid=p2047675.l2559
p10
sS'name'
p11
V rosner_motorsports
p12
ssS'description_links'
p13
(lp14
Vhttp://vi.vipr.ebaydesc.com/ws/eBayISAPI.dll?ViewItemDescV4&item=192151282914&t=1496773393000&tid=10&category=6276&seller=rosner_motorsports&excSoj=1&excTrk=1&lsite=100&ittenable=false&domain=ebay.com&descgauge=1
p15
asS'images'
p16
(lp17
(dp18
S'maxImageUrl'
p19
Vhttp://i.ebayimg.com/images/g/z00AAOSwXYtYy38l/s-l1600.jpg
p20
sS'displayImgUrl'
p21
Vhttp://i.ebayimg.com/images/g/z00AAOSwXYtYy38l/s-l300.jpg
p22
sa(dp23
g19
Vhttp://i.ebayimg.com/images/g/g18AAOSwol5Yy38n/s-l1600.jpg
p24
sg21
Vhttp://i.ebayimg.com/images/g/g18AAOSwol5Yy38n/s-l300.jpg
p25
sa(dp26
g19
Vhttp://i.ebayimg.com/images/g/9goAAOSw32lYy38p/s-l1600.jpg
p27
sg21
Vhttp://i.ebayimg.com/images/g/9goAAOSw32lYy38p/s-l300.jpg
p28
sa(dp29
g19
Vhttp://i.ebayimg.com/images/g/bK4AAOSwTM5Yy38r/s-l1600.jpg
p30
sg21
Vhttp://i.ebayimg.com/images/g/bK4AAOSwTM5Yy38r/s-l300.jpg
p31
sa(dp32
g19
Vhttp://i.ebayimg.com/images/g/zxIAAOSwWxNYy38w/s-l1600.jpg
p33
sg21
Vhttp://i.ebayimg.com/images/g/zxIAAOSwWxNYy38w/s-l300.jpg
p34
sa(dp35
g19
Vhttp://i.ebayimg.com/images/g/o2QAAOSwax5Yy38y/s-l1600.jpg
p36
sg21
Vhttp://i.ebayimg.com/images/g/o2QAAOSwax5Yy38y/s-l300.jpg
p37
sa(dp38
g19
Vhttp://i.ebayimg.com/images/g/h38AAOSw4CFYy380/s-l1600.jpg
p39
sg21
Vhttp://i.ebayimg.com/images/g/h38AAOSw4CFYy380/s-l300.jpg
p40
sa(dp41
g19
Vhttp://i.ebayimg.com/images/g/YdEAAOSw4A5Yy382/s-l1600.jpg
p42
sg21
Vhttp://i.ebayimg.com/images/g/YdEAAOSw4A5Yy382/s-l300.jpg
p43
sa(dp44
g19
Vhttp://i.ebayimg.com/images/g/ge4AAOSwdGFYy385/s-l1600.jpg
p45
sg21
Vhttp://i.ebayimg.com/images/g/ge4AAOSwdGFYy385/s-l300.jpg
p46
sa(dp47
g19
Vhttp://i.ebayimg.com/images/g/lQwAAOSwYXVYy387/s-l1600.jpg
p48
sg21
Vhttp://i.ebayimg.com/images/g/lQwAAOSwYXVYy387/s-l300.jpg
p49
sa(dp50
g19
Vhttp://i.ebayimg.com/images/g/iJ4AAOSw4CFYy389/s-l1600.jpg
p51
sg21
Vhttp://i.ebayimg.com/images/g/iJ4AAOSw4CFYy389/s-l300.jpg
p52
sa(dp53
g19
Vhttp://i.ebayimg.com/images/g/hoEAAOSwol5Yy38~/s-l1600.jpg
p54
sg21
Vhttp://i.ebayimg.com/images/g/hoEAAOSwol5Yy38~/s-l300.jpg
p55
sasS'shipping_info'
p56
(dp57
S'item_location'
p58
(lp59
sS'delivery'
p60
(lp61
sS'posts_to'
p62
(lp63
VLocal pick-up only
p64
assS'id'
p65
S'192151282914'
p66
s.