(dp1
S'title'
p2
V1959 jaguar other ix
p3
sS'url'
p4
S'http://www.ebay.com/itm/1959-Jaguar-Other-IX-/192151282908?hash=item2cbd1be4dc:g:RZoAAOSwDKtY0-Ho&vxp=mtr'
p5
sS'price'
p6
VUS $69,990.00
p7
sS'seller'
p8
(dp9
g4
Vhttp://www.ebay.com/usr/rosner_motorsports?_trksid=p2047675.l2559
p10
sS'name'
p11
V rosner_motorsports
p12
ssS'description_links'
p13
(lp14
Vhttp://vi.vipr.ebaydesc.com/ws/eBayISAPI.dll?ViewItemDescV4&item=192151282908&t=1496773393000&tid=10&category=6278&seller=rosner_motorsports&excSoj=1&excTrk=1&lsite=100&ittenable=false&domain=ebay.com&descgauge=1
p15
asS'images'
p16
(lp17
(dp18
S'maxImageUrl'
p19
Vhttp://i.ebayimg.com/images/g/RZoAAOSwDKtY0-Ho/s-l1600.jpg
p20
sS'displayImgUrl'
p21
Vhttp://i.ebayimg.com/images/g/RZoAAOSwDKtY0-Ho/s-l300.jpg
p22
sa(dp23
g19
Vhttp://i.ebayimg.com/images/g/rnoAAOSw32lY0-Hq/s-l1600.jpg
p24
sg21
Vhttp://i.ebayimg.com/images/g/rnoAAOSw32lY0-Hq/s-l300.jpg
p25
sa(dp26
g19
Vhttp://i.ebayimg.com/images/g/z6EAAOSwol5Y0-Hr/s-l1600.jpg
p27
sg21
Vhttp://i.ebayimg.com/images/g/z6EAAOSwol5Y0-Hr/s-l300.jpg
p28
sa(dp29
g19
Vhttp://i.ebayimg.com/images/g/vx8AAOSwc-tY0-Ht/s-l1600.jpg
p30
sg21
Vhttp://i.ebayimg.com/images/g/vx8AAOSwc-tY0-Ht/s-l300.jpg
p31
sa(dp32
g19
Vhttp://i.ebayimg.com/images/g/HN8AAOSwB-1Y0-IZ/s-l1600.jpg
p33
sg21
Vhttp://i.ebayimg.com/images/g/HN8AAOSwB-1Y0-IZ/s-l300.jpg
p34
sa(dp35
g19
Vhttp://i.ebayimg.com/images/g/C~4AAOSwCU1Y0-Ia/s-l1600.jpg
p36
sg21
Vhttp://i.ebayimg.com/images/g/C~4AAOSwCU1Y0-Ia/s-l300.jpg
p37
sa(dp38
g19
Vhttp://i.ebayimg.com/images/g/ANcAAOSwsW9Y0-Ic/s-l1600.jpg
p39
sg21
Vhttp://i.ebayimg.com/images/g/ANcAAOSwsW9Y0-Ic/s-l300.jpg
p40
sa(dp41
g19
Vhttp://i.ebayimg.com/images/g/ASwAAOSwsW9Y0-Id/s-l1600.jpg
p42
sg21
Vhttp://i.ebayimg.com/images/g/ASwAAOSwsW9Y0-Id/s-l300.jpg
p43
sa(dp44
g19
Vhttp://i.ebayimg.com/images/g/4qAAAOSwuLZY0-Ih/s-l1600.jpg
p45
sg21
Vhttp://i.ebayimg.com/images/g/4qAAAOSwuLZY0-Ih/s-l300.jpg
p46
sa(dp47
g19
Vhttp://i.ebayimg.com/images/g/eKUAAOSwmgJY0-Ii/s-l1600.jpg
p48
sg21
Vhttp://i.ebayimg.com/images/g/eKUAAOSwmgJY0-Ii/s-l300.jpg
p49
sa(dp50
g19
Vhttp://i.ebayimg.com/images/g/lWQAAOSw2gxY0-Ik/s-l1600.jpg
p51
sg21
Vhttp://i.ebayimg.com/images/g/lWQAAOSw2gxY0-Ik/s-l300.jpg
p52
sa(dp53
g19
Vhttp://i.ebayimg.com/images/g/v54AAOSwSlBY0-In/s-l1600.jpg
p54
sg21
Vhttp://i.ebayimg.com/images/g/v54AAOSwSlBY0-In/s-l300.jpg
p55
sasS'shipping_info'
p56
(dp57
S'item_location'
p58
(lp59
sS'delivery'
p60
(lp61
sS'posts_to'
p62
(lp63
VLocal pick-up only
p64
assS'id'
p65
S'192151282908'
p66
s.