(dp1
S'title'
p2
V2016 jaguar f-type 2dr convertible automatic r awd
p3
sS'url'
p4
S'http://www.ebay.com/itm/2016-Jaguar-F-TYPE-2dr-Convertible-Automatic-R-AWD-/201917793821?hash=item2f033d061d:g:OnUAAOSwFqNZOqki&vxp=mtr'
p5
sS'price'
p6
VUS $83,990.00
p7
sS'seller'
p8
(dp9
g4
Vhttp://www.ebay.com/usr/mpoweronline?_trksid=p2047675.l2559
p10
sS'name'
p11
V mpoweronline
p12
ssS'description_links'
p13
(lp14
Vhttp://vi.vipr.ebaydesc.com/ws/eBayISAPI.dll?ViewItemDescV4&item=201917793821&t=1497016600000&tid=10&category=6278&seller=mpoweronline&excSoj=1&excTrk=1&lsite=100&ittenable=false&domain=ebay.com&descgauge=1
p15
asS'images'
p16
(lp17
(dp18
S'maxImageUrl'
p19
Vhttp://i.ebayimg.com/images/g/OnUAAOSwFqNZOqki/s-l1600.jpg
p20
sS'displayImgUrl'
p21
Vhttp://i.ebayimg.com/images/g/OnUAAOSwFqNZOqki/s-l300.jpg
p22
sa(dp23
g19
Vhttp://i.ebayimg.com/images/g/FawAAOSwwzhZOqki/s-l1600.jpg
p24
sg21
Vhttp://i.ebayimg.com/images/g/FawAAOSwwzhZOqki/s-l300.jpg
p25
sa(dp26
g19
Vhttp://i.ebayimg.com/images/g/xYQAAOSw-29ZOqkj/s-l1600.jpg
p27
sg21
Vhttp://i.ebayimg.com/images/g/xYQAAOSw-29ZOqkj/s-l300.jpg
p28
sa(dp29
g19
Vhttp://i.ebayimg.com/images/g/d8kAAOSwjk9ZOqki/s-l1600.jpg
p30
sg21
Vhttp://i.ebayimg.com/images/g/d8kAAOSwjk9ZOqki/s-l300.jpg
p31
sa(dp32
g19
Vhttp://i.ebayimg.com/images/g/nRsAAOSwIjJZOqki/s-l1600.jpg
p33
sg21
Vhttp://i.ebayimg.com/images/g/nRsAAOSwIjJZOqki/s-l300.jpg
p34
sa(dp35
g19
Vhttp://i.ebayimg.com/images/g/y5gAAOSwgv5ZOqki/s-l1600.jpg
p36
sg21
Vhttp://i.ebayimg.com/images/g/y5gAAOSwgv5ZOqki/s-l300.jpg
p37
sa(dp38
g19
Vhttp://i.ebayimg.com/images/g/hB8AAOSwDrNZOqki/s-l1600.jpg
p39
sg21
Vhttp://i.ebayimg.com/images/g/hB8AAOSwDrNZOqki/s-l300.jpg
p40
sa(dp41
g19
Vhttp://i.ebayimg.com/images/g/Fa4AAOSwwzhZOqki/s-l1600.jpg
p42
sg21
Vhttp://i.ebayimg.com/images/g/Fa4AAOSwwzhZOqki/s-l300.jpg
p43
sa(dp44
g19
Vhttp://i.ebayimg.com/images/g/XUoAAOSw~XpZOqki/s-l1600.jpg
p45
sg21
Vhttp://i.ebayimg.com/images/g/XUoAAOSw~XpZOqki/s-l300.jpg
p46
sa(dp47
g19
Vhttp://i.ebayimg.com/images/g/ndEAAOSwJAtZOqki/s-l1600.jpg
p48
sg21
Vhttp://i.ebayimg.com/images/g/ndEAAOSwJAtZOqki/s-l300.jpg
p49
sa(dp50
g19
Vhttp://i.ebayimg.com/images/g/d-oAAOSwjk9ZOqkl/s-l1600.jpg
p51
sg21
Vhttp://i.ebayimg.com/images/g/d-oAAOSwjk9ZOqkl/s-l300.jpg
p52
sa(dp53
g19
Vhttp://i.ebayimg.com/images/g/~6wAAOSwiQ9ZOqki/s-l1600.jpg
p54
sg21
Vhttp://i.ebayimg.com/images/g/~6wAAOSwiQ9ZOqki/s-l300.jpg
p55
sasS'shipping_info'
p56
(dp57
S'item_location'
p58
(lp59
sS'delivery'
p60
(lp61
sS'posts_to'
p62
(lp63
VLocal pick-up only
p64
assS'id'
p65
S'201917793821'
p66
s.