(dp1
S'title'
p2
VGENUINE OEM 1998-2003 JAGUAR AC HEATER CONTROL LJA7690BB
p3
sS'url'
p4
Vhttp://www.ecrater.com/p/20988265/genuine-oem-1998-2003-jaguar-ac-heater?keywords=jaguar
p5
sS'price'
p6
V$349.30
p7
sS'seller'
p8
Vhttp://sunparts.ecrater.com
p9
sS'description_links'
p10
VGENUINEOEMJAGUARJAGUAR XJ6/XJ8/XJR/XK8 95-97 XJ6, 98-03 XJ8, 97-02 XK8, XJR 97-02 AC HEATER CONTROL PART # LJA7690BB QUESTIONS? CALL US! 248-688-5443This item was part of a large parts purchase.Jaguar XJR Climate Control, Global Lock Switch, Valet Switch, Heated Seat Switch, Hazard Switch, Traction Off Switch - in good working condition.This control unit is from a 1999 XJR \u2013 Anthracite (Black) exterior; Black / Charcoal interior. Previous owner statedunit might need one or two bulbs replaced.  GOVERNMENT SURPLUSDIVISIONDEPARTMENT GARAGE PARTS/STOCKCombined shipping is available-please see our other products for other great deals on parts.We have had continued positive feedback on the vehicleparts that we have been offering for sale. These surplus items have been excellent quality. Please see our feedback regarding these parts and purchase with confidence. On Jan-08-13 at 09:09:51 PST, seller added the following information:  FREE!  Sellers: Add a FREE map to your listings. FREE!
p11
sS'images'
p12
(lp13
Vhttp://s.ecrater.com/stores/345218/544781e68053a_345218b.jpg
p14
asS'shipping_info'
p15
(lp16
VOnly 1 available
p17
aVShipping:US-Mainland: free(more destinations)
p18
aVCondition: Used
p19
asS'id'
p20
V20988265
p21
s.