(dp1
S'title'
p2
V2016 jaguar xj xjl portfolio
p3
sS'url'
p4
S'http://www.ebay.com/itm/2016-Jaguar-XJ-XJL-Portfolio-/222488135380?hash=item33cd5386d4:g:KzkAAOSw1WJZMO6T&vxp=mtr'
p5
sS'price'
p6
VUS $67,994.00
p7
sS'seller'
p8
(dp9
g4
Vhttp://www.ebay.com/usr/momentum-landrover-jaguar-volvo?_trksid=p2047675.l2559
p10
sS'name'
p11
V momentum-landrover-jaguar-volvo
p12
ssS'description_links'
p13
(lp14
Vhttp://vi.vipr.ebaydesc.com/ws/eBayISAPI.dll?ViewItemDescV4&item=222488135380&t=1496379023000&tid=10&category=171089&seller=momentum-landrover-jaguar-volvo&excSoj=1&excTrk=1&lsite=100&ittenable=false&domain=ebay.com&descgauge=1
p15
asS'images'
p16
(lp17
(dp18
S'maxImageUrl'
p19
Vhttp://i.ebayimg.com/images/g/KzkAAOSw1WJZMO6T/s-l1600.jpg
p20
sS'displayImgUrl'
p21
Vhttp://i.ebayimg.com/images/g/KzkAAOSw1WJZMO6T/s-l300.jpg
p22
sa(dp23
g19
Vhttp://i.ebayimg.com/images/g/yFkAAOSw0hlZMO6T/s-l1600.jpg
p24
sg21
Vhttp://i.ebayimg.com/images/g/yFkAAOSw0hlZMO6T/s-l300.jpg
p25
sa(dp26
g19
Vhttp://i.ebayimg.com/images/g/r3AAAOSwYlRZMO6T/s-l1600.jpg
p27
sg21
Vhttp://i.ebayimg.com/images/g/r3AAAOSwYlRZMO6T/s-l300.jpg
p28
sa(dp29
g19
Vhttp://i.ebayimg.com/images/g/bakAAOSwlndZMO6T/s-l1600.jpg
p30
sg21
Vhttp://i.ebayimg.com/images/g/bakAAOSwlndZMO6T/s-l300.jpg
p31
sa(dp32
g19
Vhttp://i.ebayimg.com/images/g/p7MAAOSwblZZMO6T/s-l1600.jpg
p33
sg21
Vhttp://i.ebayimg.com/images/g/p7MAAOSwblZZMO6T/s-l300.jpg
p34
sa(dp35
g19
Vhttp://i.ebayimg.com/images/g/p7IAAOSwblZZMO6T/s-l1600.jpg
p36
sg21
Vhttp://i.ebayimg.com/images/g/p7IAAOSwblZZMO6T/s-l300.jpg
p37
sa(dp38
g19
Vhttp://i.ebayimg.com/images/g/6HEAAOSws5pZMO6T/s-l1600.jpg
p39
sg21
Vhttp://i.ebayimg.com/images/g/6HEAAOSws5pZMO6T/s-l300.jpg
p40
sa(dp41
g19
Vhttp://i.ebayimg.com/images/g/ERMAAOSwH09ZMO6T/s-l1600.jpg
p42
sg21
Vhttp://i.ebayimg.com/images/g/ERMAAOSwH09ZMO6T/s-l300.jpg
p43
sa(dp44
g19
Vhttp://i.ebayimg.com/images/g/yFcAAOSw0hlZMO6T/s-l1600.jpg
p45
sg21
Vhttp://i.ebayimg.com/images/g/yFcAAOSw0hlZMO6T/s-l300.jpg
p46
sa(dp47
g19
Vhttp://i.ebayimg.com/images/g/PHwAAOSw42dZMO6T/s-l1600.jpg
p48
sg21
Vhttp://i.ebayimg.com/images/g/PHwAAOSw42dZMO6T/s-l300.jpg
p49
sa(dp50
g19
Vhttp://i.ebayimg.com/images/g/xhIAAOSwi7RZMO6T/s-l1600.jpg
p51
sg21
Vhttp://i.ebayimg.com/images/g/xhIAAOSwi7RZMO6T/s-l300.jpg
p52
sa(dp53
g19
Vhttp://i.ebayimg.com/images/g/BS8AAOSw42JZMO6T/s-l1600.jpg
p54
sg21
Vhttp://i.ebayimg.com/images/g/BS8AAOSw42JZMO6T/s-l300.jpg
p55
sasS'shipping_info'
p56
(dp57
S'item_location'
p58
(lp59
sS'delivery'
p60
(lp61
sS'posts_to'
p62
(lp63
VLocal pick-up only
p64
assS'id'
p65
S'222488135380'
p66
s.