(dp1
S'title'
p2
V2015 jaguar f-type v8 s
p3
sS'url'
p4
S'http://www.ebay.com/itm/2015-Jaguar-F-Type-V8-S-/222524567131?hash=item33cf7f6e5b:g:ml0AAOSw-3FZJ60I&vxp=mtr'
p5
sS'price'
p6
VUS $64,736.00
p7
sS'seller'
p8
(dp9
g4
Vhttp://www.ebay.com/usr/toybarncars4you?_trksid=p2047675.l2559
p10
sS'name'
p11
V toybarncars4you
p12
ssS'description_links'
p13
(lp14
Vhttp://vi.vipr.ebaydesc.com/ws/eBayISAPI.dll?ViewItemDescV4&item=222524567131&t=1497020789000&tid=10&category=181465&seller=toybarncars4you&excSoj=1&excTrk=1&lsite=100&ittenable=false&domain=ebay.com&descgauge=1
p15
asS'images'
p16
(lp17
(dp18
S'maxImageUrl'
p19
Vhttp://i.ebayimg.com/images/g/ml0AAOSw-3FZJ60I/s-l1600.jpg
p20
sS'displayImgUrl'
p21
Vhttp://i.ebayimg.com/images/g/ml0AAOSw-3FZJ60I/s-l300.jpg
p22
sa(dp23
g19
Vhttp://i.ebayimg.com/images/g/SZUAAOSwKytZJ60I/s-l1600.jpg
p24
sg21
Vhttp://i.ebayimg.com/images/g/SZUAAOSwKytZJ60I/s-l300.jpg
p25
sa(dp26
g19
Vhttp://i.ebayimg.com/images/g/~2UAAOSwZ4dZJ60I/s-l1600.jpg
p27
sg21
Vhttp://i.ebayimg.com/images/g/~2UAAOSwZ4dZJ60I/s-l300.jpg
p28
sa(dp29
g19
Vhttp://i.ebayimg.com/images/g/0aMAAOSw0hlZJ60I/s-l1600.jpg
p30
sg21
Vhttp://i.ebayimg.com/images/g/0aMAAOSw0hlZJ60I/s-l300.jpg
p31
sa(dp32
g19
Vhttp://i.ebayimg.com/images/g/ohkAAOSw-K9ZJ60I/s-l1600.jpg
p33
sg21
Vhttp://i.ebayimg.com/images/g/ohkAAOSw-K9ZJ60I/s-l300.jpg
p34
sa(dp35
g19
Vhttp://i.ebayimg.com/images/g/s-4AAOSw~y9ZJ60I/s-l1600.jpg
p36
sg21
Vhttp://i.ebayimg.com/images/g/s-4AAOSw~y9ZJ60I/s-l300.jpg
p37
sa(dp38
g19
Vhttp://i.ebayimg.com/images/g/nZ0AAOSwH09ZJ60I/s-l1600.jpg
p39
sg21
Vhttp://i.ebayimg.com/images/g/nZ0AAOSwH09ZJ60I/s-l300.jpg
p40
sa(dp41
g19
Vhttp://i.ebayimg.com/images/g/ff0AAOSwjqVZJ60I/s-l1600.jpg
p42
sg21
Vhttp://i.ebayimg.com/images/g/ff0AAOSwjqVZJ60I/s-l300.jpg
p43
sa(dp44
g19
Vhttp://i.ebayimg.com/images/g/ka4AAOSwlndZJ60J/s-l1600.jpg
p45
sg21
Vhttp://i.ebayimg.com/images/g/ka4AAOSwlndZJ60J/s-l300.jpg
p46
sa(dp47
g19
Vhttp://i.ebayimg.com/images/g/-PgAAOSwcB5ZJ60I/s-l1600.jpg
p48
sg21
Vhttp://i.ebayimg.com/images/g/-PgAAOSwcB5ZJ60I/s-l300.jpg
p49
sa(dp50
g19
Vhttp://i.ebayimg.com/images/g/KmkAAOSwX9FZJ60I/s-l1600.jpg
p51
sg21
Vhttp://i.ebayimg.com/images/g/KmkAAOSwX9FZJ60I/s-l300.jpg
p52
sa(dp53
g19
Vhttp://i.ebayimg.com/images/g/tMEAAOSwY3BZJ60I/s-l1600.jpg
p54
sg21
Vhttp://i.ebayimg.com/images/g/tMEAAOSwY3BZJ60I/s-l300.jpg
p55
sasS'shipping_info'
p56
(dp57
S'item_location'
p58
(lp59
sS'delivery'
p60
(lp61
sS'posts_to'
p62
(lp63
VLocal pick-up only
p64
assS'id'
p65
S'222524567131'
p66
s.