(dp1
S'title'
p2
V2015 jaguar xk --
p3
sS'url'
p4
S'http://www.ebay.com/itm/2015-Jaguar-XK-/222538486866?hash=item33d053d452:g:sJ0AAOSww5hZOHiZ&vxp=mtr'
p5
sS'price'
p6
VUS $64,991.00
p7
sS'seller'
p8
(dp9
g4
Vhttp://www.ebay.com/usr/momentum-landrover-jaguar-volvo?_trksid=p2047675.l2559
p10
sS'name'
p11
V momentum-landrover-jaguar-volvo
p12
ssS'description_links'
p13
(lp14
Vhttp://vi.vipr.ebaydesc.com/ws/eBayISAPI.dll?ViewItemDescV4&item=222538486866&t=0&tid=10&category=6276&seller=momentum-landrover-jaguar-volvo&excSoj=1&excTrk=1&lsite=100&ittenable=false&domain=ebay.com&descgauge=1
p15
asS'images'
p16
(lp17
(dp18
S'maxImageUrl'
p19
Vhttp://i.ebayimg.com/images/g/sJ0AAOSww5hZOHiZ/s-l1600.jpg
p20
sS'displayImgUrl'
p21
Vhttp://i.ebayimg.com/images/g/sJ0AAOSww5hZOHiZ/s-l300.jpg
p22
sa(dp23
g19
Vhttp://i.ebayimg.com/images/g/OmsAAOSwR29ZOHia/s-l1600.jpg
p24
sg21
Vhttp://i.ebayimg.com/images/g/OmsAAOSwR29ZOHia/s-l300.jpg
p25
sa(dp26
g19
Vhttp://i.ebayimg.com/images/g/GCsAAOSwX61ZOHib/s-l1600.jpg
p27
sg21
Vhttp://i.ebayimg.com/images/g/GCsAAOSwX61ZOHib/s-l300.jpg
p28
sa(dp29
g19
Vhttp://i.ebayimg.com/images/g/ImoAAOSwKflZOHiZ/s-l1600.jpg
p30
sg21
Vhttp://i.ebayimg.com/images/g/ImoAAOSwKflZOHiZ/s-l300.jpg
p31
sa(dp32
g19
Vhttp://i.ebayimg.com/images/g/oL0AAOSwsXFZOHib/s-l1600.jpg
p33
sg21
Vhttp://i.ebayimg.com/images/g/oL0AAOSwsXFZOHib/s-l300.jpg
p34
sa(dp35
g19
Vhttp://i.ebayimg.com/images/g/76wAAOSw9OFZOHiZ/s-l1600.jpg
p36
sg21
Vhttp://i.ebayimg.com/images/g/76wAAOSw9OFZOHiZ/s-l300.jpg
p37
sa(dp38
g19
Vhttp://i.ebayimg.com/images/g/WdcAAOSw~FJZOHia/s-l1600.jpg
p39
sg21
Vhttp://i.ebayimg.com/images/g/WdcAAOSw~FJZOHia/s-l300.jpg
p40
sa(dp41
g19
Vhttp://i.ebayimg.com/images/g/7j0AAOSw0hlZOHiZ/s-l1600.jpg
p42
sg21
Vhttp://i.ebayimg.com/images/g/7j0AAOSw0hlZOHiZ/s-l300.jpg
p43
sa(dp44
g19
Vhttp://i.ebayimg.com/images/g/F~AAAOSwlndZOHia/s-l1600.jpg
p45
sg21
Vhttp://i.ebayimg.com/images/g/F~AAAOSwlndZOHia/s-l300.jpg
p46
sa(dp47
g19
Vhttp://i.ebayimg.com/images/g/QiQAAOSw8lpZOHia/s-l1600.jpg
p48
sg21
Vhttp://i.ebayimg.com/images/g/QiQAAOSw8lpZOHia/s-l300.jpg
p49
sa(dp50
g19
Vhttp://i.ebayimg.com/images/g/7kEAAOSw0hlZOHia/s-l1600.jpg
p51
sg21
Vhttp://i.ebayimg.com/images/g/7kEAAOSw0hlZOHia/s-l300.jpg
p52
sa(dp53
g19
Vhttp://i.ebayimg.com/images/g/aGgAAOSwq~tZOHia/s-l1600.jpg
p54
sg21
Vhttp://i.ebayimg.com/images/g/aGgAAOSwq~tZOHia/s-l300.jpg
p55
sasS'shipping_info'
p56
(dp57
S'item_location'
p58
(lp59
sS'delivery'
p60
(lp61
sS'posts_to'
p62
(lp63
VLocal pick-up only
p64
assS'id'
p65
S'222538486866'
p66
s.