(dp1
S'title'
p2
V00 01 02 03 JAGUAR XJR  XKR SUPERCHARGED Throttle Body Valve Remanufactured
p3
sS'url'
p4
Vhttp://www.ecrater.com/p/23305302/00-01-02-03-jaguar-xjr-xkr-supercharged-throttle?keywords=jaguar
p5
sS'price'
p6
V$449.00
p7
sS'seller'
p8
Vhttp://autopartscheap.ecrater.com
p9
sS'description_links'
p10
VSTORE CATEGORIESSTORE NEWSLETTERSubscribe now for Store Newsletter and get latest Deals & Offers about store in your mail box2000 2001 2002 2003 XJ XK Jaguar Throttle Body Super Charged Remanufactured   Normal  0                  MicrosoftInternetExplorer4    REBUILTREMAN FOR SALE 2000- 2003 Jaguar XJ Vanden Plas (supercharged)2000- 2003 Jaguar XKRThrottle body Assembly Includes Pedal Switch and Throttle Position Sensor Complete assembly SUPERCHARGEDOnce your faulty part is returned you will Receive $200 Cash Back) The Shipping Cost is your Cash Back Refund (must be complete & Include tps & pedal switch)The Throttle body is Completely dismantled then cleaned the body istested for cracks or fractures ,The Pedal Switch and TPS & (Idle Control Valve If applicable) isalso rebuilt & is included with your rebuilt throttle body ,they are Internally rebuilt ,New parts replaced,then calibrated to OEMspecifications.When the Throttle Body is Installed, you may have to adjust theTPS,You must replace the Throttle Body Base Gasket, Take special care when reinstalling the throttle Cable .Check yourvacuum hoses carefully for leaks.We have Installation Instructions that accompany the part VIN AND PART NUMBER NEEDED About UsPaymentReturnsContact Us
p11
sS'images'
p12
(lp13
Vhttp://s.ecrater.com/stores/349888/55ef9a88a714e_349888b.jpg
p14
asS'shipping_info'
p15
(lp16
VOnly 1 available
p17
aVShipping:US-Mainland: $200.00(more destinations)
p18
aVCondition: Used
p19
asS'id'
p20
V23305302
p21
s.