(dp1
S'title'
p2
VREMAN 1999 - 02 Jaguar XK8 99 - 2003 XJ8 Throttle Body TPS Assembly  LNE1560
p3
sS'url'
p4
Vhttp://www.ecrater.com/p/23305267/reman-1999-02-jaguar-xk8-99-2003-xj8-throttle?keywords=jaguar
p5
sS'price'
p6
V$449.00
p7
sS'seller'
p8
Vhttp://autopartscheap.ecrater.com
p9
sS'description_links'
p10
VSTORE CATEGORIESSTORE NEWSLETTERSubscribe now for Store Newsletter and get latest Deals & Offers about store in your mail boxProduct Description Reman Jaguar XK8 XJ8 Throttle Body For Sale Reman Jaguar XK8 XJ8 Throttle Body Exchange ,Receive $75.00 Cash Back1999 - 2003 Jaguar XJ8 1999 - 2002 Jaguar XK8Throttle body Assembly Includes Pedal Switch & Throttle Position SensorNot for a XKR (Supercharged)*The Throttle body is Completely dismantled then cleaned the body is tested for cracks & fractures ,The Pedal Switch ,TPS , Air Valve , Throttle Motor are rebuilt & included with the throttle body as an assemblyUpon Installation TPS and Pedal Switch Switch throttle cable will need adjustment if these adjustments are not made, You will have a recurring Fail-safe mode until fault codes are cleared correctly , this practice will need to be repeated until proper adjustments are made and correct idle is establishedThrottle Body Base Gasket must be replaced ,We do not Include this gasket,Take special care when reinstalling the throttle Cable .Check your vacuum hoses carefully for leaks and harness connections. Vin Number Needed at checkout for Proper Fit About UsPaymentReturnsContact UsWe will ship within 1 business day after payment is cleared.We offer 20-40% off shipping cost if you buy 3 or more items.Express post also available, please contact us.We accept Paypal and bank transferMy bank detail: bank address: 860 dandenong rd caulfield east vic 3145BSB 063301Acc number 102846Shipping cost for first item is $1.90, for each additional item add $1.00We generally ship out orders within 1-2 business days once payment has been received. This goes for all orders that are paid for with a confirmed PayPal account and are shipping to a physical Australian address. Please be patient though as at times it may take a day or two longer. You will receive a shipping notification once your item ships. If you do not receive this email within a few days, please check your spam folder. Rarely, we may run out of a store item. If an item is out of stock, you will receive an email with the choice of a prompt refund or you may choose to wait for more of the item to arrive. If there is a problem with the order we will contact you at the email address provided with your payment.Bringing genuine high quality products from IKEA to your doorsteps.We, at Ikea babydragon 912, always consider customer service our utmost priority!It all started with a great idea and a little hard work. Today we're proud to provide a service to bring genuine IKEA's high quality products direct to your doorstep through an experience you'll enjoy. And most of all, we hope you'll enjoy the products as much as we do. Email us today at to let us know what you think. We'd love to hear from you!,RcmdId ViewItemDescV4,RlogId p4%60bo7%60jtb9%3Fuk%601d72f%2Bfg2%3E-14f9769395e-0x101-->
p11
sS'images'
p12
(lp13
Vhttp://s.ecrater.com/stores/349888/55ef9a661285c_349888b.jpg
p14
asS'shipping_info'
p15
(lp16
VOnly 1 available
p17
aVShipping:US-Mainland: free(more destinations)
p18
aVCondition: Used
p19
asS'id'
p20
V23305267
p21
s.