(dp1
S'title'
p2
V98-05 JAGUAR X100 XKR XK8 4.0L FRONT LEFT RIGHT SET OF 2 STRUT & SHOCK
p3
sS'url'
p4
Vhttp://www.ecrater.com/p/23706339/98-05-jaguar-x100-xkr-xk8-40l?keywords=jaguar
p5
sS'price'
p6
V$474.99
p7
sS'seller'
p8
Vhttp://simbaautoparts.ecrater.com
p9
sS'description_links'
p10
Vtenigirl store        Up for sale is a used but almost new set of struts. Everything was replaced recently. This came off a 1998, please check fitment before purchase. Part numbers F4BE56726H0
p11
sS'images'
p12
(lp13
sS'shipping_info'
p14
(lp15
VOnly 1 available
p16
aVShipping:US-Mainland: free(more destinations)
p17
aVCondition: Used
p18
asS'id'
p19
V23706339
p20
s.