(dp1
S'title'
p2
V04 JAGUAR X-TYPE FRONT BUMPER COVER SIDE MAKER W/ L&R; FOG LIGHTS OEM SILVER
p3
sS'url'
p4
Vhttp://www.ecrater.com/p/25019851/04-jaguar-x-type-front-bumper-cover?keywords=jaguar
p5
sS'price'
p6
V$410.00
p7
sS'seller'
p8
Vhttp://deji40.ecrater.com
p9
sS'description_links'
p10
VUP FOR SALE IS A 2004 JAGUAR X TYPE FRONT BUMPER COVER WITH TWO SIDE MAKER, BUMPER ABSORBER , UNDER ENGINE COVER, LEFT AND RIGHT FOG LIGHT WITH WIRING HARNESS ,REINFORCEMENT BAR AND CENTER GRILL WHICH IS IN VERY GOOD CONDITION NO CRACK NO BROKEN.THIS BUMPER IS USED WITH FEW SCRATCHES BUT IN VERY GOOD SHAPE, THE TWO CHROME MOLDING HAS MINIMAL ROAD WEARS AND THE LEFT CHROME MOLDING HAS SOME CLIPS MISSING IN THE BACK BUT USED M3 TAPE TO FIX IT AND ONE OF THE SIDE MAKER WAS REPAIRED AND SMALL CRACK ON THE LENS PICTURE #12. THE TWO SIDE INNER BRACKET IS IN VERY GOOD CONDITION NO BROKEN PLASTIC .THIS ITEM WILL BE SHIP THROUGH GREYHOUND BUS, IF YOU NEED MORE PICTURES LET KNOW. YOU WILL NEED TO PICK IT AT THEIR TERMINAL AND I WILL NEED A GOOD WORKING PHONE NUMBERL.THANKS
p11
sS'images'
p12
(lp13
sS'shipping_info'
p14
(lp15
VOnly 1 available
p16
aVShipping:US-Mainland: $99.00(more destinations)
p17
aVCondition: Used
p18
asS'id'
p19
V25019851
p20
s.