(dp1
S'title'
p2
V2014 jaguar xk xkr-s gt edition, 1 of 25 in usa, msrp: $175k
p3
sS'url'
p4
S'http://www.ebay.com/itm/2014-Jaguar-XK-XKR-S-GT-Edition-1-of-25-in-USA-MSRP-175k-/252813394074?hash=item3adcda409a:g:06QAAOSwSlBYyGqM&vxp=mtr'
p5
sS'price'
p6
VUS $149,800.00
p7
sS'seller'
p8
(dp9
g4
Vhttp://www.ebay.com/usr/bentleylamborghinigoldcoast?_trksid=p2047675.l2559
p10
sS'name'
p11
V bentleylamborghinigoldcoast
p12
ssS'description_links'
p13
(lp14
Vhttp://vi.vipr.ebaydesc.com/ws/eBayISAPI.dll?ViewItemDescV4&item=252813394074&t=0&tid=10&category=6276&seller=bentleylamborghinigoldcoast&excSoj=1&excTrk=1&lsite=100&ittenable=false&domain=ebay.com&descgauge=1
p15
asS'images'
p16
(lp17
(dp18
S'maxImageUrl'
p19
Vhttp://i.ebayimg.com/images/g/06QAAOSwSlBYyGqM/s-l1600.jpg
p20
sS'displayImgUrl'
p21
Vhttp://i.ebayimg.com/images/g/06QAAOSwSlBYyGqM/s-l300.jpg
p22
sa(dp23
g19
Vhttp://i.ebayimg.com/images/g/7wcAAOSwCU1YyGqP/s-l1600.jpg
p24
sg21
Vhttp://i.ebayimg.com/images/g/7wcAAOSwCU1YyGqP/s-l300.jpg
p25
sa(dp26
g19
Vhttp://i.ebayimg.com/images/g/8X4AAOSw4CFYyGqQ/s-l1600.jpg
p27
sg21
Vhttp://i.ebayimg.com/images/g/8X4AAOSw4CFYyGqQ/s-l300.jpg
p28
sa(dp29
g19
Vhttp://i.ebayimg.com/images/g/yIYAAOSw4YdYyGqS/s-l1600.jpg
p30
sg21
Vhttp://i.ebayimg.com/images/g/yIYAAOSw4YdYyGqS/s-l300.jpg
p31
sa(dp32
g19
Vhttp://i.ebayimg.com/images/g/RsAAAOSw32lYyGqV/s-l1600.jpg
p33
sg21
Vhttp://i.ebayimg.com/images/g/RsAAAOSw32lYyGqV/s-l300.jpg
p34
sa(dp35
g19
Vhttp://i.ebayimg.com/images/g/1N8AAOSwSlBYyGqX/s-l1600.jpg
p36
sg21
Vhttp://i.ebayimg.com/images/g/1N8AAOSwSlBYyGqX/s-l300.jpg
p37
sa(dp38
g19
Vhttp://i.ebayimg.com/images/g/JAIAAOSwOddYyGqZ/s-l1600.jpg
p39
sg21
Vhttp://i.ebayimg.com/images/g/JAIAAOSwOddYyGqZ/s-l300.jpg
p40
sa(dp41
g19
Vhttp://i.ebayimg.com/images/g/BLUAAOSwax5YyGqb/s-l1600.jpg
p42
sg21
Vhttp://i.ebayimg.com/images/g/BLUAAOSwax5YyGqb/s-l300.jpg
p43
sa(dp44
g19
Vhttp://i.ebayimg.com/images/g/BPcAAOSwax5YyGqd/s-l1600.jpg
p45
sg21
Vhttp://i.ebayimg.com/images/g/BPcAAOSwax5YyGqd/s-l300.jpg
p46
sa(dp47
g19
Vhttp://i.ebayimg.com/images/g/IgAAAOSwzgBYyGqe/s-l1600.jpg
p48
sg21
Vhttp://i.ebayimg.com/images/g/IgAAAOSwzgBYyGqe/s-l300.jpg
p49
sa(dp50
g19
Vhttp://i.ebayimg.com/images/g/okIAAOSwhQhYyGqg/s-l1600.jpg
p51
sg21
Vhttp://i.ebayimg.com/images/g/okIAAOSwhQhYyGqg/s-l300.jpg
p52
sa(dp53
g19
Vhttp://i.ebayimg.com/images/g/DS0AAOSwsW9YyGqj/s-l1600.jpg
p54
sg21
Vhttp://i.ebayimg.com/images/g/DS0AAOSwsW9YyGqj/s-l300.jpg
p55
sasS'shipping_info'
p56
(dp57
S'item_location'
p58
(lp59
sS'delivery'
p60
(lp61
sS'posts_to'
p62
(lp63
VLocal pick-up only
p64
assS'id'
p65
S'252813394074'
p66
s.