(dp1
S'title'
p2
V2015 jaguar f-type v8 r
p3
sS'url'
p4
S'http://www.ebay.com/itm/2015-Jaguar-F-Type-V8-R-/252967789867?hash=item3ae60e252b:g:GIUAAOSwn-tZL2ca&vxp=mtr'
p5
sS'price'
p6
VUS $75,974.00
p7
sS'seller'
p8
(dp9
g4
Vhttp://www.ebay.com/usr/perillopre-ownedoutlet?_trksid=p2047675.l2559
p10
sS'name'
p11
V perillopre-ownedoutlet
p12
ssS'description_links'
p13
(lp14
Vhttp://vi.vipr.ebaydesc.com/ws/eBayISAPI.dll?ViewItemDescV4&item=252967789867&t=1496341003000&tid=10&category=181465&seller=perillopre-ownedoutlet&excSoj=1&excTrk=1&lsite=100&ittenable=false&domain=ebay.com&descgauge=1
p15
asS'images'
p16
(lp17
(dp18
S'maxImageUrl'
p19
Vhttp://i.ebayimg.com/images/g/GIUAAOSwn-tZL2ca/s-l1600.jpg
p20
sS'displayImgUrl'
p21
Vhttp://i.ebayimg.com/images/g/GIUAAOSwn-tZL2ca/s-l300.jpg
p22
sa(dp23
g19
Vhttp://i.ebayimg.com/images/g/YIcAAOSwq1JZL2ca/s-l1600.jpg
p24
sg21
Vhttp://i.ebayimg.com/images/g/YIcAAOSwq1JZL2ca/s-l300.jpg
p25
sa(dp26
g19
Vhttp://i.ebayimg.com/images/g/iyIAAOSwKytZL2ca/s-l1600.jpg
p27
sg21
Vhttp://i.ebayimg.com/images/g/iyIAAOSwKytZL2ca/s-l300.jpg
p28
sa(dp29
g19
Vhttp://i.ebayimg.com/images/g/M~oAAOSw5cRZL2cZ/s-l1600.jpg
p30
sg21
Vhttp://i.ebayimg.com/images/g/M~oAAOSw5cRZL2cZ/s-l300.jpg
p31
sa(dp32
g19
Vhttp://i.ebayimg.com/images/g/3EcAAOSwsXFZL2cZ/s-l1600.jpg
p33
sg21
Vhttp://i.ebayimg.com/images/g/3EcAAOSwsXFZL2cZ/s-l300.jpg
p34
sa(dp35
g19
Vhttp://i.ebayimg.com/images/g/J9oAAOSwH09ZL2ca/s-l1600.jpg
p36
sg21
Vhttp://i.ebayimg.com/images/g/J9oAAOSwH09ZL2ca/s-l300.jpg
p37
sa(dp38
g19
Vhttp://i.ebayimg.com/images/g/TdMAAOSwjqVZL2cZ/s-l1600.jpg
p39
sg21
Vhttp://i.ebayimg.com/images/g/TdMAAOSwjqVZL2cZ/s-l300.jpg
p40
sa(dp41
g19
Vhttp://i.ebayimg.com/images/g/ByUAAOSww5hZL2cZ/s-l1600.jpg
p42
sg21
Vhttp://i.ebayimg.com/images/g/ByUAAOSww5hZL2cZ/s-l300.jpg
p43
sa(dp44
g19
Vhttp://i.ebayimg.com/images/g/GKMAAOSwuMZZL2ca/s-l1600.jpg
p45
sg21
Vhttp://i.ebayimg.com/images/g/GKMAAOSwuMZZL2ca/s-l300.jpg
p46
sa(dp47
g19
Vhttp://i.ebayimg.com/images/g/WVUAAOSwZKBZL2cZ/s-l1600.jpg
p48
sg21
Vhttp://i.ebayimg.com/images/g/WVUAAOSwZKBZL2cZ/s-l300.jpg
p49
sa(dp50
g19
Vhttp://i.ebayimg.com/images/g/h24AAOSwBt5ZL2ca/s-l1600.jpg
p51
sg21
Vhttp://i.ebayimg.com/images/g/h24AAOSwBt5ZL2ca/s-l300.jpg
p52
sa(dp53
g19
Vhttp://i.ebayimg.com/images/g/kvkAAOSwblZZL2cZ/s-l1600.jpg
p54
sg21
Vhttp://i.ebayimg.com/images/g/kvkAAOSwblZZL2cZ/s-l300.jpg
p55
sasS'shipping_info'
p56
(dp57
S'item_location'
p58
(lp59
sS'delivery'
p60
(lp61
sS'posts_to'
p62
(lp63
VLocal pick-up only
p64
assS'id'
p65
S'252967789867'
p66
s.