(dp1
S'title'
p2
V2015 jaguar f-type 2015 jaguar f-type r
p3
sS'url'
p4
S'http://www.ebay.com/itm/2015-Jaguar-F-Type-2015-Jaguar-F-TYPE-R-/262932897322?hash=item3d38059e2a:g:6HMAAOSwpkFY7RtF&vxp=mtr'
p5
sS'price'
p6
VUS $69,800.00
p7
sS'seller'
p8
(dp9
g4
Vhttp://www.ebay.com/usr/bentleylamborghinigoldcoast?_trksid=p2047675.l2559
p10
sS'name'
p11
V bentleylamborghinigoldcoast
p12
ssS'description_links'
p13
(lp14
Vhttp://vi.vipr.ebaydesc.com/ws/eBayISAPI.dll?ViewItemDescV4&item=262932897322&t=0&tid=10&category=181465&seller=bentleylamborghinigoldcoast&excSoj=1&excTrk=1&lsite=100&ittenable=false&domain=ebay.com&descgauge=1
p15
asS'images'
p16
(lp17
(dp18
S'maxImageUrl'
p19
Vhttp://i.ebayimg.com/images/g/6HMAAOSwpkFY7RtF/s-l1600.jpg
p20
sS'displayImgUrl'
p21
Vhttp://i.ebayimg.com/images/g/6HMAAOSwpkFY7RtF/s-l300.jpg
p22
sa(dp23
g19
Vhttp://i.ebayimg.com/images/g/d48AAOSwhQhY7RtH/s-l1600.jpg
p24
sg21
Vhttp://i.ebayimg.com/images/g/d48AAOSwhQhY7RtH/s-l300.jpg
p25
sa(dp26
g19
Vhttp://i.ebayimg.com/images/g/6z4AAOSwpkFY7RtS/s-l1600.jpg
p27
sg21
Vhttp://i.ebayimg.com/images/g/6z4AAOSwpkFY7RtS/s-l300.jpg
p28
sa(dp29
g19
Vhttp://i.ebayimg.com/images/g/I4EAAOSw~CFY7RtU/s-l1600.jpg
p30
sg21
Vhttp://i.ebayimg.com/images/g/I4EAAOSw~CFY7RtU/s-l300.jpg
p31
sa(dp32
g19
Vhttp://i.ebayimg.com/images/g/GpMAAOSwTM5Y7RtX/s-l1600.jpg
p33
sg21
Vhttp://i.ebayimg.com/images/g/GpMAAOSwTM5Y7RtX/s-l300.jpg
p34
sa(dp35
g19
Vhttp://i.ebayimg.com/images/g/HPQAAOSwB-1Y7RtY/s-l1600.jpg
p36
sg21
Vhttp://i.ebayimg.com/images/g/HPQAAOSwB-1Y7RtY/s-l300.jpg
p37
sa(dp38
g19
Vhttp://i.ebayimg.com/images/g/oZUAAOSw03lY7Rtb/s-l1600.jpg
p39
sg21
Vhttp://i.ebayimg.com/images/g/oZUAAOSw03lY7Rtb/s-l300.jpg
p40
sa(dp41
g19
Vhttp://i.ebayimg.com/images/g/a6kAAOSwnF9Y7Rtd/s-l1600.jpg
p42
sg21
Vhttp://i.ebayimg.com/images/g/a6kAAOSwnF9Y7Rtd/s-l300.jpg
p43
sa(dp44
g19
Vhttp://i.ebayimg.com/images/g/T9oAAOSwrddY7Rtf/s-l1600.jpg
p45
sg21
Vhttp://i.ebayimg.com/images/g/T9oAAOSwrddY7Rtf/s-l300.jpg
p46
sa(dp47
g19
Vhttp://i.ebayimg.com/images/g/U5sAAOSw3utY7Rth/s-l1600.jpg
p48
sg21
Vhttp://i.ebayimg.com/images/g/U5sAAOSw3utY7Rth/s-l300.jpg
p49
sa(dp50
g19
Vhttp://i.ebayimg.com/images/g/JfgAAOSw~CFY7Rtm/s-l1600.jpg
p51
sg21
Vhttp://i.ebayimg.com/images/g/JfgAAOSw~CFY7Rtm/s-l300.jpg
p52
sa(dp53
g19
Vhttp://i.ebayimg.com/images/g/kxsAAOSwc-tY7Rto/s-l1600.jpg
p54
sg21
Vhttp://i.ebayimg.com/images/g/kxsAAOSwc-tY7Rto/s-l300.jpg
p55
sasS'shipping_info'
p56
(dp57
S'item_location'
p58
(lp59
sS'delivery'
p60
(lp61
sS'posts_to'
p62
(lp63
VLocal pick-up only
p64
assS'id'
p65
S'262932897322'
p66
s.