(dp1
S'title'
p2
V1956 jaguar xk dhc
p3
sS'url'
p4
S'http://www.ebay.com/itm/1956-Jaguar-XK-DHC-/272394086937?hash=item3f6bf3ea19:g:1u0AAOSwWxNYsoPz&vxp=mtr'
p5
sS'price'
p6
VUS $150,000.00
p7
sS'seller'
p8
(dp9
g4
Vhttp://www.ebay.com/usr/gullwingmotorcars?_trksid=p2047675.l2559
p10
sS'name'
p11
V gullwingmotorcars
p12
ssS'description_links'
p13
(lp14
Vhttp://vi.vipr.ebaydesc.com/ws/eBayISAPI.dll?ViewItemDescV4&item=272394086937&t=1495950879000&tid=10&category=6276&seller=gullwingmotorcars&excSoj=1&excTrk=1&lsite=100&ittenable=false&domain=ebay.com&descgauge=1
p15
asS'images'
p16
(lp17
(dp18
S'maxImageUrl'
p19
Vhttp://i.ebayimg.com/images/g/1u0AAOSwWxNYsoPz/s-l1600.jpg
p20
sS'displayImgUrl'
p21
Vhttp://i.ebayimg.com/images/g/1u0AAOSwWxNYsoPz/s-l300.jpg
p22
sa(dp23
g19
Vhttp://i.ebayimg.com/images/g/JWoAAOSwCU1YsoP1/s-l1600.jpg
p24
sg21
Vhttp://i.ebayimg.com/images/g/JWoAAOSwCU1YsoP1/s-l300.jpg
p25
sa(dp26
g19
Vhttp://i.ebayimg.com/images/g/ZU4AAOSw4CFYsoP3/s-l1600.jpg
p27
sg21
Vhttp://i.ebayimg.com/images/g/ZU4AAOSw4CFYsoP3/s-l300.jpg
p28
sa(dp29
g19
Vhttp://i.ebayimg.com/images/g/1NkAAOSw~AVYsoP5/s-l1600.jpg
p30
sg21
Vhttp://i.ebayimg.com/images/g/1NkAAOSw~AVYsoP5/s-l300.jpg
p31
sa(dp32
g19
Vhttp://i.ebayimg.com/images/g/1P0AAOSw~AVYsoP7/s-l1600.jpg
p33
sg21
Vhttp://i.ebayimg.com/images/g/1P0AAOSw~AVYsoP7/s-l300.jpg
p34
sa(dp35
g19
Vhttp://i.ebayimg.com/images/g/muQAAOSwuxFYsoP9/s-l1600.jpg
p36
sg21
Vhttp://i.ebayimg.com/images/g/muQAAOSwuxFYsoP9/s-l300.jpg
p37
sa(dp38
g19
Vhttp://i.ebayimg.com/images/g/aWgAAOSwSlBYsoP-/s-l1600.jpg
p39
sg21
Vhttp://i.ebayimg.com/images/g/aWgAAOSwSlBYsoP-/s-l300.jpg
p40
sa(dp41
g19
Vhttp://i.ebayimg.com/images/g/JhgAAOSwCU1YsoQA/s-l1600.jpg
p42
sg21
Vhttp://i.ebayimg.com/images/g/JhgAAOSwCU1YsoQA/s-l300.jpg
p43
sa(dp44
g19
Vhttp://i.ebayimg.com/images/g/7t0AAOSwdGFYsoQB/s-l1600.jpg
p45
sg21
Vhttp://i.ebayimg.com/images/g/7t0AAOSwdGFYsoQB/s-l300.jpg
p46
sasS'shipping_info'
p47
(dp48
S'item_location'
p49
(lp50
sS'delivery'
p51
(lp52
sS'posts_to'
p53
(lp54
VLocal pick-up only
p55
assS'id'
p56
S'272394086937'
p57
s.