(dp1
S'title'
p2
V1957 jaguar xk dhc
p3
sS'url'
p4
S'http://www.ebay.com/itm/1957-Jaguar-XK-DHC-/272394087006?hash=item3f6bf3ea5e:g:BO8AAOSwfVpYsoP4&vxp=mtr'
p5
sS'price'
p6
VUS $97,500.00
p7
sS'seller'
p8
(dp9
g4
Vhttp://www.ebay.com/usr/gullwingmotorcars?_trksid=p2047675.l2559
p10
sS'name'
p11
V gullwingmotorcars
p12
ssS'description_links'
p13
(lp14
Vhttp://vi.vipr.ebaydesc.com/ws/eBayISAPI.dll?ViewItemDescV4&item=272394087006&t=1495950881000&tid=10&category=6276&seller=gullwingmotorcars&excSoj=1&excTrk=1&lsite=100&ittenable=false&domain=ebay.com&descgauge=1
p15
asS'images'
p16
(lp17
(dp18
S'maxImageUrl'
p19
Vhttp://i.ebayimg.com/images/g/BO8AAOSwfVpYsoP4/s-l1600.jpg
p20
sS'displayImgUrl'
p21
Vhttp://i.ebayimg.com/images/g/BO8AAOSwfVpYsoP4/s-l300.jpg
p22
sa(dp23
g19
Vhttp://i.ebayimg.com/images/g/aNQAAOSwSlBYsoP6/s-l1600.jpg
p24
sg21
Vhttp://i.ebayimg.com/images/g/aNQAAOSwSlBYsoP6/s-l300.jpg
p25
sa(dp26
g19
Vhttp://i.ebayimg.com/images/g/~wEAAOSwOgdYsoP8/s-l1600.jpg
p27
sg21
Vhttp://i.ebayimg.com/images/g/~wEAAOSwOgdYsoP8/s-l300.jpg
p28
sa(dp29
g19
Vhttp://i.ebayimg.com/images/g/~yYAAOSwOgdYsoP-/s-l1600.jpg
p30
sg21
Vhttp://i.ebayimg.com/images/g/~yYAAOSwOgdYsoP-/s-l300.jpg
p31
sa(dp32
g19
Vhttp://i.ebayimg.com/images/g/c9sAAOSwTuJYsoQA/s-l1600.jpg
p33
sg21
Vhttp://i.ebayimg.com/images/g/c9sAAOSwTuJYsoQA/s-l300.jpg
p34
sa(dp35
g19
Vhttp://i.ebayimg.com/images/g/m4AAAOSwuxFYsoQC/s-l1600.jpg
p36
sg21
Vhttp://i.ebayimg.com/images/g/m4AAAOSwuxFYsoQC/s-l300.jpg
p37
sa(dp38
g19
Vhttp://i.ebayimg.com/images/g/ajAAAOSwSlBYsoQE/s-l1600.jpg
p39
sg21
Vhttp://i.ebayimg.com/images/g/ajAAAOSwSlBYsoQE/s-l300.jpg
p40
sa(dp41
g19
Vhttp://i.ebayimg.com/images/g/6o0AAOSwXYtYsoQG/s-l1600.jpg
p42
sg21
Vhttp://i.ebayimg.com/images/g/6o0AAOSwXYtYsoQG/s-l300.jpg
p43
sa(dp44
g19
Vhttp://i.ebayimg.com/images/g/vDUAAOSw2gxYsoQI/s-l1600.jpg
p45
sg21
Vhttp://i.ebayimg.com/images/g/vDUAAOSw2gxYsoQI/s-l300.jpg
p46
sa(dp47
g19
Vhttp://i.ebayimg.com/images/g/dJUAAOSwTuJYsoQK/s-l1600.jpg
p48
sg21
Vhttp://i.ebayimg.com/images/g/dJUAAOSwTuJYsoQK/s-l300.jpg
p49
sa(dp50
g19
Vhttp://i.ebayimg.com/images/g/Bk8AAOSwfVpYsoQM/s-l1600.jpg
p51
sg21
Vhttp://i.ebayimg.com/images/g/Bk8AAOSwfVpYsoQM/s-l300.jpg
p52
sasS'shipping_info'
p53
(dp54
S'item_location'
p55
(lp56
sS'delivery'
p57
(lp58
sS'posts_to'
p59
(lp60
VLocal pick-up only
p61
assS'id'
p62
S'272394087006'
p63
s.