(dp1
S'title'
p2
V1966 jaguar xk 4.2 series i
p3
sS'url'
p4
S'http://www.ebay.com/itm/1966-Jaguar-XK-4-2-Series-I-/272559224844?hash=item3f75cbb80c:g:RuMAAOSwB-1YwtNO&vxp=mtr'
p5
sS'price'
p6
VUS $87,500.00
p7
sS'seller'
p8
(dp9
g4
Vhttp://www.ebay.com/usr/gullwingmotorcars?_trksid=p2047675.l2559
p10
sS'name'
p11
V gullwingmotorcars
p12
ssS'description_links'
p13
(lp14
Vhttp://vi.vipr.ebaydesc.com/ws/eBayISAPI.dll?ViewItemDescV4&item=272559224844&t=1496988177000&tid=10&category=6276&seller=gullwingmotorcars&excSoj=1&excTrk=1&lsite=100&ittenable=false&domain=ebay.com&descgauge=1
p15
asS'images'
p16
(lp17
(dp18
S'maxImageUrl'
p19
Vhttp://i.ebayimg.com/images/g/RuMAAOSwB-1YwtNO/s-l1600.jpg
p20
sS'displayImgUrl'
p21
Vhttp://i.ebayimg.com/images/g/RuMAAOSwB-1YwtNO/s-l300.jpg
p22
sa(dp23
g19
Vhttp://i.ebayimg.com/images/g/JTsAAOSwXYtYwtNQ/s-l1600.jpg
p24
sg21
Vhttp://i.ebayimg.com/images/g/JTsAAOSwXYtYwtNQ/s-l300.jpg
p25
sa(dp26
g19
Vhttp://i.ebayimg.com/images/g/~IUAAOSwfVpYwtNT/s-l1600.jpg
p27
sg21
Vhttp://i.ebayimg.com/images/g/~IUAAOSwfVpYwtNT/s-l300.jpg
p28
sa(dp29
g19
Vhttp://i.ebayimg.com/images/g/XEAAAOSwsW9YwtNW/s-l1600.jpg
p30
sg21
Vhttp://i.ebayimg.com/images/g/XEAAAOSwsW9YwtNW/s-l300.jpg
p31
sa(dp32
g19
Vhttp://i.ebayimg.com/images/g/6mUAAOSwSlBYwtNZ/s-l1600.jpg
p33
sg21
Vhttp://i.ebayimg.com/images/g/6mUAAOSwSlBYwtNZ/s-l300.jpg
p34
sa(dp35
g19
Vhttp://i.ebayimg.com/images/g/6vAAAOSwSlBYwtNb/s-l1600.jpg
p36
sg21
Vhttp://i.ebayimg.com/images/g/6vAAAOSwSlBYwtNb/s-l300.jpg
p37
sa(dp38
g19
Vhttp://i.ebayimg.com/images/g/MHQAAOSwCU1YwtNe/s-l1600.jpg
p39
sg21
Vhttp://i.ebayimg.com/images/g/MHQAAOSwCU1YwtNe/s-l300.jpg
p40
sa(dp41
g19
Vhttp://i.ebayimg.com/images/g/KPoAAOSwXYtYwtNi/s-l1600.jpg
p42
sg21
Vhttp://i.ebayimg.com/images/g/KPoAAOSwXYtYwtNi/s-l300.jpg
p43
sa(dp44
g19
Vhttp://i.ebayimg.com/images/g/CtQAAOSw2gxYwtNk/s-l1600.jpg
p45
sg21
Vhttp://i.ebayimg.com/images/g/CtQAAOSw2gxYwtNk/s-l300.jpg
p46
sa(dp47
g19
Vhttp://i.ebayimg.com/images/g/yN4AAOSwWxNYwtNn/s-l1600.jpg
p48
sg21
Vhttp://i.ebayimg.com/images/g/yN4AAOSwWxNYwtNn/s-l300.jpg
p49
sa(dp50
g19
Vhttp://i.ebayimg.com/images/g/TCUAAOSwB-1YwtNp/s-l1600.jpg
p51
sg21
Vhttp://i.ebayimg.com/images/g/TCUAAOSwB-1YwtNp/s-l300.jpg
p52
sa(dp53
g19
Vhttp://i.ebayimg.com/images/g/UHkAAOSw4CFYwtNs/s-l1600.jpg
p54
sg21
Vhttp://i.ebayimg.com/images/g/UHkAAOSw4CFYwtNs/s-l300.jpg
p55
sasS'shipping_info'
p56
(dp57
S'item_location'
p58
(lp59
sS'delivery'
p60
(lp61
sS'posts_to'
p62
(lp63
VLocal pick-up only
p64
assS'id'
p65
S'272559224844'
p66
s.