(dp1
S'title'
p2
VToy Car Jaguar 12V F Type For Kid's Ride On MP3 AUX Remote Control White
p3
sS'url'
p4
Vhttp://www.ecrater.com/p/27264906/toy-car-jaguar-12v-f-type-for?keywords=jaguar
p5
sS'price'
p6
V$369.99
p7
sS'seller'
p8
Vhttp://americastoys.ecrater.com
p9
sS'description_links'
p10
VItem specificsCondition:New: A brand-new, unused, unopened, undamaged item (including handmade items). See the seller's ... Read moreBrand:Americas ToysMaterial:Eco PlasticMPN:Does Not ApplyRecommended Age Range:3-8 years oldYear:2017Color:WhiteUPC:Does not apply.FEATURES- Officially licensed Jaguar F Type convertible electric ride on vehicle- Ideal for kids 3-8 years old with a weight capacity of 65 lbs- Realistic features with functioning lights and adjustable seat belt- 2 modes of operation via steering wheel and pedal or remote control (4G Bluetooth)- Both doors open as well as the trunk - Authentic driving experience with forward, reverse and steering controls - Assembly requiredSPECIFICATIONSpeed - 2mphBattery - rechargeable 12V 7AHMaterial - PlasticADDITIONAL INFORMATIONTo speed up the delivery of gifts and children's electric cars in Florida, we recall that we maintain / deliver gifts to all the populated areas of Florida:Miami, Jacksonville, Tampa, St. Petersburg, Orlando, Hialeah, Fort Lauderdale, Tallahassee, Port St. Lucie, Cape Coral, Coral Gables, Pembroke Pines, Hollywood, Coral Springs, Gainesville, Miami Gardens, Miramar, Clearwater, Pompano Beach, Palm Bay.Although our main office for the sale of electric cars for children is located in Florida, we are happy to send a gift to any state of the USA: AL, \u0410\u041a, AZ, AR, CA, CO, CT, DE, DC, FL, GA, HI, ID, IL, IN, IA, KS, KY, LA, ME, MD, \u041c\u0410, MI, MN, MS, \u041c\u041e, MT, NE, NV, NH, NJ, NM, NY, NC, ND, \u041e\u041d, \u041e\u041a, OR, \u0420\u0410, RI, SC, SD, TN, \u0422\u0425, UT, VT, VA, WA, WV, WI, WY.[! brand:Jaguar!][! upc: 821078952554!]
p11
sS'images'
p12
(lp13
Vhttp://s.ecrater.com/stores/393741/59232b58ef7d0_393741b.jpg
p14
asS'shipping_info'
p15
(lp16
V4 available
p17
aVShipping:US-Mainland: free(more destinations)
p18
aVSales Tax: Florida: 6%
p19
aVCondition: Brand new
p20
asS'id'
p21
V27264906
p22
s.