(dp1
S'title'
p2
VJaguar
p3
sS'url'
p4
Vhttp://store.yahoo.com/yhst-66562580642243/jaguar.html
p5
sS'price'
p6
(lp7
sS'seller'
p8
(lp9
sS'description_links'
p10
VJaguar Photo Reference Cd
p11
sS'images'
p12
(lp13
Vhttp://ep.yimg.com/ca/I/yhst-66562580642243_2251_112396987
p14
asS'shipping_info'
p15
(lp16
sS'id'
p17
Vjaguar_1497067831
p18
s.