(dp1
S'title'
p2
V1978 asbestos related diseases cites us navy naval shipyard exper,mesothelioma
p3
sS'url'
p4
S'http://www.ebay.com/itm/1978-ASBESTOS-Related-DISEASES-Cites-US-NAVY-Naval-Shipyard-Exper-Mesothelioma-/311887243750?hash=item489deda9e6:g:ao8AAOSwqfNXnnUB'
p5
sS'price'
p6
VUS $495.00
p7
sS'seller'
p8
(dp9
g4
Vhttp://www.ebay.com/usr/tisa2?_trksid=p2047675.l2559
p10
sS'name'
p11
V tisa2
p12
ssS'description_links'
p13
(lp14
Vhttp://vi.vipr.ebaydesc.com/ws/eBayISAPI.dll?ViewItemDescV4&item=311887243750&t=0&tid=10&category=29223&seller=tisa2&excSoj=1&excTrk=1&lsite=0&ittenable=false&domain=ebay.com&descgauge=1
p15
asS'images'
p16
(lp17
(dp18
S'maxImageUrl'
p19
Vhttp://i.ebayimg.com/images/g/ao8AAOSwqfNXnnUB/s-l1600.jpg
p20
sS'displayImgUrl'
p21
Vhttp://i.ebayimg.com/images/g/ao8AAOSwqfNXnnUB/s-l300.jpg
p22
sa(dp23
g19
Vhttp://i.ebayimg.com/images/g/aqgAAOSwqfNXnnUC/s-l1600.jpg
p24
sg21
Vhttp://i.ebayimg.com/images/g/aqgAAOSwqfNXnnUC/s-l300.jpg
p25
sa(dp26
g19
Vhttp://i.ebayimg.com/images/g/8F8AAOSwaB5XnnUD/s-l1600.jpg
p27
sg21
Vhttp://i.ebayimg.com/images/g/8F8AAOSwaB5XnnUD/s-l300.jpg
p28
sa(dp29
g19
Vhttp://i.ebayimg.com/images/g/aVYAAOSwPRlXnnUG/s-l1600.jpg
p30
sg21
Vhttp://i.ebayimg.com/images/g/aVYAAOSwPRlXnnUG/s-l300.jpg
p31
sa(dp32
g19
Vhttp://i.ebayimg.com/images/g/LQUAAOSwtnpXnnUG/s-l1600.jpg
p33
sg21
Vhttp://i.ebayimg.com/images/g/LQUAAOSwtnpXnnUG/s-l300.jpg
p34
sa(dp35
g19
Vhttp://i.ebayimg.com/images/g/NAUAAOSw3xJXnnUH/s-l1600.jpg
p36
sg21
Vhttp://i.ebayimg.com/images/g/NAUAAOSw3xJXnnUH/s-l300.jpg
p37
sa(dp38
g19
Vhttp://i.ebayimg.com/images/g/NIAAAOSw3xJXnnUN/s-l1600.jpg
p39
sg21
Vhttp://i.ebayimg.com/images/g/NIAAAOSw3xJXnnUN/s-l300.jpg
p40
sasS'shipping_info'
p41
(dp42
S'item_location'
p43
(lp44
V\u000aKingston, Washington, United States
p45
asS'delivery'
p46
(lp47
VVaries
p48
asS'posts_to'
p49
(lp50
VUnited States, Canada
p51
assS'id'
p52
S'311887243750'
p53
s.