(dp1
S'title'
p2
V\u000aWHITE HALTER WEDDING DRESSES FOR BRIDE 2016 BALL GOWN\u000a
p3
sS'url'
p4
Vhttp://www.ioffer.com/i/canvas-viva-cite-pm-m51165-bag-leather-556880685
p5
sS'price'
p6
V$206.50
p7
sS'seller'
p8
(lp9
sS'description_links'
p10
VThis Dress is custom made, Please Contact us and tell us your bust, waist, shoulder and height size. We will arrange the shipment within 3-5 days and it is shipped via airmail and it will cost about 15-25 days to you, please wait it patiently. The price has included the shipping cost to worldwide via airmail. If buyers want fast shipment, please contact me for further details and buyer should pay extra cost for EXPRESS (like EMS, DHL, FEDEX and so on). Payment: Accept Paypal, Western Union, Bank T/T Return Policy: Contact me for exchange/refund within 5 days after you receive the item (s).
p11
sS'images'
p12
(lp13
Vhttp://cdn.iofferphoto.com/img3/item/622/485/103/t_white-halter-wedding-dresses-for-bride-2016-ball-gown-0ac9.jpg
p14
aVhttp://cdn.iofferphoto.com/img3/item/622/485/103/t_white-halter-wedding-dresses-for-bride-2016-ball-gown-1423.jpg
p15
aVhttp://cdn.iofferphoto.com/img3/item/622/485/103/t_white-halter-wedding-dresses-for-bride-2016-ball-gown-28e5.jpg
p16
aVhttp://cdn.iofferphoto.com/img3/item/622/485/103/t_white-halter-wedding-dresses-for-bride-2016-ball-gown-3e84.jpg
p17
aVhttp://cdn.iofferphoto.com/img3/item/622/485/103/t_white-halter-wedding-dresses-for-bride-2016-ball-gown-739e.jpg
p18
aVhttp://cdn.iofferphoto.com/img3/item/622/485/103/t_white-halter-wedding-dresses-for-bride-2016-ball-gown-8401.jpg
p19
aVhttp://cdn.iofferphoto.com/img3/item/622/485/103/t_white-halter-wedding-dresses-for-bride-2016-ball-gown-f423.jpg
p20
asS'shipping_info'
p21
VAvailable ColorsAvailable SizesSizesX-SmallSmallMediumLargeX-LargeXXL3XL4XLEstimated Shipping15 - 20 Days
p22
sS'id'
p23
V556880685_1497062083
p24
s.