(dp1
S'title'
p2
V\u000aViva, Cite, PM, M51165, BAG, Canvas, LEATHER\u000a
p3
sS'url'
p4
Vhttp://www.ioffer.com/i/viva-cite-pm-m51165-bag-canvas-leather-636942305
p5
sS'price'
p6
V$105.85
p7
sS'seller'
p8
(lp9
sS'description_links'
p10
VInformation AdditionalSize13 X 8 X 17 CmHello! Contact me for more detailed photos if you are intestered in any of them.Comes with Dustbag, carebooklet serial, number.Professional supplier TOp grade quality. WHAT YOU SEE, WHAT YOU GOT. Wholesale and Drop Shipping is welcome Buy in bulk to saveshipping cost and get discounts Enjoy your shopping at my store!Questions Recent & AnswersIs, your, best, price, for, this, item, What?Answer:Lowest, price, I, accepted, including, The, shipping$126.00$131.00Now BuyMultiple, items, from, me, and, Buy, SAVE!Sure, what, to, offer, Not?A Quote RequestView, the, past, deals, I've, madeOther Items Seller'sDAMIR, EBENE, CANVAS, nneverfullll, L, GM, N51106, LEATHER, BAG$236.80WINTER, sspeedyy, CUBE, M95816, BAG, PARIS, COFFEE$135.00Canva, totally, MM, BAG, M56689$166.50Monogam, Sully, MM, Handbag, Shoulder, Bag, M40587, Women$166.50Michael, Backpack, N58024, black, Graphite$239.00Galliera, PM, M56382, LEATHER, BAG, Canvas$169.50All View 1002 items
p11
sS'images'
p12
(lp13
Vhttp://cdn.iofferphoto.com/img/item/636/942/305/t_viva-cite-pm-m51165-bag-canvas-leather-3eb7.jpg
p14
aVhttp://cdn.iofferphoto.com/img/item/636/942/305/t_viva-cite-pm-m51165-bag-canvas-leather-cfa9.jpg
p15
asS'shipping_info'
p16
VAvailable SizesSizesX-SmallEstimated Shipping1 - 3 Days
p17
sS'id'
p18
V636942305_1497062102
p19
s.