(dp1
S'title'
p2
VNorth Face Women's XSmall Jacket Goose Down NEW Brown
p3
sS'url'
p4
Vhttp://www.ecrater.com/p/13115659/north-face-womens-xsmall-jacket?keywords=goose
p5
sS'price'
p6
V$99.99
p7
sS'seller'
p8
Vhttp://goneshopping.ecrater.com
p9
sS'description_links'
p10
VThe North FaceWomen's XSmall JacketBrand New without TagsInner label is marked as in photoShell:  100% NylonLining:  PolyesterFill:  Goose DownFaux FurAcross Chest:  18"Underarm Sleeve Length:  18 1/2"Down Center Back:  21"This is a vintage, very cute model that got packed away in an airtight container and forgotten. I can only ship to a confirmed Paypal addressNon-smoking, pet-free homePlease ask about combined shipping...I love to save you money!
p11
sS'images'
p12
(lp13
Vhttp://s.ecrater.com/stores/23246/4edbb38fb055b_23246b.jpg
p14
asS'shipping_info'
p15
(lp16
VOnly 1 available
p17
aVShipping:US-Mainland: $9.99(more destinations)
p18
aVCondition: Brand new
p19
asS'id'
p20
V13115659
p21
s.