(dp1
S'title'
p2
VNEW NIKE Mens 550 Goose Down Fill Hooded Hoodie Jacket Coat L Large  NWT Black
p3
sS'url'
p4
Vhttp://www.ecrater.com/p/13171433/nike-mens-550-goose-down-fill?keywords=goose
p5
sS'price'
p6
V$134.99
p7
sS'seller'
p8
Vhttp://evalueplaza.ecrater.com
p9
sS'description_links'
p10
VNew with tags, never worn, NIKE hooded jacket size L. Adjustable hood.Body: 100% nylon. Body lining: 100% cotton. Sleeve lining: 100% nylonRib: 95% polyester, 5% spandexFill: 75% Grey Goose Down, 25% Feathers.Exclusive of decoration.2 front pockets with zippers, 1 pocket with zipper inside the jacket. Front zip & snap buttons.Armpit to armpit 22.5 in, length from shoulder to bottom hem  28 in, shoulder to shoulder 18.5 in, sleeve 26.5 in. Color: black.The colors inside the jacket are  black & red.Tag said:"550 Goose Down FillWater Repellant."Very nice! Authentic! The picture may show different size.
p11
sS'images'
p12
(lp13
Vhttp://s.ecrater.com/stores/54160/4ee106217b86c_54160b.jpg
p14
asS'shipping_info'
p15
(lp16
VOnly 1 available
p17
aVShipping:US-Mainland: $9.50(more destinations)
p18
aVSales Tax: Kentucky: 6%
p19
aVCondition: Brand new
p20
asS'id'
p21
V13171433
p22
s.