(dp1
S'title'
p2
VSeeman, William. Down Goose Creek: Being a Ten-Year-Old Boy's Own Account of a Journey...
p3
sS'url'
p4
Vhttp://www.ecrater.com/p/16100909/seeman-william-down-goose-creek?keywords=goose
p5
sS'price'
p6
V$299.95
p7
sS'seller'
p8
Vhttp://hartmannbooks.ecrater.com
p9
sS'description_links'
p10
V(025497) Seeman, William. Down Goose Creek: Being a Ten-Year-Old Boy's Own Account of a Journey by Stream and Swamp from Carolina Foothills to the Sea. New York: Fleming H. Revell Company, 1931. 1st Edition. Hardcover. 8vo. 200 pages. Fine in Very Good DJ. B&W; Photographs. Inscribed by the author on the front free endpaper to his cousins, Rosie and Frank Cunningham. DJ has two very small chips on top edge of front panel. DJ white spine shows some dust discoloration. A rare North Carolina related book  (Natural History, Children's Writings, Juvenile Literature)
p11
sS'images'
p12
(lp13
sS'shipping_info'
p14
(lp15
VOnly 1 available
p16
aVShipping:US-Mainland: $6.50(more destinations)
p17
aVSales Tax: North Carolina: 6.75%
p18
aVCondition: Used
p19
asS'id'
p20
V16100909
p21
s.