(dp1
S'title'
p2
VCanada Goose Taxidermy Bird Mount For Sale
p3
sS'url'
p4
Vhttp://www.thetaxidermystore.com/canada-goose-taxidermy-bird-mount-for-sale-16511.html
p5
sS'price'
p6
V$0.00
p7
sS'seller'
p8
(lp9
sS'description_links'
p10
VDetailsDescription of Taxidermy For SaleThis is a beautiful flying Canada Goose taxidermy mount, posed on a custom wooden hanger, and looking out to the right side of the room. The feather color and quality are both outstanding, as is the expert craftsmanship, earning this item our coveted Premier\u2122 overall rating. All applicable measurements are included to make sure this item will fit into the space you intend to display it.- There is already a hanger attached to the back of this item.- The item will hang on a properly anchored drywall screw.SpecificationsDimensions:*Depth: 18"Height: 52"Width: 48"Weight: 15 lbs
p11
sS'images'
p12
(lp13
Vhttp://www.thetaxidermystore.com/skin/frontend/default/blanco_customization/images/logo.png
p14
aVhttp://www.thetaxidermystore.com/media/wysiwyg/ttsgraphics/sales_banners/Spring-Sale-612.jpg
p15
aVhttp://www.thetaxidermystore.com/media/wysiwyg/ttsgraphics/sales_banners/Spring-Green-CP.jpg
p16
aVhttp://www.thetaxidermystore.com/media/wysiwyg/ttsgraphics/sales_banners/Spring-Sale-612.jpg
p17
aVhttp://www.thetaxidermystore.com/media/wysiwyg/ttsgraphics/sales_banners/Spring-Green-CP.jpg
p18
aVhttp://www.thetaxidermystore.com/media/catalog/product/cache/1/image/396x396/9df78eab33525d08d6e5fb8d27136e95/c/a/canadian-goose-bird-mount-for-sale-_16511-_-the-taxidermy-store.jpg
p19
aVhttp://www.thetaxidermystore.com/media/catalog/product/cache/1/thumbnail/70x70/9df78eab33525d08d6e5fb8d27136e95/c/a/canadian-goose-bird-mount-for-sale-_16511-_-the-taxidermy-store.jpg
p20
aVhttp://www.thetaxidermystore.com/media/catalog/product/cache/1/thumbnail/70x70/9df78eab33525d08d6e5fb8d27136e95/1/6/16511_-_2_of_6.jpg
p21
aVhttp://www.thetaxidermystore.com/media/catalog/product/cache/1/thumbnail/70x70/9df78eab33525d08d6e5fb8d27136e95/1/6/16511_-_3_of_6.jpg
p22
aVhttp://www.thetaxidermystore.com/media/catalog/product/cache/1/thumbnail/70x70/9df78eab33525d08d6e5fb8d27136e95/1/6/16511_-_5_of_6.jpg
p23
aVhttp://www.thetaxidermystore.com/media/catalog/product/cache/1/thumbnail/70x70/9df78eab33525d08d6e5fb8d27136e95/1/6/16511_-_4_of_6.jpg
p24
aVhttp://www.thetaxidermystore.com/media/catalog/product/cache/1/thumbnail/70x70/9df78eab33525d08d6e5fb8d27136e95/1/6/16511_-_6_of_6.jpg
p25
aVhttp://www.thetaxidermystore.com//media/wysiwyg/grade/cache/225x225/premier.png
p26
aVhttp://www.thetaxidermystore.com/media/wysiwyg/ttsgraphics/Certificate.png
p27
aVhttp://www.thetaxidermystore.com/media/wysiwyg/ttsgraphics/ttshomepage/pinterest-logo.jpg
p28
aV/skin/frontend/default/blanco_customization/images/icon-twitter.png
p29
aV/skin/frontend/default/blanco_customization/images/icon-paypal.png
p30
aV/skin/frontend/default/blanco_customization/images/icon-discover.png
p31
aV/skin/frontend/default/blanco_customization/images/icon-visa.png
p32
aV/skin/frontend/default/blanco_customization/images/icon-american-express.png
p33
aV/skin/frontend/default/blanco_customization/images/icon-mastercard.png
p34
asS'shipping_info'
p35
(lp36
sS'id'
p37
V16511_1497077614
p38
s.