(dp1
S'title'
p2
VStarrett # 711 Last word indicators, both with cases, one a goose neck shank, one a universal shank.
p3
sS'url'
p4
Vhttp://www.ecrater.com/p/17665956/starrett-711-last-word-indicators-both-with?keywords=goose
p5
sS'price'
p6
V$80.50
p7
sS'seller'
p8
Vhttp://a-better-way.ecrater.com
p9
sS'description_links'
p10
VOne is missing the crystal lens over the dial.Selling as used. I assume they work and are quite sensitive. No calibration or testing has been done.The cases are a scuffed up, or old, machinist ( black cases )The tools also have ding marks on the shanks, and some scratches.3 day checkout time, see terms of sale under tools.Free shipping, sent inside USA only, using USPS.
p11
sS'images'
p12
(lp13
Vhttp://s.ecrater.com/stores/226254/5160b9279f856_226254b.jpg
p14
asS'shipping_info'
p15
(lp16
VOnly 1 available
p17
aVShipping:US-Mainland: free(more destinations)
p18
aVCondition: Used
p19
asS'id'
p20
V17665956
p21
s.