(dp1
S'title'
p2
VOriginal Art MIGHTY MOUSE #26 Complete 6 Pg. GANDY GOOSE Story Shipwrecked! '50s
p3
sS'url'
p4
Vhttp://www.ecrater.com/p/18936368/original-art-mighty-mouse-26-complete-6?keywords=goose
p5
sS'price'
p6
V$139.99
p7
sS'seller'
p8
Vhttp://toonsgonewild.ecrater.com
p9
sS'description_links'
p10
VNO RESERVE! ORIGINAL ART 1950s GOLDEN AGE TERRYTOONS COMPLETE 6 PAGE GANDY GOOSE STORY !!!!Offered is a very nice original art for a complete 6 Page story drawn by a TERRYTOONS  CARTOON STUDIO animator from a GANDY GOOSE story, published in MIGHTY MOUSE #26, published by St.  John Comics in the early 1950s, in  Excellent condition. This 6 Page GANDY GOOSE story is titled "Shipwrecked!" Gandy and his pal Sourpuss are floating on a raft at sea. A shark attacks them. They finally land on a beach. A big monster attacks them. They knock out the monster, but it turns out it's only a film crew making a movie.The large size Golden Age art image area measures 12-1/2" x 17-3/4" and was drawn with black ink on bristol  board, in Excellent condition.Buyer pays additional $17.00 for Priority Mail/insured shipping to U.S. destination. International shipping quoted when needed. Payment with PayPal, etc.I use the eCRATER invoice system. Please respond in a few days to the invoice. Just let me know your intentions. If you are looking or planning to buy on more than one item, I will be happy to wait till products are complete. Combining items to save on shipping is always offered. Just keep the communication lines open. I am pretty easy to work with.International Buyers \u2014 Please Note: Import duties, taxes and charges are not included in the item price or shipping charges. These charges are the buyer's responsibility. Please check with your country's customs office to determine what these additional costs will be prior to looking/buying. These charges are normally collected by the delivering freight (shipping) company or when you pick the item up. Do not confuse them for additional shipping charges.If you see a "Buy It Now" price and you are interested in this item, I suggest that you do one of two things: 1) Use "Buy It Now" and win instantly! -- or -- 2) Place a buy to erase the "Buy It Now" price (it disappears once a buy is placed). Otherwise someone else might use "Buy It Now" and you will not get a chance to win this item at all! "Buy It Now" will disappear with the first buy, so if you want to avoid a looking war later -- use it now as it's a bargain.We reserve the right to end this product, revise the opening buy or "Buy It Now" price at any time if we find there is lack of interest, so please make sure to place your buys early!Be sure to click on the link that says "View seller's other items" and check out my other products for more great original comic book and strip art. buy with confidence with "toonsgonewild" products on eCRATER. I've been a collector for over 35 years and a seller for at least 20 years! Be sure to add me to your favorites list!Click to view supersized imageClick  to view supersized imageClick  to view supersized imageClick  to view supersized imageClick  to view supersized imageClick  to view supersized  image TOONSGONEWILD says: "PLEASE CLICK HERE TO CHECK OUT ALL THE OTHER COOL productS I HAVE UP ON eCRATER RIGHT NOW! buy EARLY AND OFTEN!! (DON'T FORGET TO SNIPE!) THANKS FOR looking AND GOOD LUCK!!" supremesupremewidgets               Create Widget or customize colors.          supremeproductonlinesoftware.widgets.GalleryCat.swfOn Aug-20-13 at 05:38:46 PDT, seller added the following information:
p11
sS'images'
p12
(lp13
Vhttp://s.ecrater.com/stores/290400/5275e0b065050_290400b.jpg
p14
asS'shipping_info'
p15
(lp16
VOnly 1 available
p17
aVShipping:US-Mainland: $17.00(more destinations)
p18
aVCondition: Used
p19
asS'id'
p20
V18936368
p21
s.