(dp1
S'title'
p2
VGoose Gossage New York Yankees Signed 16x20 frame
p3
sS'url'
p4
Vhttp://www.ecrater.com/p/19674000/goose-gossage-york-yankees-signed?keywords=goose
p5
sS'price'
p6
V$359.00
p7
sS'seller'
p8
Vhttp://midwaymemorabilia.ecrater.com
p9
sS'description_links'
p10
V
sS'images'
p11
(lp12
sS'shipping_info'
p13
(lp14
VOnly 1 available
p15
aVShipping:US-Mainland: $44.88(more destinations)
p16
aVCondition: Used
p17
asS'id'
p18
V19674000
p19
s.