(dp1
S'title'
p2
VRed Goose Shoes Joey Bishop complete store display mint unused with box 1960's
p3
sS'url'
p4
Vhttp://www.ecrater.com/p/26261493/red-goose-shoes-joey-bishop?keywords=goose
p5
sS'price'
p6
V$265.00
p7
sS'seller'
p8
Vhttp://kollectomania.ecrater.com
p9
sS'description_links'
p10
VRed Goose Shoes Joey Bishop complete store display mint unused with box 1960's. This scarce store display was promoting Bishop's TV show--includes a 30 1/2" tall x14" at widest point diecut Joey Bishop standee. Never used and includes 10 3/4" x 7 1/2" small counter sign and also a 36" x 6" paper sign(has nicks on bottom from sliding around in mailer--see photo). Come with original 24" x 17 1/2" mailer box.                                 OurGoal and Mission  Our goal is to deliver to our customers a quality,sought after collectible product at a fair price which is accurately described and shipped properly and in a reasonable time. Please read our feedback. When atransaction is completed we will leave appropriate feedbackand will appreciate your feedback.Thank you for your buys. Policies and Procedures We ship continental U.S. using standard ground USPS with tracking.Wewill ship large items UPS. If you have any other preference, such as added insurance or priority mailing, please notify us immediately after winning an item. Overseas shipping is available to buyders in selected countries. Please contact us for shipping details.We accept PayPal. You must make payment within seven days of product closing.  We package all items professionally and securely and take great care in making sure your item reaches you as you purchased it. Unless otherwise stated, in the event that your item is not as described, we have a seven-day return policy with email notification within three days of your receipt of the item. We try to ship out within 5 days of payment (excluding holidays/weekends),however we do have a busy show/product schedule that may delay shipping by 4-5 days. We appreciate your patience. Feedback is much appreciated and we will leave feedback upon the successful completion of transaction. Thank you for your interest.
p11
sS'images'
p12
(lp13
sS'shipping_info'
p14
(lp15
VOnly 1 available
p16
aVShipping:US-Mainland: free(more destinations)
p17
aVCondition: Used
p18
asS'id'
p19
V26261493
p20
s.