(dp1
S'title'
p2
VTriple Fat Goose Mens Block Polar Fleece
p3
sS'url'
p4
Vhttp://www.ecrater.com/p/26713635/triple-fat-goose-mens-block?keywords=goose
p5
sS'price'
p6
V$91.69
p7
sS'seller'
p8
Vhttp://everythinghiphop.ecrater.com
p9
sS'description_links'
p10
VTriple Fat Goose Mens Block Polar Fleece
p11
sS'images'
p12
(lp13
sS'shipping_info'
p14
(lp15
VOnly 1 available
p16
aVShipping:US-Mainland: $14.99(more destinations)
p17
aVCondition: Used
p18
asS'id'
p19
V26713635
p20
s.