(dp1
S'title'
p2
VSleeping Bag Mummy Bag Single -15 to -10 Degrees Celsius Goose Down 900g Hiking / Camping / Beach
p3
sS'url'
p4
Vhttp://www.ecrater.com/p/26744776/sleeping-bag-mummy-single-15-to-10-degrees?keywords=goose
p5
sS'price'
p6
V$247.19
p7
sS'seller'
p8
Vhttp://esport.ecrater.com
p9
sS'description_links'
p10
VSpecificationsSpecification: Category: Sleeping Bag,Function: Oversized,Ultra Light(UL),Compression,Keep Warm,Activity: Traveling,Beach,Camping,Hiking,Indoor,Outdoor,Hunting,Net Weight (kg): 1.31kg,Color: Black,Season: Winter,Users: Unisex,Fabric: Nylon,Material: Nylon,Filler: Goose Down,Package Content: 1 Mesh Storage Cell,1 Bag,Filling Weight: 900g,Brand#: HIGHROCK,Fill power: FP550,Size: 1.8M-2.0M,Fits up to (cm): 184 - 201,171 - 183,Length (cm): 203cm,Quantity: 1 person,Stuffsack Size: 22cm*34cm,Width (cm): 80cm,Sleeping Bags: Sleeping Bag Shape: Mummy Bag,Sleeping Bag Size: Single,Temperature: -10 & Lower,Lower Limit Temperature: -20,Comfort Rating Temperature: -15-10,Upper Limit Temperature: 5,Filler/Insulation Type: Goose Down,Filling Weight: 900g,Fill Power: FP550,Fill Power Range: 451-550,The Amount Of Cashmere(%): 80%,Zipper Location: Left,Shell: Ripstop nylon,Lining: Ripstop nylon,For more help,please take a look our FAQHuge sport items in my store,welcome to take a look in my store! Kindly note,If there are option(color or size),you can send your choice via note or email after finish the order,and if no choice,we will ship the default(The product as first picture) to you.It's good for delivery when there are contact phone numbers,if you aren't sure the pick-up address.There is "contact us" link on the upper right of product page,You can contact us via the link.
p11
sS'images'
p12
(lp13
sS'shipping_info'
p14
(lp15
VMore than 10 available
p16
aVShipping:US-Mainland: $5.00(more destinations)
p17
aVCondition: Brand new
p18
asS'id'
p19
V26744776
p20
s.