(dp1
S'title'
p2
VSleeping Bag Mummy Bag Single -5 Goose Down 800g 215X80 Hiking Camping Waterproof Keep Warm Beckle
p3
sS'url'
p4
Vhttp://www.ecrater.com/p/26744740/sleeping-bag-mummy-single-5-goose?keywords=goose
p5
sS'price'
p6
V$119.19
p7
sS'seller'
p8
Vhttp://esport.ecrater.com
p9
sS'description_links'
p10
VSpecificationsSpecification: Category: Sleeping Bag,Function: Waterproof,Keep Warm,Activity: Camping,Hiking,Tent Structure: Single,Color: Orange,Blue,Red,Season: Winter,Autumn,Spring,Users: Adult,Fabric Denier: 320T,Brand#: Beckles,Stuffsack Size: 40*35*25,Sleeping Bags: Sleeping Bag Shape: Mummy Bag,Sleeping Bag Size: Single,Temperature: -10 to +10,Lower Limit Temperature: -10,Comfort Rating Temperature: -5,Upper Limit Temperature: 10,Filler/Insulation Type: Goose Down,Filling Weight: 800g,The Amount Of Cashmere(%): 95%,Length (cm): 215,Shoulder Girth (cm): 80,Hip Girth (cm): 50,For more help,please take a look our FAQHuge sport items in my store,welcome to take a look in my store! Kindly note,If there are option(color or size),you can send your choice via note or email after finish the order,and if no choice,we will ship the default(The product as first picture) to you.It's good for delivery when there are contact phone numbers,if you aren't sure the pick-up address.There is "contact us" link on the upper right of product page,You can contact us via the link.
p11
sS'images'
p12
(lp13
sS'shipping_info'
p14
(lp15
VMore than 10 available
p16
aVShipping:US-Mainland: $5.00(more destinations)
p17
aVCondition: Brand new
p18
asS'id'
p19
V26744740
p20
s.