(dp1
S'title'
p2
V1997  BING & GRONDAHL B&G; MOTHER'S GOOSE & GOSLINGS
p3
sS'url'
p4
Vhttp://www.ecrater.com/p/27118489/1997-bing-grondahl-bg-mothers-goose?keywords=goose
p5
sS'price'
p6
V$95.00
p7
sS'seller'
p8
Vhttp://finesilver4u.ecrater.com
p9
sS'description_links'
p10
V1997BING AND GRONDAHLMOTHER'S DAYPLATEGOOSE AND GOSLINGS6 INCHES EXCELLENT CONDITIONSales tax charged if sent to IL 6.25% or WI 5.1%
p11
sS'images'
p12
(lp13
sS'shipping_info'
p14
(lp15
VOnly 1 available
p16
aVShipping:US-Mainland: $7.50(more destinations)
p17
aVCondition: Used
p18
asS'id'
p19
V27118489
p20
s.