(dp1
S'title'
p2
Vhoward hughes autograph spruce goose print w/crew signatures also
p3
sS'url'
p4
S'http://www.ebay.com/itm/Howard-Hughes-autograph-Spruce-Goose-Print-w-Crew-signatures-also-/281505485393?hash=item418b08d251:g:lA8AAOSwj0NUb5cw'
p5
sS'price'
p6
VUS $10,000.00
p7
sS'seller'
p8
(dp9
g4
Vhttp://www.ebay.com/usr/poshjewelrynloan?_trksid=p2047675.l2559
p10
sS'name'
p11
V poshjewelrynloan
p12
ssS'description_links'
p13
(lp14
Vhttp://vi.vipr.ebaydesc.com/ws/eBayISAPI.dll?ViewItemDescV4&item=281505485393&t=1414639168000&tid=10&category=58&seller=poshjewelrynloan&excSoj=1&excTrk=1&lsite=0&ittenable=false&domain=ebay.com&descgauge=1
p15
asS'images'
p16
(lp17
(dp18
S'maxImageUrl'
p19
Vhttp://i.ebayimg.com/images/g/lA8AAOSwj0NUb5cw/s-l1600.jpg
p20
sS'displayImgUrl'
p21
Vhttp://i.ebayimg.com/images/g/lA8AAOSwj0NUb5cw/s-l300.jpg
p22
sa(dp23
g19
Vhttp://i.ebayimg.com/images/g/G80AAOSwAL9Ub5c0/s-l1600.jpg
p24
sg21
Vhttp://i.ebayimg.com/images/g/G80AAOSwAL9Ub5c0/s-l300.jpg
p25
sa(dp26
g19
Vhttp://i.ebayimg.com/images/g/vPAAAOSwaNBUb5c4/s-l1600.jpg
p27
sg21
Vhttp://i.ebayimg.com/images/g/vPAAAOSwaNBUb5c4/s-l300.jpg
p28
sa(dp29
g19
Vhttp://i.ebayimg.com/images/g/vV0AAOSwaNBUb5c9/s-l1600.jpg
p30
sg21
Vhttp://i.ebayimg.com/images/g/vV0AAOSwaNBUb5c9/s-l300.jpg
p31
sasS'shipping_info'
p32
(dp33
S'item_location'
p34
(lp35
V\u000aSan Diego, California, United States
p36
asS'delivery'
p37
(lp38
VVaries
p39
asS'posts_to'
p40
(lp41
VLocal pick-up only
p42
assS'id'
p43
S'281505485393'
p44
s.