(dp1
S'title'
p2
V\u000amen's luxury goose down leather coat jacket \u000a
p3
sS'url'
p4
Vhttp://www.ioffer.com/i/men-s-luxury-goose-down-leather-coat-jacket-606729354
p5
sS'price'
p6
V$450.00
p7
sS'seller'
p8
(lp9
sS'description_links'
p10
Vbrand new with tags size M-XXL 100% leather ,100% goose down
p11
sS'images'
p12
(lp13
Vhttp://cdn.iofferphoto.com/img/item/606/729/354/t_men-s-luxury-goose-down-leather-coat-jacket-d5b9.jpg
p14
aVhttp://cdn.iofferphoto.com/img/item/606/729/354/t_men-s-luxury-goose-down-leather-coat-jacket-5661.jpg
p15
aVhttp://cdn.iofferphoto.com/img/item/606/729/354/t_men-s-luxury-goose-down-leather-coat-jacket-4f6a.jpg
p16
aVhttp://cdn.iofferphoto.com/img/item/606/729/354/t_men-s-luxury-goose-down-leather-coat-jacket-f230.jpg
p17
asS'shipping_info'
p18
VAvailable ColorsAvailable SizesSizesMediumLargeX-LargeXXLEstimated Shipping1 - 3 Days
p19
sS'id'
p20
V606729354_1497077917
p21
s.