(dp1
S'title'
p2
V\u000amen's luxury calfskin goose down coat \u000a
p3
sS'url'
p4
Vhttp://www.ioffer.com/i/men-s-luxury-calfskin-goose-down-coat-610138032
p5
sS'price'
p6
V$530.00
p7
sS'seller'
p8
(lp9
sS'description_links'
p10
Vbrand new with tags 100% leather and 100% goose down
p11
sS'images'
p12
(lp13
Vhttp://cdn.iofferphoto.com/img/item/610/138/032/t_men-s-luxury-calfskin-goose-down-coat-0f29.jpg
p14
aVhttp://cdn.iofferphoto.com/img/item/610/138/032/t_men-s-luxury-calfskin-goose-down-coat-1c39.jpg
p15
aVhttp://cdn.iofferphoto.com/img/item/610/138/032/t_men-s-luxury-calfskin-goose-down-coat-77b8.jpg
p16
asS'shipping_info'
p17
VAvailable ColorsAvailable SizesSizesMediumLargeX-LargeXXL3XLEstimated Shipping1 - 3 Days
p18
sS'id'
p19
V610138032_1497077910
p20
s.