(dp1
S'title'
p2
V\u000amen's luxury leather goose down coat \u000a
p3
sS'url'
p4
Vhttp://www.ioffer.com/i/men-s-luxury-leather-goose-down-coat-612295362
p5
sS'price'
p6
V$385.00
p7
sS'seller'
p8
(lp9
sS'description_links'
p10
Vsize  shoulder bust  sleeve  length M        47         112   63.5     66 L        49         119    64.5     68 XL      51         126    65.5     70 2XL   53          133    66.5     71 100% leather ,rabbit fur color as pictures
p11
sS'images'
p12
(lp13
Vhttp://cdn.iofferphoto.com/img/item/612/295/362/t_men-s-luxury-leather-goose-down-coat-4576.jpg
p14
aVhttp://cdn.iofferphoto.com/img/item/612/295/362/t_men-s-luxury-leather-goose-down-coat-eff0.jpg
p15
aVhttp://cdn.iofferphoto.com/img/item/612/295/362/t_men-s-luxury-leather-goose-down-coat-e68e.jpg
p16
asS'shipping_info'
p17
VAvailable ColorsAvailable SizesSizesMediumLargeX-LargeXXLEstimated Shipping1 - 3 Days
p18
sS'id'
p19
V612295362_1497077932
p20
s.