(dp1
S'title'
p2
V\u000amen's calfskin leather goose down jacket \u000a
p3
sS'url'
p4
Vhttp://www.ioffer.com/i/men-s-calfskin-leather-goose-down-jacket-612296384
p5
sS'price'
p6
V$380.00
p7
sS'seller'
p8
(lp9
sS'description_links'
p10
Vsize   shoulder  bust   sleeve  length M        50          110     63        82L         51          116     64        83XL      52           120     65       84XXL    53          126     66        85100% leather weight 2.6KG
p11
sS'images'
p12
(lp13
Vhttp://cdn.iofferphoto.com/img/item/612/296/384/t_men-s-calfskin-leather-goose-down-jacket-2f70.jpg
p14
aVhttp://cdn.iofferphoto.com/img/item/612/296/384/t_men-s-calfskin-leather-goose-down-jacket-7c88.jpg
p15
aVhttp://cdn.iofferphoto.com/img/item/612/296/384/t_men-s-calfskin-leather-goose-down-jacket-33ce.jpg
p16
aVhttp://cdn.iofferphoto.com/img/item/612/296/384/t_men-s-calfskin-leather-goose-down-jacket-42aa.jpg
p17
asS'shipping_info'
p18
VAvailable ColorsAvailable SizesSizesMediumLargeX-LargeXXLEstimated Shipping1 - 3 Days
p19
sS'id'
p20
V612296384_1497077936
p21
s.