(dp1
S'title'
p2
V\u000a2016 fox fur collar female thick white goose down jacke\u000a
p3
sS'url'
p4
Vhttp://www.ioffer.com/i/2016-fox-fur-collar-female-thick-white-goose-down-jacke-612915556
p5
sS'price'
p6
V$660.00
p7
sS'seller'
p8
(lp9
sS'description_links'
p10
Vdetail.1688.com/offer/523872081738.html?spm=a2615.7691456.0.0.JQGbHU
p11
sS'images'
p12
(lp13
Vhttp://cdn.iofferphoto.com/img3/item/612/915/556/t_2016-fox-fur-collar-female-thick-white-goose-down-jacke-c6da.jpg
p14
aVhttp://cdn.iofferphoto.com/img3/item/612/915/556/t_2016-fox-fur-collar-female-thick-white-goose-down-jacke-c917.jpg
p15
aVhttp://cdn.iofferphoto.com/img3/item/612/915/556/t_2016-fox-fur-collar-female-thick-white-goose-down-jacke-9859.jpg
p16
aVhttp://cdn.iofferphoto.com/img3/item/612/915/556/t_2016-fox-fur-collar-female-thick-white-goose-down-jacke-8b9a.jpg
p17
aVhttp://cdn.iofferphoto.com/img3/item/612/915/556/t_2016-fox-fur-collar-female-thick-white-goose-down-jacke-0721.jpg
p18
aVhttp://cdn.iofferphoto.com/img3/item/612/915/556/t_2016-fox-fur-collar-female-thick-white-goose-down-jacke-fba0.jpg
p19
aVhttp://cdn.iofferphoto.com/img3/item/612/915/556/t_2016-fox-fur-collar-female-thick-white-goose-down-jacke-4915.jpg
p20
asS'shipping_info'
p21
VAvailable ColorsAvailable SizesSizesX-SmallSmallMediumLargeX-LargeXXLEstimated Shipping1 - 3 Days
p22
sS'id'
p23
V612915556_1497077870
p24
s.