(dp1
S'title'
p2
V\u000aBLACK MALE GOOSE EYE MOUNTAIN JACKET\u000a
p3
sS'url'
p4
Vhttp://www.ioffer.com/i/black-male-goose-eye-mountain-jacket-637649232
p5
sS'price'
p6
V$650.00
p7
sS'seller'
p8
(lp9
sS'description_links'
p10
(lp11
sS'images'
p12
(lp13
Vhttp://cdn.iofferphoto.com/img/item/637/649/232/t_black-male-goose-eye-mountain-jacket-ad19.jpg
p14
aVhttp://cdn.iofferphoto.com/img/item/637/649/232/t_black-male-goose-eye-mountain-jacket-8f2a.jpg
p15
aVhttp://cdn.iofferphoto.com/img/item/637/649/232/t_black-male-goose-eye-mountain-jacket-5db6.jpg
p16
aVhttp://cdn.iofferphoto.com/img/item/637/649/232/t_black-male-goose-eye-mountain-jacket-46da.jpg
p17
asS'shipping_info'
p18
VAvailable ColorsAvailable SizesSizesSmallMediumLargeEstimated Shipping15 - 20 Days
p19
sS'id'
p20
V637649232_1497077883
p21
s.