(dp1
S'title'
p2
V\u000aGolden Goose fashion women's leather sneakers shoes\u000a
p3
sS'url'
p4
Vhttp://www.ioffer.com/i/golden-goose-fashion-women-s-leather-sneakers-shoes-637776267
p5
sS'price'
p6
V$100.00
p7
sS'seller'
p8
(lp9
sS'description_links'
p10
VWelcome to my shop: bestseller1145 --------------------------------------------------------------------------------Brand: see the picture. --------------------------------------------------------------------------------Need more goods, please pay attention: https: //www.ioffer.com/selling/bestseller1145 --------------------------------------------------------------------------------Payment: 1: paypal: 2: Credit Card: 3: Western Union --------------------------------------------------------------------------------When you have any questions or need, You can always contact me, I will give you a perfect answer! --------------------------------------------------------------------------------Thanks for your bidding!have a nice day!
p11
sS'images'
p12
(lp13
Vhttp://cdn.iofferphoto.com/img3/item/637/776/267/t_golden-goose-fashion-women-s-leather-sneakers-shoes-f713.jpg
p14
aVhttp://cdn.iofferphoto.com/img3/item/637/776/267/t_golden-goose-fashion-women-s-leather-sneakers-shoes-fc5e.jpg
p15
aVhttp://cdn.iofferphoto.com/img3/item/637/776/267/t_golden-goose-fashion-women-s-leather-sneakers-shoes-ad81.jpg
p16
aVhttp://cdn.iofferphoto.com/img3/item/637/776/267/t_golden-goose-fashion-women-s-leather-sneakers-shoes-efb7.jpg
p17
aVhttp://cdn.iofferphoto.com/img3/item/637/776/267/t_golden-goose-fashion-women-s-leather-sneakers-shoes-bb45.jpg
p18
aVhttp://cdn.iofferphoto.com/img3/item/637/776/267/t_golden-goose-fashion-women-s-leather-sneakers-shoes-43b3.jpg
p19
aVhttp://cdn.iofferphoto.com/img3/item/637/776/267/t_golden-goose-fashion-women-s-leather-sneakers-shoes-403f.jpg
p20
aVhttp://cdn.iofferphoto.com/img3/item/637/776/267/t_golden-goose-fashion-women-s-leather-sneakers-shoes-aadf.jpg
p21
aVhttp://cdn.iofferphoto.com/img3/item/637/776/267/t_golden-goose-fashion-women-s-leather-sneakers-shoes-f08a.jpg
p22
asS'shipping_info'
p23
VAvailable ColorsAvailable SizesMen's Shoe SizesUSA66.577.588.599.51010.51111.51212.513UK5.566.577.588.599.51010.51111.51212.5European3939.54040.54141.54242.54343.54444.54545.546Japan2424.52525.52626.52727.52828.52929.53030.531Estimated Shipping1 - 3 Days
p24
sS'id'
p25
V637776267_1497077891
p26
s.