(dp1
S'title'
p2
VClawfoot tub Faucet with goose neck for claw foot tubs
p3
sS'url'
p4
Vhttp://www.ecrater.com/p/8362102/clawfoot-tub-faucet-with-goose-neck-for?keywords=goose
p5
sS'price'
p6
V$163.95
p7
sS'seller'
p8
Vhttp://clawfootalley.ecrater.com
p9
sS'description_links'
p10
VNew in the box. Clawfoot tub faucet with 3 3/8 center to center 3/4 IPS inlets. This faucet has 1/4 turn cartridges This faucet has a code approved spout. Heavy brass faucet with triple chrome plated finish. It has porcelain lever handles with \u201cHOT\u201d or \u201cCOLD\u201d on the handles. This faucet is made for tub-wall mount. One nice looking faucet; Ready to make that clawfoot tub stand out. If you want offset bath supplies or Drain kit looking in our store.Thanks for looking Powered by eCRATER
p11
sS'images'
p12
(lp13
sS'shipping_info'
p14
(lp15
VOnly 1 available
p16
aVShipping:US-Mainland: $9.95(more destinations)
p17
aVSales Tax: Washington: 9.5%
p18
aVCondition: Brand new
p19
asS'id'
p20
V8362102
p21
s.