(dp1
S'title'
p2
VBar Headed Goose 
p3
sS'url'
p4
Vhttp://store.yahoo.com/yhst-66562580642243/bar-headed-goose-reference-photo-disc.html
p5
sS'price'
p6
(lp7
sS'seller'
p8
(lp9
sS'description_links'
p10
VBar Headed Goose Photo Reference Cd
p11
sS'images'
p12
(lp13
Vhttp://ep.yimg.com/ca/I/yhst-66562580642243_2251_93395368
p14
asS'shipping_info'
p15
(lp16
sS'id'
p17
Vbar-headed-goose-reference-photo-disc_1497077840
p18
s.