(dp1
S'title'
p2
VCape Barren Goose
p3
sS'url'
p4
Vhttp://store.yahoo.com/yhst-66562580642243/cape-barren-goose.html
p5
sS'price'
p6
(lp7
sS'seller'
p8
(lp9
sS'description_links'
p10
VCape Barren Goose Photo Reference Cd
p11
sS'images'
p12
(lp13
Vhttp://ep.yimg.com/ca/I/yhst-66562580642243_2251_99729159
p14
asS'shipping_info'
p15
(lp16
sS'id'
p17
Vcape-barren-goose_1497077848
p18
s.