(dp1
S'title'
p2
V14K YELLOW GOLD PENDANT ELK TOOTH MOOSE ALCE FRATERNITY STAR MEMBER ELITE 5.8DWT
p3
sS'url'
p4
Vhttp://www.ecrater.com/p/18985818/14k-yellow-gold-pendant-elk?keywords=elk
p5
sS'price'
p6
V$735.00
p7
sS'seller'
p8
Vhttp://morningstarsjewelers.ecrater.com
p9
sS'description_links'
p10
VMorningstarJewelers Store        14K YELLOW GOLD PENDANT ELK TOOTH MOOSE ALCE FRATERNITY STAR MEMBER ELITE 5.8DWT  We are offering this 14kt YellowGoldElk ToothType: 14ktYellow GoldElk Tooth PendantWeight:5.8dwtMetal: 14kt Yellow Gold Measures: 1.5 inch lengthX 0.8 INCH wideapproxPrice: $735.00* Please Ask about Engraving Cost if you will like to engraved something on the backin case of return we charge 10% restocking fee      On Nov-07-13 at 00:34:58 PST, seller added the following information:Every buyer gets a MyStoreRewards invitation for cash back
p11
sS'images'
p12
(lp13
sS'shipping_info'
p14
(lp15
VOnly 1 available
p16
aVShipping:US-Mainland: $20.00(more destinations)
p17
aVCondition: Used
p18
asS'id'
p19
V18985818
p20
s.