(dp1
S'title'
p2
VWildlife Pair of Elk Running Bronze Sculpture
p3
sS'url'
p4
Vhttp://www.ecrater.com/p/20204884/wildlife-pair-of-elk-running-bronze?keywords=elk
p5
sS'price'
p6
V$550.00
p7
sS'seller'
p8
Vhttp://oasgallerygroup.ecrater.com
p9
sS'description_links'
p10
VElk Pair Bronze Sculpture After Barye 13H x 12W x 9D 22 lbs.  This is a solid bronze sculpture on a marble base.  This bronze was crafted using the "Lost Wax Casting" process.   Lost-Wax casting is the process by which a reproduction sculpture is cast from an original sculpture creating museum quality fine art sculptures.OASsm694. ~For International shipments please contact us For a shipping quote.
p11
sS'images'
p12
(lp13
Vhttp://s.ecrater.com/stores/331945/53b593e9d4404_331945b.jpg
p14
asS'shipping_info'
p15
(lp16
VMore than 10 available
p17
aVShipping:US-Mainland: free(more destinations)
p18
aVCondition: Brand new
p19
asS'id'
p20
V20204884
p21
s.