(dp1
S'title'
p2
VArt & Project # GER van ELK , bulletin 33 # 1971, nm
p3
sS'url'
p4
Vhttp://www.ecrater.com/p/20333224/art-project-ger-van-elk?keywords=elk
p5
sS'price'
p6
V$99.00
p7
sS'seller'
p8
Vhttp://ftnbooks.ecrater.com
p9
sS'description_links'
p10
VArt & Project # GER van ELK , bulletin 33 # 1971, nm                                                                              Item  Description            FLIGHT TO NEVERLAND BOOKS & Collectibles productArtist/ Author: Ger van ElkTitle : Ger van Elk, Bulletin 33Publisher: Art & Project, 1971Number of pages: 4 pagesText / Language: project text in englishMeasurements: 11.7 x 8.3 inchesCondition: near mintextra information on this item:This in one of the extremely rare bullteins by Art & Project. FREE shipping within Europe. For shipping destinations outside Europe please calculate an additional $ 4,00For a complete overview of all my products please select in the eCRATER search options preference -> location for WORLDWIDE. This way the list includes all Flight To Neverland products started on eCRATER.com and eCRATER.nl and/or please add me to your favourite sellers list. This way you are always sure to receive notification of my products and store listings.                           Shipping & Payment          Payment with Paypal . PAYMENT MUST BE RECEIVED WITHIN TEN DAYS OF WINNER NOTIFICATION. Please email any special requirements before looking. A confirmation email of your win will normally be sent within 24 hours of your winning buyI wrap all items securely and use special packaging material for your win and ship within 48 hours of your payment. FREE shipping within Europe. For shipping destinations outside Europe please calculate an additional $ 4,00 THANKS FOR looking IN MY productS!                     Click Images to Enlarge                                                         inkfrog terapeaki000000inkFrog Analytics
p11
sS'images'
p12
(lp13
Vhttp://s.ecrater.com/stores/88556/53d8a4f9ab57c_88556b.jpg
p14
asS'shipping_info'
p15
(lp16
VOnly 1 available
p17
aVShipping:US-Mainland: free(more destinations)
p18
aVCondition: Used
p19
asS'id'
p20
V20333224
p21
s.