(dp1
S'title'
p2
V14K GOLD ALASKA CHARM - ELK #5350
p3
sS'url'
p4
Vhttp://www.ecrater.com/p/24256684/14k-gold-alaska-charm-elk-5350?keywords=elk
p5
sS'price'
p6
V$238.00
p7
sS'seller'
p8
Vhttp://golden-charms.ecrater.com
p9
sS'description_links'
p10
V14K GOLD ALASKA CHARM - ELK #5350Dimensions are 23 x 20 mm (height by width)Weights and dimensions are approximate,14K Solid Gold - 3.5 gmOur 14k Gold Charm Comes in Beautiful Jewelry BoxAll Our Gold Jewelry is Made in USA
p11
sS'images'
p12
(lp13
sS'shipping_info'
p14
(lp15
VMore than 10 available
p16
aVShipping:US-Mainland: free(more destinations)
p17
aVCondition: Brand new
p18
asS'id'
p19
V24256684
p20
s.