(dp1
S'title'
p2
V14K GOLD CHRISTMAS CHARM - ELK #5489
p3
sS'url'
p4
Vhttp://www.ecrater.com/p/24393230/14k-gold-christmas-charm-elk-5489?keywords=elk
p5
sS'price'
p6
V$146.00
p7
sS'seller'
p8
Vhttp://golden-charms.ecrater.com
p9
sS'description_links'
p10
V14K GOLD CHRISTMAS CHARM - ELK #5489Dimensions are 19 x 16 mm (height by width)14K Solid Gold - 2.1 gmWeights and dimensions are approximateOur 14k Gold Charm Comes in Beautiful Jewelry BoxAll Our Gold Jewelry is Made in USA
p11
sS'images'
p12
(lp13
Vhttp://s.ecrater.com/stores/371516/56d5b7bce3728_371516b.jpg
p14
asS'shipping_info'
p15
(lp16
VMore than 10 available
p17
aVShipping:US-Mainland: free(more destinations)
p18
aVCondition: Brand new
p19
asS'id'
p20
V24393230
p21
s.