(dp1
S'title'
p2
V2016 trophy bull elk hunt
p3
sS'url'
p4
S'http://www.ebay.com/itm/2016-Trophy-Bull-Elk-Hunt-/251449696698?hash=item3a8b91e1ba:g:72MAAOSwdzVXnQq9'
p5
sS'price'
p6
VUS $8,800.00
p7
sS'seller'
p8
(dp9
g4
Vhttp://www.ebay.com/usr/edenwoodranch?_trksid=p2047675.l2559
p10
sS'name'
p11
V edenwoodranch
p12
ssS'description_links'
p13
(lp14
Vhttp://vi.vipr.ebaydesc.com/ws/eBayISAPI.dll?ViewItemDescV4&item=251449696698&t=1469909856000&tid=10&category=14110&seller=edenwoodranch&excSoj=1&excTrk=1&lsite=0&ittenable=false&domain=ebay.com&descgauge=1
p15
asS'images'
p16
(lp17
(dp18
S'maxImageUrl'
p19
Vhttp://i.ebayimg.com/images/g/72MAAOSwdzVXnQq9/s-l1600.jpg
p20
sS'displayImgUrl'
p21
Vhttp://i.ebayimg.com/images/g/72MAAOSwdzVXnQq9/s-l300.jpg
p22
sa(dp23
g19
Vhttp://i.ebayimg.com/images/g/HjoAAOSwTZ1XnQrh/s-l1600.jpg
p24
sg21
Vhttp://i.ebayimg.com/images/g/HjoAAOSwTZ1XnQrh/s-l300.jpg
p25
sa(dp26
g19
Vhttp://i.ebayimg.com/images/g/ogAAAOxycmBS-8Nz/s-l1600.jpg
p27
sg21
Vhttp://i.ebayimg.com/images/g/ogAAAOxycmBS-8Nz/s-l300.jpg
p28
sa(dp29
g19
Vhttp://i.ebayimg.com/images/g/EqAAAOxyYSdS-8Wc/s-l1600.jpg
p30
sg21
Vhttp://i.ebayimg.com/images/g/EqAAAOxyYSdS-8Wc/s-l300.jpg
p31
sa(dp32
g19
Vhttp://i.ebayimg.com/images/g/EtgAAOxyYSdS-8We/s-l1600.jpg
p33
sg21
Vhttp://i.ebayimg.com/images/g/EtgAAOxyYSdS-8We/s-l300.jpg
p34
sa(dp35
g19
Vhttp://i.ebayimg.com/images/g/wswAAOxy4fVS-8Wg/s-l1600.jpg
p36
sg21
Vhttp://i.ebayimg.com/images/g/wswAAOxy4fVS-8Wg/s-l300.jpg
p37
sa(dp38
g19
Vhttp://i.ebayimg.com/images/g/2xMAAMXQlgtS-8We/s-l1600.jpg
p39
sg21
Vhttp://i.ebayimg.com/images/g/2xMAAMXQlgtS-8We/s-l300.jpg
p40
sasS'shipping_info'
p41
(dp42
S'item_location'
p43
(lp44
V\u000aWautoma, Wisconsin, United States
p45
asS'delivery'
p46
(lp47
VVaries
p48
asS'posts_to'
p49
(lp50
VUnited States
p51
assS'id'
p52
S'251449696698'
p53
s.