(dp1
S'title'
p2
VNative American Bow w/ Elk Antler Grip & Arrows Artifact Navajo RJ2
p3
sS'url'
p4
Vhttp://www.ecrater.com/p/25424589/native-american-bow-w-elk-antler?keywords=elk
p5
sS'price'
p6
V$159.95
p7
sS'seller'
p8
Vhttp://nativesunproducts.ecrater.com
p9
sS'description_links'
p10
VThis bow and arrow display has sturdy elk antler grip.Bow measures approx. 39" tip to tip, and is wrapped in dark brown leather, accented with antiqued brass upholstery type tacks.  It has antiqued imitation eagle feathers on each end.Two nicely fletched 29" arrows mounted criss-cross to the bow have bone arrowheads.Hanging beneath the arrows is a dark brown leather medicine bag decorated with horsehair.Overall, the hanging dimensions of this piece are  approx. 39" in width and 28" length A beautiful display piece for home, lodge or Cabin decor.Comes with certificate of authenticity.A nice gift idea for any collector of authentic, Native American made items.Sorry, because of the elk antler, this item is NOT available for export outside of the USA.  This includes APO addresses.
p11
sS'images'
p12
(lp13
Vhttp://s.ecrater.com/stores/97380/57f3b1f1c8a1e_97380b.jpg
p14
asS'shipping_info'
p15
(lp16
VOnly 1 available
p17
aVShipping:US-Mainland: free(more destinations)
p18
aVSales Tax: Wisconsin: 5.2%
p19
aVCondition: Brand new
p20
asS'id'
p21
V25424589
p22
s.