(dp1
S'title'
p2
VElk Antler Cribbage Board
p3
sS'url'
p4
Vhttp://www.glacierwear.com/elk-antler-cribbage-board-5703.html
p5
sS'price'
p6
V169.95
p7
sS'seller'
p8
(lp9
sS'description_links'
p10
VElk Antler Cribbage Board
p11
sS'images'
p12
(lp13
Vhttp://www.glacierwear.com/media/catalog/product/cache/1/thumbnail/500x/17f82f742ffe127f42dca9de82fb58b1/e/l/elk_antler_cribbage_board_2.jpg
p14
asS'shipping_info'
p15
VFree Shipping on $100.00+
p16
sS'id'
p17
V5703_1497063964
p18
s.