(dp1
S'title'
p2
V\u000aStarstudded Clutch in Black Elk Print Calfskin\u000a
p3
sS'url'
p4
Vhttp://www.ioffer.com/i/starstudded-clutch-in-black-elk-print-calfskin-621402761
p5
sS'price'
p6
V$265.00
p7
sS'seller'
p8
(lp9
sS'description_links'
p10
VMade of high quality grained calfskinSize about W28*H16*D5cmComes with dust bag tag care booklet
p11
sS'images'
p12
(lp13
Vhttp://cdn.iofferphoto.com/img/item/621/402/761/t_starstudded-clutch-in-black-elk-print-calfskin-d404.jpg
p14
aVhttp://cdn.iofferphoto.com/img/item/621/402/761/t_starstudded-clutch-in-black-elk-print-calfskin-6ddd.jpg
p15
aVhttp://cdn.iofferphoto.com/img/item/621/402/761/t_starstudded-clutch-in-black-elk-print-calfskin-40d4.jpg
p16
aVhttp://cdn.iofferphoto.com/img/item/621/402/761/t_starstudded-clutch-in-black-elk-print-calfskin-cb8c.jpg
p17
aVhttp://cdn.iofferphoto.com/img/item/621/402/761/t_starstudded-clutch-in-black-elk-print-calfskin-3cdc.jpg
p18
aVhttp://cdn.iofferphoto.com/img/item/621/402/761/t_starstudded-clutch-in-black-elk-print-calfskin-8295.jpg
p19
aVhttp://cdn.iofferphoto.com/img/item/621/402/761/t_starstudded-clutch-in-black-elk-print-calfskin-d5f7.jpg
p20
asS'shipping_info'
p21
VAvailable ColorsAvailable SizesSizesLargeStarstudded clutch in black elk print calfskinMirror Designer Starstudded Clutch In Black Grain LeatherEstimated Shipping5 - 10 Days
p22
sS'id'
p23
V621402761_1497064038
p24
s.