(dp1
S'title'
p2
V\u000aThe new stamp bangalor Dinner Bag elk\u000a
p3
sS'url'
p4
Vhttp://www.ioffer.com/i/the-new-stamp-bangalor-dinner-bag-elk-627443563
p5
sS'price'
p6
V$259.00
p7
sS'seller'
p8
(lp9
sS'description_links'
p10
Vszx:17/11/6cm                XZH-0520
p11
sS'images'
p12
(lp13
Vhttp://cdn.iofferphoto.com/img3/item/627/443/563/t_the-new-stamp-bangalor-dinner-bag-elk-0d92.jpg
p14
aVhttp://cdn.iofferphoto.com/img3/item/627/443/563/t_the-new-stamp-bangalor-dinner-bag-elk-e4c9.jpg
p15
aVhttp://cdn.iofferphoto.com/img3/item/627/443/563/t_the-new-stamp-bangalor-dinner-bag-elk-5d50.jpg
p16
aVhttp://cdn.iofferphoto.com/img3/item/627/443/563/t_the-new-stamp-bangalor-dinner-bag-elk-d2ab.jpg
p17
aVhttp://cdn.iofferphoto.com/img3/item/627/443/563/t_the-new-stamp-bangalor-dinner-bag-elk-a152.jpg
p18
aVhttp://cdn.iofferphoto.com/img3/item/627/443/563/t_the-new-stamp-bangalor-dinner-bag-elk-cfe4.jpg
p19
aVhttp://cdn.iofferphoto.com/img3/item/627/443/563/t_the-new-stamp-bangalor-dinner-bag-elk-052b.jpg
p20
aVhttp://cdn.iofferphoto.com/img3/item/627/443/563/t_the-new-stamp-bangalor-dinner-bag-elk-3c5f.jpg
p21
aVhttp://cdn.iofferphoto.com/img3/item/627/443/563/t_the-new-stamp-bangalor-dinner-bag-elk-8b68.jpg
p22
aVhttp://cdn.iofferphoto.com/img3/item/627/443/563/t_the-new-stamp-bangalor-dinner-bag-elk-dc7b.jpg
p23
asS'shipping_info'
p24
VAvailable ColorsAvailable SizesSizesMedium17/11/6cm17/11/6cmEstimated Shipping3 - 5 Days
p25
sS'id'
p26
V627443563_1497064033
p27
s.