(dp1
S'title'
p2
V\u000a2016 new elk Crossbody handbag\u000a
p3
sS'url'
p4
Vhttp://www.ioffer.com/i/2016-new-elk-crossbody-handbag-627521327
p5
sS'price'
p6
V$259.00
p7
sS'seller'
p8
(lp9
sS'description_links'
p10
Vsize\uff1a17/11/6cm            xzh-0520
p11
sS'images'
p12
(lp13
Vhttp://cdn.iofferphoto.com/img3/item/627/521/327/t_2016-new-elk-crossbody-handbag-6305.jpg
p14
aVhttp://cdn.iofferphoto.com/img3/item/627/521/327/t_2016-new-elk-crossbody-handbag-9c09.jpg
p15
aVhttp://cdn.iofferphoto.com/img3/item/627/521/327/t_2016-new-elk-crossbody-handbag-cf93.jpg
p16
aVhttp://cdn.iofferphoto.com/img3/item/627/521/327/t_2016-new-elk-crossbody-handbag-79cc.jpg
p17
aVhttp://cdn.iofferphoto.com/img3/item/627/521/327/t_2016-new-elk-crossbody-handbag-06c1.jpg
p18
aVhttp://cdn.iofferphoto.com/img3/item/627/521/327/t_2016-new-elk-crossbody-handbag-6bda.jpg
p19
aVhttp://cdn.iofferphoto.com/img3/item/627/521/327/t_2016-new-elk-crossbody-handbag-6a18.jpg
p20
aVhttp://cdn.iofferphoto.com/img3/item/627/521/327/t_2016-new-elk-crossbody-handbag-8f0c.jpg
p21
aVhttp://cdn.iofferphoto.com/img3/item/627/521/327/t_2016-new-elk-crossbody-handbag-2c2a.jpg
p22
asS'shipping_info'
p23
VAvailable ColorsAvailable SizesSizesMedium17/11/6cm17/11/6cmEstimated Shipping3 - 5 Days
p24
sS'id'
p25
V627521327_1497064028
p26
s.