(dp1
S'title'
p2
VELK LEATHER/BUCKSKIN (Coffee-Bean)
p3
sS'url'
p4
Vhttp://www.glacierwear.com/elk-leather-buckskin-coffee-bean.html
p5
sS'price'
p6
V49
p7
sS'seller'
p8
(lp9
sS'description_links'
p10
Vlth1448\u2022 European Elk/Red Stag \u2022 Coffee-Bean Color\u2022 Natural Top Grain Finish\u2022 Approximate Weight\u20142-3 oz. \u2022 Select Quality/Farm Raised
p11
sS'images'
p12
(lp13
Vhttp://www.glacierwear.com/media/catalog/product/cache/1/thumbnail/500x/17f82f742ffe127f42dca9de82fb58b1/i/m/image001_2.png
p14
asS'shipping_info'
p15
VFree Shipping on $100.00+
p16
sS'id'
p17
Vbean_1497063996
p18
s.