(dp1
S'title'
p2
V2010 Topps Finest Rookie Card #59 Jahvid Best Lions NMT-MT
p3
sS'url'
p4
Vhttp://www.ecrater.com/p/16219595/2010-topps-finest-rookie-card-59-jahvid?keywords=mt+lion
p5
sS'price'
p6
V$0.75
p7
sS'seller'
p8
Vhttp://benshobbies.ecrater.com
p9
sS'description_links'
p10
VUp for sale is a 2010 Topps Finest Rookie Card #59 Jahvid Best Lions.  The card is in NMT-MT condition.Shipping is $2.99 inside the USA & 3.99 in Canada.  I will combine shipping at  no additional charge.  I will refund shipping on purchases over $15.00.Please check out my other items!  I'd love to do business with you soon!
p11
sS'images'
p12
(lp13
Vhttp://s.ecrater.com/stores/262679/507d5b9b7f02a_262679b.jpg
p14
asS'shipping_info'
p15
(lp16
VOnly 1 available
p17
aVShipping:US-Mainland: $2.00(more destinations)
p18
aVCondition: Brand new
p19
asS'id'
p20
V16219595
p21
s.