(dp1
S'title'
p2
V\u000aMen's Lion Stainless Steel Ring Jewelry Gift New 074131\u000a
p3
sS'url'
p4
Vhttp://www.ioffer.com/i/men-s-lion-stainless-steel-ring-jewelry-gift-new-074131-545154900
p5
sS'price'
p6
V$19.00
p7
sS'seller'
p8
(lp9
sS'description_links'
p10
VMaterial: stainless steelSize: Ring wide 30mm, size 8-13..Packing: ordinary plastic bags  shipping 1)free shipping, china post or hongkong post, it will take 15-30days. 2)fast shipping,by EMS/DHL, it will take 5-7days,but need to pay $20. please read this shipping before buy it. thanks a lot save money 1)buy more can have some discount 2-5 items, have 5% off. 6-10 items,have 10% off. 11-20 items ,have 15%off.
p11
sS'images'
p12
(lp13
Vhttp://cdn.iofferphoto.com/img3/item/545/154/900/t_men-s-lion-stainless-steel-ring-jewelry-gift-new-074131-dc02.jpg
p14
aVhttp://cdn.iofferphoto.com/img3/item/545/154/900/t_men-s-lion-stainless-steel-ring-jewelry-gift-new-074131-fca0.jpg
p15
asS'shipping_info'
p16
VShipping timeFree Shipping Usually Need 15 30 Days, So If You Want To Get It Soon, and Please Choose Fast Shipping.Estimated Shipping15 - 20 Days
p17
sS'id'
p18
V545154900_1497037551
p19
s.