(dp1
S'title'
p2
V\u000aMen's Lion Stainless Steel Ring Jewelry Gift New \u000a
p3
sS'url'
p4
Vhttp://www.ioffer.com/i/men-s-lion-stainless-steel-ring-jewelry-gift-new-606783520
p5
sS'price'
p6
V$7.00
p7
sS'seller'
p8
(lp9
sS'description_links'
p10
V...
p11
sS'images'
p12
(lp13
Vhttp://cdn.iofferphoto.com/img3/item/606/783/520/t_men-s-lion-stainless-steel-ring-jewelry-gift-new-1ddc.jpg
p14
aVhttp://cdn.iofferphoto.com/img3/item/606/783/520/t_men-s-lion-stainless-steel-ring-jewelry-gift-new-9329.jpg
p15
asS'shipping_info'
p16
VAvailable ColorsEstimated Shipping3 - 5 Days
p17
sS'id'
p18
V606783520_1497037544
p19
s.