(dp1
S'title'
p2
V\u000aNew Vintage Black Enamel Lion Head Myth Medusa Pendant \u000a
p3
sS'url'
p4
Vhttp://www.ioffer.com/i/new-vintage-black-enamel-lion-head-myth-medusa-pendant-627512829
p5
sS'price'
p6
V$25.00
p7
sS'seller'
p8
(lp9
sS'description_links'
p10
Vondition:100% Brand NewQTY:1setNote:Jewelry Boxes Color System sent at randomMaterial:alloy,CCB chainSize:as the picture showColor:as the picture showPerfect processing100% physical picture
p11
sS'images'
p12
(lp13
Vhttp://cdn.iofferphoto.com/img/item/627/512/829/t_new-vintage-black-enamel-lion-head-myth-medusa-pendant-f66b.jpg
p14
aVhttp://cdn.iofferphoto.com/img/item/627/512/829/t_new-vintage-black-enamel-lion-head-myth-medusa-pendant-5e92.jpg
p15
aVhttp://cdn.iofferphoto.com/img3/tmp/item_images/471/053/45/t_6e79.jpg
p16
asS'shipping_info'
p17
VAvailable ColorsEstimated Shipping15 - 20 Days
p18
sS'id'
p19
V627512829_1497037559
p20
s.