(dp1
S'title'
p2
V\u000aCINCINNATI ARROW 750 ERM CNC MILL VICKERS MT504A9-F9A1-\u000a
p3
sS'url'
p4
Vhttp://www.ioffer.com/i/cincinnati-arrow-750-erm-cnc-mill-vickers-mt504a9-f9a1-630553095
p5
sS'price'
p6
V$1,434.00
p7
sS'seller'
p8
(lp9
sS'description_links'
p10
V
sS'images'
p11
(lp12
Vhttp://cdn.iofferphoto.com/img/item/630/553/095/t_b4aJcincinnati-arrow-750-erm-cnc-mill-vickers-mt504a9-f9a1.jpg
p13
aVhttp://cdn.iofferphoto.com/img/item/630/553/095/t_BlrBcincinnati-arrow-750-erm-cnc-mill-vickers-mt504a9-f9a1.jpg
p14
aVhttp://cdn.iofferphoto.com/img/item/630/553/095/t_ShK8cincinnati-arrow-750-erm-cnc-mill-vickers-mt504a9-f9a1.jpg
p15
asS'shipping_info'
p16
(lp17
sS'id'
p18
V630553095_1497037576
p19
s.