(dp1
S'title'
p2
V\u000aVICKERS FAS MT SERVOMOTOR MT504A9-F9A1-071\u000a
p3
sS'url'
p4
Vhttp://www.ioffer.com/i/vickers-fas-mt-servomotor-mt504a9-f9a1-071-637052011
p5
sS'price'
p6
V$1,200.00
p7
sS'seller'
p8
(lp9
sS'description_links'
p10
V
sS'images'
p11
(lp12
Vhttp://cdn.iofferphoto.com/img/item/637/052/011/t_7wCmvickers-fas-mt-servomotor-mt504a9-f9a1-071.jpg
p13
aVhttp://cdn.iofferphoto.com/img/item/637/052/011/t_CHJJvickers-fas-mt-servomotor-mt504a9-f9a1-071.jpg
p14
aVhttp://cdn.iofferphoto.com/img/item/637/052/011/t_LJBAvickers-fas-mt-servomotor-mt504a9-f9a1-071.jpg
p15
aVhttp://cdn.iofferphoto.com/img/item/637/052/011/t_wRWUvickers-fas-mt-servomotor-mt504a9-f9a1-071.jpg
p16
asS'shipping_info'
p17
(lp18
sS'id'
p19
V637052011_1497037581
p20
s.