(dp1
S'title'
p2
V\u000aVICKERS FAS MT SERVO MOTOR MT502A9-F9A3-071 MT502A9F9A3\u000a
p3
sS'url'
p4
Vhttp://www.ioffer.com/i/vickers-fas-mt-servo-motor-mt502a9-f9a3-071-mt502a9f9a3-637471948
p5
sS'price'
p6
V$1,125.00
p7
sS'seller'
p8
(lp9
sS'description_links'
p10
V
sS'images'
p11
(lp12
Vhttp://cdn.iofferphoto.com/img/item/637/471/948/t_22Ylvickers-fas-mt-servo-motor-mt502a9-f9a3-071-mt502a9f9a3.jpg
p13
aVhttp://cdn.iofferphoto.com/img/item/637/471/948/t_A14Nvickers-fas-mt-servo-motor-mt502a9-f9a3-071-mt502a9f9a3.jpg
p14
aVhttp://cdn.iofferphoto.com/img/item/637/471/948/t_nDePvickers-fas-mt-servo-motor-mt502a9-f9a3-071-mt502a9f9a3.jpg
p15
asS'shipping_info'
p16
(lp17
sS'id'
p18
V637471948_1497037590
p19
s.