(dp1
S'title'
p2
V\u000aYASKAWA CIRCUIT BOARD VARISPEED 505MT JPDC-C019 ETC0025\u000a
p3
sS'url'
p4
Vhttp://www.ioffer.com/i/yaskawa-circuit-board-varispeed-505mt-jpdc-c019-etc0025-637454631
p5
sS'price'
p6
V$1,500.00
p7
sS'seller'
p8
(lp9
sS'description_links'
p10
V
sS'images'
p11
(lp12
Vhttp://cdn.iofferphoto.com/img3/item/637/454/631/t_7p6Nyaskawa-circuit-board-varispeed-505mt-jpdc-c019-etc0025.jpg
p13
aVhttp://cdn.iofferphoto.com/img3/item/637/454/631/t_OSKmyaskawa-circuit-board-varispeed-505mt-jpdc-c019-etc0025.jpg
p14
aVhttp://cdn.iofferphoto.com/img3/item/637/454/631/t_dVNCyaskawa-circuit-board-varispeed-505mt-jpdc-c019-etc0025.jpg
p15
aVhttp://cdn.iofferphoto.com/img3/item/637/454/631/t_q7qbyaskawa-circuit-board-varispeed-505mt-jpdc-c019-etc0025.jpg
p16
aVhttp://cdn.iofferphoto.com/img3/item/637/454/631/t_d6jSyaskawa-circuit-board-varispeed-505mt-jpdc-c019-etc0025.jpg
p17
asS'shipping_info'
p18
(lp19
sS'id'
p20
V637454631_1497037571
p21
s.