(dp1
S'title'
p2
VCougar - Vol. 2
p3
sS'url'
p4
Vhttp://store.yahoo.com/yhst-66562580642243/cougar--vol-2.html
p5
sS'price'
p6
(lp7
sS'seller'
p8
(lp9
sS'description_links'
p10
VCougar / Mountain Lion - Vol. 2 Photo Reference Cd
p11
sS'images'
p12
(lp13
Vhttp://ep.yimg.com/ca/I/yhst-66562580642243_2251_105433032
p14
asS'shipping_info'
p15
(lp16
sS'id'
p17
Vcougar--vol-2_1497037532
p18
s.