(dp1
S'title'
p2
VCougar 
p3
sS'url'
p4
Vhttp://store.yahoo.com/yhst-66562580642243/cougar-reference-photo-disc.html
p5
sS'price'
p6
(lp7
sS'seller'
p8
(lp9
sS'description_links'
p10
VCougar / Mountain Lion Photo Reference Cd
p11
sS'images'
p12
(lp13
Vhttp://ep.yimg.com/ca/I/yhst-66562580642243_2251_104398449
p14
asS'shipping_info'
p15
(lp16
sS'id'
p17
Vcougar-reference-photo-disc_1497037535
p18
s.