(dp1
S'title'
p2
VAfrican Lion Skull Cast
p3
sS'url'
p4
Vhttp://www.boneroom.com/store/p1190/African_Lion_Skull_Cast.html
p5
sS'price'
p6
V$333.00
p7
sS'seller'
p8
(lp9
sS'description_links'
p10
VPanthera leon Felidae13.5 " in length
p11
sS'images'
p12
(lp13
Vhttp://www.boneroom.com//uploads/4/8/1/1/48118243/s521972503441136676_p1190_i1_w439.jpeg
p14
asS'shipping_info'
p15
(lp16
sS'id'
p17
Vp1190_1497037608
p18
s.