(dp1
S'title'
p2
VStellar's Sea Lion Skull Cast
p3
sS'url'
p4
Vhttp://www.boneroom.com/store/p1332/Stellar%27s_Sea_Lion_Skull_Cast.html
p5
sS'price'
p6
V$417.00
p7
sS'seller'
p8
(lp9
sS'description_links'
p10
VEumetopias stelleri14.5" in length Male
p11
sS'images'
p12
(lp13
Vhttp://www.boneroom.com//uploads/4/8/1/1/48118243/s521972503441136676_p1332_i1_w443.jpeg
p14
asS'shipping_info'
p15
(lp16
sS'id'
p17
Vp1332_1497037625
p18
s.