(dp1
S'title'
p2
Vskid steer gehl v270, bobcat, cat, kubota, gehl, mustang
p3
sS'url'
p4
S'http://www.ebay.com/itm/Skid-Steer-Gehl-V270-Bobcat-Cat-Kubota-Gehl-Mustang-/151795616818?hash=item2357b94c32:g:VdAAAOSwT6pV4KMj'
p5
sS'price'
p6
VUS $45,000.00
p7
sS'seller'
p8
(dp9
g4
Vhttp://www.ebay.com/usr/aaa.equipment?_trksid=p2047675.l2559
p10
sS'name'
p11
V aaa.equipment
p12
ssS'description_links'
p13
(lp14
Vhttp://vi.vipr.ebaydesc.com/ws/eBayISAPI.dll?ViewItemDescV4&item=151795616818&t=1496685919000&tid=10&category=95494&seller=aaa.equipment&excSoj=1&excTrk=1&lsite=0&ittenable=false&domain=ebay.com&descgauge=1
p15
asS'images'
p16
(lp17
(dp18
S'maxImageUrl'
p19
Vhttp://i.ebayimg.com/images/g/VdAAAOSwT6pV4KMj/s-l1600.jpg
p20
sS'displayImgUrl'
p21
Vhttp://i.ebayimg.com/images/g/VdAAAOSwT6pV4KMj/s-l300.jpg
p22
sasS'shipping_info'
p23
(dp24
S'item_location'
p25
(lp26
V\u000aNyack, New York, United States
p27
asS'delivery'
p28
(lp29
VVaries
p30
asS'posts_to'
p31
(lp32
VLocal pick-up only
p33
assS'id'
p34
S'151795616818'
p35
s.