(dp1
S'title'
p2
V2014 caterpillar 305.5e cr excavator - bobcat - deere - orops -  good condition!
p3
sS'url'
p4
S'http://www.ebay.com/itm/2014-CATERPILLAR-305-5E-CR-EXCAVATOR-BOBCAT-DEERE-OROPS-GOOD-CONDITION-/152571100864?hash=item2385f23ec0:g:M1kAAOSwdGFYucqS'
p5
sS'price'
p6
VUS $42,900.00
p7
sS'seller'
p8
(dp9
g4
Vhttp://www.ebay.com/usr/steve02370?_trksid=p2047675.l2559
p10
sS'name'
p11
V steve02370
p12
ssS'description_links'
p13
(lp14
Vhttp://vi.vipr.ebaydesc.com/ws/eBayISAPI.dll?ViewItemDescV4&item=152571100864&t=1487975374000&tid=10&category=97122&seller=steve02370&excSoj=1&excTrk=1&lsite=0&ittenable=false&domain=ebay.com&descgauge=1
p15
asS'images'
p16
(lp17
(dp18
S'maxImageUrl'
p19
Vhttp://i.ebayimg.com/images/g/M1kAAOSwdGFYucqS/s-l1600.jpg
p20
sS'displayImgUrl'
p21
Vhttp://i.ebayimg.com/images/g/M1kAAOSwdGFYucqS/s-l300.jpg
p22
sa(dp23
g19
Vhttp://i.ebayimg.com/images/g/07YAAOSw32lYucqX/s-l1600.jpg
p24
sg21
Vhttp://i.ebayimg.com/images/g/07YAAOSw32lYucqX/s-l300.jpg
p25
sa(dp26
g19
Vhttp://i.ebayimg.com/images/g/CCIAAOSwSlBYucqc/s-l1600.jpg
p27
sg21
Vhttp://i.ebayimg.com/images/g/CCIAAOSwSlBYucqc/s-l300.jpg
p28
sa(dp29
g19
Vhttp://i.ebayimg.com/images/g/QGMAAOSwax5Yucqh/s-l1600.jpg
p30
sg21
Vhttp://i.ebayimg.com/images/g/QGMAAOSwax5Yucqh/s-l300.jpg
p31
sa(dp32
g19
Vhttp://i.ebayimg.com/images/g/ygYAAOSwWxNYucql/s-l1600.jpg
p33
sg21
Vhttp://i.ebayimg.com/images/g/ygYAAOSwWxNYucql/s-l300.jpg
p34
sa(dp35
g19
Vhttp://i.ebayimg.com/images/g/jjEAAOSw2gxYucqs/s-l1600.jpg
p36
sg21
Vhttp://i.ebayimg.com/images/g/jjEAAOSw2gxYucqs/s-l300.jpg
p37
sa(dp38
g19
Vhttp://i.ebayimg.com/images/g/zQUAAOSwWxNYucqx/s-l1600.jpg
p39
sg21
Vhttp://i.ebayimg.com/images/g/zQUAAOSwWxNYucqx/s-l300.jpg
p40
sa(dp41
g19
Vhttp://i.ebayimg.com/images/g/EZUAAOSwB-1Yucq2/s-l1600.jpg
p42
sg21
Vhttp://i.ebayimg.com/images/g/EZUAAOSwB-1Yucq2/s-l300.jpg
p43
sa(dp44
g19
Vhttp://i.ebayimg.com/images/g/kS8AAOSw2gxYucq7/s-l1600.jpg
p45
sg21
Vhttp://i.ebayimg.com/images/g/kS8AAOSw2gxYucq7/s-l300.jpg
p46
sa(dp47
g19
Vhttp://i.ebayimg.com/images/g/x6kAAOSwuxFYucrA/s-l1600.jpg
p48
sg21
Vhttp://i.ebayimg.com/images/g/x6kAAOSwuxFYucrA/s-l300.jpg
p49
sasS'shipping_info'
p50
(dp51
S'item_location'
p52
(lp53
V\u000aNauvoo, Alabama, United States
p54
asS'delivery'
p55
(lp56
VVaries
p57
asS'posts_to'
p58
(lp59
VLocal pick-up only
p60
assS'id'
p61
S'152571100864'
p62
s.