(dp1
S'title'
p2
V2011 bobcat e80 mini excavator - caterpillar - diesel engine - good condition!!
p3
sS'url'
p4
S'http://www.ebay.com/itm/2011-BOBCAT-E80-MINI-EXCAVATOR-CATERPILLAR-DIESEL-ENGINE-GOOD-CONDITION-/201944813045?hash=item2f04d94df5:g:758AAOSwax5Y2nae'
p5
sS'price'
p6
VUS $49,900.00
p7
sS'seller'
p8
(dp9
g4
Vhttp://www.ebay.com/usr/steve02370?_trksid=p2047675.l2559
p10
sS'name'
p11
V steve02370
p12
ssS'description_links'
p13
(lp14
Vhttp://vi.vipr.ebaydesc.com/ws/eBayISAPI.dll?ViewItemDescV4&item=201944813045&t=1491402996000&tid=10&category=97122&seller=steve02370&excSoj=1&excTrk=1&lsite=0&ittenable=false&domain=ebay.com&descgauge=1
p15
asS'images'
p16
(lp17
(dp18
S'maxImageUrl'
p19
Vhttp://i.ebayimg.com/images/g/758AAOSwax5Y2nae/s-l1600.jpg
p20
sS'displayImgUrl'
p21
Vhttp://i.ebayimg.com/images/g/758AAOSwax5Y2nae/s-l300.jpg
p22
sa(dp23
g19
Vhttp://i.ebayimg.com/images/g/ji4AAOSw32lY2naY/s-l1600.jpg
p24
sg21
Vhttp://i.ebayimg.com/images/g/ji4AAOSw32lY2naY/s-l300.jpg
p25
sa(dp26
g19
Vhttp://i.ebayimg.com/images/g/R7YAAOSwSlBY2naT/s-l1600.jpg
p27
sg21
Vhttp://i.ebayimg.com/images/g/R7YAAOSwSlBY2naT/s-l300.jpg
p28
sa(dp29
g19
Vhttp://i.ebayimg.com/images/g/7JMAAOSwax5Y2naO/s-l1600.jpg
p30
sg21
Vhttp://i.ebayimg.com/images/g/7JMAAOSwax5Y2naO/s-l300.jpg
p31
sa(dp32
g19
Vhttp://i.ebayimg.com/images/g/UMEAAOSw4A5Y2naH/s-l1600.jpg
p33
sg21
Vhttp://i.ebayimg.com/images/g/UMEAAOSw4A5Y2naH/s-l300.jpg
p34
sa(dp35
g19
Vhttp://i.ebayimg.com/images/g/iX8AAOSw32lY2naC/s-l1600.jpg
p36
sg21
Vhttp://i.ebayimg.com/images/g/iX8AAOSw32lY2naC/s-l300.jpg
p37
sa(dp38
g19
Vhttp://i.ebayimg.com/images/g/wGEAAOSwXYtY2nZ8/s-l1600.jpg
p39
sg21
Vhttp://i.ebayimg.com/images/g/wGEAAOSwXYtY2nZ8/s-l300.jpg
p40
sa(dp41
g19
Vhttp://i.ebayimg.com/images/g/uX0AAOSwsW9Y2nZ3/s-l1600.jpg
p42
sg21
Vhttp://i.ebayimg.com/images/g/uX0AAOSwsW9Y2nZ3/s-l300.jpg
p43
sa(dp44
g19
Vhttp://i.ebayimg.com/images/g/XQQAAOSwdGFY2nZz/s-l1600.jpg
p45
sg21
Vhttp://i.ebayimg.com/images/g/XQQAAOSwdGFY2nZz/s-l300.jpg
p46
sa(dp47
g19
Vhttp://i.ebayimg.com/images/g/vKoAAOSwzgBY2nZp/s-l1600.jpg
p48
sg21
Vhttp://i.ebayimg.com/images/g/vKoAAOSwzgBY2nZp/s-l300.jpg
p49
sa(dp50
g19
Vhttp://i.ebayimg.com/images/g/UIAAAOSw2gxY2nZv/s-l1600.jpg
p51
sg21
Vhttp://i.ebayimg.com/images/g/UIAAAOSw2gxY2nZv/s-l300.jpg
p52
sasS'shipping_info'
p53
(dp54
S'item_location'
p55
(lp56
V\u000aNauvoo, Alabama, United States
p57
asS'delivery'
p58
(lp59
VVaries
p60
asS'posts_to'
p61
(lp62
VLocal pick-up only
p63
assS'id'
p64
S'201944813045'
p65
s.