(dp1
S'title'
p2
VBobcat 2200 UTV Parts Manual 102397512 (SN A55E11033 to A55E11056) catalog new
p3
sS'url'
p4
Vhttp://www.ecrater.com/p/20442563/bobcat-2200-utv-parts-manual-102397512-sn?keywords=bobcat
p5
sS'price'
p6
V$74.95
p7
sS'seller'
p8
Vhttp://mmdl.ecrater.com
p9
sS'description_links'
p10
VThis listing is for a completeParts Manual forBobcat 2200 UTV(serial numbers listed below)3-ring binding Free shipping in the USAFor Bobcat2200 utility vehiclewith serial numbers:S/N A55E11033 to A55E11056 (This manual covers all 2200 Homologated vehicles with serial numbers A55E11033 to A55E11056.)Pages: 256Format: All pages printed on 8.5"x11" paperPN: 102397512 (11/07) Revised 02/09Contains detailed illustrations and part numbers.Printed manual in a heavy-duty 3-ring binder, not a CD! This manual is a must for Bobcat owners, operators, and mechanics. Powered by eCRATER . List your items fast and easy and manage your active items.
p11
sS'images'
p12
(lp13
Vhttp://s.ecrater.com/stores/340535/53f05afbf2f15_340535b.jpg
p14
asS'shipping_info'
p15
(lp16
VOnly 1 available
p17
aVShipping:US-Mainland: free(more destinations)
p18
aVCondition: Brand new
p19
asS'id'
p20
V20442563
p21
s.