(dp1
S'title'
p2
VBobcat A300 Turbo Skid Steer Loader Parts Manual 6902637 (9-03) catalog new
p3
sS'url'
p4
Vhttp://www.ecrater.com/p/20442485/bobcat-a300-turbo-skid-steer?keywords=bobcat
p5
sS'price'
p6
V$64.95
p7
sS'seller'
p8
Vhttp://mmdl.ecrater.com
p9
sS'description_links'
p10
VThis listing is for a completeParts Manual forBobcatA300 TurboSkid Steer Loader (serial numbers listed below)3-ring binding Free shipping in the USAFor BobcatA300 TurboSkidSteer Loaderwith serial numbers:S/N 5234 11001 & AboveS/N 5235 11001 & AboveS/N 5264 11001 & AboveS/N 5265 11001 & AbovePages: 310Format: All pages printed on 8.5"x11" paper in 3-ring binderPN: 6902637 (9-03)Contains detailed illustrations and part numbers.Printed manual in a heavy-duty 3-ring binder, not a CD! This manual is a must for Bobcat owners, operators, and mechanics. Powered by eCRATER . List your items fast and easy and manage your active items.,RcmdId ViewItemDescV4,RlogId p4%60bo7%60jtb9%3Feog4d72f%2Bf7%60%3E-147cf8afefa-0x10c-->
p11
sS'images'
p12
(lp13
Vhttp://s.ecrater.com/stores/340535/53f05a9309e0d_340535b.jpg
p14
asS'shipping_info'
p15
(lp16
VOnly 1 available
p17
aVShipping:US-Mainland: free(more destinations)
p18
aVCondition: Brand new
p19
asS'id'
p20
V20442485
p21
s.