(dp1
S'title'
p2
VBobcat 751 F Series Skid Steer Loader Parts Manual 6900439 (12-01) catalog new
p3
sS'url'
p4
Vhttp://www.ecrater.com/p/20442327/bobcat-751-f-series-skid-steer-loader?keywords=bobcat
p5
sS'price'
p6
V$74.95
p7
sS'seller'
p8
Vhttp://mmdl.ecrater.com
p9
sS'description_links'
p10
VThis listing is for a completeParts Manual forBobcat751 F SeriesSkid Steer Loader (serial numbers listed below)3-ring binding Free shipping in the USAFor Bobcat751 FSeriesSkidSteer Loaderwith serial numbers:S/N 5157 11001 & AboveS/N 5156 11001 & AbovePages: 400Format: All pages printed on 8.5"x11" paperPN: 6900439 (05-00) Revised (12-01)Contains detailed illustrations and part numbers.Printed manual in a heavy-duty 3-ring binder, not a CD! This manual is a must for Bobcat owners, operators, and mechanics. Powered by eCRATER . List your items fast and easy and manage your active items.
p11
sS'images'
p12
(lp13
Vhttp://s.ecrater.com/stores/340535/53f059b644782_340535b.jpg
p14
asS'shipping_info'
p15
(lp16
VOnly 1 available
p17
aVShipping:US-Mainland: free(more destinations)
p18
aVCondition: Brand new
p19
asS'id'
p20
V20442327
p21
s.