(dp1
S'title'
p2
VBobcat 331 334 Excavator PARTS MANUAL 6901252 [SN 232x 11001 & up] catalog new
p3
sS'url'
p4
Vhttp://www.ecrater.com/p/20442353/bobcat-331-334-excavator-parts-manual-6901252-sn?keywords=bobcat
p5
sS'price'
p6
V$84.95
p7
sS'seller'
p8
Vhttp://mmdl.ecrater.com
p9
sS'description_links'
p10
VThis listing is for a completeParts Manual forBobcat331/331E/334Excavators (serial numbers listed below)3-ring binding Free shipping in the USAFor Bobcat331/331E/334 Excavator [D Series]with serial numbers:331 (S/N 232511001 & Above) 331E (S/N 232711001 & Above) 334 (S/N 232611001 & Above)Pages: 434Format: All pages printed on 8.5"x11" paperPN: 6901252 (8-01) Revised (2-02)Contains detailed illustrations and part numbers.Printed manual in a heavy-duty 3-ring binder, not a CD! This manual is a must for Bobcat owners, operators, and mechanics. Powered by eCRATER . List your items fast and easy and manage your active items.,RcmdId ViewItemDescV4,RlogId p4%60bo7%60jtb9%3Feog4d71f%2B%3F4f%3E-147cf8486d6-0x109-->
p11
sS'images'
p12
(lp13
Vhttp://s.ecrater.com/stores/340535/53f059d8f118f_340535b.jpg
p14
asS'shipping_info'
p15
(lp16
VOnly 1 available
p17
aVShipping:US-Mainland: free(more destinations)
p18
aVCondition: Brand new
p19
asS'id'
p20
V20442353
p21
s.