(dp1
S'title'
p2
VBobcat 320 322 D & G Series Excav Parts Manual 6901093 (7-03) Serial #s listed
p3
sS'url'
p4
Vhttp://www.ecrater.com/p/20442667/bobcat-320-322-d-g-series-excav-parts-manual-6901093-7-03?keywords=bobcat
p5
sS'price'
p6
V$74.95
p7
sS'seller'
p8
Vhttp://mmdl.ecrater.com
p9
sS'description_links'
p10
VThis listing is for a completeParts Manual forBobcat320/322 G & D Series Excavators(serial numbers listed below)Professional 3-ring binding Free shipping in the USAFor Bobcat320/322 D- and G- serieswith serial numbers:320D (5/N 2238 11001 & Above)322D (5/N 2235 11001 & Above)320G (5/N 2239 11001 & Above)322G (5/N 2340 11001 & Above)Pages: 392Format: All pages printed double-sidedon 8.5"x11" paperPN: 6901093 (7-03) Revised (1-04)Contains detailed illustrations and factory Bobcat part numbers.Printed manual in a heavy-duty 3-ring binder, not a CD! This manual is a must for Bobcat owners, operators, and mechanics. Powered by eCRATER . List your items fast and easy and manage your active items.
p11
sS'images'
p12
(lp13
Vhttp://s.ecrater.com/stores/340535/53f05ba0684b7_340535b.jpg
p14
asS'shipping_info'
p15
(lp16
VOnly 1 available
p17
aVShipping:US-Mainland: free(more destinations)
p18
aVCondition: Brand new
p19
asS'id'
p20
V20442667
p21
s.