(dp1
S'title'
p2
VBobcat 463 Skid Steer Loader Service Manual 6901812 (3/2006) Serials #s Listed
p3
sS'url'
p4
Vhttp://www.ecrater.com/p/20442969/bobcat-463-skid-steer-loader-service?keywords=bobcat
p5
sS'price'
p6
V$104.95
p7
sS'seller'
p8
Vhttp://mmdl.ecrater.com
p9
sS'description_links'
p10
VThis listing is for a completeservice manual forBobcat 463 BICSSkid Steer Loaders(Serial #s listed below)Professional 3-ring binding Free shipping in the USACoversBobcat 463 BICS w/ serial #sS/N 522211001 & AboveS/N 522111001 & Above Part no.: 6901812 (3/2006)Pages: 374Format: 8.5"x11" paper in binding. 11"x17" diagrams included if applicable.Printed manual in a heavy-duty 3-ring binder, not a CD! This manual is a must for Bobcat owners, operators, and mechanics. The following is a list of topics contained in the Bobcat Service ManualSAFETY PREVENTIVE MAINTENANCE HYDRAULIC SYSTEM HYDROSTATIC SYSTEM DRIVE SYSTEM MAIN FRAME ELECTRICAL SYSTEM ENGINE SERVICE SPECIFICATIONS SYSTEM ANALYSIS SERVICE MANUAL REVISIONS Powered by eCRATER . List your items fast and easy and manage your active items.
p11
sS'images'
p12
(lp13
Vhttp://s.ecrater.com/stores/340535/53f05d44c5dcc_340535b.jpg
p14
asS'shipping_info'
p15
(lp16
VOnly 1 available
p17
aVShipping:US-Mainland: free(more destinations)
p18
aVCondition: Brand new
p19
asS'id'
p20
V20442969
p21
s.