(dp1
S'title'
p2
VBobcat 553 AF/BF Skid Steer Loader Parts Manual 6901761 catalog new
p3
sS'url'
p4
Vhttp://www.ecrater.com/p/20442494/bobcat-553-af-bf-skid-steer?keywords=bobcat
p5
sS'price'
p6
V$74.95
p7
sS'seller'
p8
Vhttp://mmdl.ecrater.com
p9
sS'description_links'
p10
VThis listing is for a completeParts Manual forBobcat553 AF/BF Series Skid Steer Loader (serial numbers listed below)3-ring binding Free shipping in the USAFor Bobcat 553 AF/BF-SeriesSkidSteer Loaderwith serial numbers:S/N 5203 11001 & AboveS/N 5204 11001 & AboveS/N 5280 11001 & AboveS/N 5281 11001 & AbovePages: 353Format: All pages printed on 8.5"x11" paper in 3-ring binderPN: 6901761 (04-02) Revised (03-04)Contains detailed illustrations and part numbers.Printed manual in a heavy-duty 3-ring binder, not a CD! This manual is a must for Bobcat owners, operators, and mechanics. Powered by eCRATER . List your items fast and easy and manage your active items.
p11
sS'images'
p12
(lp13
Vhttp://s.ecrater.com/stores/340535/53f05a9f7daa4_340535b.jpg
p14
asS'shipping_info'
p15
(lp16
VOnly 1 available
p17
aVShipping:US-Mainland: free(more destinations)
p18
aVCondition: Brand new
p19
asS'id'
p20
V20442494
p21
s.