(dp1
S'title'
p2
VBobcat T250 Compact Track Loader PARTS MANUAL 6902636 [SN 5230/1 5256/7 11001+]
p3
sS'url'
p4
Vhttp://www.ecrater.com/p/20442296/bobcat-t250-compact-track-loader?keywords=bobcat
p5
sS'price'
p6
V$64.95
p7
sS'seller'
p8
Vhttp://mmdl.ecrater.com
p9
sS'description_links'
p10
VThis listing is for a completeParts Manual forBobcatT250 Compact TrackLoaders(serial numbers listed below)Professional 3-ring binding Free shipping in the USAFor BobcatT250Compact TrackLoaderswith serial numbers:S/N 5231 11001 & AboveS/N 5230 11001 & AboveS/N 5256 11001 & AboveS/N 5257 11001 & AbovePages: 339Format: All pages printed double-sidedon 8.5"x11" paperPN: 6902636 (8-03)Contains detailed illustrations and part numbers.Printed manual in a heavy-duty 3-ring binder, not a CD! This manual is a must for Bobcat owners, operators, and mechanics. Powered by eCRATER . List your items fast and easy and manage your active items.
p11
sS'images'
p12
(lp13
Vhttp://s.ecrater.com/stores/340535/53f059820d04a_340535b.jpg
p14
asS'shipping_info'
p15
(lp16
VOnly 1 available
p17
aVShipping:US-Mainland: free(more destinations)
p18
aVCondition: Brand new
p19
asS'id'
p20
V20442296
p21
s.