(dp1
S'title'
p2
VBobcat 430 D & G Excavator PARTS MANUAL 6902521 (SN 5625/7 11001 & up) repair
p3
sS'url'
p4
Vhttp://www.ecrater.com/p/20442978/bobcat-430-d-g-excavator-parts-manual-6902521-sn-5625-7-11001-up?keywords=bobcat
p5
sS'price'
p6
V$84.95
p7
sS'seller'
p8
Vhttp://mmdl.ecrater.com
p9
sS'description_links'
p10
VThis listing is for a completeParts Manual forBobcat430 Excavators (serial numbers listed below)3-ring binding Free shipping in the USAFor Bobcat430Excavator [D&G Series]with serial numbers:S/N 5625 11001 & AboveS/N 5627 11001 & AbovePages: 439Format: All pages printed on 8.5"x11" paperPN: 6902521 (6-03) Revised (5-04)Contains detailed illustrations and part numbers.Printed manual in a heavy-duty 3-ring binder, not a CD! This manual is a must for Bobcat owners, operators, and mechanics. Powered by eCRATER . List your items fast and easy and manage your active items.
p11
sS'images'
p12
(lp13
Vhttp://s.ecrater.com/stores/340535/53f05d4fc164a_340535b.jpg
p14
asS'shipping_info'
p15
(lp16
VOnly 1 available
p17
aVShipping:US-Mainland: free(more destinations)
p18
aVCondition: Brand new
p19
asS'id'
p20
V20442978
p21
s.