(dp1
S'title'
p2
VDEUTZ Fuel Shut Off Solenoid 04272733 Bobcat Skid Steer Loader 863 873 BF4M1011F
p3
sS'url'
p4
Vhttp://www.ecrater.com/p/21764693/deutz-fuel-shut-off-solenoid-04272733?keywords=bobcat
p5
sS'price'
p6
V$73.95
p7
sS'seller'
p8
Vhttp://dieselcare.ecrater.com
p9
sS'description_links'
p10
VOEM/Replacement aftermarketReference Model: Deutz#0427 2733Voltage: 12VApplication:DEUTZ BF4M1011F863 864 873 874 S250 T200 A300 Bobcat Skid SteersSL 6635 SX SL 6635 DX Gehl Skid SteersFor questions or product inquiries, please call 800.961.9290
p11
sS'images'
p12
(lp13
Vhttp://s.ecrater.com/stores/233345/54a8b57d446d7_233345b.jpg
p14
asS'shipping_info'
p15
(lp16
VOnly 1 available
p17
aVShipping:USPS calculated - check
p18
aVCondition: Used
p19
asS'id'
p20
V21764693
p21
s.