(dp1
S'title'
p2
Vbobcat equipment for sale / 331 mini excavator / 863 f-series / 1987 ford c8000
p3
sS'url'
p4
S'http://www.ebay.com/itm/Bobcat-Equipment-For-Sale-331-Mini-Excavator-863-F-Series-1987-FORD-C8000-/231514286558?hash=item35e753a9de:g:QGQAAOSwrklVEeGs'
p5
sS'price'
p6
VUS $61,600.00
p7
sS'seller'
p8
(dp9
g4
Vhttp://www.ebay.com/usr/usjare_gk6ob12tz?_trksid=p2047675.l2559
p10
sS'name'
p11
V usjare_gk6ob12tz
p12
ssS'description_links'
p13
(lp14
Vhttp://vi.vipr.ebaydesc.com/ws/eBayISAPI.dll?ViewItemDescV4&item=231514286558&t=0&tid=10&category=41490&seller=usjare_gk6ob12tz&excSoj=1&excTrk=1&lsite=0&ittenable=false&domain=ebay.com&descgauge=1
p15
asS'images'
p16
(lp17
(dp18
S'maxImageUrl'
p19
Vhttp://i.ebayimg.com/images/g/QGQAAOSwrklVEeGs/s-l1600.jpg
p20
sS'displayImgUrl'
p21
Vhttp://i.ebayimg.com/images/g/QGQAAOSwrklVEeGs/s-l300.jpg
p22
sa(dp23
g19
Vhttp://i.ebayimg.com/images/g/ahYAAOSweW5VEeG0/s-l1600.jpg
p24
sg21
Vhttp://i.ebayimg.com/images/g/ahYAAOSweW5VEeG0/s-l300.jpg
p25
sa(dp26
g19
Vhttp://i.ebayimg.com/images/g/hOMAAOSwEeFVEeG9/s-l1600.jpg
p27
sg21
Vhttp://i.ebayimg.com/images/g/hOMAAOSwEeFVEeG9/s-l300.jpg
p28
sa(dp29
g19
Vhttp://i.ebayimg.com/images/g/hcoAAOSwEeFVEeHG/s-l1600.jpg
p30
sg21
Vhttp://i.ebayimg.com/images/g/hcoAAOSwEeFVEeHG/s-l300.jpg
p31
sa(dp32
g19
Vhttp://i.ebayimg.com/images/g/W~8AAOSwstxVEeHQ/s-l1600.jpg
p33
sg21
Vhttp://i.ebayimg.com/images/g/W~8AAOSwstxVEeHQ/s-l300.jpg
p34
sa(dp35
g19
Vhttp://i.ebayimg.com/images/g/ROYAAOSw34FVEeHc/s-l1600.jpg
p36
sg21
Vhttp://i.ebayimg.com/images/g/ROYAAOSw34FVEeHc/s-l300.jpg
p37
sa(dp38
g19
Vhttp://i.ebayimg.com/images/g/igYAAOSw-7RVEeFk/s-l1600.jpg
p39
sg21
Vhttp://i.ebayimg.com/images/g/igYAAOSw-7RVEeFk/s-l300.jpg
p40
sa(dp41
g19
Vhttp://i.ebayimg.com/images/g/UtMAAOSwstxVEeFt/s-l1600.jpg
p42
sg21
Vhttp://i.ebayimg.com/images/g/UtMAAOSwstxVEeFt/s-l300.jpg
p43
sa(dp44
g19
Vhttp://i.ebayimg.com/images/g/vu4AAOSwv0tVEeF3/s-l1600.jpg
p45
sg21
Vhttp://i.ebayimg.com/images/g/vu4AAOSwv0tVEeF3/s-l300.jpg
p46
sa(dp47
g19
Vhttp://i.ebayimg.com/images/g/4m0AAOSwBLlVEeGC/s-l1600.jpg
p48
sg21
Vhttp://i.ebayimg.com/images/g/4m0AAOSwBLlVEeGC/s-l300.jpg
p49
sa(dp50
g19
Vhttp://i.ebayimg.com/images/g/zqMAAOSw7aBVEeGM/s-l1600.jpg
p51
sg21
Vhttp://i.ebayimg.com/images/g/zqMAAOSw7aBVEeGM/s-l300.jpg
p52
sa(dp53
g19
Vhttp://i.ebayimg.com/images/g/m6oAAOSwqu9VEeGZ/s-l1600.jpg
p54
sg21
Vhttp://i.ebayimg.com/images/g/m6oAAOSwqu9VEeGZ/s-l300.jpg
p55
sasS'shipping_info'
p56
(dp57
S'item_location'
p58
(lp59
V\u000aLancaster, California, United States
p60
asS'delivery'
p61
(lp62
VVaries
p63
asS'posts_to'
p64
(lp65
VUnited States
p66
assS'id'
p67
S'231514286558'
p68
s.