(dp1
S'title'
p2
Vnew bobcat e50 marsh buggy with amphibious pontoons
p3
sS'url'
p4
S'http://www.ebay.com/itm/New-Bobcat-E50-Marsh-Buggy-with-Amphibious-Pontoons-/232340661123?hash=item3618952383:g:XVoAAOSw7GRZGyIn'
p5
sS'price'
p6
VUS $170,000.00
p7
sS'seller'
p8
(dp9
g4
Vhttp://www.ebay.com/usr/wilson_marsh_equipment855?_trksid=p2047675.l2559
p10
sS'name'
p11
V wilson_marsh_equipment855
p12
ssS'description_links'
p13
(lp14
Vhttp://vi.vipr.ebaydesc.com/ws/eBayISAPI.dll?ViewItemDescV4&item=232340661123&t=0&tid=10&category=177643&seller=wilson_marsh_equipment855&excSoj=1&excTrk=1&lsite=0&ittenable=false&domain=ebay.com&descgauge=1
p15
asS'images'
p16
(lp17
(dp18
S'maxImageUrl'
p19
Vhttp://i.ebayimg.com/images/g/XVoAAOSw7GRZGyIn/s-l1600.jpg
p20
sS'displayImgUrl'
p21
Vhttp://i.ebayimg.com/images/g/XVoAAOSw7GRZGyIn/s-l300.jpg
p22
sa(dp23
g19
Vhttp://i.ebayimg.com/images/g/Ea4AAOSww9xZGyIY/s-l1600.jpg
p24
sg21
Vhttp://i.ebayimg.com/images/g/Ea4AAOSww9xZGyIY/s-l300.jpg
p25
sa(dp26
g19
Vhttp://i.ebayimg.com/images/g/~yQAAOSwZKBZGyIe/s-l1600.jpg
p27
sg21
Vhttp://i.ebayimg.com/images/g/~yQAAOSwZKBZGyIe/s-l300.jpg
p28
sa(dp29
g19
Vhttp://i.ebayimg.com/images/g/Wh0AAOSwYvFZGyI9/s-l1600.jpg
p30
sg21
Vhttp://i.ebayimg.com/images/g/Wh0AAOSwYvFZGyI9/s-l300.jpg
p31
sa(dp32
g19
Vhttp://i.ebayimg.com/images/g/vacAAOSwCQZZGyIk/s-l1600.jpg
p33
sg21
Vhttp://i.ebayimg.com/images/g/vacAAOSwCQZZGyIk/s-l300.jpg
p34
sa(dp35
g19
Vhttp://i.ebayimg.com/images/g/8VkAAOSww5hZGyJ4/s-l1600.jpg
p36
sg21
Vhttp://i.ebayimg.com/images/g/8VkAAOSww5hZGyJ4/s-l300.jpg
p37
sa(dp38
g19
Vhttp://i.ebayimg.com/images/g/UdYAAOSw-K9ZGyIP/s-l1600.jpg
p39
sg21
Vhttp://i.ebayimg.com/images/g/UdYAAOSw-K9ZGyIP/s-l300.jpg
p40
sa(dp41
g19
Vhttp://i.ebayimg.com/images/g/ekMAAOSwKytZGyHz/s-l1600.jpg
p42
sg21
Vhttp://i.ebayimg.com/images/g/ekMAAOSwKytZGyHz/s-l300.jpg
p43
sa(dp44
g19
Vhttp://i.ebayimg.com/images/g/UNoAAOSwR29ZGyJU/s-l1600.jpg
p45
sg21
Vhttp://i.ebayimg.com/images/g/UNoAAOSwR29ZGyJU/s-l300.jpg
p46
sa(dp47
g19
Vhttp://i.ebayimg.com/images/g/8UkAAOSwY3BZGyJZ/s-l1600.jpg
p48
sg21
Vhttp://i.ebayimg.com/images/g/8UkAAOSwY3BZGyJZ/s-l300.jpg
p49
sa(dp50
g19
Vhttp://i.ebayimg.com/images/g/3icAAOSwjL5ZGyJv/s-l1600.jpg
p51
sg21
Vhttp://i.ebayimg.com/images/g/3icAAOSwjL5ZGyJv/s-l300.jpg
p52
sa(dp53
g19
Vhttp://i.ebayimg.com/images/g/r7YAAOSw8HBZGyJ0/s-l1600.jpg
p54
sg21
Vhttp://i.ebayimg.com/images/g/r7YAAOSw8HBZGyJ0/s-l300.jpg
p55
sasS'shipping_info'
p56
(dp57
S'item_location'
p58
(lp59
V\u000aWestwego, Louisiana, United States
p60
asS'delivery'
p61
(lp62
VVaries
p63
asS'posts_to'
p64
(lp65
VLocal pick-up only
p66
assS'id'
p67
S'232340661123'
p68
s.