(dp1
S'title'
p2
VYearling Bobcat by Richard Evans Younger Hand Signed Framed Print
p3
sS'url'
p4
Vhttp://www.ecrater.com/p/27440500/yearling-bobcat-by-richard-evans?keywords=bobcat
p5
sS'price'
p6
V$120.00
p7
sS'seller'
p8
Vhttp://sleepyrivercollectibles.ecrater.com
p9
sS'description_links'
p10
VThis Yearling Bobcat by Richard Evans Younger is gently used and in very good condition.  The painting and frame are in great condition.  It was painted in 1972.  Painting measures approximately 24 x 18 inches (exposed by double matting) and with frame measures approximately 31 x 25 inches.   It includes a very nice heavy wood frame with glass.  This painting was purchased at an estate sale and will make a nice addition to your collection.
p11
sS'images'
p12
(lp13
sS'shipping_info'
p14
(lp15
VMore than 10 available
p16
aVShipping:US-Mainland: $35.00(more destinations)
p17
aVCondition: Used
p18
asS'id'
p19
V27440500
p20
s.