(dp1
S'title'
p2
V2015 bobcat t650 mini/micro/compact excavators
p3
sS'url'
p4
S'http://www.ebay.com/itm/2015-Bobcat-T650-Mini-Micro-Compact-Excavators-/282409905290?hash=item41c0f12c8a:g:~2MAAOSwmgJY12GB'
p5
sS'price'
p6
VUS $57,500.00
p7
sS'seller'
p8
(dp9
g4
Vhttp://www.ebay.com/usr/vanwalljdequipment?_trksid=p2047675.l2559
p10
sS'name'
p11
V vanwalljdequipment
p12
ssS'description_links'
p13
(lp14
Vhttp://vi.vipr.ebaydesc.com/ws/eBayISAPI.dll?ViewItemDescV4&item=282409905290&t=0&tid=10&category=97122&seller=vanwalljdequipment&excSoj=1&excTrk=1&lsite=0&ittenable=false&domain=ebay.com&descgauge=1
p15
asS'images'
p16
(lp17
(dp18
S'maxImageUrl'
p19
Vhttp://i.ebayimg.com/images/g/~2MAAOSwmgJY12GB/s-l1600.jpg
p20
sS'displayImgUrl'
p21
Vhttp://i.ebayimg.com/images/g/~2MAAOSwmgJY12GB/s-l300.jpg
p22
sa(dp23
g19
Vhttp://i.ebayimg.com/images/g/lt4AAOSwc-tY12GB/s-l1600.jpg
p24
sg21
Vhttp://i.ebayimg.com/images/g/lt4AAOSwc-tY12GB/s-l300.jpg
p25
sa(dp26
g19
Vhttp://i.ebayimg.com/images/g/tm4AAOSw32lY12GB/s-l1600.jpg
p27
sg21
Vhttp://i.ebayimg.com/images/g/tm4AAOSw32lY12GB/s-l300.jpg
p28
sa(dp29
g19
Vhttp://i.ebayimg.com/images/g/ZVEAAOSwuLZY12GB/s-l1600.jpg
p30
sg21
Vhttp://i.ebayimg.com/images/g/ZVEAAOSwuLZY12GB/s-l300.jpg
p31
sa(dp32
g19
Vhttp://i.ebayimg.com/images/g/nWcAAOSwhQhY12GB/s-l1600.jpg
p33
sg21
Vhttp://i.ebayimg.com/images/g/nWcAAOSwhQhY12GB/s-l300.jpg
p34
sa(dp35
g19
Vhttp://i.ebayimg.com/images/g/5cQAAOSwzgBY12GB/s-l1600.jpg
p36
sg21
Vhttp://i.ebayimg.com/images/g/5cQAAOSwzgBY12GB/s-l300.jpg
p37
sa(dp38
g19
Vhttp://i.ebayimg.com/images/g/aVAAAOSwWxNY12GB/s-l1600.jpg
p39
sg21
Vhttp://i.ebayimg.com/images/g/aVAAAOSwWxNY12GB/s-l300.jpg
p40
sa(dp41
g19
Vhttp://i.ebayimg.com/images/g/08IAAOSwXYtY12GB/s-l1600.jpg
p42
sg21
Vhttp://i.ebayimg.com/images/g/08IAAOSwXYtY12GB/s-l300.jpg
p43
sa(dp44
g19
Vhttp://i.ebayimg.com/images/g/LpMAAOSwdGFY12GB/s-l1600.jpg
p45
sg21
Vhttp://i.ebayimg.com/images/g/LpMAAOSwdGFY12GB/s-l300.jpg
p46
sa(dp47
g19
Vhttp://i.ebayimg.com/images/g/08EAAOSwXYtY12GB/s-l1600.jpg
p48
sg21
Vhttp://i.ebayimg.com/images/g/08EAAOSwXYtY12GB/s-l300.jpg
p49
sa(dp50
g19
Vhttp://i.ebayimg.com/images/g/Wz4AAOSwB-1Y12GB/s-l1600.jpg
p51
sg21
Vhttp://i.ebayimg.com/images/g/Wz4AAOSwB-1Y12GB/s-l300.jpg
p52
sa(dp53
g19
Vhttp://i.ebayimg.com/images/g/b-4AAOSwCU1Y12GB/s-l1600.jpg
p54
sg21
Vhttp://i.ebayimg.com/images/g/b-4AAOSwCU1Y12GB/s-l300.jpg
p55
sasS'shipping_info'
p56
(dp57
S'item_location'
p58
(lp59
V\u000aOskaloosa, Iowa, United States
p60
asS'delivery'
p61
(lp62
VVaries
p63
asS'posts_to'
p64
(lp65
VLocal pick-up only
p66
assS'id'
p67
S'282409905290'
p68
s.