(dp1
S'title'
p2
V2011 bobcat t650 mini/micro/compact excavators
p3
sS'url'
p4
S'http://www.ebay.com/itm/2011-Bobcat-T650-Mini-Micro-Compact-Excavators-/282400113872?hash=item41c05bc4d0:g:6QoAAOSwzgBYzMtQ'
p5
sS'price'
p6
VUS $41,999.00
p7
sS'seller'
p8
(dp9
g4
Vhttp://www.ebay.com/usr/vanwalljdequipment?_trksid=p2047675.l2559
p10
sS'name'
p11
V vanwalljdequipment
p12
ssS'description_links'
p13
(lp14
Vhttp://vi.vipr.ebaydesc.com/ws/eBayISAPI.dll?ViewItemDescV4&item=282400113872&t=0&tid=10&category=97122&seller=vanwalljdequipment&excSoj=1&excTrk=1&lsite=0&ittenable=false&domain=ebay.com&descgauge=1
p15
asS'images'
p16
(lp17
(dp18
S'maxImageUrl'
p19
Vhttp://i.ebayimg.com/images/g/6QoAAOSwzgBYzMtQ/s-l1600.jpg
p20
sS'displayImgUrl'
p21
Vhttp://i.ebayimg.com/images/g/6QoAAOSwzgBYzMtQ/s-l300.jpg
p22
sa(dp23
g19
Vhttp://i.ebayimg.com/images/g/rQ8AAOSwsW9YzMtQ/s-l1600.jpg
p24
sg21
Vhttp://i.ebayimg.com/images/g/rQ8AAOSwsW9YzMtQ/s-l300.jpg
p25
sa(dp26
g19
Vhttp://i.ebayimg.com/images/g/jIMAAOSw4CFYzMtQ/s-l1600.jpg
p27
sg21
Vhttp://i.ebayimg.com/images/g/jIMAAOSw4CFYzMtQ/s-l300.jpg
p28
sa(dp29
g19
Vhttp://i.ebayimg.com/images/g/WV0AAOSwB-1YzMtQ/s-l1600.jpg
p30
sg21
Vhttp://i.ebayimg.com/images/g/WV0AAOSwB-1YzMtQ/s-l300.jpg
p31
sa(dp32
g19
Vhttp://i.ebayimg.com/images/g/-AQAAOSwOgdYzMtQ/s-l1600.jpg
p33
sg21
Vhttp://i.ebayimg.com/images/g/-AQAAOSwOgdYzMtQ/s-l300.jpg
p34
sa(dp35
g19
Vhttp://i.ebayimg.com/images/g/Pm8AAOSw2gxYzMtQ/s-l1600.jpg
p36
sg21
Vhttp://i.ebayimg.com/images/g/Pm8AAOSw2gxYzMtQ/s-l300.jpg
p37
sa(dp38
g19
Vhttp://i.ebayimg.com/images/g/OzEAAOSw4A5YzMtQ/s-l1600.jpg
p39
sg21
Vhttp://i.ebayimg.com/images/g/OzEAAOSw4A5YzMtQ/s-l300.jpg
p40
sa(dp41
g19
Vhttp://i.ebayimg.com/images/g/jH8AAOSw4CFYzMtQ/s-l1600.jpg
p42
sg21
Vhttp://i.ebayimg.com/images/g/jH8AAOSw4CFYzMtQ/s-l300.jpg
p43
sa(dp44
g19
Vhttp://i.ebayimg.com/images/g/wykAAOSwol5YzMtQ/s-l1600.jpg
p45
sg21
Vhttp://i.ebayimg.com/images/g/wykAAOSwol5YzMtQ/s-l300.jpg
p46
sa(dp47
g19
Vhttp://i.ebayimg.com/images/g/-AAAAOSwOgdYzMtQ/s-l1600.jpg
p48
sg21
Vhttp://i.ebayimg.com/images/g/-AAAAOSwOgdYzMtQ/s-l300.jpg
p49
sa(dp50
g19
Vhttp://i.ebayimg.com/images/g/jHgAAOSw4CFYzMtQ/s-l1600.jpg
p51
sg21
Vhttp://i.ebayimg.com/images/g/jHgAAOSw4CFYzMtQ/s-l300.jpg
p52
sa(dp53
g19
Vhttp://i.ebayimg.com/images/g/Ec0AAOSwSlBYzMtQ/s-l1600.jpg
p54
sg21
Vhttp://i.ebayimg.com/images/g/Ec0AAOSwSlBYzMtQ/s-l300.jpg
p55
sasS'shipping_info'
p56
(dp57
S'item_location'
p58
(lp59
V\u000aSac City, Iowa, United States
p60
asS'delivery'
p61
(lp62
VVaries
p63
asS'posts_to'
p64
(lp65
VLocal pick-up only
p66
assS'id'
p67
S'282400113872'
p68
s.