(dp1
S'title'
p2
V2011 bobcat a770 skid steer
p3
sS'url'
p4
S'http://www.ebay.com/itm/2011-Bobcat-A770-Skid-Steer-/331983648839?hash=item4d4bc47847:g:kBEAAOSwzaJX6oLB'
p5
sS'price'
p6
VUS $44,500.00
p7
sS'seller'
p8
(dp9
g4
Vhttp://www.ebay.com/usr/kidrick123?_trksid=p2047675.l2559
p10
sS'name'
p11
V kidrick123
p12
ssS'description_links'
p13
(lp14
Vhttp://vi.vipr.ebaydesc.com/ws/eBayISAPI.dll?ViewItemDescV4&item=331983648839&t=1495650370000&tid=10&category=95494&seller=kidrick123&excSoj=1&excTrk=1&lsite=0&ittenable=false&domain=ebay.com&descgauge=1
p15
asS'images'
p16
(lp17
(dp18
S'maxImageUrl'
p19
Vhttp://i.ebayimg.com/images/g/kBEAAOSwzaJX6oLB/s-l1600.jpg
p20
sS'displayImgUrl'
p21
Vhttp://i.ebayimg.com/images/g/kBEAAOSwzaJX6oLB/s-l300.jpg
p22
sa(dp23
g19
Vhttp://i.ebayimg.com/images/g/kREAAOSwzaJX6oLF/s-l1600.jpg
p24
sg21
Vhttp://i.ebayimg.com/images/g/kREAAOSwzaJX6oLF/s-l300.jpg
p25
sa(dp26
g19
Vhttp://i.ebayimg.com/images/g/MOMAAOSwmfhX6oLK/s-l1600.jpg
p27
sg21
Vhttp://i.ebayimg.com/images/g/MOMAAOSwmfhX6oLK/s-l300.jpg
p28
sa(dp29
g19
Vhttp://i.ebayimg.com/images/g/~A4AAOSwLnBX6oLP/s-l1600.jpg
p30
sg21
Vhttp://i.ebayimg.com/images/g/~A4AAOSwLnBX6oLP/s-l300.jpg
p31
sa(dp32
g19
Vhttp://i.ebayimg.com/images/g/vWsAAOSw8w1X6oLV/s-l1600.jpg
p33
sg21
Vhttp://i.ebayimg.com/images/g/vWsAAOSw8w1X6oLV/s-l300.jpg
p34
sa(dp35
g19
Vhttp://i.ebayimg.com/images/g/vtgAAOSw8w1X6oLa/s-l1600.jpg
p36
sg21
Vhttp://i.ebayimg.com/images/g/vtgAAOSw8w1X6oLa/s-l300.jpg
p37
sa(dp38
g19
Vhttp://i.ebayimg.com/images/g/cWQAAOSwCGVX6oLf/s-l1600.jpg
p39
sg21
Vhttp://i.ebayimg.com/images/g/cWQAAOSwCGVX6oLf/s-l300.jpg
p40
sa(dp41
g19
Vhttp://i.ebayimg.com/images/g/rYUAAOSwYIxX6oLj/s-l1600.jpg
p42
sg21
Vhttp://i.ebayimg.com/images/g/rYUAAOSwYIxX6oLj/s-l300.jpg
p43
sa(dp44
g19
Vhttp://i.ebayimg.com/images/g/-OwAAOSwLF1X6oLp/s-l1600.jpg
p45
sg21
Vhttp://i.ebayimg.com/images/g/-OwAAOSwLF1X6oLp/s-l300.jpg
p46
sa(dp47
g19
Vhttp://i.ebayimg.com/images/g/3iQAAOSwTA9X6oLu/s-l1600.jpg
p48
sg21
Vhttp://i.ebayimg.com/images/g/3iQAAOSwTA9X6oLu/s-l300.jpg
p49
sa(dp50
g19
Vhttp://i.ebayimg.com/images/g/dfwAAOSwCGVX6oL0/s-l1600.jpg
p51
sg21
Vhttp://i.ebayimg.com/images/g/dfwAAOSwCGVX6oL0/s-l300.jpg
p52
sa(dp53
g19
Vhttp://i.ebayimg.com/images/g/Mk0AAOSwAuZX6oL3/s-l1600.jpg
p54
sg21
Vhttp://i.ebayimg.com/images/g/Mk0AAOSwAuZX6oL3/s-l300.jpg
p55
sasS'shipping_info'
p56
(dp57
S'item_location'
p58
(lp59
V\u000aGlen Mills, Pennsylvania, United States
p60
asS'delivery'
p61
(lp62
VVaries
p63
asS'posts_to'
p64
(lp65
VLocal pick-up only
p66
assS'id'
p67
S'331983648839'
p68
s.