(dp1
S'title'
p2
V2007 bobcat a300 all wheel steer skid steer
p3
sS'url'
p4
S'http://www.ebay.com/itm/2007-Bobcat-A300-All-Wheel-Steer-Skid-Steer-/332144992479?hash=item4d556260df:g:gqcAAOSwax5YuyhA'
p5
sS'price'
p6
VUS $43,950.00
p7
sS'seller'
p8
(dp9
g4
Vhttp://www.ebay.com/usr/kidrick123?_trksid=p2047675.l2559
p10
sS'name'
p11
V kidrick123
p12
ssS'description_links'
p13
(lp14
Vhttp://vi.vipr.ebaydesc.com/ws/eBayISAPI.dll?ViewItemDescV4&item=332144992479&t=1495650370000&tid=10&category=95494&seller=kidrick123&excSoj=1&excTrk=1&lsite=0&ittenable=false&domain=ebay.com&descgauge=1
p15
asS'images'
p16
(lp17
(dp18
S'maxImageUrl'
p19
Vhttp://i.ebayimg.com/images/g/gqcAAOSwax5YuyhA/s-l1600.jpg
p20
sS'displayImgUrl'
p21
Vhttp://i.ebayimg.com/images/g/gqcAAOSwax5YuyhA/s-l300.jpg
p22
sa(dp23
g19
Vhttp://i.ebayimg.com/images/g/kvMAAOSwdGFYuyhF/s-l1600.jpg
p24
sg21
Vhttp://i.ebayimg.com/images/g/kvMAAOSwdGFYuyhF/s-l300.jpg
p25
sa(dp26
g19
Vhttp://i.ebayimg.com/images/g/k4wAAOSwdGFYuyhK/s-l1600.jpg
p27
sg21
Vhttp://i.ebayimg.com/images/g/k4wAAOSwdGFYuyhK/s-l300.jpg
p28
sa(dp29
g19
Vhttp://i.ebayimg.com/images/g/hOMAAOSwax5YuyhP/s-l1600.jpg
p30
sg21
Vhttp://i.ebayimg.com/images/g/hOMAAOSwax5YuyhP/s-l300.jpg
p31
sa(dp32
g19
Vhttp://i.ebayimg.com/images/g/~XMAAOSwTM5YuyhT/s-l1600.jpg
p33
sg21
Vhttp://i.ebayimg.com/images/g/~XMAAOSwTM5YuyhT/s-l300.jpg
p34
sa(dp35
g19
Vhttp://i.ebayimg.com/images/g/vyYAAOSwfVpYuyhX/s-l1600.jpg
p36
sg21
Vhttp://i.ebayimg.com/images/g/vyYAAOSwfVpYuyhX/s-l300.jpg
p37
sa(dp38
g19
Vhttp://i.ebayimg.com/images/g/Vr8AAOSwXYtYuyhc/s-l1600.jpg
p39
sg21
Vhttp://i.ebayimg.com/images/g/Vr8AAOSwXYtYuyhc/s-l300.jpg
p40
sa(dp41
g19
Vhttp://i.ebayimg.com/images/g/VjMAAOSwCU1Yuyhh/s-l1600.jpg
p42
sg21
Vhttp://i.ebayimg.com/images/g/VjMAAOSwCU1Yuyhh/s-l300.jpg
p43
sa(dp44
g19
Vhttp://i.ebayimg.com/images/g/wKUAAOSwfVpYuyhm/s-l1600.jpg
p45
sg21
Vhttp://i.ebayimg.com/images/g/wKUAAOSwfVpYuyhm/s-l300.jpg
p46
sa(dp47
g19
Vhttp://i.ebayimg.com/images/g/MBYAAOSwB-1Yuyhm/s-l1600.jpg
p48
sg21
Vhttp://i.ebayimg.com/images/g/MBYAAOSwB-1Yuyhm/s-l300.jpg
p49
sa(dp50
g19
Vhttp://i.ebayimg.com/images/g/B5kAAOSwOgdYuyht/s-l1600.jpg
p51
sg21
Vhttp://i.ebayimg.com/images/g/B5kAAOSwOgdYuyht/s-l300.jpg
p52
sasS'shipping_info'
p53
(dp54
S'item_location'
p55
(lp56
V\u000aGlen Mills, Pennsylvania, United States
p57
asS'delivery'
p58
(lp59
VVaries
p60
asS'posts_to'
p61
(lp62
VLocal pick-up only
p63
assS'id'
p64
S'332144992479'
p65
s.