(dp1
S'title'
p2
V2006 bobcat a300 skid steer
p3
sS'url'
p4
S'http://www.ebay.com/itm/2006-Bobcat-A300-Skid-Steer-/332202183330?hash=item4d58cb0aa2:g:LawAAOSwuMZZB2H4'
p5
sS'price'
p6
VUS $43,950.00
p7
sS'seller'
p8
(dp9
g4
Vhttp://www.ebay.com/usr/kidrick123?_trksid=p2047675.l2559
p10
sS'name'
p11
V kidrick123
p12
ssS'description_links'
p13
(lp14
Vhttp://vi.vipr.ebaydesc.com/ws/eBayISAPI.dll?ViewItemDescV4&item=332202183330&t=1496151432000&tid=10&category=95494&seller=kidrick123&excSoj=1&excTrk=1&lsite=0&ittenable=false&domain=ebay.com&descgauge=1
p15
asS'images'
p16
(lp17
(dp18
S'maxImageUrl'
p19
Vhttp://i.ebayimg.com/images/g/LawAAOSwuMZZB2H4/s-l1600.jpg
p20
sS'displayImgUrl'
p21
Vhttp://i.ebayimg.com/images/g/LawAAOSwuMZZB2H4/s-l300.jpg
p22
sa(dp23
g19
Vhttp://i.ebayimg.com/images/g/WlAAAOSw42dZB2H-/s-l1600.jpg
p24
sg21
Vhttp://i.ebayimg.com/images/g/WlAAAOSw42dZB2H-/s-l300.jpg
p25
sa(dp26
g19
Vhttp://i.ebayimg.com/images/g/pcwAAOSwX61ZB2ID/s-l1600.jpg
p27
sg21
Vhttp://i.ebayimg.com/images/g/pcwAAOSwX61ZB2ID/s-l300.jpg
p28
sa(dp29
g19
Vhttp://i.ebayimg.com/images/g/1fYAAOSw~y9ZB2IJ/s-l1600.jpg
p30
sg21
Vhttp://i.ebayimg.com/images/g/1fYAAOSw~y9ZB2IJ/s-l300.jpg
p31
sa(dp32
g19
Vhttp://i.ebayimg.com/images/g/tbwAAOSwCQZZB2IO/s-l1600.jpg
p33
sg21
Vhttp://i.ebayimg.com/images/g/tbwAAOSwCQZZB2IO/s-l300.jpg
p34
sa(dp35
g19
Vhttp://i.ebayimg.com/images/g/VFMAAOSwt0FZB2IU/s-l1600.jpg
p36
sg21
Vhttp://i.ebayimg.com/images/g/VFMAAOSwt0FZB2IU/s-l300.jpg
p37
sa(dp38
g19
Vhttp://i.ebayimg.com/images/g/srgAAOSwcgNZB2IZ/s-l1600.jpg
p39
sg21
Vhttp://i.ebayimg.com/images/g/srgAAOSwcgNZB2IZ/s-l300.jpg
p40
sa(dp41
g19
Vhttp://i.ebayimg.com/images/g/wX0AAOSwT-FZB2Id/s-l1600.jpg
p42
sg21
Vhttp://i.ebayimg.com/images/g/wX0AAOSwT-FZB2Id/s-l300.jpg
p43
sa(dp44
g19
Vhttp://i.ebayimg.com/images/g/wA0AAOSwR29ZB2Ii/s-l1600.jpg
p45
sg21
Vhttp://i.ebayimg.com/images/g/wA0AAOSwR29ZB2Ii/s-l300.jpg
p46
sa(dp47
g19
Vhttp://i.ebayimg.com/images/g/ohsAAOSwtGlZB2Ip/s-l1600.jpg
p48
sg21
Vhttp://i.ebayimg.com/images/g/ohsAAOSwtGlZB2Ip/s-l300.jpg
p49
sa(dp50
g19
Vhttp://i.ebayimg.com/images/g/zrQAAOSww9xZB2Is/s-l1600.jpg
p51
sg21
Vhttp://i.ebayimg.com/images/g/zrQAAOSww9xZB2Is/s-l300.jpg
p52
sasS'shipping_info'
p53
(dp54
S'item_location'
p55
(lp56
V\u000aGlen Mills, Pennsylvania, United States
p57
asS'delivery'
p58
(lp59
VVaries
p60
asS'posts_to'
p61
(lp62
VLocal pick-up only
p63
assS'id'
p64
S'332202183330'
p65
s.