(dp1
S'title'
p2
V2013 bobcat e42 excavator only 1188 hours loaded! ready 2 work in pa we ship!
p3
sS'url'
p4
S'http://www.ebay.com/itm/2013-BOBCAT-E42-EXCAVATOR-ONLY-1188-HOURS-LOADED-READY-2-WORK-IN-PA-WE-SHIP-/332252860952?hash=item4d5bd05218:g:RiYAAOSwYvFZNhJf'
p5
sS'price'
p6
VUS $42,500.00
p7
sS'seller'
p8
(dp9
g4
Vhttp://www.ebay.com/usr/hammerdown357?_trksid=p2047675.l2559
p10
sS'name'
p11
V hammerdown357
p12
ssS'description_links'
p13
(lp14
Vhttp://vi.vipr.ebaydesc.com/ws/eBayISAPI.dll?ViewItemDescV4&item=332252860952&t=1496716817000&tid=10&category=97122&seller=hammerdown357&excSoj=1&excTrk=1&lsite=0&ittenable=false&domain=ebay.com&descgauge=1
p15
asS'images'
p16
(lp17
(dp18
S'maxImageUrl'
p19
Vhttp://i.ebayimg.com/images/g/RiYAAOSwYvFZNhJf/s-l1600.jpg
p20
sS'displayImgUrl'
p21
Vhttp://i.ebayimg.com/images/g/RiYAAOSwYvFZNhJf/s-l300.jpg
p22
sa(dp23
g19
Vhttp://i.ebayimg.com/images/g/qcYAAOSwYlRZNhJk/s-l1600.jpg
p24
sg21
Vhttp://i.ebayimg.com/images/g/qcYAAOSwYlRZNhJk/s-l300.jpg
p25
sa(dp26
g19
Vhttp://i.ebayimg.com/images/g/i~4AAOSwurZZNhJo/s-l1600.jpg
p27
sg21
Vhttp://i.ebayimg.com/images/g/i~4AAOSwurZZNhJo/s-l300.jpg
p28
sa(dp29
g19
Vhttp://i.ebayimg.com/images/g/tykAAOSwsXFZNhJt/s-l1600.jpg
p30
sg21
Vhttp://i.ebayimg.com/images/g/tykAAOSwsXFZNhJt/s-l300.jpg
p31
sa(dp32
g19
Vhttp://i.ebayimg.com/images/g/uCAAAOSwX61ZNhO5/s-l1600.jpg
p33
sg21
Vhttp://i.ebayimg.com/images/g/uCAAAOSwX61ZNhO5/s-l300.jpg
p34
sa(dp35
g19
Vhttp://i.ebayimg.com/images/g/fOIAAOSw1WJZNhJ1/s-l1600.jpg
p36
sg21
Vhttp://i.ebayimg.com/images/g/fOIAAOSw1WJZNhJ1/s-l300.jpg
p37
sa(dp38
g19
Vhttp://i.ebayimg.com/images/g/2VMAAOSwaeRZNhJ4/s-l1600.jpg
p39
sg21
Vhttp://i.ebayimg.com/images/g/2VMAAOSwaeRZNhJ4/s-l300.jpg
p40
sa(dp41
g19
Vhttp://i.ebayimg.com/images/g/98cAAOSwlMFZNhPD/s-l1600.jpg
p42
sg21
Vhttp://i.ebayimg.com/images/g/98cAAOSwlMFZNhPD/s-l300.jpg
p43
sa(dp44
g19
Vhttp://i.ebayimg.com/images/g/Od4AAOSwlndZNhPY/s-l1600.jpg
p45
sg21
Vhttp://i.ebayimg.com/images/g/Od4AAOSwlndZNhPY/s-l300.jpg
p46
sa(dp47
g19
Vhttp://i.ebayimg.com/images/g/-eUAAOSwPh5ZNhKF/s-l1600.jpg
p48
sg21
Vhttp://i.ebayimg.com/images/g/-eUAAOSwPh5ZNhKF/s-l300.jpg
p49
sa(dp50
g19
Vhttp://i.ebayimg.com/images/g/DxMAAOSwZ4dZNhPd/s-l1600.jpg
p51
sg21
Vhttp://i.ebayimg.com/images/g/DxMAAOSwZ4dZNhPd/s-l300.jpg
p52
sa(dp53
g19
Vhttp://i.ebayimg.com/images/g/mYEAAOSw42JZNhKO/s-l1600.jpg
p54
sg21
Vhttp://i.ebayimg.com/images/g/mYEAAOSw42JZNhKO/s-l300.jpg
p55
sasS'shipping_info'
p56
(dp57
S'item_location'
p58
(lp59
V\u000aTunkhannock, Pennsylvania, United States
p60
asS'delivery'
p61
(lp62
VVaries
p63
asS'posts_to'
p64
(lp65
VLocal pick-up only
p66
assS'id'
p67
S'332252860952'
p68
s.