(dp1
S'title'
p2
V2010 bobcat e80 hydraulic excavator, full cab, air, heat, blade, new tracks
p3
sS'url'
p4
S'http://www.ebay.com/itm/2010-Bobcat-E80-Hydraulic-Excavator-Full-Cab-Air-Heat-Blade-New-Tracks-/352073196973?hash=item51f932a5ad:g:M40AAOSwstxVgBup'
p5
sS'price'
p6
VUS $46,500.00
p7
sS'seller'
p8
(dp9
g4
Vhttp://www.ebay.com/usr/0992?_trksid=p2047675.l2559
p10
sS'name'
p11
V 0992
p12
ssS'description_links'
p13
(lp14
Vhttp://vi.vipr.ebaydesc.com/ws/eBayISAPI.dll?ViewItemDescV4&item=352073196973&t=1496287960000&tid=10&category=97122&seller=0992&excSoj=1&excTrk=1&lsite=0&ittenable=false&domain=ebay.com&descgauge=1
p15
asS'images'
p16
(lp17
(dp18
S'maxImageUrl'
p19
Vhttp://i.ebayimg.com/images/g/M40AAOSwstxVgBup/s-l1600.jpg
p20
sS'displayImgUrl'
p21
Vhttp://i.ebayimg.com/images/g/M40AAOSwstxVgBup/s-l300.jpg
p22
sa(dp23
g19
Vhttp://i.ebayimg.com/images/g/pgQAAOSwl8NVgBup/s-l1600.jpg
p24
sg21
Vhttp://i.ebayimg.com/images/g/pgQAAOSwl8NVgBup/s-l300.jpg
p25
sa(dp26
g19
Vhttp://i.ebayimg.com/images/g/OW0AAOSwBLlVgBup/s-l1600.jpg
p27
sg21
Vhttp://i.ebayimg.com/images/g/OW0AAOSwBLlVgBup/s-l300.jpg
p28
sa(dp29
g19
Vhttp://i.ebayimg.com/images/g/M5oAAOSwstxVgBuq/s-l1600.jpg
p30
sg21
Vhttp://i.ebayimg.com/images/g/M5oAAOSwstxVgBuq/s-l300.jpg
p31
sa(dp32
g19
Vhttp://i.ebayimg.com/images/g/MZoAAOSwrklVgBup/s-l1600.jpg
p33
sg21
Vhttp://i.ebayimg.com/images/g/MZoAAOSwrklVgBup/s-l300.jpg
p34
sa(dp35
g19
Vhttp://i.ebayimg.com/images/g/OW8AAOSwBLlVgBup/s-l1600.jpg
p36
sg21
Vhttp://i.ebayimg.com/images/g/OW8AAOSwBLlVgBup/s-l300.jpg
p37
sa(dp38
g19
Vhttp://i.ebayimg.com/images/g/riMAAOSwNSxVgBup/s-l1600.jpg
p39
sg21
Vhttp://i.ebayimg.com/images/g/riMAAOSwNSxVgBup/s-l300.jpg
p40
sa(dp41
g19
Vhttp://i.ebayimg.com/images/g/rjAAAOSwNSxVgBuq/s-l1600.jpg
p42
sg21
Vhttp://i.ebayimg.com/images/g/rjAAAOSwNSxVgBuq/s-l300.jpg
p43
sa(dp44
g19
Vhttp://i.ebayimg.com/images/g/rjEAAOSwNSxVgBuq/s-l1600.jpg
p45
sg21
Vhttp://i.ebayimg.com/images/g/rjEAAOSwNSxVgBuq/s-l300.jpg
p46
sa(dp47
g19
Vhttp://i.ebayimg.com/images/g/7wUAAOSw2VJVgBuq/s-l1600.jpg
p48
sg21
Vhttp://i.ebayimg.com/images/g/7wUAAOSw2VJVgBuq/s-l300.jpg
p49
sa(dp50
g19
Vhttp://i.ebayimg.com/images/g/7xMAAOSw2VJVgBuq/s-l1600.jpg
p51
sg21
Vhttp://i.ebayimg.com/images/g/7xMAAOSw2VJVgBuq/s-l300.jpg
p52
sa(dp53
g19
Vhttp://i.ebayimg.com/images/g/ABUAAOSw~ZdVgBur/s-l1600.jpg
p54
sg21
Vhttp://i.ebayimg.com/images/g/ABUAAOSw~ZdVgBur/s-l300.jpg
p55
sasS'shipping_info'
p56
(dp57
S'item_location'
p58
(lp59
V\u000aMyerstown, Pennsylvania, United States
p60
asS'delivery'
p61
(lp62
VVaries
p63
asS'posts_to'
p64
(lp65
VLocal pick-up only
p66
assS'id'
p67
S'352073196973'
p68
s.