(dp1
S'title'
p2
V\u000aJOEDAN NEW BOBCAT MEN BASKEYBALL SHOES SPORTS SHOES\u000a
p3
sS'url'
p4
Vhttp://www.ioffer.com/i/joedan-new-bobcat-men-baskeyball-shoes-sports-shoes-623585377
p5
sS'price'
p6
V$65.00
p7
sS'seller'
p8
(lp9
sS'description_links'
p10
(lp11
sS'images'
p12
(lp13
Vhttp://cdn.iofferphoto.com/img3/item/623/585/377/t_joedan-new-bobcat-men-baskeyball-shoes-sports-shoes-d06d.jpg
p14
aVhttp://cdn.iofferphoto.com/img3/item/623/585/377/t_joedan-new-bobcat-men-baskeyball-shoes-sports-shoes-2317.jpg
p15
aVhttp://cdn.iofferphoto.com/img3/item/623/585/377/t_joedan-new-bobcat-men-baskeyball-shoes-sports-shoes-f90f.jpg
p16
aVhttp://cdn.iofferphoto.com/img3/item/623/585/377/t_joedan-new-bobcat-men-baskeyball-shoes-sports-shoes-9254.jpg
p17
aVhttp://cdn.iofferphoto.com/img3/item/623/585/377/t_joedan-new-bobcat-men-baskeyball-shoes-sports-shoes-95f1.jpg
p18
aVhttp://cdn.iofferphoto.com/img3/item/623/585/377/t_joedan-new-bobcat-men-baskeyball-shoes-sports-shoes-4e66.jpg
p19
asS'shipping_info'
p20
VAvailable ColorsAvailable SizesMen's Shoe SizesUSA891011121314UK7.58.59.510.511.512.513.5European41424344454647Japan26272829303132Estimated Shipping3 - 5 Days
p21
sS'id'
p22
V623585377_1497055058
p23
s.