(dp1
S'title'
p2
V\u000aNEW JORDAN AJ OVO GS SKY Bobcats color MEN SPORTS SHOES\u000a
p3
sS'url'
p4
Vhttp://www.ioffer.com/i/new-jordan-aj-ovo-gs-sky-bobcats-color-men-sports-shoes-623977669
p5
sS'price'
p6
V$65.00
p7
sS'seller'
p8
(lp9
sS'description_links'
p10
VMen Shoe SizeEuro 40 = US7 = UK6 =25CMEuro 41 = US8 = UK7 =26CMEuro 42 = US8.5 = UK7.5 =26.5CMEuro 43 = US9.5 = UK8.5 =27.5CMEuro 44 = US10 = UK9 =28CMEuro 45 = US11 = UK10 =29CMEuro 46 = US12 = UK11 =30CMEuro 47 = US13 = UK12 =30.5-31CM
p11
sS'images'
p12
(lp13
Vhttp://cdn.iofferphoto.com/img/item/623/977/669/t_new-jordan-aj-ovo-gs-sky-bobcats-color-men-sports-shoes-0b79.jpg
p14
aVhttp://cdn.iofferphoto.com/img/item/623/977/669/t_new-jordan-aj-ovo-gs-sky-bobcats-color-men-sports-shoes-caff.jpg
p15
aVhttp://cdn.iofferphoto.com/img/item/623/977/669/t_new-jordan-aj-ovo-gs-sky-bobcats-color-men-sports-shoes-7207.jpg
p16
asS'shipping_info'
p17
VAvailable ColorsAvailable SizesMen's Shoe SizesUSA8910111213UK7.58.59.510.511.512.5European414243444546Japan262728293031Estimated Shipping3 - 5 Days
p18
sS'id'
p19
V623977669_1497055053
p20
s.