(dp1
S'title'
p2
V\u000aJORDAN OVO GS SKY Black gray Bobcats WOMEN SPORTS SHOES\u000a
p3
sS'url'
p4
Vhttp://www.ioffer.com/i/jordan-ovo-gs-sky-black-gray-bobcats-women-sports-shoes-624036317
p5
sS'price'
p6
V$65.00
p7
sS'seller'
p8
(lp9
sS'description_links'
p10
VWomen Shoe SizeEuro 36 = US5.5 = UK3 =22.5CMEuro 37 = US6.5 = UK4 =23.5CMEuro 38 = US7 = UK4.5 =24CMEuro 39 = US8 = UK5.5 =24.5CMEuro 40 = US8.5 = UK6 =25.5CM
p11
sS'images'
p12
(lp13
Vhttp://cdn.iofferphoto.com/img3/item/624/036/317/t_jordan-ovo-gs-sky-black-gray-bobcats-women-sports-shoes-386f.jpg
p14
aVhttp://cdn.iofferphoto.com/img3/item/624/036/317/t_jordan-ovo-gs-sky-black-gray-bobcats-women-sports-shoes-8f93.jpg
p15
aVhttp://cdn.iofferphoto.com/img3/item/624/036/317/t_jordan-ovo-gs-sky-black-gray-bobcats-women-sports-shoes-fa06.jpg
p16
aVhttp://cdn.iofferphoto.com/img3/item/624/036/317/t_jordan-ovo-gs-sky-black-gray-bobcats-women-sports-shoes-d729.jpg
p17
asS'shipping_info'
p18
VAvailable ColorsAvailable SizesWomen's Shoe SizesUSA5.56.57.58.59.5UK3.54.55.56.57.5European3637383940Japan21.522.524.525.526.5Estimated Shipping3 - 5 Days
p19
sS'id'
p20
V624036317_1497055068
p21
s.