(dp1
S'title'
p2
V\u000aNEW JOEDAN1 BOBCATS WOMEN BASKETBALL SHOES SPORTS SHOES\u000a
p3
sS'url'
p4
Vhttp://www.ioffer.com/i/new-joedan1-bobcats-women-basketball-shoes-sports-shoes-624422351
p5
sS'price'
p6
V$89.00
p7
sS'seller'
p8
(lp9
sS'description_links'
p10
(lp11
sS'images'
p12
(lp13
Vhttp://cdn.iofferphoto.com/img/item/624/422/351/t_new-joedan1-bobcats-women-basketball-shoes-sports-shoes-f590.jpg
p14
aVhttp://cdn.iofferphoto.com/img/item/624/422/351/t_new-joedan1-bobcats-women-basketball-shoes-sports-shoes-efeb.jpg
p15
asS'shipping_info'
p16
VAvailable ColorsAvailable SizesWomen's Shoe SizesUSA5.566.577.588.599.5UK3.544.555.566.577.5European3636.53737.53838.53939.540Japan21.52222.52324.52525.52626.5Estimated Shipping1 - 3 Days
p17
sS'id'
p18
V624422351_1497055025
p19
s.