(dp1
S'title'
p2
V\u000aAIR J0RDAN 6 RETRO BOBCAT SKY HIJH MEN SPORTS SHOES\u000a
p3
sS'url'
p4
Vhttp://www.ioffer.com/i/air-j0rdan-6-retro-bobcat-sky-hijh-men-sports-shoes-628240361
p5
sS'price'
p6
V$65.00
p7
sS'seller'
p8
(lp9
sS'description_links'
p10
(lp11
sS'images'
p12
(lp13
Vhttp://cdn.iofferphoto.com/img3/item/628/240/361/t_air-j0rdan-6-retro-bobcat-sky-hijh-men-sports-shoes-8ca3.jpg
p14
aVhttp://cdn.iofferphoto.com/img3/item/628/240/361/t_air-j0rdan-6-retro-bobcat-sky-hijh-men-sports-shoes-baea.jpg
p15
aVhttp://cdn.iofferphoto.com/img3/item/628/240/361/t_air-j0rdan-6-retro-bobcat-sky-hijh-men-sports-shoes-f07c.jpg
p16
aVhttp://cdn.iofferphoto.com/img3/item/628/240/361/t_air-j0rdan-6-retro-bobcat-sky-hijh-men-sports-shoes-6ec6.jpg
p17
aVhttp://cdn.iofferphoto.com/img3/item/628/240/361/t_air-j0rdan-6-retro-bobcat-sky-hijh-men-sports-shoes-2e4b.jpg
p18
aVhttp://cdn.iofferphoto.com/img3/item/628/240/361/t_air-j0rdan-6-retro-bobcat-sky-hijh-men-sports-shoes-8697.jpg
p19
asS'shipping_info'
p20
VAvailable ColorsAvailable SizesMen's Shoe SizesUSA8910111213UK7.58.59.510.511.512.5European414243444546Japan262728293031Estimated Shipping3 - 5 Days
p21
sS'id'
p22
V628240361_1497055089
p23
s.