(dp1
S'title'
p2
VWOMEN'S MONTANA LYNX (BOBCAT) CAT FUR VEST - (SIZE - MEDIUM) 
p3
sS'url'
p4
Vhttp://www.glacierwear.com/women-s-bobcat-lynx-cat-fur-vest-shadow-fox-trim-6740.html
p5
sS'price'
p6
V2495
p7
sS'seller'
p8
(lp9
sS'description_links'
p10
Vvst1095- Crafted from One of the Most Exclusive Furs in the World- Super Select Montana Bobcats - Two Exterior Pockets- Flip-Up Collar- Silk,Satin Lining- Hook and Eye ClosureEnjoy Wearing Luxurious Warmth
p11
sS'images'
p12
(lp13
Vhttp://www.glacierwear.com/media/catalog/product/cache/1/thumbnail/500x/17f82f742ffe127f42dca9de82fb58b1/i/m/img_2150_1.jpg
p14
asS'shipping_info'
p15
VFree Shipping on $100.00+
p16
sS'id'
p17
V6740_1497054951
p18
s.