(dp1
S'title'
p2
VBobcat Claw Cap
p3
sS'url'
p4
Vhttp://www.glacierwear.com/bobcat-claw-cap.html
p5
sS'price'
p6
V24.95
p7
sS'seller'
p8
(lp9
sS'description_links'
p10
Vbct-2101-cplBobcat Claw CapGenuine Bobcat Claw Capped In Sterling Silver. Silver Cap Has Details & Fancy Pointed Edges. Size of Claws Vary In Size And Shape. All One Of A Kind. MADE IN USA!!
p11
sS'images'
p12
(lp13
Vhttp://www.glacierwear.com/media/catalog/product/cache/1/image/9df78eab33525d08d6e5fb8d27136e95/g/e/genuine_bobcat_claw_cap.jpg
p14
asS'shipping_info'
p15
VFree Shipping on $100.00+
p16
sS'id'
p17
Vcap_1497054988
p18
s.