(dp1
S'title'
p2
VBOBCAT TAILS/KEY CHAINS
p3
sS'url'
p4
Vhttp://www.glacierwear.com/bobcat-tails-key-chains.html
p5
sS'price'
p6
V4.95
p7
sS'seller'
p8
(lp9
sS'description_links'
p10
Vbct1600- Bobcat Tails- Natural Color- Full, Fluffy Tails- Colors Vary
p11
sS'images'
p12
(lp13
Vhttp://www.glacierwear.com/media/catalog/product/cache/1/thumbnail/500x/17f82f742ffe127f42dca9de82fb58b1/1/-/1-img_9221_1.jpg
p14
asS'shipping_info'
p15
VFree Shipping on $100.00+
p16
sS'id'
p17
Vchains_1497055000
p18
s.