(dp1
S'title'
p2
VBOBCAT CLAWS XL - (QTY 5)
p3
sS'url'
p4
Vhttp://www.glacierwear.com/genuine-xl-bobcat-claws.html
p5
sS'price'
p6
V8.75
p7
sS'seller'
p8
(lp9
sS'description_links'
p10
VGenuine XL Bobcat Claws
p11
sS'images'
p12
(lp13
Vhttp://www.glacierwear.com/media/catalog/product/cache/1/thumbnail/500x/17f82f742ffe127f42dca9de82fb58b1/x/l/xl_bobcat_a.jpg
p14
asS'shipping_info'
p15
VFree Shipping on $100.00+
p16
sS'id'
p17
Vclaws_1497054994
p18
s.