(dp1
S'title'
p2
Vsmith & wesson limited edition s.w.a.t. scrimshaw 1of150 mint display set rare
p3
sS'url'
p4
S'http://www.ebay.com/itm/Smith-Wesson-Limited-Edition-S-W-A-T-Scrimshaw-1of150-Mint-Display-Set-RARE-/172696848109?hash=item283588c6ed:g:st0AAOSwSlBY2ZAe'
p5
sS'price'
p6
VUS $799.00
p7
sS'seller'
p8
(dp9
g4
Vhttp://www.ebay.com/usr/armclawhorn?_trksid=p2047675.l2559
p10
sS'name'
p11
V armclawhorn
p12
ssS'description_links'
p13
(lp14
Vhttp://vi.vipr.ebaydesc.com/ws/eBayISAPI.dll?ViewItemDescV4&item=172696848109&t=0&tid=10&category=48818&seller=armclawhorn&excSoj=1&excTrk=1&lsite=0&ittenable=false&domain=ebay.com&descgauge=1
p15
asS'images'
p16
(lp17
(dp18
S'maxImageUrl'
p19
Vhttp://i.ebayimg.com/images/g/st0AAOSwSlBY2ZAe/s-l1600.jpg
p20
sS'displayImgUrl'
p21
Vhttp://i.ebayimg.com/images/g/st0AAOSwSlBY2ZAe/s-l300.jpg
p22
sa(dp23
g19
Vhttp://i.ebayimg.com/images/g/w24AAOSw2gxY2ZAu/s-l1600.jpg
p24
sg21
Vhttp://i.ebayimg.com/images/g/w24AAOSw2gxY2ZAu/s-l300.jpg
p25
sa(dp26
g19
Vhttp://i.ebayimg.com/images/g/SuQAAOSwax5Y2ZBE/s-l1600.jpg
p27
sg21
Vhttp://i.ebayimg.com/images/g/SuQAAOSwax5Y2ZBE/s-l300.jpg
p28
sa(dp29
g19
Vhttp://i.ebayimg.com/images/g/3PUAAOSwXYtY2ZBn/s-l1600.jpg
p30
sg21
Vhttp://i.ebayimg.com/images/g/3PUAAOSwXYtY2ZBn/s-l300.jpg
p31
sa(dp32
g19
Vhttp://i.ebayimg.com/images/g/zYYAAOSw2gxY2ZCV/s-l1600.jpg
p33
sg21
Vhttp://i.ebayimg.com/images/g/zYYAAOSw2gxY2ZCV/s-l300.jpg
p34
sa(dp35
g19
Vhttp://i.ebayimg.com/images/g/KrYAAOSwuxFY2ZC4/s-l1600.jpg
p36
sg21
Vhttp://i.ebayimg.com/images/g/KrYAAOSwuxFY2ZC4/s-l300.jpg
p37
sa(dp38
g19
Vhttp://i.ebayimg.com/images/g/a68AAOSwWxNY2ZDC/s-l1600.jpg
p39
sg21
Vhttp://i.ebayimg.com/images/g/a68AAOSwWxNY2ZDC/s-l300.jpg
p40
sasS'shipping_info'
p41
(dp42
S'item_location'
p43
(lp44
V\u000aNew Bern, North Carolina, United States
p45
asS'delivery'
p46
(lp47
VVaries
p48
asS'posts_to'
p49
(lp50
VUnited States
p51
assS'id'
p52
S'172696848109'
p53
s.