(dp1
S'title'
p2
VAntique Style Folk Art Sail Ship Scrimshaw Bone & Wood Trinket Box
p3
sS'url'
p4
Vhttp://www.ecrater.com/p/21147298/antique-style-folk-art-sail?keywords=scrimshaw
p5
sS'price'
p6
V$39.99
p7
sS'seller'
p8
Vhttp://earlyhomedecor.ecrater.com
p9
sS'description_links'
p10
VAntique Style Folk Art Sail Ship Scrimshaw Bone & Wood Trinket Box
p11
sS'images'
p12
(lp13
Vhttp://s.ecrater.com/stores/236347/545081ac17317_236347b.jpg
p14
asS'shipping_info'
p15
(lp16
VOnly 1 available
p17
aVShipping:USPS calculated - check
p18
aVCondition: Used
p19
asS'id'
p20
V21147298
p21
s.