(dp1
S'title'
p2
VVintage Silver Tone SCRIMSHAW ETCHED TALL SHIP SCREWBACK EARRINGS
p3
sS'url'
p4
Vhttp://www.ecrater.com/p/21806777/vintage-silver-tone-scrimshaw-etched?keywords=scrimshaw
p5
sS'price'
p6
V$19.00
p7
sS'seller'
p8
Vhttp://ahamoment.ecrater.com
p9
sS'description_links'
p10
VThis set came from the estate of retired antique dealer. I do not ship overseas. $5 for shipping and handling.
p11
sS'images'
p12
(lp13
sS'shipping_info'
p14
(lp15
VOnly 1 available
p16
aVShipping:US-Mainland: free(more destinations)
p17
aVCondition: Brand new
p18
asS'id'
p19
V21806777
p20
s.