(dp1
S'title'
p2
VVintage Hallmark 1979 Holiday Scrimshaw Angel Christmas ornament QX1527 Peace Love Joy
p3
sS'url'
p4
Vhttp://www.ecrater.com/p/22565494/vintage-hallmark-1979-holiday-scrimshaw-angel?keywords=scrimshaw
p5
sS'price'
p6
V$14.99
p7
sS'seller'
p8
Vhttp://oakteakstore.ecrater.com
p9
sS'description_links'
p10
VVintage, Hallmark, 1979, Holiday Scrimshaw Angel, Peace, Love, Joy Christmas ornament. QX1527. It is 3-1/2" high and 2-1/2" wide. No box. The ornament is in very good shape with some slight yellowing from age.From a non-smoking home. Please visit my other listings.
p11
sS'images'
p12
(lp13
Vhttp://s.ecrater.com/stores/52230/55592cce5934f_52230b.jpg
p14
asS'shipping_info'
p15
(lp16
V2 available
p17
aVShipping:US-Mainland: $5.05(more destinations)
p18
aVCondition: Used
p19
asS'id'
p20
V22565494
p21
s.