(dp1
S'title'
p2
VChinese Faux Ivory Scrimshaw Box with Dragon
p3
sS'url'
p4
Vhttp://www.ecrater.com/p/23242625/chinese-faux-ivory-scrimshaw-box-with?keywords=scrimshaw
p5
sS'price'
p6
V$20.00
p7
sS'seller'
p8
Vhttp://hourglassantiques.ecrater.com
p9
sS'description_links'
p10
VThis Chinese scrimshaw box was made of faux ivory and hand decorated. The scene depicted is a Chinese dragon. The diameter of this miniature box is 1 7/16 inches (3.7 cm). Excellent condition!   (#525404-D)If you came to this page through a general search, click on my store name, above right, to see the Terms of Service, About Me Page, Category List, combined shipping info, and FAQ\u2019s. If you have any questions, please feel free to click on the "Ask Seller" link. Thank you for visiting Hourglass Antiques and Collectibles!
p11
sS'images'
p12
(lp13
Vhttp://s.ecrater.com/stores/24407/55e2dd5cf0a14_24407b.jpg
p14
asS'shipping_info'
p15
(lp16
VOnly 1 available
p17
aVShipping:USPS calculated - check
p18
aVSales Tax: Alabama: 4%, Arizona: 4%, Arkansas: 4%, California: 4%, Colorado: 4%, Connecticut: 4%, Delaware: 4%, Florida: 5%, Georgia: 4%, Idaho: 4%, Illinois: 4%, Indiana: 4%, Iowa: 4%, Kansas: 4%, Kentucky: 4%, Louisiana: 4%, Maine: 4%, Maryland: 4%, Massachusetts: 4%, Michigan: 4%, Minnesota: 4%, Mississippi: 4%, Missouri: 4%, Montana: 4%, Nebraska: 4%, Nevada: 4%, New Hampshire: 4%, New Jersey: 4%, New Mexico: 4%, New York: 4%, North Carolina: 4%, North Dakota: 4%, Ohio: 4%, Oklahoma: 4%, Oregon: 4%, Pennsylvania: 4%, Rhode Island: 4%, South Carolina: 4%, South Dakota: 4%, Tennessee: 4%, Texas: 4%, Utah: 4%, Vermont: 4%, Virginia: 4%, Washington: 4%, West Virginia: 4%, Wisconsin: 4%, Wyoming: 4%, Washington, DC: 4%
p19
aVCondition: Used
p20
asS'id'
p21
V23242625
p22
s.