(dp1
S'title'
p2
VAntique Style Folk Art Mermaid Scrimshaw Etched Bone & Wood Trinket Box
p3
sS'url'
p4
Vhttp://www.ecrater.com/p/24884712/antique-style-folk-art-mermaid?keywords=scrimshaw
p5
sS'price'
p6
V$30.00
p7
sS'seller'
p8
Vhttp://earlyhomedecor.ecrater.com
p9
sS'description_links'
p10
VAntique Style Folk Art Mermaid Scrimshaw Bone & Wood Trinket Box            This is made from Bovine Cow or Ox bone
p11
sS'images'
p12
(lp13
sS'shipping_info'
p14
(lp15
VOnly 1 available
p16
aVShipping:USPS calculated - check
p17
aVCondition: Used
p18
asS'id'
p19
V24884712
p20
s.