(dp1
S'title'
p2
Vantique scrimshaw ship desk light
p3
sS'url'
p4
S'http://www.ebay.com/itm/Antique-Scrimshaw-Ship-Desk-light-/262569182503?hash=item3d2257c527:g:z1oAAOSwARZXnoLj'
p5
sS'price'
p6
VUS $750.00
p7
sS'seller'
p8
(dp9
g4
Vhttp://www.ebay.com/usr/thelandingcollectibles?_trksid=p2047675.l2559
p10
sS'name'
p11
V thelandingcollectibles
p12
ssS'description_links'
p13
(lp14
Vhttp://vi.vipr.ebaydesc.com/ws/eBayISAPI.dll?ViewItemDescV4&item=262569182503&t=0&tid=10&category=63619&seller=thelandingcollectibles&excSoj=1&excTrk=1&lsite=0&ittenable=false&domain=ebay.com&descgauge=1
p15
asS'images'
p16
(lp17
(dp18
S'maxImageUrl'
p19
Vhttp://i.ebayimg.com/images/g/z1oAAOSwARZXnoLj/s-l1600.jpg
p20
sS'displayImgUrl'
p21
Vhttp://i.ebayimg.com/images/g/z1oAAOSwARZXnoLj/s-l300.jpg
p22
sa(dp23
g19
Vhttp://i.ebayimg.com/images/g/YhwAAOSwtnpXnoLk/s-l1600.jpg
p24
sg21
Vhttp://i.ebayimg.com/images/g/YhwAAOSwtnpXnoLk/s-l300.jpg
p25
sa(dp26
g19
Vhttp://i.ebayimg.com/images/g/qu8AAOSwH3NXnoLl/s-l1600.jpg
p27
sg21
Vhttp://i.ebayimg.com/images/g/qu8AAOSwH3NXnoLl/s-l300.jpg
p28
sa(dp29
g19
Vhttp://i.ebayimg.com/images/g/hksAAOSwIgNXnoLn/s-l1600.jpg
p30
sg21
Vhttp://i.ebayimg.com/images/g/hksAAOSwIgNXnoLn/s-l300.jpg
p31
sa(dp32
g19
Vhttp://i.ebayimg.com/images/g/YoEAAOSwtnpXnoLp/s-l1600.jpg
p33
sg21
Vhttp://i.ebayimg.com/images/g/YoEAAOSwtnpXnoLp/s-l300.jpg
p34
sa(dp35
g19
Vhttp://i.ebayimg.com/images/g/a9MAAOSw3xJXnoLr/s-l1600.jpg
p36
sg21
Vhttp://i.ebayimg.com/images/g/a9MAAOSw3xJXnoLr/s-l300.jpg
p37
sa(dp38
g19
Vhttp://i.ebayimg.com/images/g/hqwAAOSwIgNXnoLs/s-l1600.jpg
p39
sg21
Vhttp://i.ebayimg.com/images/g/hqwAAOSwIgNXnoLs/s-l300.jpg
p40
sa(dp41
g19
Vhttp://i.ebayimg.com/images/g/j2oAAOSwPRlXnoLt/s-l1600.jpg
p42
sg21
Vhttp://i.ebayimg.com/images/g/j2oAAOSwPRlXnoLt/s-l300.jpg
p43
sasS'shipping_info'
p44
(dp45
S'item_location'
p46
(lp47
V\u000aSpringfield, Vermont, United States
p48
asS'delivery'
p49
(lp50
VVaries
p51
asS'posts_to'
p52
(lp53
VUnited States
p54
assS'id'
p55
S'262569182503'
p56
s.