(dp1
S'title'
p2
Vchinese gilt silver mother of pearl inlay snuff bottle chirography scrimshaw
p3
sS'url'
p4
S'http://www.ebay.com/itm/Chinese-Gilt-Silver-Mother-of-Pearl-Inlay-Snuff-Bottle-Chirography-Scrimshaw-/332028686334?hash=item4d4e73affe:g:GRwAAOSwHsRYEioA'
p5
sS'price'
p6
VUS $1,500.00
p7
sS'seller'
p8
(dp9
g4
Vhttp://www.ebay.com/usr/ggyy2u?_trksid=p2047675.l2559
p10
sS'name'
p11
V ggyy2u
p12
ssS'description_links'
p13
(lp14
Vhttp://vi.vipr.ebaydesc.com/ws/eBayISAPI.dll?ViewItemDescV4&item=332028686334&t=1496312569000&tid=10&category=33828&seller=ggyy2u&excSoj=1&excTrk=1&lsite=0&ittenable=false&domain=ebay.com&descgauge=1
p15
asS'images'
p16
(lp17
(dp18
S'maxImageUrl'
p19
Vhttp://i.ebayimg.com/images/g/GRwAAOSwHsRYEioA/s-l1600.jpg
p20
sS'displayImgUrl'
p21
Vhttp://i.ebayimg.com/images/g/GRwAAOSwHsRYEioA/s-l300.jpg
p22
sa(dp23
g19
Vhttp://i.ebayimg.com/images/g/ts8AAOSwHMJYEioG/s-l1600.jpg
p24
sg21
Vhttp://i.ebayimg.com/images/g/ts8AAOSwHMJYEioG/s-l300.jpg
p25
sa(dp26
g19
Vhttp://i.ebayimg.com/images/g/iwQAAOSwA3dYEioJ/s-l1600.jpg
p27
sg21
Vhttp://i.ebayimg.com/images/g/iwQAAOSwA3dYEioJ/s-l300.jpg
p28
sa(dp29
g19
Vhttp://i.ebayimg.com/images/g/GToAAOSwal5YEioP/s-l1600.jpg
p30
sg21
Vhttp://i.ebayimg.com/images/g/GToAAOSwal5YEioP/s-l300.jpg
p31
sa(dp32
g19
Vhttp://i.ebayimg.com/images/g/GawAAOSwal5YEioS/s-l1600.jpg
p33
sg21
Vhttp://i.ebayimg.com/images/g/GawAAOSwal5YEioS/s-l300.jpg
p34
sa(dp35
g19
Vhttp://i.ebayimg.com/images/g/35AAAOSwnbZYEioW/s-l1600.jpg
p36
sg21
Vhttp://i.ebayimg.com/images/g/35AAAOSwnbZYEioW/s-l300.jpg
p37
sa(dp38
g19
Vhttp://i.ebayimg.com/images/g/ajsAAOSwcLxYEioc/s-l1600.jpg
p39
sg21
Vhttp://i.ebayimg.com/images/g/ajsAAOSwcLxYEioc/s-l300.jpg
p40
sa(dp41
g19
Vhttp://i.ebayimg.com/images/g/au4AAOSwcLxYEiog/s-l1600.jpg
p42
sg21
Vhttp://i.ebayimg.com/images/g/au4AAOSwcLxYEiog/s-l300.jpg
p43
sa(dp44
g19
Vhttp://i.ebayimg.com/images/g/GmEAAOSwMVdYEioh/s-l1600.jpg
p45
sg21
Vhttp://i.ebayimg.com/images/g/GmEAAOSwMVdYEioh/s-l300.jpg
p46
sasS'shipping_info'
p47
(dp48
S'item_location'
p49
(lp50
V\u000aTemple City, California, United States
p51
asS'delivery'
p52
(lp53
VVaries
p54
asS'posts_to'
p55
(lp56
VWorldwide
p57
assS'id'
p58
S'332028686334'
p59
s.