(dp1
S'title'
p2
V\u000aMEN'S SHORTS SWIM TRUNKS SAND BEACH TROUSERS More Color\u000a
p3
sS'url'
p4
Vhttp://www.ioffer.com/i/men-s-shorts-swim-trunks-sand-beach-trousers-more-color-615021446
p5
sS'price'
p6
V$9.99
p7
sS'seller'
p8
(lp9
sS'description_links'
p10
VItem Description ============================ SIZE=Waist M(Waist)=60-70CM\uff0823.5-27.5 in\uff09 L(Waist)=70-80CM \uff0828-31.5 in\uff09 XL(Waist)=80-90CM \uff0832-35.5 in\uff09 XXL(Waist)=90-104CM \uff0836-41 in\uff09 XXXL(Waist)=100-120CM \uff0839-47 in\uff09===============================================I have many style So you can just tell me your style(color and size)  You will receive 100% as you see in picture All item is brand new never used and 100% condition For wholesale price please contact usColor: see picture 100% Brand new!!! Outstanding Quality! wholesale Price!!! what you see,what you get if you don't like the item,please not bid on it. thank you for your cooperation. ============================ Shipping\uff08All items will be declared as gift. \uff09============================  * We will ship out in 1-2 business days after receive payment always. ( We will not be delivered. Saturday and Sunday ) *Free airmail shipping to worldwide It usually take 12-24 days in normal to delivery Package arrived date,depending weather situation and airmail shipping . *EMS(Express Mail) Please contact us for price It usually take 4-10 days in normal to delivery  ============================ Payment method ============================ 1) Visa Card an Master Card  2) western union  3) Money Gram  ============================ Return policy ============================ If you are not satisfy please contact me You can return item for full money refund  All items are carefully check to ensure they are in perfect condition before shipping.If the item is found to be faulty on arrival a full refund will be given. Refund must be requested within 3 days after receiving the package.All items must be return in original condition without any physical changes.You need to pay for the shipping of the original item and provide a tracking number.I will refund you the full amount after received item. Thanks for your understanding!
p11
sS'images'
p12
(lp13
Vhttp://cdn.iofferphoto.com/img/item/615/021/446/t_men-s-shorts-swim-trunks-sand-beach-trousers-more-color-c30d.jpg
p14
aVhttp://cdn.iofferphoto.com/img/item/615/021/446/t_men-s-shorts-swim-trunks-sand-beach-trousers-more-color-63d6.jpg
p15
aVhttp://cdn.iofferphoto.com/img/item/615/021/446/t_men-s-shorts-swim-trunks-sand-beach-trousers-more-color-5276.jpg
p16
aVhttp://cdn.iofferphoto.com/img/item/615/021/446/t_men-s-shorts-swim-trunks-sand-beach-trousers-more-color-0c48.jpg
p17
aVhttp://cdn.iofferphoto.com/img/item/615/021/446/t_men-s-shorts-swim-trunks-sand-beach-trousers-more-color-6abd.jpg
p18
asS'shipping_info'
p19
VAvailable ColorsAvailable SizesSizesMediumLargeX-LargeXXL3XLEstimated Shipping10 - 15 Days
p20
sS'id'
p21
V615021446_1497083047
p22
s.