(dp1
S'title'
p2
V\u000aWOMENS push up BIKINI SWIMWEAR SWIM-SUITS\u000a
p3
sS'url'
p4
Vhttp://www.ioffer.com/i/womens-push-up-bikini-swimwear-swim-suits-615874202
p5
sS'price'
p6
V$21.00
p7
sS'seller'
p8
(lp9
sS'description_links'
p10
V...
p11
sS'images'
p12
(lp13
Vhttp://cdn.iofferphoto.com/img3/item/615/874/202/t_womens-push-up-bikini-swimwear-swim-suits-a239.jpg
p14
aVhttp://cdn.iofferphoto.com/img3/item/615/874/202/t_womens-push-up-bikini-swimwear-swim-suits-5aee.jpg
p15
aVhttp://cdn.iofferphoto.com/img3/item/615/874/202/t_womens-push-up-bikini-swimwear-swim-suits-f2f0.jpg
p16
asS'shipping_info'
p17
VAvailable ColorsAvailable SizesSizesSmallMediumLargeX-LargeEstimated Shipping15 - 20 Days
p18
sS'id'
p19
V615874202_1497083056
p20
s.