(dp1
S'title'
p2
V\u000aMen's beach shorts swim shorts pant Jeans Casual pants\u000a
p3
sS'url'
p4
Vhttp://www.ioffer.com/i/men-s-beach-shorts-swim-shorts-pant-jeans-casual-pants-618287518
p5
sS'price'
p6
V$9.88
p7
sS'seller'
p8
(lp9
sS'description_links'
p10
VMore style please go to my store to buy...Or Other Brand...The size is Asian size. Select your size according to the waist. 1 inch = 2.54cm 1cm = 0.39 inch Size M: Waist 68cm-75cm Size L: Waist 75cm-83cm Size XL: Waist 83cm-91cm Size XXL: Waist 91cm-103cm Size 3XL:Waist 100cm-108cmThere rope belt. You can choose a larger size. Payment: Western Union payments support. Credit card payments. Have any questions. Please contact the seller. Welcome
p11
sS'images'
p12
(lp13
Vhttp://cdn.iofferphoto.com/img3/item/618/287/518/t_men-s-beach-shorts-swim-shorts-pant-jeans-casual-pants-c04f.jpg
p14
aVhttp://cdn.iofferphoto.com/img3/item/618/287/518/t_men-s-beach-shorts-swim-shorts-pant-jeans-casual-pants-a297.jpg
p15
aVhttp://cdn.iofferphoto.com/img3/item/618/287/518/t_men-s-beach-shorts-swim-shorts-pant-jeans-casual-pants-01e4.jpg
p16
aVhttp://cdn.iofferphoto.com/img3/item/618/287/518/t_men-s-beach-shorts-swim-shorts-pant-jeans-casual-pants-01ac.jpg
p17
asS'shipping_info'
p18
VAvailable ColorsAvailable SizesSizesMediumLargeX-LargeXXL3XLEstimated Shipping15 - 20 Days
p19
sS'id'
p20
V618287518_1497083052
p21
s.