(dp1
S'title'
p2
VEagle Carving on Caribou Antler
p3
sS'url'
p4
Vhttp://www.thetaxidermystore.com/mountain-caribou-shoulder-taxidermy-mount-10142.html
p5
sS'price'
p6
V$0.00
p7
sS'seller'
p8
(lp9
sS'description_links'
p10
VDetailsDescription of Taxidermy Item For SaleThis is a great Eagle head carving on a Mountain Caribou horn. This horn has an eagle head carved on the end with well done and detailed craftsmanship, earning our Excellent\u2122 overall quality rating. All applicable dimensions are included to help ensure this item will fit within your intended display space.- This item comes with a hanger already attached to the back.- It will hang on a single properly anchored screw.About the Caribou (Rangifer tarandus)As summer approaches, the caribou start one of the largest mammal migrations on the planet, as they travel more than 600 miles south, often along the same path. Females leave several weeks before the males, who follow with yearling calves from the previous breeding season. These large herbivores have sturdy hooves with a hollowed-out center, which can be used as a scoop for digging through the tundra, as well as a paddle for swimming the frigid northern waters. SpecificationsDimensions:*Depth: 6"Height: 21"Width: 16"Weight: 1 lbs
p11
sS'images'
p12
(lp13
Vhttp://www.thetaxidermystore.com/skin/frontend/default/blanco_customization/images/logo.png
p14
aVhttp://www.thetaxidermystore.com/media/wysiwyg/ttsgraphics/sales_banners/Spring-Sale-612.jpg
p15
aVhttp://www.thetaxidermystore.com/media/wysiwyg/ttsgraphics/sales_banners/Spring-Green-CP.jpg
p16
aVhttp://www.thetaxidermystore.com/media/wysiwyg/ttsgraphics/sales_banners/Spring-Sale-612.jpg
p17
aVhttp://www.thetaxidermystore.com/media/wysiwyg/ttsgraphics/sales_banners/Spring-Green-CP.jpg
p18
aVhttp://www.thetaxidermystore.com/media/catalog/product/cache/1/image/396x396/9df78eab33525d08d6e5fb8d27136e95/e/a/eagle-head-carving-on-a-taxidermy-antler-m1-_10142-for-sale-_-the-taxidermy-store.jpg
p19
aVhttp://www.thetaxidermystore.com/media/catalog/product/cache/1/thumbnail/70x70/9df78eab33525d08d6e5fb8d27136e95/e/a/eagle-head-carving-on-a-taxidermy-antler-m1-_10142-for-sale-_-the-taxidermy-store.jpg
p20
aVhttp://www.thetaxidermystore.com//media/wysiwyg/grade/cache/225x225/excellent.png
p21
aVhttp://www.thetaxidermystore.com/skin/frontend/default/blanco_customization/images/loading.gif
p22
aVhttp://www.thetaxidermystore.com/media/wysiwyg/ttsgraphics/Certificate.png
p23
aVhttp://www.thetaxidermystore.com/media/wysiwyg/ttsgraphics/ttshomepage/pinterest-logo.jpg
p24
aV/skin/frontend/default/blanco_customization/images/icon-twitter.png
p25
aV/skin/frontend/default/blanco_customization/images/icon-paypal.png
p26
aV/skin/frontend/default/blanco_customization/images/icon-discover.png
p27
aV/skin/frontend/default/blanco_customization/images/icon-visa.png
p28
aV/skin/frontend/default/blanco_customization/images/icon-american-express.png
p29
aV/skin/frontend/default/blanco_customization/images/icon-mastercard.png
p30
asS'shipping_info'
p31
(lp32
sS'id'
p33
V10142_1497079031
p34
s.