(dp1
S'title'
p2
VEagle Head Sheep Horn Carving For Sale
p3
sS'url'
p4
Vhttp://www.thetaxidermystore.com/eagle-head-carving-on-an-aoudad-horn-for-sale-10750.html
p5
sS'price'
p6
V$0.00
p7
sS'seller'
p8
(lp9
sS'description_links'
p10
VDetailsDescriptionThis is a great Eagle Head Carving. It is carved on the tip of an Aoudad Sheep horn that is mounted to a piece of wall hanging wood for display.- There is a hanger already attached to the back side of this item.- It will hang on a single properly anchored drywall screw.SpecificationsDimensions:*Depth: 4"Height: 25"Width: 12"Weight: 2 lbs
p11
sS'images'
p12
(lp13
Vhttp://www.thetaxidermystore.com/skin/frontend/default/blanco_customization/images/logo.png
p14
aVhttp://www.thetaxidermystore.com/media/wysiwyg/ttsgraphics/sales_banners/Spring-Sale-612.jpg
p15
aVhttp://www.thetaxidermystore.com/media/wysiwyg/ttsgraphics/sales_banners/Spring-Green-CP.jpg
p16
aVhttp://www.thetaxidermystore.com/media/wysiwyg/ttsgraphics/sales_banners/Spring-Sale-612.jpg
p17
aVhttp://www.thetaxidermystore.com/media/wysiwyg/ttsgraphics/sales_banners/Spring-Green-CP.jpg
p18
aVhttp://www.thetaxidermystore.com/media/catalog/product/cache/1/image/396x396/9df78eab33525d08d6e5fb8d27136e95/e/a/eagle-head-carving-on-aoudad-horn-taxidermy-m1-_10750-for-sale-_-the-taxidermy-store.jpg
p19
aVhttp://www.thetaxidermystore.com/media/catalog/product/cache/1/thumbnail/70x70/9df78eab33525d08d6e5fb8d27136e95/e/a/eagle-head-carving-on-aoudad-horn-taxidermy-m1-_10750-for-sale-_-the-taxidermy-store.jpg
p20
aVhttp://www.thetaxidermystore.com/media/catalog/product/cache/1/thumbnail/70x70/9df78eab33525d08d6e5fb8d27136e95/1/0/10750-xq-eagle-antler-carving-horn-decor.jpg
p21
aVhttp://www.thetaxidermystore.com/media/catalog/product/cache/1/thumbnail/70x70/9df78eab33525d08d6e5fb8d27136e95/i/m/img_4940.jpg
p22
aVhttp://www.thetaxidermystore.com/media/catalog/product/cache/1/thumbnail/70x70/9df78eab33525d08d6e5fb8d27136e95/i/m/img_4939.jpg
p23
aVhttp://www.thetaxidermystore.com/media/catalog/product/cache/1/thumbnail/70x70/9df78eab33525d08d6e5fb8d27136e95/i/m/img_4936.jpg
p24
aVhttp://www.thetaxidermystore.com/media/catalog/product/cache/1/thumbnail/70x70/9df78eab33525d08d6e5fb8d27136e95/i/m/img_4944.jpg
p25
aVhttp://www.thetaxidermystore.com/media/catalog/product/cache/1/thumbnail/70x70/9df78eab33525d08d6e5fb8d27136e95/i/m/img_4941.jpg
p26
aVhttp://www.thetaxidermystore.com/media/catalog/product/cache/1/thumbnail/70x70/9df78eab33525d08d6e5fb8d27136e95/i/m/img_4938.jpg
p27
aVhttp://www.thetaxidermystore.com/media/catalog/product/cache/1/thumbnail/70x70/9df78eab33525d08d6e5fb8d27136e95/i/m/img_4937.jpg
p28
aVhttp://www.thetaxidermystore.com/media/catalog/product/cache/1/thumbnail/70x70/9df78eab33525d08d6e5fb8d27136e95/i/m/img_4935.jpg
p29
aVhttp://www.thetaxidermystore.com//media/wysiwyg/grade/cache/225x225/excellent_+.png
p30
aVhttp://www.thetaxidermystore.com/media/wysiwyg/ttsgraphics/Certificate.png
p31
aVhttp://www.thetaxidermystore.com/media/wysiwyg/ttsgraphics/ttshomepage/pinterest-logo.jpg
p32
aV/skin/frontend/default/blanco_customization/images/icon-twitter.png
p33
aV/skin/frontend/default/blanco_customization/images/icon-paypal.png
p34
aV/skin/frontend/default/blanco_customization/images/icon-discover.png
p35
aV/skin/frontend/default/blanco_customization/images/icon-visa.png
p36
aV/skin/frontend/default/blanco_customization/images/icon-american-express.png
p37
aV/skin/frontend/default/blanco_customization/images/icon-mastercard.png
p38
asS'shipping_info'
p39
(lp40
sS'id'
p41
V10750_1497078985
p42
s.