(dp1
S'title'
p2
Velgin eagle 2002
p3
sS'url'
p4
S'http://www.ebay.com/itm/Elgin-Eagle-2002-/122530109902?hash=item1c875d19ce:g:aJ4AAOSwB-1Y4qH5'
p5
sS'price'
p6
VUS $65,000.00
p7
sS'seller'
p8
(dp9
g4
Vhttp://www.ebay.com/usr/coronadojessica16jessica?_trksid=p2047675.l2559
p10
sS'name'
p11
V coronadojessica16jessica
p12
ssS'description_links'
p13
(lp14
Vhttp://vi.vipr.ebaydesc.com/ws/eBayISAPI.dll?ViewItemDescV4&item=122530109902&t=0&tid=10&category=66969&seller=coronadojessica16jessica&excSoj=1&excTrk=1&lsite=0&ittenable=false&domain=ebay.com&descgauge=1
p15
asS'images'
p16
(lp17
(dp18
S'maxImageUrl'
p19
Vhttp://i.ebayimg.com/images/g/aJ4AAOSwB-1Y4qH5/s-l1600.jpg
p20
sS'displayImgUrl'
p21
Vhttp://i.ebayimg.com/images/g/aJ4AAOSwB-1Y4qH5/s-l300.jpg
p22
sa(dp23
g19
Vhttp://i.ebayimg.com/images/g/G2YAAOSw4CFY4qIR/s-l1600.jpg
p24
sg21
Vhttp://i.ebayimg.com/images/g/G2YAAOSw4CFY4qIR/s-l300.jpg
p25
sa(dp26
g19
Vhttp://i.ebayimg.com/images/g/2mMAAOSwmgJY4qUG/s-l1600.jpg
p27
sg21
Vhttp://i.ebayimg.com/images/g/2mMAAOSwmgJY4qUG/s-l300.jpg
p28
sa(dp29
g19
Vhttp://i.ebayimg.com/images/g/crgAAOSwB-1Y4qIm/s-l1600.jpg
p30
sg21
Vhttp://i.ebayimg.com/images/g/crgAAOSwB-1Y4qIm/s-l300.jpg
p31
sa(dp32
g19
Vhttp://i.ebayimg.com/images/g/qS8AAOSw4CFY4qUh/s-l1600.jpg
p33
sg21
Vhttp://i.ebayimg.com/images/g/qS8AAOSw4CFY4qUh/s-l300.jpg
p34
sa(dp35
g19
Vhttp://i.ebayimg.com/images/g/xfoAAOSwhQhY4qIw/s-l1600.jpg
p36
sg21
Vhttp://i.ebayimg.com/images/g/xfoAAOSwhQhY4qIw/s-l300.jpg
p37
sa(dp38
g19
Vhttp://i.ebayimg.com/images/g/x4kAAOSwhQhY4qI4/s-l1600.jpg
p39
sg21
Vhttp://i.ebayimg.com/images/g/x4kAAOSwhQhY4qI4/s-l300.jpg
p40
sa(dp41
g19
Vhttp://i.ebayimg.com/images/g/tDcAAOSwU8hY4qJC/s-l1600.jpg
p42
sg21
Vhttp://i.ebayimg.com/images/g/tDcAAOSwU8hY4qJC/s-l300.jpg
p43
sa(dp44
g19
Vhttp://i.ebayimg.com/images/g/x18AAOSwA29Y4qJP/s-l1600.jpg
p45
sg21
Vhttp://i.ebayimg.com/images/g/x18AAOSwA29Y4qJP/s-l300.jpg
p46
sa(dp47
g19
Vhttp://i.ebayimg.com/images/g/zdwAAOSwhQhY4qJV/s-l1600.jpg
p48
sg21
Vhttp://i.ebayimg.com/images/g/zdwAAOSwhQhY4qJV/s-l300.jpg
p49
sa(dp50
g19
Vhttp://i.ebayimg.com/images/g/l7sAAOSww3tY4qJZ/s-l1600.jpg
p51
sg21
Vhttp://i.ebayimg.com/images/g/l7sAAOSww3tY4qJZ/s-l300.jpg
p52
sa(dp53
g19
Vhttp://i.ebayimg.com/images/g/z6AAAOSwhQhY4qJd/s-l1600.jpg
p54
sg21
Vhttp://i.ebayimg.com/images/g/z6AAAOSwhQhY4qJd/s-l300.jpg
p55
sasS'shipping_info'
p56
(dp57
S'item_location'
p58
(lp59
V\u000aGrand Prairie, Texas, United States
p60
asS'delivery'
p61
(lp62
VVaries
p63
asS'posts_to'
p64
(lp65
VLocal pick-up only
p66
assS'id'
p67
S'122530109902'
p68
s.