(dp1
S'title'
p2
VHuge American Indian Eagle Basket!
p3
sS'url'
p4
Vhttp://www.ecrater.com/p/14664438/huge-american-indian-eagle-basket?keywords=eagle
p5
sS'price'
p6
V$1,600.00
p7
sS'seller'
p8
Vhttp://menco.ecrater.com
p9
sS'description_links'
p10
VFinely woven basket 13" across by 12 1/2" high. Early 20th Century attributed to Arizona's Papago tribe.
p11
sS'images'
p12
(lp13
Vhttp://s.ecrater.com/stores/254036/5547976798c2d_254036b.jpg
p14
asS'shipping_info'
p15
(lp16
VOnly 1 available
p17
aVShipping:US-Mainland: free(more destinations)
p18
aVCondition: Used
p19
asS'id'
p20
V14664438
p21
s.