(dp1
S'title'
p2
V2004 american coach american eagle 40
p3
sS'url'
p4
S'http://www.ebay.com/itm/2004-American-Coach-American-Eagle-40-/152580260938?hash=item23867e044a:g:ckcAAOSw4A5Yzs-7&vxp=mtr'
p5
sS'price'
p6
VUS $125,000.00
p7
sS'seller'
p8
(dp9
g4
Vhttp://www.ebay.com/usr/poprvs?_trksid=p2047675.l2559
p10
sS'name'
p11
V poprvs
p12
ssS'description_links'
p13
(lp14
Vhttp://vi.vipr.ebaydesc.com/ws/eBayISAPI.dll?ViewItemDescV4&item=152580260938&t=0&tid=10&category=50056&seller=poprvs&excSoj=1&excTrk=1&lsite=100&ittenable=false&domain=ebay.com&descgauge=1
p15
asS'images'
p16
(lp17
(dp18
S'maxImageUrl'
p19
Vhttp://i.ebayimg.com/images/g/ckcAAOSw4A5Yzs-7/s-l1600.jpg
p20
sS'displayImgUrl'
p21
Vhttp://i.ebayimg.com/images/g/ckcAAOSw4A5Yzs-7/s-l300.jpg
p22
sa(dp23
g19
Vhttp://i.ebayimg.com/images/g/tD0AAOSw32lYzs-9/s-l1600.jpg
p24
sg21
Vhttp://i.ebayimg.com/images/g/tD0AAOSw32lYzs-9/s-l300.jpg
p25
sa(dp26
g19
Vhttp://i.ebayimg.com/images/g/vegAAOSwax5Yzs~A/s-l1600.jpg
p27
sg21
Vhttp://i.ebayimg.com/images/g/vegAAOSwax5Yzs~A/s-l300.jpg
p28
sa(dp29
g19
Vhttp://i.ebayimg.com/images/g/vn4AAOSwTM5Yzs~C/s-l1600.jpg
p30
sg21
Vhttp://i.ebayimg.com/images/g/vn4AAOSwTM5Yzs~C/s-l300.jpg
p31
sa(dp32
g19
Vhttp://i.ebayimg.com/images/g/~ngAAOSwOgdYzs~E/s-l1600.jpg
p33
sg21
Vhttp://i.ebayimg.com/images/g/~ngAAOSwOgdYzs~E/s-l300.jpg
p34
sa(dp35
g19
Vhttp://i.ebayimg.com/images/g/R5UAAOSw4YdYzs~G/s-l1600.jpg
p36
sg21
Vhttp://i.ebayimg.com/images/g/R5UAAOSw4YdYzs~G/s-l300.jpg
p37
sa(dp38
g19
Vhttp://i.ebayimg.com/images/g/aTIAAOSwol5Yzs~H/s-l1600.jpg
p39
sg21
Vhttp://i.ebayimg.com/images/g/aTIAAOSwol5Yzs~H/s-l300.jpg
p40
sa(dp41
g19
Vhttp://i.ebayimg.com/images/g/rd4AAOSwB-1Yzs~K/s-l1600.jpg
p42
sg21
Vhttp://i.ebayimg.com/images/g/rd4AAOSwB-1Yzs~K/s-l300.jpg
p43
sa(dp44
g19
Vhttp://i.ebayimg.com/images/g/risAAOSwB-1Yzs~M/s-l1600.jpg
p45
sg21
Vhttp://i.ebayimg.com/images/g/risAAOSwB-1Yzs~M/s-l300.jpg
p46
sa(dp47
g19
Vhttp://i.ebayimg.com/images/g/p7IAAOSw2gxYzs~Y/s-l1600.jpg
p48
sg21
Vhttp://i.ebayimg.com/images/g/p7IAAOSw2gxYzs~Y/s-l300.jpg
p49
sa(dp50
g19
Vhttp://i.ebayimg.com/images/g/5PUAAOSwSlBYzs~k/s-l1600.jpg
p51
sg21
Vhttp://i.ebayimg.com/images/g/5PUAAOSwSlBYzs~k/s-l300.jpg
p52
sa(dp53
g19
Vhttp://i.ebayimg.com/images/g/TQgAAOSw4YdYzs~m/s-l1600.jpg
p54
sg21
Vhttp://i.ebayimg.com/images/g/TQgAAOSw4YdYzs~m/s-l300.jpg
p55
sasS'shipping_info'
p56
(dp57
S'item_location'
p58
(lp59
sS'delivery'
p60
(lp61
sS'posts_to'
p62
(lp63
VLocal pick-up only
p64
assS'id'
p65
S'152580260938'
p66
s.