(dp1
S'title'
p2
VReproduction Bateleur Eagle Taxidermy Bird Mount For Sale
p3
sS'url'
p4
Vhttp://www.thetaxidermystore.com/bateleur-eagle-reproduction-taxidermy-bird-mount-for-sale-16560.html
p5
sS'price'
p6
V$0.00
p7
sS'seller'
p8
(lp9
sS'description_links'
p10
VDetailsDescription of Taxidermy For SaleThis is a really cool African Bateleur Eagle replica/reproduction taxidermy mount. It contains NO real animal parts, and is made using real feathers from other legal-to-sell birds (e.g. chickens), which are then painted and dyed to create this reproduction. The taxidermy craftsmanship is outstanding, earning our Excellent\u2122 overall quality rating. All applicable measurements are included to make sure this item will fit into the space you intend to display it.- This item comes on a stone base for display.- Great for a mantle, shelf, ledge, table, or countertop.About the Bateleur Eagle (Terathopius ecaudatus)The African Bateleur Eagle is a diurnal predatory bird, which means it hunts over a territory of approximately 250 square miles in a single day. It's appearance is distinct from bald or golden eagles in that it's body is a navy-blue-black in color with grey wings and a bold red beak. SpecificationsDimensions:*Depth: 15"Height: 31"Width: 14"Weight: 10 lbs
p11
sS'images'
p12
(lp13
Vhttp://www.thetaxidermystore.com/skin/frontend/default/blanco_customization/images/logo.png
p14
aVhttp://www.thetaxidermystore.com/media/wysiwyg/ttsgraphics/sales_banners/Spring-Sale-612.jpg
p15
aVhttp://www.thetaxidermystore.com/media/wysiwyg/ttsgraphics/sales_banners/Spring-Green-CP.jpg
p16
aVhttp://www.thetaxidermystore.com/media/wysiwyg/ttsgraphics/sales_banners/Spring-Sale-612.jpg
p17
aVhttp://www.thetaxidermystore.com/media/wysiwyg/ttsgraphics/sales_banners/Spring-Green-CP.jpg
p18
aVhttp://www.thetaxidermystore.com/media/catalog/product/cache/1/image/396x396/9df78eab33525d08d6e5fb8d27136e95/b/a/bateleur-eagle-replica-bird-mount-for-sale-_16560-_-the-taxidermy-store.jpg
p19
aVhttp://www.thetaxidermystore.com/media/catalog/product/cache/1/thumbnail/70x70/9df78eab33525d08d6e5fb8d27136e95/b/a/bateleur-eagle-replica-bird-mount-for-sale-_16560-_-the-taxidermy-store.jpg
p20
aVhttp://www.thetaxidermystore.com/media/catalog/product/cache/1/thumbnail/70x70/9df78eab33525d08d6e5fb8d27136e95/1/6/16560_-_6_of_8.jpg
p21
aVhttp://www.thetaxidermystore.com/media/catalog/product/cache/1/thumbnail/70x70/9df78eab33525d08d6e5fb8d27136e95/1/6/16560_-_3_of_8.jpg
p22
aVhttp://www.thetaxidermystore.com/media/catalog/product/cache/1/thumbnail/70x70/9df78eab33525d08d6e5fb8d27136e95/1/6/16560_-_4_of_8.jpg
p23
aVhttp://www.thetaxidermystore.com/media/catalog/product/cache/1/thumbnail/70x70/9df78eab33525d08d6e5fb8d27136e95/1/6/16560_-_5_of_8.jpg
p24
aVhttp://www.thetaxidermystore.com/media/catalog/product/cache/1/thumbnail/70x70/9df78eab33525d08d6e5fb8d27136e95/1/6/16560_-_2_of_8.jpg
p25
aVhttp://www.thetaxidermystore.com//media/wysiwyg/grade/cache/225x225/excellent.png
p26
aVhttp://www.thetaxidermystore.com/media/wysiwyg/ttsgraphics/Certificate.png
p27
aVhttp://www.thetaxidermystore.com/media/wysiwyg/ttsgraphics/ttshomepage/pinterest-logo.jpg
p28
aV/skin/frontend/default/blanco_customization/images/icon-twitter.png
p29
aV/skin/frontend/default/blanco_customization/images/icon-paypal.png
p30
aV/skin/frontend/default/blanco_customization/images/icon-discover.png
p31
aV/skin/frontend/default/blanco_customization/images/icon-visa.png
p32
aV/skin/frontend/default/blanco_customization/images/icon-american-express.png
p33
aV/skin/frontend/default/blanco_customization/images/icon-mastercard.png
p34
asS'shipping_info'
p35
(lp36
sS'id'
p37
V16560_1497078971
p38
s.