(dp1
S'title'
p2
VReproduction Golden Eagle Taxidermy Bird Mount For Sale
p3
sS'url'
p4
Vhttp://www.thetaxidermystore.com/eagle-reproduction-taxidermy-bird-mount-16560.html
p5
sS'price'
p6
V$0.00
p7
sS'seller'
p8
(lp9
sS'description_links'
p10
VDetailsDescription of Taxidermy For SaleThis is an incredible Reproduction Golden Eagle taxidermy mount. It contains NO real animal parts, and is made using real feathers from other legal-to-sell birds (e.g. chickens), which are then painted and dyed to create this reproduction. The taxidermy craftsmanship is outstanding, earning our Excellent Plus\u2122 overall quality rating. All applicable measurements are included to make sure this item will fit into the space you intend to display it.- This item comes on a stone base for display.- Great for a mantle, shelf, ledge, table, or countertop.About the Golden Eagle (Haliaeetus leucocephalus)The Golden Eagle is one of the most popular and widely distributed birds of prey in the northern hemisphere. It's speed, powerful talons and massive 6 to 8 foot wingspan, make it one of the most powerful predatory birds on the planet. The Golden Eagle can be found in river and lake-fed woodland areas across the northern half of the globe. Though it will scavenge for small mammals or carrion, it prefers habitats near rivers and lakes, where they can search for fish. SpecificationsDimensions:*Depth: 20"Height: 23"Width: 17"Weight: 29 lbs
p11
sS'images'
p12
(lp13
Vhttp://www.thetaxidermystore.com/skin/frontend/default/blanco_customization/images/logo.png
p14
aVhttp://www.thetaxidermystore.com/media/wysiwyg/ttsgraphics/sales_banners/Spring-Sale-612.jpg
p15
aVhttp://www.thetaxidermystore.com/media/wysiwyg/ttsgraphics/sales_banners/Spring-Green-CP.jpg
p16
aVhttp://www.thetaxidermystore.com/media/wysiwyg/ttsgraphics/sales_banners/Spring-Sale-612.jpg
p17
aVhttp://www.thetaxidermystore.com/media/wysiwyg/ttsgraphics/sales_banners/Spring-Green-CP.jpg
p18
aVhttp://www.thetaxidermystore.com/media/catalog/product/cache/1/image/396x396/9df78eab33525d08d6e5fb8d27136e95/r/e/reproduction-golden-eagle-life-size-taxidermy-mount-_12944-for-sale-_-the-taxidermy-store_2.jpg
p19
aVhttp://www.thetaxidermystore.com/media/catalog/product/cache/1/thumbnail/70x70/9df78eab33525d08d6e5fb8d27136e95/r/e/reproduction-golden-eagle-life-size-taxidermy-mount-_12944-for-sale-_-the-taxidermy-store_2.jpg
p20
aVhttp://www.thetaxidermystore.com//media/wysiwyg/grade/cache/225x225/excellent_+.png
p21
aVhttp://www.thetaxidermystore.com/skin/frontend/default/blanco_customization/images/loading.gif
p22
aVhttp://www.thetaxidermystore.com/media/wysiwyg/ttsgraphics/Certificate.png
p23
aVhttp://www.thetaxidermystore.com/media/wysiwyg/ttsgraphics/ttshomepage/pinterest-logo.jpg
p24
aV/skin/frontend/default/blanco_customization/images/icon-twitter.png
p25
aV/skin/frontend/default/blanco_customization/images/icon-paypal.png
p26
aV/skin/frontend/default/blanco_customization/images/icon-discover.png
p27
aV/skin/frontend/default/blanco_customization/images/icon-visa.png
p28
aV/skin/frontend/default/blanco_customization/images/icon-american-express.png
p29
aV/skin/frontend/default/blanco_customization/images/icon-mastercard.png
p30
asS'shipping_info'
p31
(lp32
sS'id'
p33
V16560_1497079001
p34
s.