(dp1
S'title'
p2
VCarved Eagle Tree Trunk Table For Sale
p3
sS'url'
p4
Vhttp://www.thetaxidermystore.com/carved-eagle-tree-trunk-table-for-sale-16891.html
p5
sS'price'
p6
V$0.00
p7
sS'seller'
p8
(lp9
sS'description_links'
p10
VDetailsDescription of Taxidermy For SaleThis is a beautiful carved wooden table, featuring an incredible eagle head carved into the side of a real tree trunk, with an awesome glass topper, earning our Premier\u2122 overall quality rating. All applicable dimensions are included to help ensure this item will fit within your intended display space.- Great for a floor, mezzanine, or entryway.SpecificationsDimensions:*Depth: 24"Height: 31"Width: 44"Weight: 200 lbsDiameter: 48"
p11
sS'images'
p12
(lp13
Vhttp://www.thetaxidermystore.com/skin/frontend/default/blanco_customization/images/logo.png
p14
aVhttp://www.thetaxidermystore.com/media/wysiwyg/ttsgraphics/sales_banners/Spring-Sale-612.jpg
p15
aVhttp://www.thetaxidermystore.com/media/wysiwyg/ttsgraphics/sales_banners/Spring-Green-CP.jpg
p16
aVhttp://www.thetaxidermystore.com/media/wysiwyg/ttsgraphics/sales_banners/Spring-Sale-612.jpg
p17
aVhttp://www.thetaxidermystore.com/media/wysiwyg/ttsgraphics/sales_banners/Spring-Green-CP.jpg
p18
aVhttp://www.thetaxidermystore.com/media/catalog/product/cache/1/image/396x396/9df78eab33525d08d6e5fb8d27136e95/c/a/carved-eagle-tree-trunk-table-for-sale-_16891-_-the-taxidermy-store.jpg
p19
aVhttp://www.thetaxidermystore.com/media/catalog/product/cache/1/thumbnail/70x70/9df78eab33525d08d6e5fb8d27136e95/c/a/carved-eagle-tree-trunk-table-for-sale-_16891-_-the-taxidermy-store.jpg
p20
aVhttp://www.thetaxidermystore.com/media/catalog/product/cache/1/thumbnail/70x70/9df78eab33525d08d6e5fb8d27136e95/1/6/16891_-_5_of_9.jpg
p21
aVhttp://www.thetaxidermystore.com/media/catalog/product/cache/1/thumbnail/70x70/9df78eab33525d08d6e5fb8d27136e95/1/6/16891_-_4_of_9.jpg
p22
aVhttp://www.thetaxidermystore.com/media/catalog/product/cache/1/thumbnail/70x70/9df78eab33525d08d6e5fb8d27136e95/1/6/16891_-_2_of_9.jpg
p23
aVhttp://www.thetaxidermystore.com/media/catalog/product/cache/1/thumbnail/70x70/9df78eab33525d08d6e5fb8d27136e95/1/6/16891_-_3_of_9.jpg
p24
aVhttp://www.thetaxidermystore.com/media/catalog/product/cache/1/thumbnail/70x70/9df78eab33525d08d6e5fb8d27136e95/1/6/16891_-_1_of_9.jpg
p25
aVhttp://www.thetaxidermystore.com/media/catalog/product/cache/1/thumbnail/70x70/9df78eab33525d08d6e5fb8d27136e95/1/6/16891_-_6_of_9.jpg
p26
aVhttp://www.thetaxidermystore.com/media/catalog/product/cache/1/thumbnail/70x70/9df78eab33525d08d6e5fb8d27136e95/1/6/16891_-_7_of_9.jpg
p27
aVhttp://www.thetaxidermystore.com/media/catalog/product/cache/1/thumbnail/70x70/9df78eab33525d08d6e5fb8d27136e95/1/6/16891_-_8_of_9.jpg
p28
aVhttp://www.thetaxidermystore.com/media/catalog/product/cache/1/thumbnail/70x70/9df78eab33525d08d6e5fb8d27136e95/1/6/16891_-_9_of_9.jpg
p29
aVhttp://www.thetaxidermystore.com//media/wysiwyg/grade/cache/225x225/premier.png
p30
aVhttp://www.thetaxidermystore.com/media/wysiwyg/ttsgraphics/Certificate.png
p31
aVhttp://www.thetaxidermystore.com/media/wysiwyg/ttsgraphics/ttshomepage/pinterest-logo.jpg
p32
aV/skin/frontend/default/blanco_customization/images/icon-twitter.png
p33
aV/skin/frontend/default/blanco_customization/images/icon-paypal.png
p34
aV/skin/frontend/default/blanco_customization/images/icon-discover.png
p35
aV/skin/frontend/default/blanco_customization/images/icon-visa.png
p36
aV/skin/frontend/default/blanco_customization/images/icon-american-express.png
p37
aV/skin/frontend/default/blanco_customization/images/icon-mastercard.png
p38
asS'shipping_info'
p39
(lp40
sS'id'
p41
V16891_1497079010
p42
s.