(dp1
S'title'
p2
V14K KARAT GOLD COIN PENDANT 14.2 DWT UNITED STATES TEN DOLLAR 1885 LIBERTY EAGLE
p3
sS'url'
p4
Vhttp://www.ecrater.com/p/19407545/14k-karat-gold-coin-pendant-142?keywords=eagle
p5
sS'price'
p6
V$1,595.00
p7
sS'seller'
p8
Vhttp://morningstarsjewelers.ecrater.com
p9
sS'description_links'
p10
V<div style="text-align:center"><img src="http://ti2.auctiva.com/sw/java.gif" border="0"><br><table align="center"><tr><td><a style="text-decoration:none" href="http://emporium.auctiva.com/MorningstarJewelers" target="_blank"><img src="http://ti2.auctiva.com/sw/noflash.gif" border="0"></a></td><td height="27px" valign="middle" align="center"><font face="arial" size="2"><b><a href="http://emporium.auctiva.com/MorningstarJewelers" target="_blank">MorningstarJewelers</a> Store</b></font></td></tr></table></div><img src="http://ti2.auctiva.com/web/aswCredit.gif" border="0"><br><a href="http://www.auctiva.com/?how=scLnk0" target="_blank"><img src="http://ti2.auctiva.com/images/sc1line0.gif" border="0"></a> 14K KARAT GOLD COIN PENDANT 14.2 DWT UNITED STATES TEN DOLLAR 1885 LIBERTY EAGLE<div style="text-align:center"><a style="text-decoration:none" href="http://mostpopular.sellathon.com/?id=AC1036956"><img src="http://www.sellathon.com/Resources/Images/countercredit.gif" border="0"></a></div>FREE!  Sellers: Add a FREE map to your listings. FREE!
p11
sS'images'
p12
(lp13
sS'shipping_info'
p14
(lp15
VOnly 1 available
p16
aVShipping:US-Mainland: $20.00(more destinations)
p17
aVCondition: Used
p18
asS'id'
p19
V19407545
p20
s.