(dp1
S'title'
p2
V22K GOLD COIN & 14K FRAME PENDANT UNITED STATES TEN DOLLAR 1885 LIBERTY EAGLE
p3
sS'url'
p4
Vhttp://www.ecrater.com/p/19927932/22k-gold-coin-14k-frame?keywords=eagle
p5
sS'price'
p6
V$1,595.00
p7
sS'seller'
p8
Vhttp://morningstarsjewelers.ecrater.com
p9
sS'description_links'
p10
V&lt;div style="text-align:center"&gt;&lt;img src="http://ti2.auctiva.com/sw/java.gif" border="0"&gt;&lt;br&gt;&lt;table align="center"&gt;&lt;tr&gt;&lt;td&gt;&lt;a style="text-decoration:none" href="http://emporium.auctiva.com/MorningstarJewelers" target="_blank"&gt;&lt;img src="http://ti2.auctiva.com/sw/noflash.gif" border="0"&gt;&lt;/a&gt;&lt;/td&gt;&lt;td height="27px" valign="middle" align="center"&gt;&lt;font face="arial" size="2"&gt;&lt;b&gt;&lt;a href="http://emporium.auctiva.com/MorningstarJewelers" target="_blank"&gt;MorningstarJewelers&lt;/a&gt; Store&lt;/b&gt;&lt;/font&gt;&lt;/td&gt;&lt;/tr&gt;&lt;/table&gt;&lt;/div&gt;&lt;img src="http://ti2.auctiva.com/web/aswCredit.gif" border="0"&gt;&lt;br&gt;&lt;a href="http://www.auctiva.com/?how=scLnk0" target="_blank"&gt;&lt;img src="http://ti2.auctiva.com/images/sc1line0.gif" border="0"&gt;&lt;/a&gt; 14K KARAT GOLD COIN PENDANT 14.2 DWT UNITED STATES TEN DOLLAR 1885 LIBERTY EAGLE&lt;div style="text-align:center"&gt;&lt;a style="text-decoration:none" href="http://mostpopular.sellathon.com/?id=AC1036956"&gt;&lt;img src="http://www.sellathon.com/Resources/Images/countercredit.gif" border="0"&gt;&lt;/a&gt;&lt;/div&gt;       FREE! Sellers: Add a FREE map to your listings. FREE!
p11
sS'images'
p12
(lp13
sS'shipping_info'
p14
(lp15
VOnly 1 available
p16
aVShipping:US-Mainland: $20.00(more destinations)
p17
aVCondition: Used
p18
asS'id'
p19
V19927932
p20
s.