(dp1
S'title'
p2
V52" Eagle Bath CWBT-3052 Soaker Series Wheelchair Accessible Walk-In Bathtub (Left)
p3
sS'url'
p4
Vhttp://www.ecrater.com/p/22417982/52-eagle-bath-cwbt-3052-soaker-series?keywords=eagle
p5
sS'price'
p6
V$2,290.00
p7
sS'seller'
p8
Vhttp://itradingport.ecrater.com
p9
sS'description_links'
p10
VProduct Features:\u2022 Dimensions: 52" x 32" x 40" (L x W x H)\u2022 Product meets or exceeds ASME Code Standards \u2022 Walk-in Tub Certification: UPC, cUPC, ANSI, IAPMO\u2022 Faucet Certification: UPC and cUPC\u2022 ADA Compliant\u2022 Contoured Built in Seat: 17" x 23" (h x w)\u2022 Tub Capacity - Approx. 40 to 50 gals\u2022 Handheld shower\u2022 Overflow Protective Drain\u2022 Heavy Duty Reinforced Fiberglass Resin Coated\u2022 Standing Stainless Steel Support Frame with Adjustable Leveling Feet\u2022 Built in Grab Bar & Textured slip resistant floor\u2022 Heavy Duty Reinforced Door System\u2022 5 Years Warranty
p11
sS'images'
p12
(lp13
Vhttp://s.ecrater.com/stores/144784/553832177ef5a_144784b.jpg
p14
asS'shipping_info'
p15
(lp16
VMore than 10 available
p17
aVShipping:US-Mainland: free(more destinations)
p18
aVSales Tax: Arizona: 8.8%
p19
aVCondition: Brand new
p20
asS'id'
p21
V22417982
p22
s.