(dp1
S'title'
p2
VMark Hopkins Bronze " Eagles Ledge" ltd edition 250
p3
sS'url'
p4
Vhttp://www.ecrater.com/p/22817767/mark-hopkins-bronze-eagles-ledge?keywords=eagle
p5
sS'price'
p6
V$1,705.50
p7
sS'seller'
p8
Vhttp://bggearco.ecrater.com
p9
sS'description_links'
p10
Vbyng store                   This is a preowned Mark Hopkins Bronze Sculpture named " Eagle's Ledge" in good condition. Was released January , 1997 and was sold out - retired April , 2003. Only 139 of the 250 edition were cast. This is Serial Number 157 / 250. Measures 21" H x 10 W. Comes with the original Certificate of Authenticity. We ship Worldwide fully insured. Signature is required upon delivery.On Jul-15-11 at 20:57:53 PDT, seller added the following information:         Sellers: Get your own map today. Click here now. Simple." Your browser does not support JavaScript.To view this page, enable JavaScript if it is disabled or upgrade your browser.Your browser does not support JavaScript.To view this page, enable JavaScript if it is disabled or upgrade your browser.    Click Here.  Double your traffic.  Get Vendio Gallery - Now FREE!  On Mar-14-13 at 10:46:26 PDT, seller added the following information:Every buyer gets a MyStoreRewards invitation for cash back
p11
sS'images'
p12
(lp13
sS'shipping_info'
p14
(lp15
VOnly 1 available
p16
aVShipping:USPS calculated - check
p17
aVSales Tax: Florida: 6%
p18
aVCondition: Used
p19
asS'id'
p20
V22817767
p21
s.