(dp1
S'title'
p2
V14K GOLD BIRD CHARM - EAGLE #2786
p3
sS'url'
p4
Vhttp://www.ecrater.com/p/24301617/14k-gold-bird-charm-eagle-2786?keywords=eagle
p5
sS'price'
p6
V$2,340.00
p7
sS'seller'
p8
Vhttp://golden-charms.ecrater.com
p9
sS'description_links'
p10
V14K GOLD BIRD CHARM - EAGLE #2786Dimensions are 88 x 60 mm (height by width)14K Solid Gold - 35.8 gmWeights and dimensions are approximateOur 14k Gold Charm Comes in Beautiful Jewelry BoxAll Our Gold Jewelry is Made in USA
p11
sS'images'
p12
(lp13
sS'shipping_info'
p14
(lp15
VMore than 10 available
p16
aVShipping:US-Mainland: free(more destinations)
p17
aVCondition: Brand new
p18
asS'id'
p19
V24301617
p20
s.