(dp1
S'title'
p2
V2015 Kerosene Lighter Repeated Use Cigarette Vintage Style Classic Designs Lighter eagle wings
p3
sS'url'
p4
Vhttp://www.ecrater.com/p/27051117/2015-kerosene-lighter-repeated-use-cigarette?keywords=eagle
p5
sS'price'
p6
V$1,471.00
p7
sS'seller'
p8
Vhttp://biglighter.ecrater.com
p9
sS'description_links'
p10
Vlighter camera on sale at reasonable prices, buy 2015 Kerosene Lighter Repeated Use Cigarette Vintage Style Classic Designs Lighter eagle wings lighters S108-S8802  We promise the item will be 100% same the picture show . And the item be new, never used before.Tracking Number Provided.FEEDBACK and RETURN POLICY :Your Satisfaction is our goal , If you received the item, Please give us the good feedback . If you have any question. Please DO NOT leaves a negative feedback before contact us.We believe that all the problems can be fixed if you are working with us to solve the problem.Shipped by ePacket shipping which needs about 8-20 business days to arrive.(US)Others shipped by HK post air mail,needs about 15-28 days to arrive.Terms & Conditions- Please do not bids if you do not agree with all the terms and condition
p11
sS'images'
p12
(lp13
Vhttp://s.ecrater.com/stores/404456/58f82074c6e55_404456b.jpg
p14
asS'shipping_info'
p15
(lp16
V5 available
p17
aVShipping:US-Mainland: free(more destinations)
p18
aVCondition: Brand new
p19
asS'id'
p20
V27051117
p21
s.