(dp1
S'title'
p2
Vbrig eagle n700 inflatable boat rib
p3
sS'url'
p4
S'http://www.ebay.com/itm/BRIG-Eagle-N700-Inflatable-boat-RIB-/272616905582?hash=item3f793bdb6e:g:tvYAAOSwI3RW-VPq'
p5
sS'price'
p6
VUS $84,050.00
p7
sS'seller'
p8
(dp9
g4
Vhttp://www.ebay.com/usr/siroccomarinefl?_trksid=p2047675.l2559
p10
sS'name'
p11
V siroccomarinefl
p12
ssS'description_links'
p13
(lp14
Vhttp://vi.vipr.ebaydesc.com/ws/eBayISAPI.dll?ViewItemDescV4&item=272616905582&t=1479741142000&tid=10&category=87090&seller=siroccomarinefl&excSoj=1&excTrk=1&lsite=0&ittenable=false&domain=ebay.com&descgauge=1
p15
asS'images'
p16
(lp17
(dp18
S'maxImageUrl'
p19
Vhttp://i.ebayimg.com/images/g/tvYAAOSwI3RW-VPq/s-l1600.jpg
p20
sS'displayImgUrl'
p21
Vhttp://i.ebayimg.com/images/g/tvYAAOSwI3RW-VPq/s-l300.jpg
p22
sa(dp23
g19
Vhttp://i.ebayimg.com/images/g/JHgAAOSwLpdW-VP9/s-l1600.jpg
p24
sg21
Vhttp://i.ebayimg.com/images/g/JHgAAOSwLpdW-VP9/s-l300.jpg
p25
sa(dp26
g19
Vhttp://i.ebayimg.com/images/g/JTwAAOSwLpdW-VQC/s-l1600.jpg
p27
sg21
Vhttp://i.ebayimg.com/images/g/JTwAAOSwLpdW-VQC/s-l300.jpg
p28
sa(dp29
g19
Vhttp://i.ebayimg.com/images/g/h8cAAOSwGYVW-VQF/s-l1600.jpg
p30
sg21
Vhttp://i.ebayimg.com/images/g/h8cAAOSwGYVW-VQF/s-l300.jpg
p31
sa(dp32
g19
Vhttp://i.ebayimg.com/images/g/u0MAAOSwI3RW-VQJ/s-l1600.jpg
p33
sg21
Vhttp://i.ebayimg.com/images/g/u0MAAOSwI3RW-VQJ/s-l300.jpg
p34
sa(dp35
g19
Vhttp://i.ebayimg.com/images/g/H1EAAOSwdU1W-XNE/s-l1600.jpg
p36
sg21
Vhttp://i.ebayimg.com/images/g/H1EAAOSwdU1W-XNE/s-l300.jpg
p37
sa(dp38
g19
Vhttp://i.ebayimg.com/images/g/TD4AAOSw9uFW-XKs/s-l1600.jpg
p39
sg21
Vhttp://i.ebayimg.com/images/g/TD4AAOSw9uFW-XKs/s-l300.jpg
p40
sa(dp41
g19
Vhttp://i.ebayimg.com/images/g/ZL8AAOSwxcRW-XMV/s-l1600.jpg
p42
sg21
Vhttp://i.ebayimg.com/images/g/ZL8AAOSwxcRW-XMV/s-l300.jpg
p43
sa(dp44
g19
Vhttp://i.ebayimg.com/images/g/WBwAAOSwLpdW-XML/s-l1600.jpg
p45
sg21
Vhttp://i.ebayimg.com/images/g/WBwAAOSwLpdW-XML/s-l300.jpg
p46
sa(dp47
g19
Vhttp://i.ebayimg.com/images/g/YiIAAOSwGYVW-XMj/s-l1600.jpg
p48
sg21
Vhttp://i.ebayimg.com/images/g/YiIAAOSwGYVW-XMj/s-l300.jpg
p49
sa(dp50
g19
Vhttp://i.ebayimg.com/images/g/K6YAAOSwzvlW-XKd/s-l1600.jpg
p51
sg21
Vhttp://i.ebayimg.com/images/g/K6YAAOSwzvlW-XKd/s-l300.jpg
p52
sasS'shipping_info'
p53
(dp54
S'item_location'
p55
(lp56
V\u000aDania, Florida, United States
p57
asS'delivery'
p58
(lp59
VVaries
p60
asS'posts_to'
p61
(lp62
VLocal pick-up only
p63
assS'id'
p64
S'272616905582'
p65
s.