(dp1
S'title'
p2
V2015 silver eagles 500 coins monster box sealed 2015 p philadelphia silversilver
p3
sS'url'
p4
S'http://www.ebay.com/itm/2015-SILVER-Eagles-500-COINS-MONSTER-BOX-SEALED-2015-P-PHILADELPHIA-SILVERSILVER-/352072214833?hash=item51f923a931:g:Mw8AAOSwBOtY86li'
p5
sS'price'
p6
(lp7
sS'seller'
p8
(dp9
g4
Vhttp://www.ebay.com/usr/vintage-collectibles-shoppe?_trksid=p2047675.l2559
p10
sS'name'
p11
V vintage-collectibles-shoppe
p12
ssS'description_links'
p13
(lp14
Vhttp://vi.vipr.ebaydesc.com/ws/eBayISAPI.dll?ViewItemDescV4&item=352072214833&t=1496536858000&tid=10&category=3361&seller=vintage-collectibles-shoppe&excSoj=1&excTrk=1&lsite=0&ittenable=false&domain=ebay.com&descgauge=1
p15
asS'images'
p16
(lp17
(dp18
S'maxImageUrl'
p19
Vhttp://i.ebayimg.com/images/g/Mw8AAOSwBOtY86li/s-l1600.jpg
p20
sS'displayImgUrl'
p21
Vhttp://i.ebayimg.com/images/g/Mw8AAOSwBOtY86li/s-l300.jpg
p22
sa(dp23
g19
Vhttp://i.ebayimg.com/images/g/4jkAAOSwhvFZKzgv/s-l1600.jpg
p24
sg21
Vhttp://i.ebayimg.com/images/g/4jkAAOSwhvFZKzgv/s-l300.jpg
p25
sa(dp26
g19
Vhttp://i.ebayimg.com/images/g/N54AAOSwAPVZKzg6/s-l1600.jpg
p27
sg21
Vhttp://i.ebayimg.com/images/g/N54AAOSwAPVZKzg6/s-l300.jpg
p28
sa(dp29
g19
Vhttp://i.ebayimg.com/images/g/IVwAAOSw-3FZKzhR/s-l1600.jpg
p30
sg21
Vhttp://i.ebayimg.com/images/g/IVwAAOSw-3FZKzhR/s-l300.jpg
p31
sa(dp32
g19
Vhttp://i.ebayimg.com/images/g/PucAAOSwJ4hY86kS/s-l1600.jpg
p33
sg21
Vhttp://i.ebayimg.com/images/g/PucAAOSwJ4hY86kS/s-l300.jpg
p34
sa(dp35
g19
Vhttp://i.ebayimg.com/images/g/xhEAAOSw53NY86ki/s-l1600.jpg
p36
sg21
Vhttp://i.ebayimg.com/images/g/xhEAAOSw53NY86ki/s-l300.jpg
p37
sa(dp38
g19
Vhttp://i.ebayimg.com/images/g/GPAAAOSwmCVY86kb/s-l1600.jpg
p39
sg21
Vhttp://i.ebayimg.com/images/g/GPAAAOSwmCVY86kb/s-l300.jpg
p40
sa(dp41
g19
Vhttp://i.ebayimg.com/images/g/CoIAAOSwvKtY86ke/s-l1600.jpg
p42
sg21
Vhttp://i.ebayimg.com/images/g/CoIAAOSwvKtY86ke/s-l300.jpg
p43
sa(dp44
g19
Vhttp://i.ebayimg.com/images/g/NwwAAOSwE0JY86kh/s-l1600.jpg
p45
sg21
Vhttp://i.ebayimg.com/images/g/NwwAAOSwE0JY86kh/s-l300.jpg
p46
sa(dp47
g19
Vhttp://i.ebayimg.com/images/g/Io4AAOSwWkJY86kk/s-l1600.jpg
p48
sg21
Vhttp://i.ebayimg.com/images/g/Io4AAOSwWkJY86kk/s-l300.jpg
p49
sa(dp50
g19
Vhttp://i.ebayimg.com/images/g/BPEAAOSw42JZKzhH/s-l1600.jpg
p51
sg21
Vhttp://i.ebayimg.com/images/g/BPEAAOSw42JZKzhH/s-l300.jpg
p52
sa(dp53
g19
Vhttp://i.ebayimg.com/images/g/EnQAAOSwZ4dZKzhc/s-l1600.jpg
p54
sg21
Vhttp://i.ebayimg.com/images/g/EnQAAOSwZ4dZKzhc/s-l300.jpg
p55
sasS'shipping_info'
p56
(dp57
S'item_location'
p58
(lp59
V\u000aTHE GREAT U.S.A.!, United States
p60
asS'delivery'
p61
(lp62
VVaries
p63
asS'posts_to'
p64
(lp65
VLocal pick-up only
p66
assS'id'
p67
S'352072214833'
p68
s.