(dp1
S'title'
p2
V\u000a2009 $20 ULTRA HIGH RELIEF NGC MS70 PL DOUBLE EAGLE GOL\u000a
p3
sS'url'
p4
Vhttp://www.ioffer.com/i/2009-20-ultra-high-relief-ngc-ms70-pl-double-eagle-gol-518217602
p5
sS'price'
p6
V$5,514.99
p7
sS'seller'
p8
(lp9
sS'description_links'
p10
VWow, here for your consideration is one stunning 2009 $20 Ultra High Relief Double Eagle Gold Coin Graded by NGC as MS70 PL. This amazing coin comes with the Original Mahagony Velvet Line Box, one Sealed Collector's Book, and Original Certificate of Authenticity.  NGC is very tough on grading these coins Proof-Like (PL). Both the Obverse and Reverse have to be bright and have a "Full" mirror effect. There are no spots, toning or marks of any kind on this perfect graded coin. This truly is a special and beautiful coin with excellent eye appeal!  Also, this type of coin is rare, and would make a great addition to any collector or buyer.(First six pictures are of the actual item; this includes serial number)SERIOUS BUYERS ONLY:***Sorry, no international shipping, Paypal only, and item will ship within 3 days of cleared payment. Ships within 48 states only. Payment must be made within 72 hours of purchasing. (I have the right to re-list this item if buyer does not meet any of the criteria mentioned above).***Insurance for the value of this item is included in shipping cost to protect both Seller and Buyer (delivery signiture confirmation added). If you have any questions please ask before buying, and those with a negative feedback of 5 or more must email me first before buying. Buy with confidence and thanks for looking!
p11
sS'images'
p12
(lp13
Vhttp://cdn.iofferphoto.com/img3/item/518/217/602/t_uo1i2009-20-ultra-high-relief-ngc-ms70-pl-double-eagle-gol.jpg
p14
aVhttp://cdn.iofferphoto.com/img3/item/518/217/602/t_l6Dq2009-20-ultra-high-relief-ngc-ms70-pl-double-eagle-gol.jpg
p15
aVhttp://cdn.iofferphoto.com/img3/item/518/217/602/t_fbZQ2009-20-ultra-high-relief-ngc-ms70-pl-double-eagle-gol.jpg
p16
aVhttp://cdn.iofferphoto.com/img3/item/518/217/602/t_0XOi2009-20-ultra-high-relief-ngc-ms70-pl-double-eagle-gol.jpg
p17
aVhttp://cdn.iofferphoto.com/img3/item/518/217/602/t_TKCe2009-20-ultra-high-relief-ngc-ms70-pl-double-eagle-gol.jpg
p18
aVhttp://cdn.iofferphoto.com/img3/item/518/217/602/t_S7bn2009-20-ultra-high-relief-ngc-ms70-pl-double-eagle-gol.jpg
p19
asS'shipping_info'
p20
(lp21
sS'id'
p22
V518217602_1497079303
p23
s.