(dp1
S'title'
p2
V\u000aEagles Autographed Hotel California Guitar\u000a
p3
sS'url'
p4
Vhttp://www.ioffer.com/i/eagles-autographed-hotel-california-guitar-615690746
p5
sS'price'
p6
V$2,000.00
p7
sS'seller'
p8
(lp9
sS'description_links'
p10
VProduct DescriptionAutographed in person by: Don Henley ,Glenn Frey, Joe Walsh, Timothy B Schmit, and Don Felder All Purchased Items Come With A Certificate Of Authenticity, To Ensure That Every Item Is Absolutely Authentic! And We Want You To Know That Unlike Most Autograph Dealers, All Sales Are Not Final Here, You Can Return Any item for any reason for up to 30 days, and authenticity is guaranteed for life!
p11
sS'images'
p12
(lp13
Vhttp://cdn.iofferphoto.com/img3/item/615/690/746/t_eagles-autographed-hotel-california-guitar-a679.jpg
p14
aVhttp://cdn.iofferphoto.com/img3/item/615/690/746/t_eagles-autographed-hotel-california-guitar-bd4f.jpg
p15
aVhttp://cdn.iofferphoto.com/img3/item/615/690/746/t_eagles-autographed-hotel-california-guitar-c23a.jpg
p16
asS'shipping_info'
p17
VEstimated Shipping1 - 3 Days
p18
sS'id'
p19
V615690746_1497079346
p20
s.