(dp1
S'title'
p2
V\u000a1915 S $20 Saint Gaudens Gold Double Eagle NGC MS64\u000a
p3
sS'url'
p4
Vhttp://www.ioffer.com/i/1915-s-20-saint-gaudens-gold-double-eagle-ngc-ms64-635475851
p5
sS'price'
p6
V$1,975.00
p7
sS'seller'
p8
(lp9
sS'description_links'
p10
V1915 S $20 Saint Gaudens Gold Double Eagle NGC MS64 NGC Price Guide: $2,175.00
p11
sS'images'
p12
(lp13
Vhttp://cdn.iofferphoto.com/img3/item/635/475/851/t_1915-s-20-saint-gaudens-gold-double-eagle-ngc-ms64-bae9.jpg
p14
aVhttp://cdn.iofferphoto.com/img3/item/635/475/851/t_1915-s-20-saint-gaudens-gold-double-eagle-ngc-ms64-b39a.jpg
p15
asS'shipping_info'
p16
VMs64Ngc Price Guide: $2, and 175.00Estimated Shipping1 - 3 Days
p17
sS'id'
p18
V635475851_1497079353
p19
s.