(dp1
S'title'
p2
V\u000a1926 $20 Saint Gaudens Gold Double Eagle - NGC MS66\u000a
p3
sS'url'
p4
Vhttp://www.ioffer.com/i/1926-20-saint-gaudens-gold-double-eagle-ngc-ms66-635476005
p5
sS'price'
p6
V$3,850.00
p7
sS'seller'
p8
(lp9
sS'description_links'
p10
V1926 $20 Saint Gaudens Gold Double Eagle NGC MS66 NGC Price Guide: $4,050.00   VERY RARE THIS GRADE!
p11
sS'images'
p12
(lp13
Vhttp://cdn.iofferphoto.com/img/item/635/476/005/t_1926-20-saint-gaudens-gold-double-eagle-ngc-ms66-ffaa.jpg
p14
aVhttp://cdn.iofferphoto.com/img/item/635/476/005/t_1926-20-saint-gaudens-gold-double-eagle-ngc-ms66-97bf.jpg
p15
asS'shipping_info'
p16
VMs66Ngc Price Guide: $4, and 050.00Estimated Shipping1 - 3 Days
p17
sS'id'
p18
V635476005_1497079308
p19
s.