(dp1
S'title'
p2
V\u000a2001 $50 American Gold Eagle NGC MS70 NGC Price Guide\u000a
p3
sS'url'
p4
Vhttp://www.ioffer.com/i/2001-50-american-gold-eagle-ngc-ms70-ngc-price-guide-635476168
p5
sS'price'
p6
V$1,950.00
p7
sS'seller'
p8
(lp9
sS'description_links'
p10
V2001 $50 American Gold Eagle NGC MS70 NGC Price Guide: $2,125.00
p11
sS'images'
p12
(lp13
Vhttp://cdn.iofferphoto.com/img3/item/635/476/168/t_2001-50-american-gold-eagle-ngc-ms70-ngc-price-guide-8533.jpg
p14
aVhttp://cdn.iofferphoto.com/img3/item/635/476/168/t_2001-50-american-gold-eagle-ngc-ms70-ngc-price-guide-0497.jpg
p15
asS'shipping_info'
p16
VMs70Ngc Price Guide: $2, and 125.00Estimated Shipping1 - 3 Days
p17
sS'id'
p18
V635476168_1497079356
p19
s.