(dp1
S'title'
p2
V\u000a1913 D Saint Gaudens Gold $20 Double Eagle NGC MS64\u000a
p3
sS'url'
p4
Vhttp://www.ioffer.com/i/1913-d-saint-gaudens-gold-20-double-eagle-ngc-ms64-635475705
p5
sS'price'
p6
V$2,450.00
p7
sS'seller'
p8
(lp9
sS'description_links'
p10
V1913 D $20 Saint Gaudens Gold Double Eagle NGC MS64 NGC Price Guide: $2,650.00
p11
sS'images'
p12
(lp13
Vhttp://cdn.iofferphoto.com/img/item/635/475/705/t_1913-d-saint-gaudens-gold-20-double-eagle-ngc-ms64-52f7.jpg
p14
aVhttp://cdn.iofferphoto.com/img/item/635/475/705/t_1913-d-saint-gaudens-gold-20-double-eagle-ngc-ms64-7ea3.jpg
p15
asS'shipping_info'
p16
VMs64Ngc Price Guide: $2, and 650.00Estimated Shipping1 - 3 Days
p17
sS'id'
p18
V635475705_1497079322
p19
s.