(dp1
S'title'
p2
V\u000a1998 $10 American Gold Eagle NGC MS70 **A Key Date**\u000a
p3
sS'url'
p4
Vhttp://www.ioffer.com/i/1998-10-american-gold-eagle-ngc-ms70-a-key-date-635649756
p5
sS'price'
p6
V$1,795.00
p7
sS'seller'
p8
(lp9
sS'description_links'
p10
V1998 $10 **A Key Date** 1/4 Oz. Gold American Gold Eagle Very Nice Coin NGC MS70 The Coin in the Pictures Is the Coin You Will ReceiveNGC PRICE GUIDE: $2,200.00
p11
sS'images'
p12
(lp13
Vhttp://cdn.iofferphoto.com/img3/item/635/649/756/t_1998-10-american-gold-eagle-ngc-ms70-a-key-date-d599.jpg
p14
aVhttp://cdn.iofferphoto.com/img3/item/635/649/756/t_1998-10-american-gold-eagle-ngc-ms70-a-key-date-2cc2.jpg
p15
aVhttp://cdn.iofferphoto.com/img3/item/635/649/756/t_1998-10-american-gold-eagle-ngc-ms70-a-key-date-6c5c.jpg
p16
aVhttp://cdn.iofferphoto.com/img3/item/635/649/756/t_1998-10-american-gold-eagle-ngc-ms70-a-key-date-9869.jpg
p17
asS'shipping_info'
p18
VMs70Ngc Price Guide: $2, and 200.00Estimated Shipping1 - 3 Days
p19
sS'id'
p20
V635649756_1497079359
p21
s.