(dp1
S'title'
p2
V\u000a1992 $1 Silver Eagle ANACS MS70 **RARE KEY DATE** \u000a
p3
sS'url'
p4
Vhttp://www.ioffer.com/i/1992-1-silver-eagle-anacs-ms70-rare-key-date-635665524
p5
sS'price'
p6
V$1,725.00
p7
sS'seller'
p8
(lp9
sS'description_links'
p10
VKEY RARE DATE 1992 $1 SILVER EAGLE ANACS MS70
p11
sS'images'
p12
(lp13
Vhttp://cdn.iofferphoto.com/img3/tmp/item_images/518/972/63/t_edf0.jpg
p14
aVhttp://cdn.iofferphoto.com/img/item/635/665/524/t_1992-1-silver-eagle-anacs-ms70-rare-key-date-03e8.jpg
p15
aVhttp://cdn.iofferphoto.com/img/item/635/665/524/t_1992-1-silver-eagle-anacs-ms70-rare-key-date-576f.jpg
p16
aVhttp://cdn.iofferphoto.com/img/item/635/665/524/t_1992-1-silver-eagle-anacs-ms70-rare-key-date-055f.jpg
p17
asS'shipping_info'
p18
VEstimated Shipping1 - 3 Days
p19
sS'id'
p20
V635665524_1497079364
p21
s.