(dp1
S'title'
p2
V\u000a1880 LIBERTY HEAD $5 GOLD HALF EAGLE ICG MS65 VERY RARE\u000a
p3
sS'url'
p4
Vhttp://www.ioffer.com/i/1880-liberty-head-5-gold-half-eagle-icg-ms65-very-rare-635875593
p5
sS'price'
p6
V$2,475.00
p7
sS'seller'
p8
(lp9
sS'description_links'
p10
V1880 LIBERTY HEAD $5 GOLD HALF EAGLE ICG MS65 VERY RARE THIS NICE! PCGS Book Value: $4,750.00   NGC Book Value: $5,250.00
p11
sS'images'
p12
(lp13
Vhttp://cdn.iofferphoto.com/img3/tmp/item_images/520/876/35/t_a098.jpg
p14
aVhttp://cdn.iofferphoto.com/img3/item/635/875/593/t_1880-liberty-head-5-gold-half-eagle-icg-ms65-very-rare-c646.jpg
p15
aVhttp://cdn.iofferphoto.com/img3/item/635/875/593/t_1880-liberty-head-5-gold-half-eagle-icg-ms65-very-rare-0359.jpg
p16
aVhttp://cdn.iofferphoto.com/img3/item/635/875/593/t_1880-liberty-head-5-gold-half-eagle-icg-ms65-very-rare-eede.jpg
p17
asS'shipping_info'
p18
VEstimated Shipping1 - 3 Days
p19
sS'id'
p20
V635875593_1497079312
p21
s.