(dp1
S'title'
p2
V\u000aEagles - Desperado - Autographed Electric Guitar Signed\u000a
p3
sS'url'
p4
Vhttp://www.ioffer.com/i/eagles-desperado-autographed-electric-guitar-signed-637483999
p5
sS'price'
p6
V$4,500.00
p7
sS'seller'
p8
(lp9
sS'description_links'
p10
VWith 7 Number One singles, 6 Grammy's and 6 Number One albums, the Eagles are considered one of the most successful musical acts in history and they are one of the world\u2019s best selling bands of all time.
p11
sS'images'
p12
(lp13
Vhttp://cdn.iofferphoto.com/img3/item/637/483/999/t_eagles-desperado-autographed-electric-guitar-signed-c742.jpg
p14
aVhttp://cdn.iofferphoto.com/img3/item/637/483/999/t_eagles-desperado-autographed-electric-guitar-signed-1468.jpg
p15
asS'shipping_info'
p16
VDetail 14 Original Band Members,  Band Member Wearing Original Eagles T Shirt. Different Frame,  Distressed Wood. Signed By Don Henley,  Glenn Frey,  Randy Meisner, and  Bernie Leadon.Detail 2All Contemporary Autographed Items Are Obtained In Person And Come With A Lifetime Certificate Of Authenticity With Tamper Proof,  Numbered Decal From Antiquities Of California. Actual Guitar, and  Signatures And Location On Guitar May Vary From Picture.Estimated Shipping15 - 20 Days
p17
sS'id'
p18
V637483999_1497079305
p19
s.