(dp1
S'title'
p2
VEagle Carving in Whale Tooth
p3
sS'url'
p4
Vhttp://www.boneroom.com/store/p2275/Eagle_Carving_in_Whale_Tooth.html
p5
sS'price'
p6
V$250.00
p7
sS'seller'
p8
(lp9
sS'description_links'
p10
VThese Eagles are carved in Whale tooth by the Native American Artist Sam Dimmick.
p11
sS'images'
p12
(lp13
Vhttp://www.boneroom.com//uploads/4/8/1/1/48118243/s521972503441136676_p2275_i5_w640.jpeg
p14
asS'shipping_info'
p15
(lp16
sS'id'
p17
Vp2275_1497079369
p18
s.