(dp1
S'title'
p2
VEagle Talon Replica
p3
sS'url'
p4
Vhttp://www.boneroom.com/store/p339/Eagle_Talon_Replica.html
p5
sS'price'
p6
V$1.50
p7
sS'seller'
p8
(lp9
sS'description_links'
p10
V1.75" in length
p11
sS'images'
p12
(lp13
Vhttp://www.boneroom.com//uploads/4/8/1/1/48118243/s521972503441136676_p339_i1_w200.jpeg
p14
asS'shipping_info'
p15
(lp16
sS'id'
p17
Vp339_1497079370
p18
s.