(dp1
S'title'
p2
VLEGGINGS AND BREECHCLOUT PATTERN
p3
sS'url'
p4
Vhttp://www.glacierwear.com/leggings-and-breechclout-pattern.html
p5
sS'price'
p6
V9.95
p7
sS'seller'
p8
(lp9
sS'description_links'
p10
Vptn-100-pm71Leggings and Breechclout Eagle View PatternThis pattern is for Sizes Small, Medium & Large. Indians and Mountain Men wore Leggings and Breechclout for protection against the elements and were first made of leather and later of cloth or blankets. These articles of clothing were frequently decorated by the Indians in distinctive tribal designs and styles. Included is a Tapered Legging with fringe option, a Full Leather Legging and a Full Cloth Legging with the option of sewn or tied side seams. Intermediate sizes are easily made.
p11
sS'images'
p12
(lp13
Vhttp://www.glacierwear.com/media/catalog/product/cache/1/image/9df78eab33525d08d6e5fb8d27136e95/1/-/1-img_8520.jpg
p14
asS'shipping_info'
p15
VFree Shipping on $100.00+
p16
sS'id'
p17
Vpattern_1497079281
p18
s.