(dp1
S'title'
p2
VEagle Carving on Whitetail Antler
p3
sS'url'
p4
Vhttp://www.thetaxidermystore.com/10746-eagle-head-carving-on-whitetail-antler-decor-for-sale.html
p5
sS'price'
p6
V$0.00
p7
sS'seller'
p8
(lp9
sS'description_links'
p10
VDetailsThis is a great whitetail antler with an eagle head carved into the end. Great craftsmanship and overall quality earn our Excellent Plus grade.- This item comes fastened to a smooth river stone for support and display.- Perfect for the mantle, table, shelf, counter top, ledge, etc.. SpecificationsDimensions:*Depth: 6"Height: 13"Width: 10"Weight: 3 lbs
p11
sS'images'
p12
(lp13
Vhttp://www.thetaxidermystore.com/skin/frontend/default/blanco_customization/images/logo.png
p14
aVhttp://www.thetaxidermystore.com/media/wysiwyg/ttsgraphics/sales_banners/Spring-Sale-612.jpg
p15
aVhttp://www.thetaxidermystore.com/media/wysiwyg/ttsgraphics/sales_banners/Spring-Green-CP.jpg
p16
aVhttp://www.thetaxidermystore.com/media/wysiwyg/ttsgraphics/sales_banners/Spring-Sale-612.jpg
p17
aVhttp://www.thetaxidermystore.com/media/wysiwyg/ttsgraphics/sales_banners/Spring-Green-CP.jpg
p18
aVhttp://www.thetaxidermystore.com/media/catalog/product/cache/1/image/396x396/9df78eab33525d08d6e5fb8d27136e95/e/a/eagle-head-taxidermy-whitetail-antler-carving-mount-m1-_10746-for-sale-_-the-taxidermy-store.jpg
p19
aVhttp://www.thetaxidermystore.com/media/catalog/product/cache/1/thumbnail/70x70/9df78eab33525d08d6e5fb8d27136e95/e/a/eagle-head-taxidermy-whitetail-antler-carving-mount-m1-_10746-for-sale-_-the-taxidermy-store.jpg
p20
aVhttp://www.thetaxidermystore.com/media/catalog/product/cache/1/thumbnail/70x70/9df78eab33525d08d6e5fb8d27136e95/1/0/10746_-_03.jpg
p21
aVhttp://www.thetaxidermystore.com/media/catalog/product/cache/1/thumbnail/70x70/9df78eab33525d08d6e5fb8d27136e95/1/0/10746_-_04.jpg
p22
aVhttp://www.thetaxidermystore.com/media/catalog/product/cache/1/thumbnail/70x70/9df78eab33525d08d6e5fb8d27136e95/1/0/10746_-_05.jpg
p23
aVhttp://www.thetaxidermystore.com/media/catalog/product/cache/1/thumbnail/70x70/9df78eab33525d08d6e5fb8d27136e95/1/0/10746_-_06.jpg
p24
aVhttp://www.thetaxidermystore.com/media/catalog/product/cache/1/thumbnail/70x70/9df78eab33525d08d6e5fb8d27136e95/1/0/10746_-_09.jpg
p25
aVhttp://www.thetaxidermystore.com/media/catalog/product/cache/1/thumbnail/70x70/9df78eab33525d08d6e5fb8d27136e95/1/0/10746_-_08.jpg
p26
aVhttp://www.thetaxidermystore.com/media/catalog/product/cache/1/thumbnail/70x70/9df78eab33525d08d6e5fb8d27136e95/1/0/10746_-_07.jpg
p27
aVhttp://www.thetaxidermystore.com//media/wysiwyg/grade/cache/225x225/excellent_+.png
p28
aVhttp://www.thetaxidermystore.com/skin/frontend/default/blanco_customization/images/loading.gif
p29
aVhttp://www.thetaxidermystore.com/media/wysiwyg/ttsgraphics/Certificate.png
p30
aVhttp://www.thetaxidermystore.com/media/wysiwyg/ttsgraphics/ttshomepage/pinterest-logo.jpg
p31
aV/skin/frontend/default/blanco_customization/images/icon-twitter.png
p32
aV/skin/frontend/default/blanco_customization/images/icon-paypal.png
p33
aV/skin/frontend/default/blanco_customization/images/icon-discover.png
p34
aV/skin/frontend/default/blanco_customization/images/icon-visa.png
p35
aV/skin/frontend/default/blanco_customization/images/icon-american-express.png
p36
aV/skin/frontend/default/blanco_customization/images/icon-mastercard.png
p37
asS'shipping_info'
p38
(lp39
sS'id'
p40
Vsale_1497079022
p41
s.