(dp1
S'title'
p2
VSELECT BUFFALO BISON ROBE/HIDE/RUG #0012
p3
sS'url'
p4
Vhttp://www.glacierwear.com/select-buffalo-bison-robe-hide-rug-0012.html
p5
sS'price'
p6
V739.95
p7
sS'seller'
p8
(lp9
sS'description_links'
p10
Vbff0012Buffalo Bison Robe/Hide/Rug- Select Quality Winter Hide from Canada - Picture Shows Hide that Customer Will Receive- All Repairs Completed before Tanning - No Patches- Full Hide with Tail (The Whip)- Fresh Commercial Tanned - Traditional Alum & Ash Tan- See Dimensions in Below Description*Oversized Shipping & Handling Charges $35.00-Street Address Required
p11
sS'images'
p12
(lp13
Vhttp://www.glacierwear.com/media/catalog/product/cache/1/thumbnail/500x/17f82f742ffe127f42dca9de82fb58b1/b/f/bff0012.jpg
p14
asS'shipping_info'
p15
VFree Shipping on $100.00+
p16
sS'id'
p17
V0012_1497081635
p18
s.