(dp1
S'title'
p2
V2007 stingray 250 cs cuddie cabin cruiser big water 350 bravo family river boat
p3
sS'url'
p4
S'http://www.ebay.com/itm/2007-Stingray-250-CS-Cuddie-Cabin-Cruiser-Big-Water-350-Bravo-Family-River-Boat-/201945524528?hash=item2f04e42930:g:SpQAAOSw3gJZMxZn&vxp=mtr'
p5
sS'price'
p6
VUS $27,995.00
p7
sS'seller'
p8
(dp9
g4
Vhttp://www.ebay.com/usr/dennyjfreshy?_trksid=p2047675.l2559
p10
sS'name'
p11
V dennyjfreshy
p12
ssS'description_links'
p13
(lp14
Vhttp://vi.vipr.ebaydesc.com/ws/eBayISAPI.dll?ViewItemDescV4&item=201945524528&t=0&tid=10&category=80652&seller=dennyjfreshy&excSoj=1&excTrk=1&lsite=100&ittenable=false&domain=ebay.com&descgauge=1
p15
asS'images'
p16
(lp17
(dp18
S'maxImageUrl'
p19
Vhttp://i.ebayimg.com/images/g/SpQAAOSw3gJZMxZn/s-l1600.jpg
p20
sS'displayImgUrl'
p21
Vhttp://i.ebayimg.com/images/g/SpQAAOSw3gJZMxZn/s-l300.jpg
p22
sa(dp23
g19
Vhttp://i.ebayimg.com/images/g/NGoAAOSwYlRZMxZo/s-l1600.jpg
p24
sg21
Vhttp://i.ebayimg.com/images/g/NGoAAOSwYlRZMxZo/s-l300.jpg
p25
sa(dp26
g19
Vhttp://i.ebayimg.com/images/g/giIAAOSw~FJZMxZq/s-l1600.jpg
p27
sg21
Vhttp://i.ebayimg.com/images/g/giIAAOSw~FJZMxZq/s-l300.jpg
p28
sa(dp29
g19
Vhttp://i.ebayimg.com/images/g/chgAAOSw~y9ZMxZs/s-l1600.jpg
p30
sg21
Vhttp://i.ebayimg.com/images/g/chgAAOSw~y9ZMxZs/s-l300.jpg
p31
sa(dp32
g19
Vhttp://i.ebayimg.com/images/g/ifcAAOSwaeRZMxZu/s-l1600.jpg
p33
sg21
Vhttp://i.ebayimg.com/images/g/ifcAAOSwaeRZMxZu/s-l300.jpg
p34
sa(dp35
g19
Vhttp://i.ebayimg.com/images/g/ps0AAOSw42dZMxZw/s-l1600.jpg
p36
sg21
Vhttp://i.ebayimg.com/images/g/ps0AAOSw42dZMxZw/s-l300.jpg
p37
sa(dp38
g19
Vhttp://i.ebayimg.com/images/g/axgAAOSw42JZMxZz/s-l1600.jpg
p39
sg21
Vhttp://i.ebayimg.com/images/g/axgAAOSw42JZMxZz/s-l300.jpg
p40
sa(dp41
g19
Vhttp://i.ebayimg.com/images/g/WP0AAOSwuMZZMxZ0/s-l1600.jpg
p42
sg21
Vhttp://i.ebayimg.com/images/g/WP0AAOSwuMZZMxZ0/s-l300.jpg
p43
sa(dp44
g19
Vhttp://i.ebayimg.com/images/g/aWYAAOSwlY1ZMxZ2/s-l1600.jpg
p45
sg21
Vhttp://i.ebayimg.com/images/g/aWYAAOSwlY1ZMxZ2/s-l300.jpg
p46
sa(dp47
g19
Vhttp://i.ebayimg.com/images/g/Pa4AAOSwurZZMxZ4/s-l1600.jpg
p48
sg21
Vhttp://i.ebayimg.com/images/g/Pa4AAOSwurZZMxZ4/s-l300.jpg
p49
sa(dp50
g19
Vhttp://i.ebayimg.com/images/g/O9YAAOSwZKBZMxZ6/s-l1600.jpg
p51
sg21
Vhttp://i.ebayimg.com/images/g/O9YAAOSwZKBZMxZ6/s-l300.jpg
p52
sa(dp53
g19
Vhttp://i.ebayimg.com/images/g/XrAAAOSw9OFZMxZ7/s-l1600.jpg
p54
sg21
Vhttp://i.ebayimg.com/images/g/XrAAAOSw9OFZMxZ7/s-l300.jpg
p55
sa(dp56
g19
Vhttp://i.ebayimg.com/images/g/UjoAAOSwAPVZMxZ9/s-l1600.jpg
p57
sg21
Vhttp://i.ebayimg.com/images/g/UjoAAOSwAPVZMxZ9/s-l300.jpg
p58
sa(dp59
g19
Vhttp://i.ebayimg.com/images/g/vf4AAOSwi7RZMxZ~/s-l1600.jpg
p60
sg21
Vhttp://i.ebayimg.com/images/g/vf4AAOSwi7RZMxZ~/s-l300.jpg
p61
sa(dp62
g19
Vhttp://i.ebayimg.com/images/g/cvcAAOSw~y9ZMxaB/s-l1600.jpg
p63
sg21
Vhttp://i.ebayimg.com/images/g/cvcAAOSw~y9ZMxaB/s-l300.jpg
p64
sa(dp65
g19
Vhttp://i.ebayimg.com/images/g/xwwAAOSwBt5ZMxaD/s-l1600.jpg
p66
sg21
Vhttp://i.ebayimg.com/images/g/xwwAAOSwBt5ZMxaD/s-l300.jpg
p67
sa(dp68
g19
Vhttp://i.ebayimg.com/images/g/0rMAAOSww9xZMxaF/s-l1600.jpg
p69
sg21
Vhttp://i.ebayimg.com/images/g/0rMAAOSww9xZMxaF/s-l300.jpg
p70
sa(dp71
g19
Vhttp://i.ebayimg.com/images/g/UrgAAOSwAPVZMxaH/s-l1600.jpg
p72
sg21
Vhttp://i.ebayimg.com/images/g/UrgAAOSwAPVZMxaH/s-l300.jpg
p73
sa(dp74
g19
Vhttp://i.ebayimg.com/images/g/g6sAAOSw~FJZMxaJ/s-l1600.jpg
p75
sg21
Vhttp://i.ebayimg.com/images/g/g6sAAOSw~FJZMxaJ/s-l300.jpg
p76
sa(dp77
g19
Vhttp://i.ebayimg.com/images/g/eg8AAOSwIQdZMxaL/s-l1600.jpg
p78
sg21
Vhttp://i.ebayimg.com/images/g/eg8AAOSwIQdZMxaL/s-l300.jpg
p79
sa(dp80
g19
Vhttp://i.ebayimg.com/images/g/qSoAAOSw8lpZMxaN/s-l1600.jpg
p81
sg21
Vhttp://i.ebayimg.com/images/g/qSoAAOSw8lpZMxaN/s-l300.jpg
p82
sa(dp83
g19
Vhttp://i.ebayimg.com/images/g/UBwAAOSwfpVZMxaP/s-l1600.jpg
p84
sg21
Vhttp://i.ebayimg.com/images/g/UBwAAOSwfpVZMxaP/s-l300.jpg
p85
sa(dp86
g19
Vhttp://i.ebayimg.com/images/g/5ZMAAOSw8HBZMxaQ/s-l1600.jpg
p87
sg21
Vhttp://i.ebayimg.com/images/g/5ZMAAOSw8HBZMxaQ/s-l300.jpg
p88
sa(dp89
g19
Vhttp://i.ebayimg.com/images/g/S9IAAOSwhvFZMxaS/s-l1600.jpg
p90
sg21
Vhttp://i.ebayimg.com/images/g/S9IAAOSwhvFZMxaS/s-l300.jpg
p91
sasS'shipping_info'
p92
(dp93
S'item_location'
p94
(lp95
V\u000aSaint Cloud, Minnesota, United States
p96
asS'delivery'
p97
(lp98
sS'posts_to'
p99
(lp100
VWorldwide
p101
assS'id'
p102
S'201945524528'
p103
s.