(dp1
S'title'
p2
V1997 stingray 200 cs with trailer
p3
sS'url'
p4
S'http://www.ebay.com/itm/1997-Stingray-200-CS-with-trailer-/302343933656?hash=item46651a4ed8:g:47QAAOSwiOFZOWEL&vxp=mtr'
p5
sS'price'
p6
VUS $5,000.00
p7
sS'seller'
p8
(dp9
g4
Vhttp://www.ebay.com/usr/flamedvulcan?_trksid=p2047675.l2559
p10
sS'name'
p11
V flamedvulcan
p12
ssS'description_links'
p13
(lp14
Vhttp://vi.vipr.ebaydesc.com/ws/eBayISAPI.dll?ViewItemDescV4&item=302343933656&t=0&tid=10&category=80651&seller=flamedvulcan&excSoj=1&excTrk=1&lsite=100&ittenable=false&domain=ebay.com&descgauge=1
p15
asS'images'
p16
(lp17
(dp18
S'maxImageUrl'
p19
Vhttp://i.ebayimg.com/images/g/47QAAOSwiOFZOWEL/s-l1600.jpg
p20
sS'displayImgUrl'
p21
Vhttp://i.ebayimg.com/images/g/47QAAOSwiOFZOWEL/s-l300.jpg
p22
sa(dp23
g19
Vhttp://i.ebayimg.com/images/g/KzcAAOSwCmZZOWEg/s-l1600.jpg
p24
sg21
Vhttp://i.ebayimg.com/images/g/KzcAAOSwCmZZOWEg/s-l300.jpg
p25
sa(dp26
g19
Vhttp://i.ebayimg.com/images/g/q0sAAOSwKflZOWE9/s-l1600.jpg
p27
sg21
Vhttp://i.ebayimg.com/images/g/q0sAAOSwKflZOWE9/s-l300.jpg
p28
sa(dp29
g19
Vhttp://i.ebayimg.com/images/g/6KIAAOSwiOFZOWGI/s-l1600.jpg
p30
sg21
Vhttp://i.ebayimg.com/images/g/6KIAAOSwiOFZOWGI/s-l300.jpg
p31
sa(dp32
g19
Vhttp://i.ebayimg.com/images/g/vpUAAOSwFqNZOWGv/s-l1600.jpg
p33
sg21
Vhttp://i.ebayimg.com/images/g/vpUAAOSwFqNZOWGv/s-l300.jpg
p34
sa(dp35
g19
Vhttp://i.ebayimg.com/images/g/EswAAOSwAO9ZOWS3/s-l1600.jpg
p36
sg21
Vhttp://i.ebayimg.com/images/g/EswAAOSwAO9ZOWS3/s-l300.jpg
p37
sa(dp38
g19
Vhttp://i.ebayimg.com/images/g/XgUAAOSw6ShZOWTQ/s-l1600.jpg
p39
sg21
Vhttp://i.ebayimg.com/images/g/XgUAAOSw6ShZOWTQ/s-l300.jpg
p40
sa(dp41
g19
Vhttp://i.ebayimg.com/images/g/gZ8AAOSwyWZZOWT3/s-l1600.jpg
p42
sg21
Vhttp://i.ebayimg.com/images/g/gZ8AAOSwyWZZOWT3/s-l300.jpg
p43
sa(dp44
g19
Vhttp://i.ebayimg.com/images/g/xToAAOSwq~tZOWUP/s-l1600.jpg
p45
sg21
Vhttp://i.ebayimg.com/images/g/xToAAOSwq~tZOWUP/s-l300.jpg
p46
sa(dp47
g19
Vhttp://i.ebayimg.com/images/g/Gy8AAOSwstJZOWUl/s-l1600.jpg
p48
sg21
Vhttp://i.ebayimg.com/images/g/Gy8AAOSwstJZOWUl/s-l300.jpg
p49
sa(dp50
g19
Vhttp://i.ebayimg.com/images/g/dQEAAOSw~e5ZOWU8/s-l1600.jpg
p51
sg21
Vhttp://i.ebayimg.com/images/g/dQEAAOSw~e5ZOWU8/s-l300.jpg
p52
sa(dp53
g19
Vhttp://i.ebayimg.com/images/g/L5oAAOSw-89ZOWVS/s-l1600.jpg
p54
sg21
Vhttp://i.ebayimg.com/images/g/L5oAAOSw-89ZOWVS/s-l300.jpg
p55
sa(dp56
g19
Vhttp://i.ebayimg.com/images/g/rmUAAOSwnK9ZOWV~/s-l1600.jpg
p57
sg21
Vhttp://i.ebayimg.com/images/g/rmUAAOSwnK9ZOWV~/s-l300.jpg
p58
sasS'shipping_info'
p59
(dp60
S'item_location'
p61
(lp62
V\u000aPembroke, North Carolina, United States
p63
asS'delivery'
p64
(lp65
sS'posts_to'
p66
(lp67
VUnited States
p68
assS'id'
p69
S'302343933656'
p70
s.