(dp1
S'title'
p2
VRound Water Buffalo Bone Beads
p3
sS'url'
p4
Vhttp://www.boneroom.com/store/p3027/_Round_Water_Buffalo_Bone_Beads.html
p5
sS'price'
p6
V$2.00
p7
sS'seller'
p8
(lp9
sS'description_links'
p10
VPrice: $2 Each Bag of 10 Beads
p11
sS'images'
p12
(lp13
Vhttp://www.boneroom.com//uploads/4/8/1/1/48118243/s521972503441136676_p3027_i1_w640.jpeg
p14
asS'shipping_info'
p15
(lp16
sS'id'
p17
Vp3027_1497081669
p18
s.