(dp1
S'title'
p2
VDyed Water Buffalo Brown Pendant Style Bone Beads
p3
sS'url'
p4
Vhttp://www.boneroom.com/store/p3022/Dyed_Water_Buffalo_Brown_Pendant_Style_Bone_Beads.html
p5
sS'price'
p6
V$2.00
p7
sS'seller'
p8
(lp9
sS'description_links'
p10
(lp11
sS'images'
p12
(lp13
Vhttp://www.boneroom.com//uploads/4/8/1/1/48118243/s521972503441136676_p3022_i1_w640.jpeg
p14
asS'shipping_info'
p15
(lp16
sS'id'
p17
Vp3022_1497081695
p18
s.