(dp1
S'title'
p2
VWater Buffalo 'Tusk' Bone Beads
p3
sS'url'
p4
Vhttp://www.boneroom.com/store/p3035/Water_Buffalo_%27Tusk%27_Bone_Beads.html
p5
sS'price'
p6
V$3.00
p7
sS'seller'
p8
(lp9
sS'description_links'
p10
(lp11
sS'images'
p12
(lp13
Vhttp://www.boneroom.com//uploads/4/8/1/1/48118243/s521972503441136676_p3035_i1_w640.jpeg
p14
asS'shipping_info'
p15
(lp16
sS'id'
p17
Vp3035_1497081672
p18
s.