(dp1
S'title'
p2
VIndian Water Buffalo Bone Beads
p3
sS'url'
p4
Vhttp://www.boneroom.com/store/p3049/Indian_Water_Buffalo_Bone_Beads.html
p5
sS'price'
p6
V$1.00
p7
sS'seller'
p8
(lp9
sS'description_links'
p10
V$1 for a bag of 20 beads\u200b
p11
sS'images'
p12
(lp13
Vhttp://www.boneroom.com//uploads/4/8/1/1/48118243/s521972503441136676_p3049_i1_w640.jpeg
p14
asS'shipping_info'
p15
(lp16
sS'id'
p17
Vp3049_1497081684
p18
s.