(dp1
S'title'
p2
VWater Bug - Solnhofen, Germany (Jurassic)
p3
sS'url'
p4
Vhttp://www.boneroom.com/store/p3062/Water_Bug_-_Solnhofen%2C_Germany_%28Jurassic%29_.html
p5
sS'price'
p6
V$200.00
p7
sS'seller'
p8
(lp9
sS'description_links'
p10
(lp11
sS'images'
p12
(lp13
Vhttp://www.boneroom.com//uploads/4/8/1/1/48118243/s521972503441136676_p3062_i1_w640.jpeg
p14
asS'shipping_info'
p15
(lp16
sS'id'
p17
Vp3062_1497081692
p18
s.