(dp1
S'title'
p2
Vargan tree 50 seeds endangered species Argania Spinosa
p3
sS'url'
p4
Vhttp://www.ecrater.com/p/12613081/argan-tree-50-seeds-endangered-species?keywords=endangered
p5
sS'price'
p6
V$70.00
p7
sS'seller'
p8
Vhttp://botanical-gardens.ecrater.com
p9
sS'description_links'
p10
VArgan oilArgan oil comes from the nuts of the Argan tree (Argania spinosa).This tree is unknown for many people since it grows only in the South Western part of Morocco in an area covering 700,000-800,000 hectares.The argan tree produces nuts from which is extracted a very nutritious oil.The remaining is used to feed the cattle and nuts shells for heating. Nothing is lost.For centuries, Berber women of this region have produced argan oil which was used for their consumption and traditional Moroccan medicine.People abroad are more and more interested in this oil either for its cosmetic and nutritional properties.A threatened tree The argan tree is a very resistant tree which can live from 150 to 200 years. It is perfectly adapted to the aridity of the South Western regions of Morocco.Its roots grow deep in search of water and thus help retain the soil, preventing erosion and limiting the advance of the desert.Argan tree plays a vital role in maintaining the ecological balance and the economic situation of the population. In 1999, UNESCO added the argan tree to the World Heritage List.In less than a century, more than a third of the argan forest has disappeared.Would you like to grow an Aragan tree in your yard? I have only a few seeds left.Quality seedsIf you want to use culinary Argan oil or Amalou for food and for your health: Anti aging, high blood pressure, regulation of blood cholesterol and much more (read about it in http://www.dietobio.com/aliments/en/argan.html)if you want to buy culinary Argan oil, or Amalou for your health pls. email me about it. if you want more than 10 argan seeds email me to get discount.If you buy from me more than 1 item, message me and ask me to combine shipments. In this case you will get a nice discount on the combined shipment.
p11
sS'images'
p12
(lp13
Vhttp://s.ecrater.com/stores/223372/4e9c87522b610_223372b.jpg
p14
asS'shipping_info'
p15
(lp16
VMore than 10 available
p17
aVShipping:US-Mainland: free(more destinations)
p18
aVCondition: Brand new
p19
asS'id'
p20
V12613081
p21
s.