(dp1
S'title'
p2
VThe Supermeds: How the Big Business of Medicine Is Endangering Our Health Care
p3
sS'url'
p4
Vhttp://www.ecrater.com/p/15948955/the-supermeds-how-big-business-of?keywords=endangered
p5
sS'price'
p6
V$24.99
p7
sS'seller'
p8
Vhttp://villageadsandprints.ecrater.com
p9
sS'description_links'
p10
VThe Supermeds: How the Big Business of Medicine Is Endangering Our Health Care by Rochelle Jones - 1988 First Edition Charles Scribner Hardcover Dust Jacket 261 pages - Acceptable - Ships 24 Hours 9124HA-JFP JBRBS1
p11
sS'images'
p12
(lp13
sS'shipping_info'
p14
(lp15
VOnly 1 available
p16
aVShipping:US-Mainland: $7.00(more destinations)
p17
aVCondition: Used
p18
asS'id'
p19
V15948955
p20
s.