(dp1
S'title'
p2
VWoodward, Colin. Ocean's End: Travels Through Endangered Seas
p3
sS'url'
p4
Vhttp://www.ecrater.com/p/16784813/woodward-colin-oceans-end-travels?keywords=endangered
p5
sS'price'
p6
V$7.95
p7
sS'seller'
p8
Vhttp://hartmannbooks.ecrater.com
p9
sS'description_links'
p10
V(032788) Woodward, Colin. Ocean's End: Travels Through Endangered Seas. New York: Basic Books, 2000. 1st Edition. Hardcover. 8vo. 300 pages. Fine in Fine DJ. ISBN: 0465015700 (Marine Pollution, Marine Resources, Conservation)
p11
sS'images'
p12
(lp13
sS'shipping_info'
p14
(lp15
VOnly 1 available
p16
aVShipping:US-Mainland: $4.50(more destinations)
p17
aVSales Tax: North Carolina: 6.75%
p18
aVCondition: Used
p19
asS'id'
p20
V16784813
p21
s.