(dp1
S'title'
p2
VUnited States FDC 1783-6 Endangered Flowers set of 4
p3
sS'url'
p4
Vhttp://www.ecrater.com/p/1819511/united-states-fdc-1783-6-endangered-flowers?keywords=endangered
p5
sS'price'
p6
V$16.95
p7
sS'seller'
p8
Vhttp://agcstamps.ecrater.com
p9
sS'description_links'
p10
VUnited States FDC 1783-6 Endangered Flowers set of 4
p11
sS'images'
p12
(lp13
Vhttp://s.ecrater.com/stores/18339/476ef0bf37b7f_18339b.jpg
p14
asS'shipping_info'
p15
(lp16
VOnly 1 available
p17
aVShipping:US-Mainland: free(more destinations)
p18
aVCondition: Brand new
p19
asS'id'
p20
V1819511
p21
s.