(dp1
S'title'
p2
VCERAMARTE 1989 BUDWEISER ASIAN TIGER STEIN ENDANGERED SPECIES BRAZIL #62701
p3
sS'url'
p4
Vhttp://www.ecrater.com/p/22517546/ceramarte-1989-budweiser-asian-tiger-stein?keywords=endangered
p5
sS'price'
p6
V$24.00
p7
sS'seller'
p8
Vhttp://worldtreasures2012.ecrater.com
p9
sS'description_links'
p10
VMeasures about : 5.5" X 4" X 7"Condition: Gently used. Like new.PHOTO NOTE: It is possible for items to appear slightly different in shade or color on different computer monitors. If you are unsure about a color or tone, please ASK.
p11
sS'images'
p12
(lp13
Vhttp://s.ecrater.com/stores/270640/55526121bec50_270640b.jpg
p14
asS'shipping_info'
p15
(lp16
VOnly 1 available
p17
aVShipping:USPS calculated - check
p18
aVCondition: Brand new
p19
asS'id'
p20
V22517546
p21
s.