(dp1
S'title'
p2
VEndangered Puerto Rican Parrot Cross Stitch Pattern
p3
sS'url'
p4
Vhttp://www.ecrater.com/p/24761035/endangered-puerto-rican-parrot-cross?keywords=endangered
p5
sS'price'
p6
V$8.99
p7
sS'seller'
p8
Vhttp://emeraldtheparrotxstitchpatterns.ecrater.com
p9
sS'description_links'
p10
VPLEASE READ THE ENTIRE PAGE CAREFULLY BEFORE YOU BUY!This is a COMPUTER~GENERATED cross stitch PATTERN ONLY.It is NOT a kit.  You supply your own fabric and floss.***BUY 3 PATTERNS, GET 1 FREE. ~OR~... BUY 5 PATTERNS, GET 2 FREE.*** Just e-mail me at thebeadedbird@ymail.com with the title/s of your 'free' choice/s after you download your Etsy purchases... and I'll send them to you via e-mail attachment within 36 hours.You can see some of my patterns that have been finished by customers, @ my ~CUSTOMER PROJECT GALLERY~ page @... http://etpx.weebly.com/index.html...ALSO, I use to sell on E Bay... user name MAC-CAW... store name... THEBEADEDBIRD... & you can see my feedback rating at this link...http://feedback.ebay.com/ws/eBayISAPI.dll?ViewFeedback2&userid;=mac-cawYou will receive your pattern/patterns via e-mail attachment for you to download and print out, within 36 hours of purchase.WITH YOUR PURCHASE YOU WILL RECEIVE:1. Electronic color picture of the original photograph.2. A 20 page Black & White electronic Pattern chart with Symbols.3. A 20 page Color electronic Pattern chart with Symbols.4. A very helpful ~TIPS~ section.5. An electronic floss usage amount summary. 6. And an electronic chart for DMC, Anchor and JP Coats & Clark, so you can choose your brand of floss.The stitch count is ... 216 X 310 ... & The finished picture size is 13.5" W x 19.38" H. when stitched on 18 Count Aida cloth.  But the pattern can be used for any size fabric, 18, 20, 22, 28 etc.  The larger the number count, the smaller the finished piece will be.  The smaller the number count, the larger the finished piece will be.The stitching chart is set ***FOR YOU TO PRINT***...at 8 squares per inch. All stitches are full Stitches.The patterns are quite easy to understand but are recommended for people who already know how to do counted cross stitching. No more squinting trying to read 'TINY' symbols.Easy to read...easy to use...& loads of fun to stitch.These patterns are computer-generated using professional software, designed in the 'POINTILLIST' style of art which means that when viewed from several feet away all the colors blend together making the stitched piece look realistic...like the original photo or painting from which it was created.  The amount of colors used allows subtle color changes to create this realistic look.  Without it they wouldn't look anywhere NEAR as good.No returns or refunds due to the nature of this particular item. ***We will not refund money due to the ad *NOT* being read entirely or correctly.***DISCLAIMER...Due to the limitations & inconsistencies of various display monitors, the colors you see on your screen may not be a totally accurate reproduction of the actual product. Screen images are intended as a guide only and should not be regarded as absolutely correct. This chart has been designed and printed with our best intentions of being without mistakes. However, the possibility of human error, printing mistakes or the variation of individual stitching does exist, and we regret that we cannot be responsible for this.These are electronic PDF files that you have to print out yourself.
p11
sS'images'
p12
(lp13
sS'shipping_info'
p14
(lp15
VMore than 10 available
p16
aVShipping:US-Mainland: free(more destinations)
p17
aVCondition: Brand new
p18
asS'id'
p19
V24761035
p20
s.