(dp1
S'title'
p2
Vburchell&#039;s non-endangered zebra pedestal taxidermy mount
p3
sS'url'
p4
S'http://www.ebay.com/itm/Burchells-Non-Endangered-Zebra-Pedestal-Taxidermy-Mount-/282447150730?hash=item41c3297e8a:g:sr4AAOSwc49Y8RVe'
p5
sS'price'
p6
VUS $3,300.00
p7
sS'seller'
p8
(dp9
g4
Vhttp://www.ebay.com/usr/idaho826?_trksid=p2047675.l2559
p10
sS'name'
p11
V idaho826
p12
ssS'description_links'
p13
(lp14
Vhttp://vi.vipr.ebaydesc.com/ws/eBayISAPI.dll?ViewItemDescV4&item=282447150730&t=0&tid=10&category=22702&seller=idaho826&excSoj=1&excTrk=1&lsite=0&ittenable=false&domain=ebay.com&descgauge=1
p15
asS'images'
p16
(lp17
(dp18
S'maxImageUrl'
p19
Vhttp://i.ebayimg.com/images/g/sr4AAOSwc49Y8RVe/s-l1600.jpg
p20
sS'displayImgUrl'
p21
Vhttp://i.ebayimg.com/images/g/sr4AAOSwc49Y8RVe/s-l300.jpg
p22
sa(dp23
g19
Vhttp://i.ebayimg.com/images/g/inUAAOSwpkFY8RVb/s-l1600.jpg
p24
sg21
Vhttp://i.ebayimg.com/images/g/inUAAOSwpkFY8RVb/s-l300.jpg
p25
sa(dp26
g19
Vhttp://i.ebayimg.com/images/g/gfEAAOSwnF9Y8RVa/s-l1600.jpg
p27
sg21
Vhttp://i.ebayimg.com/images/g/gfEAAOSwnF9Y8RVa/s-l300.jpg
p28
sa(dp29
g19
Vhttp://i.ebayimg.com/images/g/kjAAAOSwls5Y8RVY/s-l1600.jpg
p30
sg21
Vhttp://i.ebayimg.com/images/g/kjAAAOSwls5Y8RVY/s-l300.jpg
p31
sa(dp32
g19
Vhttp://i.ebayimg.com/images/g/spcAAOSwc49Y8RVd/s-l1600.jpg
p33
sg21
Vhttp://i.ebayimg.com/images/g/spcAAOSwc49Y8RVd/s-l300.jpg
p34
sa(dp35
g19
Vhttp://i.ebayimg.com/images/g/gZUAAOSwnF9Y8RVX/s-l1600.jpg
p36
sg21
Vhttp://i.ebayimg.com/images/g/gZUAAOSwnF9Y8RVX/s-l300.jpg
p37
sa(dp38
g19
Vhttp://i.ebayimg.com/images/g/eSQAAOSwGy5Y8RVb/s-l1600.jpg
p39
sg21
Vhttp://i.ebayimg.com/images/g/eSQAAOSwGy5Y8RVb/s-l300.jpg
p40
sa(dp41
g19
Vhttp://i.ebayimg.com/images/g/vFEAAOSw4CFY8RVb/s-l1600.jpg
p42
sg21
Vhttp://i.ebayimg.com/images/g/vFEAAOSw4CFY8RVb/s-l300.jpg
p43
sasS'shipping_info'
p44
(dp45
S'item_location'
p46
(lp47
V\u000aPost Falls, Idaho, United States
p48
asS'delivery'
p49
(lp50
VVaries
p51
aVVaries
p52
asS'posts_to'
p53
(lp54
VUnited States
p55
assS'id'
p56
S'282447150730'
p57
s.