(dp1
S'title'
p2
VMorpho Amathonte Butterfly
p3
sS'url'
p4
Vhttp://www.boneroom.com/store/p111/Morpho_Amathonte_Butterfly.html
p5
sS'price'
p6
V$55.00
p7
sS'seller'
p8
(lp9
sS'description_links'
p10
VMorpho amathonte20 x 20cm frameOrigin: Peru*International Restriction May Apply
p11
sS'images'
p12
(lp13
Vhttp://www.boneroom.com//uploads/4/8/1/1/48118243/s521972503441136676_p111_i3_w600.jpeg
p14
asS'shipping_info'
p15
(lp16
sS'id'
p17
Vp111_1497079937
p18
s.