(dp1
S'title'
p2
VSunset Moth (Verso)
p3
sS'url'
p4
Vhttp://www.boneroom.com/store/p141/Sunset_Moth_%28Verso%29.html
p5
sS'price'
p6
V$35.00
p7
sS'seller'
p8
(lp9
sS'description_links'
p10
VUrania rhipheus12.5 cm x 12.5 cm x 3.5 cm Origin: Madagascar*International Restrictions May Apply
p11
sS'images'
p12
(lp13
Vhttp://www.boneroom.com//uploads/4/8/1/1/48118243/s521972503441136676_p141_i1_w303.jpeg
p14
asS'shipping_info'
p15
(lp16
sS'id'
p17
Vp141_1497079946
p18
s.