(dp1
S'title'
p2
VGiant Scorpion
p3
sS'url'
p4
Vhttp://www.boneroom.com/store/p176/Giant_Scorpion.html
p5
sS'price'
p6
V$45.00
p7
sS'seller'
p8
(lp9
sS'description_links'
p10
VHeterometrus spinifer15.5 cm x 25.5 cm x 3.5 cmOrigin: Thailand*International Restrictions May Apply
p11
sS'images'
p12
(lp13
Vhttp://www.boneroom.com//uploads/4/8/1/1/48118243/s521972503441136676_p176_i3_w640.jpeg
p14
asS'shipping_info'
p15
(lp16
sS'id'
p17
Vp176_1497079931
p18
s.