(dp1
S'title'
p2
VAsian Elephant Skull
p3
sS'url'
p4
Vhttp://www.skullsunlimited.com/record_variant.php?id=2967
p5
sS'price'
p6
V$2,040.00
p7
sS'seller'
p8
(lp9
sS'description_links'
p10
VAsian Elephant Skull - Elephas maximus, The Asian elephant, sometimes named by one of its subspecies; the Indian Elephant, is one of the three living species of elephant. The Asian elephant is the largest living land animal in Asia reaching heights of 4 meters (12 feet) and a weight up to 5000kg (11,000 lbs.). Elephants are characterized by their long tusks, fan-like ears, and massive muscular trunk. Elephants use their large molars to eat a variety of grass, bark and leaves, as well as cultivated crops such as bananas and sugar cane.
p11
sS'images'
p12
(lp13
Vhttp://www.skullsunlimited.com/userfiles/image/variants_2967.jpg
p14
asS'shipping_info'
p15
(lp16
sS'id'
p17
V2967_1497023742
p18
s.