(dp1
S'title'
p2
VGolden-rumped Elephant Shrew Skull
p3
sS'url'
p4
Vhttp://www.skullsunlimited.com/record_variant.php?id=4422
p5
sS'price'
p6
V$80.00                                                     This item can ship for only $5.95* (*Within the contiguous United States only.)
p7
sS'seller'
p8
(lp9
sS'description_links'
p10
VElephant Shrew Skull - The golden-rumped elephant shrew, named for the color of its posterior pelage, is native to forests of Kenya. This omnivore feeds on a variety of insects and plant parts. The golden-rumped elephant shrew is one of the largest of the 15 species of elephant shrews. Elephant shrews are also called sengi
p11
sS'images'
p12
(lp13
Vhttp://www.skullsunlimited.com/userfiles/image/variants_4422.jpg
p14
asS'shipping_info'
p15
(lp16
sS'id'
p17
V4422_1497023765
p18
s.