(dp1
S'title'
p2
VCalifornia Elephant Seal Skull Cast
p3
sS'url'
p4
Vhttp://www.boneroom.com/store/p1325/California_Elephant_Seal_Skull_Cast.html
p5
sS'price'
p6
V$566.00
p7
sS'seller'
p8
(lp9
sS'description_links'
p10
VMirounga angustirosteis24.0" in length Male
p11
sS'images'
p12
(lp13
Vhttp://www.boneroom.com//uploads/4/8/1/1/48118243/s521972503441136676_p1325_i1_w640.jpeg
p14
asS'shipping_info'
p15
(lp16
sS'id'
p17
Vp1325_1497024076
p18
s.