(dp1
S'title'
p2
VHand Made Damascus Blade Bowie Skinner Knife Camel Bone
p3
sS'url'
p4
Vhttp://www.ecrater.com/p/10042797/hand-made-damascus-blade-bowie?keywords=camel+bone
p5
sS'price'
p6
V$80.00
p7
sS'seller'
p8
Vhttp://swordsmove.ecrater.com
p9
sS'description_links'
p10
VOver All Length 25.5 cm272 Layers Damascus Steal BladeCamel Bone Handle Colored Teak WoodWith Steel Bolsters & Stg. Horn FittingsFree Genuine Leather SheathFree Display Stand
p11
sS'images'
p12
(lp13
sS'shipping_info'
p14
(lp15
V10 available
p16
aVShipping:US-Mainland: $45.00(more destinations)
p17
aVCondition: Brand new
p18
asS'id'
p19
V10042797
p20
s.