(dp1
S'title'
p2
V200 RD Straight Razor Knife of Damascus Steel Blade with Colored Camel Bone on Handle+Sheath
p3
sS'url'
p4
Vhttp://www.ecrater.com/p/24816716/200-rd-straight-razor-knife-of-damascus?keywords=camel+bone
p5
sS'price'
p6
V$89.00
p7
sS'seller'
p8
Vhttp://howzthat.ecrater.com
p9
sS'description_links'
p10
VSkype Me @ howzthat1A Great Ceremonial, Personal Accessory or Display PieceHowzthat products are made under the strict supervision of trained, skilled and experienced workers for unique quality to meet customer\u2019s satisfaction.Howzthat -where every purchaser is a partnerProduct InformationStraight Razor KnifeTotal length: 9.40 Inches approx.Blade length: 4.00 Inches approx.Blade: Damascus Steel Hand Forged.Handle Length: 5.40 Inches approx.Handle Material: Colored Camel Bone with Brass and Fibre Spacers Eye Catching File Work on Spine of Blade
p11
sS'images'
p12
(lp13
Vhttp://s.ecrater.com/stores/308757/574c639dd5e82_308757b.jpg
p14
asS'shipping_info'
p15
(lp16
V2 available
p17
aVShipping:US-Mainland: $22.00(more destinations)
p18
aVCondition: Brand new
p19
asS'id'
p20
V24816716
p21
s.