(dp1
S'title'
p2
VBeautiful Camel Bone Handmade D2 Steel Tracker Hunting Knife Prime Quality
p3
sS'url'
p4
Vhttp://www.ecrater.com/p/27255047/beautiful-camel-bone-handmade-d2?keywords=camel+bone
p5
sS'price'
p6
V$55.00
p7
sS'seller'
p8
Vhttp://knifeknation.ecrater.com
p9
sS'description_links'
p10
VBeautiful Camel Bone Handmade D2 Steel Tracker Hunting Knife Prime QualityBeautiful 100% Handmade D2 Steel Tracker Hunting KnifeKnife Size: 9.75" , Blade Size : 5" , Sharpness: Razor SharpWe Make 100% Prime Quality Brown Leather SheathWe Aim To Give Our Customers 100% Satisfaction If you Not Satisfied With Our products Just You Return This Item Within 15 Days without Asking Any Questions We Give You 100% Full Refund
p11
sS'images'
p12
(lp13
Vhttp://s.ecrater.com/stores/406835/5921e67f71f1c_406835b.jpg
p14
asS'shipping_info'
p15
(lp16
V10 available
p17
aVShipping:US-Mainland: $28.00(more destinations)
p18
aVCondition: Brand new
p19
asS'id'
p20
V27255047
p21
s.