(dp1
S'title'
p2
V\u000aEYE CATCHING Damascus FOLDING KNIFE,.CAMEL BONE\u000a
p3
sS'url'
p4
Vhttp://www.ioffer.com/i/eye-catching-damascus-folding-knife-camel-bone-512335519
p5
sS'price'
p6
V$29.99
p7
sS'seller'
p8
(lp9
sS'description_links'
p10
VYour browser does not support JavaScript.To view this page, enable JavaScript if it is disabled or upgrade your browser.Click Here. Double your traffic. Get Vendio Gallery - Now FREE!&amp;lt;div style="text-align:center"&amp;gt;&amp;lt;img src="http://ti2.auctiva.com/sw/java.gif" border="0"&amp;gt;&amp;lt;br&amp;gt;&amp;lt;table align="center"&amp;gt;&amp;lt;tr&amp;gt;&amp;lt;td&amp;gt;&amp;lt;a style="text-decoration:none" href="http://store.auctiva.com/damascusedge"&amp;gt;&amp;lt;img src="http://ti2.auctiva.com/sw/browse2.gif" border="0"&amp;gt;&amp;lt;/a&amp;gt;&amp;lt;/td&amp;gt;&amp;lt;td height="21px" valign="middle" align="center"&amp;gt;&amp;lt;font face="arial" size="2"&amp;gt;&amp;lt;b&amp;gt;&amp;lt;a href="http://store.auctiva.com/damascusedge"&amp;gt;damascusedge&amp;lt;/a&amp;gt; Store&amp;lt;/b&amp;gt;&amp;lt;/font&amp;gt;&amp;lt;/td&amp;gt;&amp;lt;/tr&amp;gt;&amp;lt;/table&amp;gt;&amp;lt;/div&amp;gt;Visit my website for more designshttp://www.damascusedge.com/ &amp;lt;img src="http://ti2.auctiva.com/web/aswCredit.gif" border="0"&amp;gt;&amp;lt;br&amp;gt;&amp;lt;a href="http://www.auctiva.com/?how=scLnk2" target="_blank"&amp;gt;&amp;lt;img src="http://ti2.auctiva.com/images/sc1line2.gif" border="0"&amp;gt;&amp;lt;/a&amp;gt;a cute knife...best for use..good for gift...light weight..you an take it in pocket easily...this knife can use many ways...you also can use this in your kitchen...This is very sharp knifeDamascus blade brass bolsters bone handle with leather sheathblade size: 4''handle size: 4.5''overall: 8.5closed length: 4.5PACKAGE:1 x HNS Damascus folding knife1 x pure leather pouchSHIPPING:we ship Next day after your paymentWe use best courier service for shipping,Normaly we provide 5to7 days delivery time.Russian delivery time will be 20-30 days through EMS. COMBINE SHIPPING DISCOUNT:FEEDBACK:we leave feedback after your payment instently. we leave positive feedback to every buyyer...QUESTION:you also ask us any Question about this item.   we respond this Question maximum within 24 hoursCOMPANY:we are manufacturers of knives and swords...we are specialist of every kind of cutlery...we are working from 1992...usually we deal in bulk or wholsellers...but here you can also buy single piece of knifeTerms & ConditionsIf your purchase is held by Custom Authorities in your country/State we will not be responsible for that.  You must be over 18 to purchase of any knife.  It is buyer's responsibility to comply with all laws that apply to the product in your country and state. We will not take any responsibility of unlawful use of this item. PAYMENTSWe accept payments made only by PayPalRefund PolicyWe will replace or refund of any item returned with in 7 days of purchase, the item should be in original condition. Buyer will pay shipping of returned item.  IF YOU HAVE ANY QUESTIONS PLEASE ASK..CHECK OUT MY OTHER KNIVES, GREAT FOR COLLECTORS   !Be sure to add me to your !Your browser does not support JavaScript.To view this page, enable JavaScript if it is disabled or upgrade your browser.
p11
sS'images'
p12
(lp13
Vhttp://cdn.iofferphoto.com/img3/item/512/335/519/t_eOPU.jpg
p14
aVhttp://cdn.iofferphoto.com/img3/item/512/335/519/t_WUQT.jpg
p15
asS'shipping_info'
p16
(lp17
sS'id'
p18
V512335519_1497033169
p19
s.