(dp1
S'title'
p2
VREAL BONE CARVED ARROWHEADS WITH DETAIL - MINIMUM PURCHASE (5)
p3
sS'url'
p4
Vhttp://www.glacierwear.com/real-bone-arrowheads-with-detail-minimum-purchase-5.html
p5
sS'price'
p6
V4.25
p7
sS'seller'
p8
(lp9
sS'description_links'
p10
Vbnn1002- Real Bone Carved Arrowheads With Detail- Pre-Drilled Hole on End of Arrowhead - Approximately Two inches in Length- Patterns and Details Will Vary - View Images- Great for Crafts and Other Projects
p11
sS'images'
p12
(lp13
Vhttp://www.glacierwear.com/media/catalog/product/cache/1/thumbnail/500x/17f82f742ffe127f42dca9de82fb58b1/b/o/bone_arrowheads.jpg
p14
asS'shipping_info'
p15
VFree Shipping on $100.00+
p16
sS'id'
p17
V5_1497033139
p18
s.