(dp1
S'title'
p2
VCamel - Upper Skull Partial
p3
sS'url'
p4
Vhttp://www.boneroom.com/store/p3086/Camel_-_Upper_Skull_Partial_.html
p5
sS'price'
p6
V$85.00
p7
sS'seller'
p8
(lp9
sS'description_links'
p10
VCamel - Upper Skull Partial
p11
sS'images'
p12
(lp13
Vhttp://www.boneroom.com//uploads/4/8/1/1/48118243/s521972503441136676_p3086_i1_w640.jpeg
p14
asS'shipping_info'
p15
(lp16
sS'id'
p17
Vp3086_1497033173
p18
s.