(dp1
S'title'
p2
VBlack Bear
p3
sS'url'
p4
Vhttp://store.yahoo.com/yhst-66562580642243/black-bear.html
p5
sS'price'
p6
(lp7
sS'seller'
p8
(lp9
sS'description_links'
p10
VBlack Bear Photo Reference Cd
p11
sS'images'
p12
(lp13
Vhttp://ep.yimg.com/ca/I/yhst-66562580642243_2251_2561850
p14
asS'shipping_info'
p15
(lp16
sS'id'
p17
Vblack-bear_1497051297
p18
s.