(dp1
S'title'
p2
VLORD BUDDHA TIGER CAVE THAI ANTIQUE PROTECTION AMULET GOOD LUCK PEACEFUL PENDANT
p3
sS'url'
p4
Vhttp://www.ecrater.com/p/23400687/lord-buddha-tiger-cave-thai?keywords=tiger
p5
sS'price'
p6
V$1,519.99
p7
sS'seller'
p8
Vhttp://tumking.ecrater.com
p9
sS'description_links'
p10
V&amp;lt;div style="text-align:center"&amp;gt;&amp;lt;img src="http://ti2.auctiva.com/sw/java.gif" border="0"&amp;gt;&amp;lt;br&amp;gt;&amp;lt;table align="center"&amp;gt;&amp;lt;tr&amp;gt;&amp;lt;td&amp;gt;&amp;lt;a style="text-decoration:none" href="http://emporium.auctiva.com/tumking" target="_blank"&amp;gt;&amp;lt;img src="http://ti2.auctiva.com/sw/noflash.gif" border="0"&amp;gt;&amp;lt;/a&amp;gt;&amp;lt;/td&amp;gt;&amp;lt;td height="27px" valign="middle" align="center"&amp;gt;&amp;lt;font face="arial" size="2"&amp;gt;&amp;lt;b&amp;gt;&amp;lt;a href="http://emporium.auctiva.com/tumking" target="_blank"&amp;gt;tumking&amp;lt;/a&amp;gt; Store&amp;lt;/b&amp;gt;&amp;lt;/font&amp;gt;&amp;lt;/td&amp;gt;&amp;lt;/tr&amp;gt;&amp;lt;/table&amp;gt;&amp;lt;/div&amp;gt;&amp;lt;img src="http://ti2.auctiva.com/web/aswCredit.gif" border="0"&amp;gt;&amp;lt;br&amp;gt;&amp;lt;a href="http://www.auctiva.com/?how=scLnk1" target="_blank"&amp;gt;&amp;lt;img src="http://ti2.auctiva.com/images/sc1line1.gif" border="0"&amp;gt;&amp;lt;/a&amp;gt;       LORD BUDDHA TIGER CAVE THAI ANTIQUE PROTECTION AMULET GOOD LUCK PEACEFUL PENDANT   You are looking onvery RareThai amulet callsTiger Cave Buddha Amulet                   ( Phra Thamsuer)Pendant Size : 2.6 x4.8 cm. (Approx.)This is Phra Thamsuer ( Found the very old Buddha amulets in Old Cave in Supanburee Province in 2470 BE.)It's ancient art style that made a lot of beautiful Buddha amulet for more than 1000 years.Ancient Hermit made and blessed in Supanburee of Thailandcreated and blessed this amulet in ancient timefor using asStrong Life Protection ,Good Luck , Success ,Healthy ,Peaceful Life Amulet.It will make a fantastic gift for someone special or for a collector of Asian antiques.Keep it with you forSuccessful Poweror keep it in your house .This is a fabulous collector's item indeed!This Buddha Tiger CaveAmulet will bring you Luck, Good things will unexpectedly happen to you.It also make you success in anything you hope for.This Amulet will bring Prosperity and ensure success in human endeavors.It is very rare and looks so beautiful.It will be one of the best in your collection!!!! WE ACCEPT PAYPAL ..ONLY!!We will ship WorldWide.Shipping and handling cost isFree.Weship within 24 hr.after payment is received.Please make payment within 7 days after product ended.Please contact us before leaving a negative feedback, giving us a chance to resolve your problem.Return Accepted within 14 days with final price money back(buyer pay for return S&H cost)I will leave Feedback right after the payment is completed.I sell only genuine antique Thai Amulets ,Pendants.In this world economic crisis, if you have Thai antique Amulets with you. It will help to prevent any Bad things and protect you from Evil.It also brings Luck, Wealth, Fortune and encourage you to fight any obstacle with a powerful help of Ancient Magic.It's also Beautiful and very nice for your Antique collections too.I have big collection ofLord BuddhaAmuletsin my storeplease come in and check them out!!!Thank you very muchGood Luck and Happy looking     &amp;lt;div style="text-align:center"&amp;gt;&amp;lt;a style="text-decoration:none" href="http://mostpopular.sellathon.com/?id=AC723492"&amp;gt;&amp;lt;img src="http://www.sellathon.com/Resources/Images/countercredit.gif" border="0"&amp;gt;&amp;lt;/a&amp;gt;&amp;lt;/div&amp;gt;On Mar-19-13 at 05:55:11 PDT, seller added the following information:Sellers: Delight buyers. Get your own map of past buyers.Your browser does not support JavaScript.To view this page, enable JavaScript if it is disabled or upgrade your browser.Click Here. Double your traffic. Get Vendio Gallery - Now FREE!16>,RcmdId ViewItemDescV4,RlogId p4%60bo7%60jtb9%3Feog4d71f%2B%3E16%3E-150090254c9-0x10b-->
p11
sS'images'
p12
(lp13
Vhttp://s.ecrater.com/stores/283598/560787f79e690_283598b.jpg
p14
asS'shipping_info'
p15
(lp16
VOnly 1 available
p17
aVShipping:US-Mainland: free(more destinations)
p18
aVCondition: Used
p19
asS'id'
p20
V23400687
p21
s.