(dp1
S'title'
p2
V14KT YELLOW GOLD BRACELET BANGLE BISMARK 2 TIGER 10.5 GRAMS WEIGHT NO SCRAP
p3
sS'url'
p4
Vhttp://www.ecrater.com/p/24566844/14kt-yellow-gold-bracelet-bangle?keywords=tiger
p5
sS'price'
p6
V$850.00
p7
sS'seller'
p8
Vhttp://morningstarsjewelers.ecrater.com
p9
sS'description_links'
p10
V14KT YELLOW GOLD BRACELET BANGLE BISMARCK 2 TIGER 10.5 GRAMS WEIGHT NO SCRAPPictures sell!Auctiva Free Image Hosting.Show off your items withAuctiva's Listing TemplatesAuctiva,THE simple solution for eCRATER sellers.<div style="text-align:center"><a style="text-decoration:none" href="http://mostpopular.sellathon.com/?id=AC1036956"><img src="http://www.sellathon.com/Resources/Images/countercredit.gif" border="0"></a></div>On Mar-29-16 at 14:04:22 PDT, seller added the following information:
p11
sS'images'
p12
(lp13
sS'shipping_info'
p14
(lp15
VOnly 1 available
p16
aVShipping:US-Mainland: $15.00(more destinations)
p17
aVCondition: Used
p18
asS'id'
p19
V24566844
p20
s.