(dp1
S'title'
p2
VTiger Maple Coffee Table  (CT128)
p3
sS'url'
p4
Vhttp://www.ecrater.com/p/24864316/tiger-maple-coffee-table-ct128?keywords=tiger
p5
sS'price'
p6
V$499.00
p7
sS'seller'
p8
Vhttp://yardstickantiques.ecrater.com
p9
sS'description_links'
p10
VTiger maple coffee tableOriginal finish  Dimensions: 42 inches wide, 17 inches tall, 24 inches deep. We ship Greyhound to the station closest to you and you pick it up.Contact us with questions and we will respond as soon as we can. Check out our other listings for more nice furniture items. THANKS for looking!(WC050116)On Nov-07-08 at 14:06:57 PST, seller added the following information:IMPORTANT:  Please be aware that our furniture items are vintage and antique pieces.  They may shows nicks, dents, and scratches consistent with age and use.  We have restored the items we sell but please understand that they are not perfect!
p11
sS'images'
p12
(lp13
sS'shipping_info'
p14
(lp15
VOnly 1 available
p16
aVShipping:US-Mainland: free(more destinations)
p17
aVCondition: Used
p18
asS'id'
p19
V24864316
p20
s.