(dp1
S'title'
p2
V1966 sunbeam tiger mark 1a
p3
sS'url'
p4
S'http://www.ebay.com/itm/1966-Sunbeam-Tiger-Mark-1A-/252644894642?hash=item3ad2cf27b2:g:zOUAAOSwA3dYMgAS&vxp=mtr'
p5
sS'price'
p6
VUS $99,900.00
p7
sS'seller'
p8
(dp9
g4
Vhttp://www.ebay.com/usr/fusionluxurymotors?_trksid=p2047675.l2559
p10
sS'name'
p11
V fusionluxurymotors
p12
ssS'description_links'
p13
(lp14
Vhttp://vi.vipr.ebaydesc.com/ws/eBayISAPI.dll?ViewItemDescV4&item=252644894642&t=1492047335000&tid=10&category=182372&seller=fusionluxurymotors&excSoj=1&excTrk=1&lsite=100&ittenable=false&domain=ebay.com&descgauge=1
p15
asS'images'
p16
(lp17
(dp18
S'maxImageUrl'
p19
Vhttp://i.ebayimg.com/images/g/zOUAAOSwA3dYMgAS/s-l1600.jpg
p20
sS'displayImgUrl'
p21
Vhttp://i.ebayimg.com/images/g/zOUAAOSwA3dYMgAS/s-l300.jpg
p22
sa(dp23
g19
Vhttp://i.ebayimg.com/images/g/BsMAAOSw5cNYMgAS/s-l1600.jpg
p24
sg21
Vhttp://i.ebayimg.com/images/g/BsMAAOSw5cNYMgAS/s-l300.jpg
p25
sa(dp26
g19
Vhttp://i.ebayimg.com/images/g/Mc4AAOSwcUBYMgAS/s-l1600.jpg
p27
sg21
Vhttp://i.ebayimg.com/images/g/Mc4AAOSwcUBYMgAS/s-l300.jpg
p28
sa(dp29
g19
Vhttp://i.ebayimg.com/images/g/ykAAAOSwImRYMgAS/s-l1600.jpg
p30
sg21
Vhttp://i.ebayimg.com/images/g/ykAAAOSwImRYMgAS/s-l300.jpg
p31
sa(dp32
g19
Vhttp://i.ebayimg.com/images/g/zOIAAOSwA3dYMgAS/s-l1600.jpg
p33
sg21
Vhttp://i.ebayimg.com/images/g/zOIAAOSwA3dYMgAS/s-l300.jpg
p34
sa(dp35
g19
Vhttp://i.ebayimg.com/images/g/~UMAAOSwXeJYMgAS/s-l1600.jpg
p36
sg21
Vhttp://i.ebayimg.com/images/g/~UMAAOSwXeJYMgAS/s-l300.jpg
p37
sa(dp38
g19
Vhttp://i.ebayimg.com/images/g/l2oAAOSwB09YMgAS/s-l1600.jpg
p39
sg21
Vhttp://i.ebayimg.com/images/g/l2oAAOSwB09YMgAS/s-l300.jpg
p40
sa(dp41
g19
Vhttp://i.ebayimg.com/images/g/zOYAAOSwA3dYMgAS/s-l1600.jpg
p42
sg21
Vhttp://i.ebayimg.com/images/g/zOYAAOSwA3dYMgAS/s-l300.jpg
p43
sa(dp44
g19
Vhttp://i.ebayimg.com/images/g/wxEAAOSwiDFYMgAS/s-l1600.jpg
p45
sg21
Vhttp://i.ebayimg.com/images/g/wxEAAOSwiDFYMgAS/s-l300.jpg
p46
sa(dp47
g19
Vhttp://i.ebayimg.com/images/g/~VMAAOSwXeJYMgAS/s-l1600.jpg
p48
sg21
Vhttp://i.ebayimg.com/images/g/~VMAAOSwXeJYMgAS/s-l300.jpg
p49
sa(dp50
g19
Vhttp://i.ebayimg.com/images/g/YTYAAOSw44BYMgAS/s-l1600.jpg
p51
sg21
Vhttp://i.ebayimg.com/images/g/YTYAAOSw44BYMgAS/s-l300.jpg
p52
sa(dp53
g19
Vhttp://i.ebayimg.com/images/g/~UEAAOSwXeJYMgAS/s-l1600.jpg
p54
sg21
Vhttp://i.ebayimg.com/images/g/~UEAAOSwXeJYMgAS/s-l300.jpg
p55
sasS'shipping_info'
p56
(dp57
S'item_location'
p58
(lp59
sS'delivery'
p60
(lp61
sS'posts_to'
p62
(lp63
VLocal pick-up only
p64
assS'id'
p65
S'252644894642'
p66
s.