(dp1
S'title'
p2
V370g Natural Pretty Tiger 's Eye Carved Quartz Crystal Skull ranging From China free shippi
p3
sS'url'
p4
Vhttp://www.ecrater.com/p/27007128/370g-natural-pretty-tiger-39s?keywords=tiger
p5
sS'price'
p6
V$426.00
p7
sS'seller'
p8
Vhttp://agriculturetools.ecrater.com
p9
sS'description_links'
p10
Vskull skull on sale at reasonable prices, buy 370g Natural Pretty Tiger 's Eye Carved Quartz Crystal Skull ranging From China free shipping  k09
p11
sS'images'
p12
(lp13
Vhttp://s.ecrater.com/stores/404200/58f139dcb79d8_404200b.jpg
p14
asS'shipping_info'
p15
(lp16
V5 available
p17
aVShipping:US-Mainland: free(more destinations)
p18
aVCondition: Brand new
p19
asS'id'
p20
V27007128
p21
s.