(dp1
S'title'
p2
V\u000aNew Tiger Head Rivet Chain Backpack Green/Gold/Black\u000a
p3
sS'url'
p4
Vhttp://www.ioffer.com/i/new-tiger-head-rivet-chain-backpack-green-gold-black-623678153
p5
sS'price'
p6
V$595.00
p7
sS'seller'
p8
(lp9
sS'description_links'
p10
VSize:29*27*14cm *** The pictures were taken from the actual item, what you see what you get. Payment :  We Accept: (1)Money Gram & (2)Western Union & (3)Moneybookers.  if you buy but don't payment . please cancel the order. Because we don't want file you is " Non-paying buyer ".  Shipping:  When we receive your payment, we will shipping your items in 48 hours, it usually takes approximately 5-8 business days to arrive.Item will be shipped by express post EMS.  Please don't leave me bad feedback if you receive them in a longer time, because that is not my fault.
p11
sS'images'
p12
(lp13
Vhttp://cdn.iofferphoto.com/img/item/623/678/153/t_new-tiger-head-rivet-chain-backpack-green-gold-black-be27.jpg
p14
aVhttp://cdn.iofferphoto.com/img/item/623/678/153/t_new-tiger-head-rivet-chain-backpack-green-gold-black-bcb2.jpg
p15
aVhttp://cdn.iofferphoto.com/img/item/623/678/153/t_new-tiger-head-rivet-chain-backpack-green-gold-black-fd0f.jpg
p16
aVhttp://cdn.iofferphoto.com/img/item/623/678/153/t_new-tiger-head-rivet-chain-backpack-green-gold-black-9e10.jpg
p17
aVhttp://cdn.iofferphoto.com/img/item/623/678/153/t_new-tiger-head-rivet-chain-backpack-green-gold-black-d446.jpg
p18
aVhttp://cdn.iofferphoto.com/img/item/623/678/153/t_new-tiger-head-rivet-chain-backpack-green-gold-black-c9d1.jpg
p19
aVhttp://cdn.iofferphoto.com/img/item/623/678/153/t_new-tiger-head-rivet-chain-backpack-green-gold-black-41e5.jpg
p20
aVhttp://cdn.iofferphoto.com/img/item/623/678/153/t_new-tiger-head-rivet-chain-backpack-green-gold-black-1218.jpg
p21
aVhttp://cdn.iofferphoto.com/img/item/623/678/153/t_new-tiger-head-rivet-chain-backpack-green-gold-black-cfa8.jpg
p22
aVhttp://cdn.iofferphoto.com/img/item/623/678/153/t_new-tiger-head-rivet-chain-backpack-green-gold-black-5615.jpg
p23
aVhttp://cdn.iofferphoto.com/img/item/623/678/153/t_new-tiger-head-rivet-chain-backpack-green-gold-black-3e44.jpg
p24
aVhttp://cdn.iofferphoto.com/img/item/623/678/153/t_new-tiger-head-rivet-chain-backpack-green-gold-black-a491.jpg
p25
aVhttp://cdn.iofferphoto.com/img/item/623/678/153/t_new-tiger-head-rivet-chain-backpack-green-gold-black-eb54.jpg
p26
aVhttp://cdn.iofferphoto.com/img/item/623/678/153/t_new-tiger-head-rivet-chain-backpack-green-gold-black-5ce9.jpg
p27
aVhttp://cdn.iofferphoto.com/img/item/623/678/153/t_new-tiger-head-rivet-chain-backpack-green-gold-black-8aa6.jpg
p28
aVhttp://cdn.iofferphoto.com/img/item/623/678/153/t_new-tiger-head-rivet-chain-backpack-green-gold-black-8a48.jpg
p29
aVhttp://cdn.iofferphoto.com/img/item/623/678/153/t_new-tiger-head-rivet-chain-backpack-green-gold-black-b2f3.jpg
p30
aVhttp://cdn.iofferphoto.com/img/item/623/678/153/t_new-tiger-head-rivet-chain-backpack-green-gold-black-e3ec.jpg
p31
aVhttp://cdn.iofferphoto.com/img/item/623/678/153/t_new-tiger-head-rivet-chain-backpack-green-gold-black-8804.jpg
p32
asS'shipping_info'
p33
VAvailable ColorsAvailable SizesSizesMediumAccessoriesIt Come With Box , and Paper Box And Dust BagFeeIf You Want Box , and You Should Pay Extra Shipping Fee For ItEstimated Shipping5 - 10 Days
p34
sS'id'
p35
V623678153_1497066603
p36
s.