(dp1
S'title'
p2
V\u000aMens Tigers Eye & Diamond Ring 14K Yellow Gold Band\u000a
p3
sS'url'
p4
Vhttp://www.ioffer.com/i/mens-tigers-eye-diamond-ring-14k-yellow-gold-band-636095563
p5
sS'price'
p6
V$697.00
p7
sS'seller'
p8
(lp9
sS'description_links'
p10
V
sS'images'
p11
(lp12
Vhttp://cdn.iofferphoto.com/img/item/636/095/563/t_0eXCmens-tigers-eye-diamond-ring-14k-yellow-gold-band.jpg
p13
aVhttp://cdn.iofferphoto.com/img/item/636/095/563/t_78demens-tigers-eye-diamond-ring-14k-yellow-gold-band.jpg
p14
aVhttp://cdn.iofferphoto.com/img/item/636/095/563/t_Spc8mens-tigers-eye-diamond-ring-14k-yellow-gold-band.jpg
p15
aVhttp://cdn.iofferphoto.com/img/item/636/095/563/t_gOsRmens-tigers-eye-diamond-ring-14k-yellow-gold-band.jpg
p16
aVhttp://cdn.iofferphoto.com/img/item/636/095/563/t_QHePmens-tigers-eye-diamond-ring-14k-yellow-gold-band.jpg
p17
aVhttp://cdn.iofferphoto.com/img/item/636/095/563/t_o71Omens-tigers-eye-diamond-ring-14k-yellow-gold-band.jpg
p18
aVhttp://cdn.iofferphoto.com/img/item/636/095/563/t_g9blmens-tigers-eye-diamond-ring-14k-yellow-gold-band.jpg
p19
aVhttp://cdn.iofferphoto.com/img/item/636/095/563/t_qIQnmens-tigers-eye-diamond-ring-14k-yellow-gold-band.jpg
p20
aVhttp://cdn.iofferphoto.com/img/item/636/095/563/t_IyTtmens-tigers-eye-diamond-ring-14k-yellow-gold-band.jpg
p21
aVhttp://cdn.iofferphoto.com/img/item/636/095/563/t_b8yomens-tigers-eye-diamond-ring-14k-yellow-gold-band.jpg
p22
asS'shipping_info'
p23
(lp24
sS'id'
p25
V636095563_1497066556
p26
s.