(dp1
S'title'
p2
V\u000aMens Tiger's Eye & Diamond Ring 14K White Gold\u000a
p3
sS'url'
p4
Vhttp://www.ioffer.com/i/mens-tiger-s-eye-diamond-ring-14k-white-gold-636024718
p5
sS'price'
p6
V$650.00
p7
sS'seller'
p8
(lp9
sS'description_links'
p10
V
sS'images'
p11
(lp12
Vhttp://cdn.iofferphoto.com/img3/item/636/024/718/t_2kQRmens-tiger-s-eye-diamond-ring-14k-white-gold.jpg
p13
aVhttp://cdn.iofferphoto.com/img3/item/636/024/718/t_hxlJmens-tiger-s-eye-diamond-ring-14k-white-gold.jpg
p14
aVhttp://cdn.iofferphoto.com/img3/item/636/024/718/t_f8HHmens-tiger-s-eye-diamond-ring-14k-white-gold.jpg
p15
aVhttp://cdn.iofferphoto.com/img3/item/636/024/718/t_l8nSmens-tiger-s-eye-diamond-ring-14k-white-gold.jpg
p16
aVhttp://cdn.iofferphoto.com/img3/item/636/024/718/t_Z3qPmens-tiger-s-eye-diamond-ring-14k-white-gold.jpg
p17
aVhttp://cdn.iofferphoto.com/img3/item/636/024/718/t_O7Fvmens-tiger-s-eye-diamond-ring-14k-white-gold.jpg
p18
aVhttp://cdn.iofferphoto.com/img3/item/636/024/718/t_6xbZmens-tiger-s-eye-diamond-ring-14k-white-gold.jpg
p19
aVhttp://cdn.iofferphoto.com/img3/item/636/024/718/t_sr6rmens-tiger-s-eye-diamond-ring-14k-white-gold.jpg
p20
aVhttp://cdn.iofferphoto.com/img3/item/636/024/718/t_pZoNmens-tiger-s-eye-diamond-ring-14k-white-gold.jpg
p21
aVhttp://cdn.iofferphoto.com/img3/item/636/024/718/t_PzqBmens-tiger-s-eye-diamond-ring-14k-white-gold.jpg
p22
aVhttp://cdn.iofferphoto.com/img3/item/636/024/718/t_eWp4mens-tiger-s-eye-diamond-ring-14k-white-gold.jpg
p23
aVhttp://cdn.iofferphoto.com/img3/item/636/024/718/t_vBlnmens-tiger-s-eye-diamond-ring-14k-white-gold.jpg
p24
asS'shipping_info'
p25
(lp26
sS'id'
p27
V636024718_1497066595
p28
s.