(dp1
S'title'
p2
V\u000aMens Tiger's Eye & Diamond Ring 14K White Gold\u000a
p3
sS'url'
p4
Vhttp://www.ioffer.com/i/mens-tiger-s-eye-diamond-ring-14k-white-gold-636057638
p5
sS'price'
p6
V$650.00
p7
sS'seller'
p8
(lp9
sS'description_links'
p10
V
sS'images'
p11
(lp12
Vhttp://cdn.iofferphoto.com/img3/item/636/057/638/t_8BBbmens-tiger-s-eye-diamond-ring-14k-white-gold.jpg
p13
aVhttp://cdn.iofferphoto.com/img3/item/636/057/638/t_XKGHmens-tiger-s-eye-diamond-ring-14k-white-gold.jpg
p14
aVhttp://cdn.iofferphoto.com/img3/item/636/057/638/t_AjQcmens-tiger-s-eye-diamond-ring-14k-white-gold.jpg
p15
aVhttp://cdn.iofferphoto.com/img3/item/636/057/638/t_t5OTmens-tiger-s-eye-diamond-ring-14k-white-gold.jpg
p16
aVhttp://cdn.iofferphoto.com/img3/item/636/057/638/t_Q5qMmens-tiger-s-eye-diamond-ring-14k-white-gold.jpg
p17
aVhttp://cdn.iofferphoto.com/img3/item/636/057/638/t_st25mens-tiger-s-eye-diamond-ring-14k-white-gold.jpg
p18
aVhttp://cdn.iofferphoto.com/img3/item/636/057/638/t_naX7mens-tiger-s-eye-diamond-ring-14k-white-gold.jpg
p19
aVhttp://cdn.iofferphoto.com/img3/item/636/057/638/t_PIwkmens-tiger-s-eye-diamond-ring-14k-white-gold.jpg
p20
aVhttp://cdn.iofferphoto.com/img3/item/636/057/638/t_j1tXmens-tiger-s-eye-diamond-ring-14k-white-gold.jpg
p21
aVhttp://cdn.iofferphoto.com/img3/item/636/057/638/t_9lgqmens-tiger-s-eye-diamond-ring-14k-white-gold.jpg
p22
aVhttp://cdn.iofferphoto.com/img3/item/636/057/638/t_BCJbmens-tiger-s-eye-diamond-ring-14k-white-gold.jpg
p23
aVhttp://cdn.iofferphoto.com/img3/item/636/057/638/t_lLEOmens-tiger-s-eye-diamond-ring-14k-white-gold.jpg
p24
asS'shipping_info'
p25
(lp26
sS'id'
p27
V636057638_1497066591
p28
s.