(dp1
S'title'
p2
VSiberian Tiger Skull Cast
p3
sS'url'
p4
Vhttp://www.boneroom.com/store/p1205/Siberian_Tiger_Skull_Cast.html
p5
sS'price'
p6
V$333.00
p7
sS'seller'
p8
(lp9
sS'description_links'
p10
VPanthera tigris14.5" in length
p11
sS'images'
p12
(lp13
Vhttp://www.boneroom.com//uploads/4/8/1/1/48118243/s521972503441136676_p1205_i1_w441.jpeg
p14
asS'shipping_info'
p15
(lp16
sS'id'
p17
Vp1205_1497066641
p18
s.