(dp1
S'title'
p2
VTiger Card
p3
sS'url'
p4
Vhttp://www.boneroom.com/store/p1609/Tiger_Card.html
p5
sS'price'
p6
V$3.50
p7
sS'seller'
p8
(lp9
sS'description_links'
p10
V5.5" x 7.25"Blank note card.Illustration by renown reptile artist Robert Stebbins.
p11
sS'images'
p12
(lp13
Vhttp://www.boneroom.com//uploads/4/8/1/1/48118243/s521972503441136676_p1609_i1_w640.jpeg
p14
asS'shipping_info'
p15
(lp16
sS'id'
p17
Vp1609_1497066627
p18
s.