(dp1
S'title'
p2
VSmall Tiger Wasp in Lucite
p3
sS'url'
p4
Vhttp://www.boneroom.com/store/p342/Small_Tiger_Wasp_in_Lucite.html
p5
sS'price'
p6
V$11.00
p7
sS'seller'
p8
(lp9
sS'description_links'
p10
VSmall2.88" x 1.63" x 0.88"
p11
sS'images'
p12
(lp13
Vhttp://www.boneroom.com//uploads/4/8/1/1/48118243/s521972503441136676_p342_i1_w600.jpeg
p14
asS'shipping_info'
p15
(lp16
sS'id'
p17
Vp342_1497066630
p18
s.