(dp1
S'title'
p2
VWhite Tiger
p3
sS'url'
p4
Vhttp://store.yahoo.com/yhst-66562580642243/white-tiger.html
p5
sS'price'
p6
(lp7
sS'seller'
p8
(lp9
sS'description_links'
p10
VWhite Tiger Photo Reference Cd
p11
sS'images'
p12
(lp13
Vhttp://ep.yimg.com/ca/I/yhst-66562580642243_2251_93220181
p14
asS'shipping_info'
p15
(lp16
sS'id'
p17
Vwhite-tiger_1497066536
p18
s.