(dp1
S'title'
p2
V\u000a6 Sounds Ultra-loud Bicycle Bike Electronic Bell Horn\u000a
p3
sS'url'
p4
Vhttp://www.ioffer.com/i/6-sounds-ultra-loud-bicycle-bike-electronic-bell-horn-544084448
p5
sS'price'
p6
V$9.65
p7
sS'seller'
p8
(lp9
sS'description_links'
p10
VFeatures: Brand new and high quality.Six different sounds are very resounding.Easy to install and fit for all bicycles.Superior quality, fine workmanship and waterproof.Material: Reinforced plastics, electronic components.Power: 9V battery (included).Size: 8.3cm x 5.5cm.Package Included: 1 x 6 Sounds Bicycle Electronic Bell HornNO Retail Box. Packed Safely in Bubble Bag.The items you ordered will be shipped out in 1-2 business day by Hong Kong Air Mail when your payment is clear. The arrival time is 5-20 business days  usually.
p11
sS'images'
p12
(lp13
Vhttp://cdn.iofferphoto.com/img/item/544/084/448/t_6-sounds-ultra-loud-bicycle-bike-electronic-bell-horn-b7ae.jpg
p14
aVhttp://cdn.iofferphoto.com/img/item/544/084/448/t_6-sounds-ultra-loud-bicycle-bike-electronic-bell-horn-47fc.jpg
p15
aVhttp://cdn.iofferphoto.com/img/item/544/084/448/t_6-sounds-ultra-loud-bicycle-bike-electronic-bell-horn-59db.jpg
p16
aVhttp://cdn.iofferphoto.com/img/item/544/084/448/t_6-sounds-ultra-loud-bicycle-bike-electronic-bell-horn-5e75.jpg
p17
aVhttp://cdn.iofferphoto.com/img/item/544/084/448/t_6-sounds-ultra-loud-bicycle-bike-electronic-bell-horn-6c91.jpg
p18
aVhttp://cdn.iofferphoto.com/img/item/544/084/448/t_6-sounds-ultra-loud-bicycle-bike-electronic-bell-horn-ac3d.jpg
p19
asS'shipping_info'
p20
VConditionNewEstimated Shipping10 - 15 Days
p21
sS'id'
p22
V544084448_1497055572
p23
s.