(dp1
S'title'
p2
V\u000a2014 NEW fashion Marcelo Burlon Horn T-shirt TEE \u000a
p3
sS'url'
p4
Vhttp://www.ioffer.com/i/2014-new-fashion-marcelo-burlon-horn-t-shirt-tee-569911965
p5
sS'price'
p6
V$32.00
p7
sS'seller'
p8
(lp9
sS'description_links'
p10
V2016 NEW fashion Marcelo Burlon Horn T-shirt TEE S: Shoulder 40, Bust 94, Length 71,  M: Shoulder 42, Bust 100, Length 72,  L: Shoulder 44, Bust 106, Length 73, XL: Shoulder 47, Bust 112, Length 71,
p11
sS'images'
p12
(lp13
Vhttp://cdn.iofferphoto.com/img3/item/569/911/965/t_2014-new-fashion-marcelo-burlon-horn-t-shirt-tee-e2e9.jpg
p14
aVhttp://cdn.iofferphoto.com/img3/item/569/911/965/t_2014-new-fashion-marcelo-burlon-horn-t-shirt-tee-d40e.jpg
p15
aVhttp://cdn.iofferphoto.com/img3/item/569/911/965/t_2014-new-fashion-marcelo-burlon-horn-t-shirt-tee-534a.jpg
p16
aVhttp://cdn.iofferphoto.com/img3/item/569/911/965/t_2014-new-fashion-marcelo-burlon-horn-t-shirt-tee-1746.jpg
p17
aVhttp://cdn.iofferphoto.com/img3/item/569/911/965/t_2014-new-fashion-marcelo-burlon-horn-t-shirt-tee-eb68.jpg
p18
asS'shipping_info'
p19
VAvailable ColorsAvailable SizesSizesSmallMediumLargeX-LargeNewMarcelo Burlon T ShirtEstimated Shipping10 - 15 Days
p20
sS'id'
p21
V569911965_1497055578
p22
s.