(dp1
S'title'
p2
VNEW - Black Rhinoceros
p3
sS'url'
p4
Vhttp://store.yahoo.com/yhst-66562580642243/black-rhinoceros.html
p5
sS'price'
p6
(lp7
sS'seller'
p8
(lp9
sS'description_links'
p10
(lp11
sS'images'
p12
(lp13
Vhttp://ep.yimg.com/ay/yhst-66562580642243/black-rhinoceros-3.gif
p14
asS'shipping_info'
p15
(lp16
sS'id'
p17
Vblack-rhinoceros_1497055566
p18
s.