(dp1
S'title'
p2
VWater Buffalo Horn Blank-Black
p3
sS'url'
p4
Vhttp://www.boneroom.com/store/p3052/Water_Buffalo_Horn_Blank-Black.html
p5
sS'price'
p6
V$6.00
p7
sS'seller'
p8
(lp9
sS'description_links'
p10
V
sS'images'
p11
(lp12
Vhttp://www.boneroom.com//uploads/4/8/1/1/48118243/s521972503441136676_p3052_i1_w640.jpeg
p13
asS'shipping_info'
p14
(lp15
sS'id'
p16
Vp3052_1497055594
p17
s.