(dp1
S'title'
p2
Vfaux fake fur stripe french tissavel like fabric - 5 colors - 60" wide by yard
p3
sS'url'
p4
S'http://www.ebay.com/itm/FAUX-FAKE-FUR-STRIPE-FRENCH-TISSAVEL-LIKE-FABRIC-5-Colors-60-WIDE-BY-YARD-/221564636899?var=520420495062&hash=item3396480ee3:m:mgdT_zmhQEeJE6TOcniDuCA'
p5
sS'price'
p6
VUS $44.99
p7
sS'seller'
p8
(dp9
g4
Vhttp://www.ebay.com/usr/bigzfabric?_trksid=p2047675.l2559
p10
sS'name'
p11
V bigzfabric
p12
ssS'description_links'
p13
(lp14
Vhttp://vi.vipr.ebaydesc.com/ws/eBayISAPI.dll?ViewItemDescV4&item=221564636899&t=1423864332000&tid=10&category=28162&seller=bigzfabric&excSoj=1&excTrk=1&lsite=0&ittenable=false&domain=ebay.com&descgauge=1
p15
asS'images'
p16
(lp17
(dp18
S'maxImageUrl'
p19
Vhttp://i.ebayimg.com/images/g/OloAAOSwnDZULH8R/s-l1600.jpg
p20
sS'displayImgUrl'
p21
Vhttp://i.ebayimg.com/images/g/OloAAOSwnDZULH8R/s-l300.jpg
p22
sa(dp23
g19
Vhttp://i.ebayimg.com/images/g/RJAAAOSwEK9ULH8V/s-l1600.jpg
p24
sg21
Vhttp://i.ebayimg.com/images/g/RJAAAOSwEK9ULH8V/s-l300.jpg
p25
sa(dp26
g19
Vhttp://i.ebayimg.com/images/g/EJwAAOSwGvhULH8Y/s-l1600.jpg
p27
sg21
Vhttp://i.ebayimg.com/images/g/EJwAAOSwGvhULH8Y/s-l300.jpg
p28
sa(dp29
g19
Vhttp://i.ebayimg.com/images/g/YXAAAOSwq7JULH8c/s-l1600.jpg
p30
sg21
Vhttp://i.ebayimg.com/images/g/YXAAAOSwq7JULH8c/s-l300.jpg
p31
sa(dp32
g19
Vhttp://i.ebayimg.com/images/g/PCEAAOSwnDZULH8n/s-l1600.jpg
p33
sg21
Vhttp://i.ebayimg.com/images/g/PCEAAOSwnDZULH8n/s-l300.jpg
p34
sa(dp35
g19
Vhttp://i.ebayimg.com/images/g/A3gAAOSwxH1ULH80/s-l1600.jpg
p36
sg21
Vhttp://i.ebayimg.com/images/g/A3gAAOSwxH1ULH80/s-l300.jpg
p37
sa(dp38
g19
Vhttp://i.ebayimg.com/images/g/PikAAOSwnDZULH8-/s-l1600.jpg
p39
sg21
Vhttp://i.ebayimg.com/images/g/PikAAOSwnDZULH8-/s-l300.jpg
p40
sa(dp41
g19
Vhttp://i.ebayimg.com/images/g/CloAAOSwQItULH9J/s-l1600.jpg
p42
sg21
Vhttp://i.ebayimg.com/images/g/CloAAOSwQItULH9J/s-l300.jpg
p43
sasS'shipping_info'
p44
(dp45
S'item_location'
p46
(lp47
V\u000aBeverly Hills, California, United States
p48
asS'delivery'
p49
(lp50
VVaries
p51
asS'posts_to'
p52
(lp53
VWorldwide
p54
assS'id'
p55
S'221564636899'
p56
s.