(dp1
S'title'
p2
V2016 new white/ivory lace wedding dress custom size 2-4-6-8-10-12-14-16-18-20-22
p3
sS'url'
p4
S'http://www.ebay.com/itm/2016-New-white-ivory-lace-wedding-dress-custom-size-2-4-6-8-10-12-14-16-18-20-22-/291905565159?var=590901777152&hash=item43f6ed71e7:m:m-4FO4hJmKIpJDEwU96XY5A'
p5
sS'price'
p6
VC $59.00
p7
sS'seller'
p8
(dp9
g4
Vhttp://www.ebay.com/usr/mywedding-168?_trksid=p2047675.l2559
p10
sS'name'
p11
V mywedding-168
p12
ssS'description_links'
p13
(lp14
Vhttp://vi.vipr.ebaydesc.com/ws/eBayISAPI.dll?ViewItemDescV4&item=291905565159&t=1468896246000&tid=210&category=15720&seller=mywedding-168&excSoj=1&excTrk=1&lsite=2&ittenable=false&domain=ebay.com&descgauge=1
p15
asS'images'
p16
(lp17
(dp18
S'maxImageUrl'
p19
Vhttp://i.ebayimg.com/images/g/hxgAAOSwRgJXjZEr/s-l1600.jpg
p20
sS'displayImgUrl'
p21
Vhttp://i.ebayimg.com/images/g/hxgAAOSwRgJXjZEr/s-l300.jpg
p22
sa(dp23
g19
Vhttp://i.ebayimg.com/images/g/L4IAAOSwdzVXjZFQ/s-l1600.jpg
p24
sg21
Vhttp://i.ebayimg.com/images/g/L4IAAOSwdzVXjZFQ/s-l300.jpg
p25
sa(dp26
g19
Vhttp://i.ebayimg.com/images/g/7EoAAOxy2YtRwkkY/s-l1600.jpg
p27
sg21
Vhttp://i.ebayimg.com/images/g/7EoAAOxy2YtRwkkY/s-l300.jpg
p28
sa(dp29
g19
Vhttp://i.ebayimg.com/images/g/KxoAAOSwMsVXjZFf/s-l1600.jpg
p30
sg21
Vhttp://i.ebayimg.com/images/g/KxoAAOSwMsVXjZFf/s-l300.jpg
p31
sasS'shipping_info'
p32
(dp33
S'item_location'
p34
(lp35
V\u000a\u82cf\u5dde\u5e02, \u6c5f\u82cf\u7701, China
p36
asS'delivery'
p37
(lp38
VEstimated between Tue. Aug. 1 and Tue. Aug. 15\u000aThis item has an extended handling time and a delivery estimate greater than 36 business days.
p39
aVEstimated between Tue. Aug. 1 and Tue. Aug. 15\u000aSeller ships within 30 days after receiving cleared payment - opens in a new window or tab.
p40
asS'posts_to'
p41
(lp42
VWorldwide
p43
assS'id'
p44
S'291905565159'
p45
s.