(dp1
S'title'
p2
V\u000a2PCS Sell Rhinestone Embellished Fake Nail Ring Gold\u000a
p3
sS'url'
p4
Vhttp://www.ioffer.com/i/2pcs-sell-rhinestone-embellished-fake-nail-ring-gold-560821604
p5
sS'price'
p6
V$8.00
p7
sS'seller'
p8
(lp9
sS'description_links'
p10
V...2PCS Sell Rhinestone Embellished Fake Nail Ring Gold Please note: 2 PCS is $9.5, thank you:)
p11
sS'images'
p12
(lp13
Vhttp://cdn.iofferphoto.com/img3/item/560/821/604/t_2pcs-sell-rhinestone-embellished-fake-nail-ring-gold-2fe0.jpg
p14
aVhttp://cdn.iofferphoto.com/img3/item/560/821/604/t_2pcs-sell-rhinestone-embellished-fake-nail-ring-gold-438e.jpg
p15
aVhttp://cdn.iofferphoto.com/img3/item/560/821/604/t_2pcs-sell-rhinestone-embellished-fake-nail-ring-gold-f1b2.jpg
p16
aVhttp://cdn.iofferphoto.com/img3/item/560/821/604/t_2pcs-sell-rhinestone-embellished-fake-nail-ring-gold-7f51.jpg
p17
aVhttp://cdn.iofferphoto.com/img3/item/560/821/604/t_2pcs-sell-rhinestone-embellished-fake-nail-ring-gold-68c0.jpg
p18
aVhttp://cdn.iofferphoto.com/img3/item/560/821/604/t_2pcs-sell-rhinestone-embellished-fake-nail-ring-gold-5c82.jpg
p19
asS'shipping_info'
p20
VAvailable ColorsColorGoldSize16(S)/17(M)/18(L)Estimated Shipping15 - 20 Days
p21
sS'id'
p22
V560821604_1497025332
p23
s.