(dp1
S'title'
p2
V\u000avetements women's mens fake two-piece Sweatshirts Hoody\u000a
p3
sS'url'
p4
Vhttp://www.ioffer.com/i/vetements-women-s-mens-fake-two-piece-sweatshirts-hoody-626020197
p5
sS'price'
p6
V$40.00
p7
sS'seller'
p8
(lp9
sS'description_links'
p10
V...
p11
sS'images'
p12
(lp13
Vhttp://cdn.iofferphoto.com/img3/item/626/020/197/t_vetements-women-s-mens-fake-two-piece-sweatshirts-hoody-6c0d.jpg
p14
aVhttp://cdn.iofferphoto.com/img3/item/626/020/197/t_vetements-women-s-mens-fake-two-piece-sweatshirts-hoody-e668.jpg
p15
aVhttp://cdn.iofferphoto.com/img3/item/626/020/197/t_vetements-women-s-mens-fake-two-piece-sweatshirts-hoody-e62f.jpg
p16
aVhttp://cdn.iofferphoto.com/img3/item/626/020/197/t_vetements-women-s-mens-fake-two-piece-sweatshirts-hoody-1b5c.jpg
p17
aVhttp://cdn.iofferphoto.com/img3/item/626/020/197/t_vetements-women-s-mens-fake-two-piece-sweatshirts-hoody-3b49.jpg
p18
aVhttp://cdn.iofferphoto.com/img3/item/626/020/197/t_vetements-women-s-mens-fake-two-piece-sweatshirts-hoody-41e0.jpg
p19
aVhttp://cdn.iofferphoto.com/img3/item/626/020/197/t_vetements-women-s-mens-fake-two-piece-sweatshirts-hoody-954b.jpg
p20
aVhttp://cdn.iofferphoto.com/img3/item/626/020/197/t_vetements-women-s-mens-fake-two-piece-sweatshirts-hoody-4d50.jpg
p21
aVhttp://cdn.iofferphoto.com/img3/item/626/020/197/t_vetements-women-s-mens-fake-two-piece-sweatshirts-hoody-2f54.jpg
p22
aVhttp://cdn.iofferphoto.com/img3/item/626/020/197/t_vetements-women-s-mens-fake-two-piece-sweatshirts-hoody-88e3.jpg
p23
asS'shipping_info'
p24
VAvailable ColorsAvailable SizesSizesSmallMediumLargeEstimated Shipping10 - 15 Days
p25
sS'id'
p26
V626020197_1497025307
p27
s.