(dp1
S'title'
p2
Vnew. brioni aniene brown vicuna blend w/ mink fur coat size 54/44/xl $34,985
p3
sS'url'
p4
S'http://www.ebay.com/itm/New-BRIONI-Aniene-Brown-Vicuna-Blend-w-Mink-Fur-Coat-Size-54-44-XL-34-985-/232313560012?hash=item3616f79bcc:g:-agAAOSwSypY~4aj'
p5
sS'price'
p6
(lp7
sS'seller'
p8
(dp9
g4
Vhttp://www.ebay.com/usr/nymilan?_trksid=p2047675.l2559
p10
sS'name'
p11
V nymilan
p12
ssS'description_links'
p13
(lp14
Vhttp://vi.vipr.ebaydesc.com/ws/eBayISAPI.dll?ViewItemDescV4&item=232313560012&t=1493143309000&tid=10&category=57988&seller=nymilan&excSoj=1&excTrk=1&lsite=0&ittenable=false&domain=ebay.com&descgauge=1
p15
asS'images'
p16
(lp17
(dp18
S'maxImageUrl'
p19
Vhttp://i.ebayimg.com/images/g/-agAAOSwSypY~4aj/s-l1600.jpg
p20
sS'displayImgUrl'
p21
Vhttp://i.ebayimg.com/images/g/-agAAOSwSypY~4aj/s-l300.jpg
p22
sa(dp23
g19
Vhttp://i.ebayimg.com/images/g/c4cAAOSwBOtY~4am/s-l1600.jpg
p24
sg21
Vhttp://i.ebayimg.com/images/g/c4cAAOSwBOtY~4am/s-l300.jpg
p25
sa(dp26
g19
Vhttp://i.ebayimg.com/images/g/dC4AAOSwBOtY~4ao/s-l1600.jpg
p27
sg21
Vhttp://i.ebayimg.com/images/g/dC4AAOSwBOtY~4ao/s-l300.jpg
p28
sa(dp29
g19
Vhttp://i.ebayimg.com/images/g/~W0AAOSwSypY~4as/s-l1600.jpg
p30
sg21
Vhttp://i.ebayimg.com/images/g/~W0AAOSwSypY~4as/s-l300.jpg
p31
sa(dp32
g19
Vhttp://i.ebayimg.com/images/g/gBkAAOSwRUhY~4aw/s-l1600.jpg
p33
sg21
Vhttp://i.ebayimg.com/images/g/gBkAAOSwRUhY~4aw/s-l300.jpg
p34
sa(dp35
g19
Vhttp://i.ebayimg.com/images/g/G2AAAOSwtZJY~4ay/s-l1600.jpg
p36
sg21
Vhttp://i.ebayimg.com/images/g/G2AAAOSwtZJY~4ay/s-l300.jpg
p37
sa(dp38
g19
Vhttp://i.ebayimg.com/images/g/S~YAAOSw7U5Y~4a3/s-l1600.jpg
p39
sg21
Vhttp://i.ebayimg.com/images/g/S~YAAOSw7U5Y~4a3/s-l300.jpg
p40
sa(dp41
g19
Vhttp://i.ebayimg.com/images/g/zCwAAOSw5UZY~4a8/s-l1600.jpg
p42
sg21
Vhttp://i.ebayimg.com/images/g/zCwAAOSw5UZY~4a8/s-l300.jpg
p43
sasS'shipping_info'
p44
(dp45
S'item_location'
p46
(lp47
V\u000aBrooklyn, New York, United States
p48
asS'delivery'
p49
(lp50
VVaries
p51
asS'posts_to'
p52
(lp53
VWorldwide
p54
assS'id'
p55
S'232313560012'
p56
s.