(dp1
S'title'
p2
VVICUNA POLO Vintage Hasp Open Genuine Leather Wallet High Large Capacity Unique Decor Crazy Hor
p3
sS'url'
p4
Vhttp://www.ecrater.com/p/26983030/vicuna-polo-vintage-hasp-open?keywords=vicuna
p5
sS'price'
p6
V$38.63
p7
sS'seller'
p8
Vhttp://shopforman.ecrater.com
p9
sS'description_links'
p10
Vwallet mens on sale at reasonable prices, buy VICUNA POLO Vintage Hasp Open Genuine Leather Wallet High Large Capacity Unique Decor Crazy Horse Genuine Leather Man Wallet
p11
sS'images'
p12
(lp13
Vhttp://s.ecrater.com/stores/403558/58eb375eeb0f1_403558b.jpg
p14
asS'shipping_info'
p15
(lp16
V5 available
p17
aVShipping:US-Mainland: free(more destinations)
p18
aVCondition: Brand new
p19
asS'id'
p20
V26983030
p21
s.