(dp1
S'title'
p2
VVICUNA POLO Natural Genuine Leather Man Wallet Vintage Simple Design Men's Slim Short Walle
p3
sS'url'
p4
Vhttp://www.ecrater.com/p/26986745/vicuna-polo-natural-genuine-leather?keywords=vicuna
p5
sS'price'
p6
V$23.85
p7
sS'seller'
p8
Vhttp://shopforman.ecrater.com
p9
sS'description_links'
p10
Vmen purse on sale at reasonable prices, buy VICUNA POLO Natural Genuine Leather Man Wallet Vintage Simple Design Men's Slim Short Wallet Crazy Horse Leather Men Purse Hot
p11
sS'images'
p12
(lp13
Vhttp://s.ecrater.com/stores/403558/58ebb8c7da63c_403558b.jpg
p14
asS'shipping_info'
p15
(lp16
V5 available
p17
aVShipping:US-Mainland: free(more destinations)
p18
aVCondition: Brand new
p19
asS'id'
p20
V26986745
p21
s.