(dp1
S'title'
p2
VVICUNA POLO Hot Sell High-capacity Business Leather Men Wallet With 16 Card Holders Burglarproo
p3
sS'url'
p4
Vhttp://www.ecrater.com/p/26984926/vicuna-polo-hot-sell-high?keywords=vicuna
p5
sS'price'
p6
V$50.04
p7
sS'seller'
p8
Vhttp://shopforman.ecrater.com
p9
sS'description_links'
p10
Vwallet white on sale at reasonable prices, buy VICUNA POLO Hot Sell High-capacity Business Leather Men Wallet With 16 Card Holders Burglarproof Large Men's Clutch Wallet
p11
sS'images'
p12
(lp13
Vhttp://s.ecrater.com/stores/403558/58eb74722959e_403558b.jpg
p14
asS'shipping_info'
p15
(lp16
V5 available
p17
aVShipping:US-Mainland: free(more destinations)
p18
aVCondition: Brand new
p19
asS'id'
p20
V26984926
p21
s.