(dp1
S'title'
p2
VVICUNA POLO High Quality Theftproof Waxy Leather Brand Man Bag With Metal Hasp Small Men's Cros
p3
sS'url'
p4
Vhttp://www.ecrater.com/p/27336351/vicuna-polo-high-quality-theftproof?keywords=vicuna
p5
sS'price'
p6
V$50.00
p7
sS'seller'
p8
Vhttp://big-shoulder-bags.ecrater.com
p9
sS'description_links'
p10
VVICUNA POLO High Quality Theftproof Waxy Leather Brand Man Bag With Metal Hasp Small Men's Crossbody Bag Vintage Shoulder Bags
p11
sS'images'
p12
(lp13
Vhttp://s.ecrater.com/stores/407307/592c649e2e601_407307b.jpg
p14
asS'shipping_info'
p15
(lp16
V5 available
p17
aVShipping:US-Mainland: free(more destinations)
p18
aVCondition: Brand new
p19
asS'id'
p20
V27336351
p21
s.