(dp1
S'title'
p2
VVICUNA POLO Casual Light Weight Men Crossbody Bag High Quality PU Leather Mens Sling Shoulder B
p3
sS'url'
p4
Vhttp://www.ecrater.com/p/27345761/vicuna-polo-casual-light-weight?keywords=vicuna
p5
sS'price'
p6
V$49.00
p7
sS'seller'
p8
Vhttp://big-shoulder-bags.ecrater.com
p9
sS'description_links'
p10
VVICUNA POLO Casual Light Weight Men Crossbody Bag High Quality PU Leather Mens Sling Shoulder Bag Vintage Thin Chest Bag For Men
p11
sS'images'
p12
(lp13
Vhttp://s.ecrater.com/stores/407307/592d73d2b100f_407307b.jpg
p14
asS'shipping_info'
p15
(lp16
V5 available
p17
aVShipping:US-Mainland: free(more destinations)
p18
aVCondition: Brand new
p19
asS'id'
p20
V27345761
p21
s.