(dp1
S'title'
p2
V\u000aMen's Crossbody Bags VICUNA Leather Mens Messenger Bag\u000a
p3
sS'url'
p4
Vhttp://www.ioffer.com/i/men-s-crossbody-bags-vicuna-leather-mens-messenger-bag-628457845
p5
sS'price'
p6
V$30.00
p7
sS'seller'
p8
(lp9
sS'description_links'
p10
VColor:Black / BrownSize Small:21*24*7cmSize Large:23*26*7cmSize Horizontal:33*25*7cm
p11
sS'images'
p12
(lp13
Vhttp://cdn.iofferphoto.com/img/item/628/457/845/t_men-s-crossbody-bags-vicuna-leather-mens-messenger-bag-44ea.jpg
p14
aVhttp://cdn.iofferphoto.com/img/item/628/457/845/t_men-s-crossbody-bags-vicuna-leather-mens-messenger-bag-b150.jpg
p15
aVhttp://cdn.iofferphoto.com/img/item/628/457/845/t_men-s-crossbody-bags-vicuna-leather-mens-messenger-bag-2fc2.jpg
p16
aVhttp://cdn.iofferphoto.com/img/item/628/457/845/t_men-s-crossbody-bags-vicuna-leather-mens-messenger-bag-4eae.jpg
p17
aVhttp://cdn.iofferphoto.com/img/item/628/457/845/t_men-s-crossbody-bags-vicuna-leather-mens-messenger-bag-1f51.jpg
p18
aVhttp://cdn.iofferphoto.com/img/item/628/457/845/t_men-s-crossbody-bags-vicuna-leather-mens-messenger-bag-06cd.jpg
p19
asS'shipping_info'
p20
VAvailable ColorsAvailable SizesSizesMediumEstimated Shipping15 - 20 Days
p21
sS'id'
p22
V628457845_1497073482
p23
s.