(dp1
S'title'
p2
VPERU 1972 1/2 SOL DE ORO BRASS COIN KM#247 South American Vicuna
p3
sS'url'
p4
Vhttp://www.ecrater.com/p/810605/peru-1972-1-2-sol-de-oro-brass?keywords=vicuna
p5
sS'price'
p6
V$12.50
p7
sS'seller'
p8
Vhttp://world-coins-dealer.ecrater.com
p9
sS'description_links'
p10
VObverse: BANCO CENTRAL DE RESERVA DEL PERU * 1986 * - Coat of Arms, within a circle (large coat of arms).Reverse: 1/2 SOL DE ORO - Picture of a Vicuna.Catalog: KM#247 Mintmaster: Pareja Mintage: 19.441 Composition: Brass Measures: 22.5mm in diameter Edge: Grained. Peru is located in South America, and was once part of the Inca Empire.  The Vicuna is a llamalike ruminant mammal (Vicugna vicugna) of the central Andes. It has fine silky fleece, and is used by Peruvians to make garments.~ PERU 1972 1/2 SOL DE ORO BRASS COIN KM247 South American Vicuna ~VISIT our STORES at:ANTIQUES & COLLECTIBLES ------ http://antiquesandcollectibles.ecrater.com/BEAUTIFUL GEMSTONE PENDANTS -- http://beautiful-gemstone-pendants.ecrater.com/FINE ART GALLERY ----------------- http://fine-art-gallery.ecrater.com/FINE JEWELRY & GEMSTONES ----- http://fine-jewelry-gemstones.ecrater.com/UNIQUE PENDANTS -------------- http://unique-pendants.ecrater.com/WORLD COINS DEALER ------------ http://world-coins-dealer.ecrater.com/FYI:  We Ship to the USA & International. For the Shipping Rates to: Alaska, Hawaii, US Territories, Canada, and International purchases, please email us before purchasing. To email us, Click on the ASK SELLER A QUESTION link above.FYI:  If you are viewing this item thru GOOGLE PRODUCTS, click on the STORE link above to see All ITEMS in our STORE.It will take you to our STORE, where you can check out: the CATEGORIES, FAQs, VIEW CART, HOME, ABOUT US, TERMS page which specifies our PAYMENT and SHIPPING information, and our email CONTACT page.
p11
sS'images'
p12
(lp13
sS'shipping_info'
p14
(lp15
VOnly 1 available
p16
aVShipping:US-Mainland: $1.20(more destinations)
p17
aVCondition: Used
p18
asS'id'
p19
V810605
p20
s.