(dp1
S'title'
p2
V3d 4d carnivorous6589 hand painted wall paper wall murals print floor wallpaper
p3
sS'url'
p4
S'http://www.ebay.com/itm/3D-4D-Carnivorous6589-Hand-Painted-Wall-Paper-Wall-Murals-Print-Floor-Wallpaper-/162110282052?var=&hash=item25be869944:m:mB8LA08okdGAdrcLtM6xv8g'
p5
sS'price'
p6
VAU $499.99
p7
sS'seller'
p8
(dp9
g4
Vhttp://www.ebay.com/usr/ajackmazichao?_trksid=p2047675.l2559
p10
sS'name'
p11
V ajackmazichao
p12
ssS'description_links'
p13
(lp14
Vhttp://vi.vipr.ebaydesc.com/ws/eBayISAPI.dll?ViewItemDescV4&item=162110282052&t=1485337514000&tid=-1&category=159889&seller=ajackmazichao&excSoj=1&excTrk=1&lsite=15&ittenable=false&domain=ebay.com&descgauge=1
p15
asS'images'
p16
(lp17
(dp18
S'maxImageUrl'
p19
Vhttp://i.ebayimg.com/images/g/y5YAAOSwZ1lWcsv~/s-l1600.jpg
p20
sS'displayImgUrl'
p21
Vhttp://i.ebayimg.com/images/g/y5YAAOSwZ1lWcsv~/s-l300.jpg
p22
sa(dp23
g19
Vhttp://i.ebayimg.com/images/g/rbIAAOSwp5JWaWkz/s-l1600.jpg
p24
sg21
Vhttp://i.ebayimg.com/images/g/rbIAAOSwp5JWaWkz/s-l300.jpg
p25
sa(dp26
g19
Vhttp://i.ebayimg.com/images/g/eRQAAOSwcBhWaXB3/s-l1600.jpg
p27
sg21
Vhttp://i.ebayimg.com/images/g/eRQAAOSwcBhWaXB3/s-l300.jpg
p28
sa(dp29
g19
Vhttp://i.ebayimg.com/images/g/YDkAAOSwp5JWaW~w/s-l1600.jpg
p30
sg21
Vhttp://i.ebayimg.com/images/g/YDkAAOSwp5JWaW~w/s-l300.jpg
p31
sa(dp32
g19
Vhttp://i.ebayimg.com/images/g/gU8AAOSwxN5WaW~w/s-l1600.jpg
p33
sg21
Vhttp://i.ebayimg.com/images/g/gU8AAOSwxN5WaW~w/s-l300.jpg
p34
sasS'shipping_info'
p35
(dp36
S'item_location'
p37
(lp38
V\u000aPoint Cook, VIC, Australia
p39
asS'delivery'
p40
(lp41
VEstimated between Thu. Jun. 22 and Fri. Jun. 30\u000aIncludes 5 business days handling time after receipt of cleared payment.
p42
aVEstimated between Thu. Jun. 22 and Fri. Jun. 30\u000aSeller ships within 5 days after receiving cleared payment - opens in a new window or tab.
p43
asS'posts_to'
p44
(lp45
VWorldwide
p46
assS'id'
p47
S'162110282052'
p48
s.