(dp1
S'title'
p2
VVarious Carnivore Products
p3
sS'url'
p4
Vhttp://www.skullsunlimited.com/record_family.php?id=232
p5
sS'price'
p6
(lp7
sS'seller'
p8
(lp9
sS'description_links'
p10
VThis page is where we have lumped products that contain multiple carnivore species or specimens.
p11
sS'images'
p12
(lp13
sS'shipping_info'
p14
(lp15
sS'id'
p16
V232_1497050616
p17
s.