(dp1
S'title'
p2
VBest-Selling!Nepenthes Seeds Flower and Herbs Carnivorous Plants Purify the Air Catch Inse
p3
sS'url'
p4
Vhttp://www.ecrater.com/p/25454862/best-sellingnepenthes-seeds-flower-and-herbs?keywords=carnivore
p5
sS'price'
p6
V$7.34
p7
sS'seller'
p8
Vhttp://hocstore.ecrater.com
p9
sS'description_links'
p10
Vseed  on sale at reasonable prices, buy Best-Selling!Nepenthes Seeds Flower and Herbs Carnivorous Plants Purify the Air Catch Insect  50 Particles / lot,#E2N416! We promise the item will be 100% same the picture show . And the item be new, never used before.Tracking number providedPayment: Paypal,==============================================================Shipping Policy:Please make sure your address in PayPal are confirmed. We ship to confirmed Paypal address only.Approx. Delivery timeWe will mark your item as a gift or sample for custom declaration.==============================================================FEEDBACK and RETURN POLICY :Your Satisfaction is our goal , If you received the item, Please give us the good feedback . If you have any question. Please DO NOT leaves a negative feedback before contact us.We believe that all the problems can be fixed if you are working with us to solve the problem.Shipped by ePacket shipping which needs about 8-20 business days to arrive.(US)Others shipped by HK post air mail,needs about 15-28 days to arrive.Terms & Conditions- Please do not bids if you do not agree with all the terms and condition
p11
sS'images'
p12
(lp13
Vhttp://s.ecrater.com/stores/375747/57fced0ada7c1_375747b.jpg
p14
asS'shipping_info'
p15
(lp16
V5 available
p17
aVShipping:US-Mainland: free(more destinations)
p18
aVCondition: Brand new
p19
asS'id'
p20
V25454862
p21
s.