(dp1
S'title'
p2
VAsian Pitcher Plant - Nepenthes - Carnivorous - Exotic - 6" Hanging Basket
p3
sS'url'
p4
Vhttp://www.ecrater.com/p/25479564/asian-pitcher-plant-nepenthes-carnivorous?keywords=carnivore
p5
sS'price'
p6
V$24.99
p7
sS'seller'
p8
Vhttp://4evergreenjm.ecrater.com
p9
sS'description_links'
p10
VSize: 6" Hanging Basket Asian Pitcher Plant - Nepenthes - Carnivorous - Exotic
p11
sS'images'
p12
(lp13
sS'shipping_info'
p14
(lp15
VOnly 1 available
p16
aVShipping:US-Mainland: free(more destinations)
p17
aVCondition: Used
p18
asS'id'
p19
V25479564
p20
s.