(dp1
S'title'
p2
VCARNIVOROUS - Nepenthes
p3
sS'url'
p4
Vhttp://www.ecrater.com/p/26413800/carnivorous-nepenthes?keywords=carnivore
p5
sS'price'
p6
V$6.95
p7
sS'seller'
p8
Vhttp://rareseedshop.ecrater.com
p9
sS'description_links'
p10
VThe Flask-Shaped Pitcher-Plant, is a very distinctive and widespread species of Nepenthes, present in Borneo, the Maluku Islands, New Guinea, Peninsular Malaysia, Singapore, Sumatra, and Thailand.You will receive 5 seeds.FRESH SEEDS*Seeds are mailed in a bubble wrap package to prevent crushing*
p11
sS'images'
p12
(lp13
sS'shipping_info'
p14
(lp15
VMore than 10 available
p16
aVShipping:US-Mainland: $2.99(more destinations)
p17
aVCondition: Brand new
p18
asS'id'
p19
V26413800
p20
s.