(dp1
S'title'
p2
VDrosera Aliciae Carnivorous Plant in a 8.5 cm Pot. Alice Sundew Plant
p3
sS'url'
p4
Vhttp://www.ecrater.com/p/27078711/drosera-aliciae-carnivorous-plant-in-a-85-cm?keywords=carnivore
p5
sS'price'
p6
V$25.00
p7
sS'seller'
p8
Vhttp://rancupiduk.ecrater.com
p9
sS'description_links'
p10
VDrosera Aliciae. Alice Sundew    Drosera aliciae is a beautiful rosetted South African sundew    Great sundew for beginners    Carnivorous plant    Has a mounding habit and long lived nature    Sold in a 8.5cm Pot WE DO NOT SHIP PLANT TO USA
p11
sS'images'
p12
(lp13
sS'shipping_info'
p14
(lp15
VMore than 10 available
p16
aVShipping:US-Mainland: free(more destinations)
p17
aVCondition: Brand new
p18
asS'id'
p19
V27078711
p20
s.