(dp1
S'title'
p2
VBonsai sundew seeds Blue enchantress Carnivorous plant table Pot Drosera peltata Seeds Radiation Pro
p3
sS'url'
p4
Vhttp://www.ecrater.com/p/27161212/bonsai-sundew-seeds-blue-enchantress?keywords=carnivore
p5
sS'price'
p6
V$6.63
p7
sS'seller'
p8
Vhttp://seedspring.ecrater.com
p9
sS'description_links'
p10
VProduct Type : Bonsai  Use : Outdoor Plants  Brand Name : HaiShun  Cultivating Difficulty Degree : Very Easy  Classification : Happy Farm  Full-bloom Period : None  Type : Succulent Plant  Flowerpot : Excluded  Location : Courtyard  Function : Air Purification  Size : Small  Applicable Constellation : Virgo  Variety : Lithops Pseudotruncatella  Climate : Subtropics  Style : Perennial  Model Number : flower seeds
p11
sS'images'
p12
(lp13
sS'shipping_info'
p14
(lp15
VMore than 10 available
p16
aVShipping:US-Mainland: free(more destinations)
p17
aVCondition: Brand new
p18
asS'id'
p19
V27161212
p20
s.