(dp1
S'title'
p2
Voriginal watercolor grizzly bear carnivore wildlife art sally porter
p3
sS'url'
p4
S'http://www.ebay.com/itm/Original-Watercolor-Grizzly-Bear-Carnivore-Wildlife-Art-Sally-Porter-/371063687997?hash=item56651e8b3d:g:a2sAAOxyP4dTdX1Y'
p5
sS'price'
p6
VUS $300.00
p7
sS'seller'
p8
(dp9
g4
Vhttp://www.ebay.com/usr/wilderfinearts?_trksid=p2047675.l2559
p10
sS'name'
p11
V wilderfinearts
p12
ssS'description_links'
p13
(lp14
Vhttp://vi.vipr.ebaydesc.com/ws/eBayISAPI.dll?ViewItemDescV4&item=371063687997&t=1360430619000&tid=10&category=551&seller=wilderfinearts&excSoj=1&excTrk=1&lsite=0&ittenable=false&domain=ebay.com&descgauge=1
p15
asS'images'
p16
(lp17
(dp18
S'maxImageUrl'
p19
Vhttp://i.ebayimg.com/images/g/a2sAAOxyP4dTdX1Y/s-l1600.jpg
p20
sS'displayImgUrl'
p21
Vhttp://i.ebayimg.com/images/g/a2sAAOxyP4dTdX1Y/s-l300.jpg
p22
sasS'shipping_info'
p23
(dp24
S'item_location'
p25
(lp26
V\u000aIronwood, Michigan, United States
p27
asS'delivery'
p28
(lp29
VVaries
p30
asS'posts_to'
p31
(lp32
VWorldwide
p33
assS'id'
p34
S'371063687997'
p35
s.