(dp1
S'title'
p2
V\u000aMix Carnivore Carnivorous Pack - 5 Species - 40 Seeds P\u000a
p3
sS'url'
p4
Vhttp://www.ioffer.com/i/mix-carnivore-carnivorous-pack-5-species-40-seeds-p-634893152
p5
sS'price'
p6
V$9.93
p7
sS'seller'
p8
(lp9
sS'description_links'
p10
VMix Carnivore Carnivorous Pack - 5 Species - 40 Seeds - Venus Flytrap & Sundews Bulk Seed Pack 5 Verieties Bonsai Flower Seed.Product Type : BonsaiUse : Indoor PlantsCultivating Difficulty Degree : Very EasyClassification : Happy FarmFull-bloom Period : AutumnType : Carnivorous PlantFlowerpot : ExcludedLocation : Living RoomFunction : InterestSize : MiniApplicable Constellation : VirgoClimate : TemperateStyle : PerennialModel Number : MGC0001Variety : Other.PAYMENTI accept paypal and Western Union.SHIPPING1) you don't need pay for shipping fee, we cover2) in order all can safely arrive ,i will add tracking number for each order shipmentIt will be shipped within 2 working days after we receive your payment (except weekend and holiday). Shipment normally takes within 7-15 business days to arrive. Exact delivery days varies by different countries. Sometimes take a little longer , Due to Local dispatch or other reasons . It might goes more than 20 days , if you cannot get within 20 days since we ship out , please email us.If you have any questions regarding the transaction, please feel free to contact me.I will be within 24 hours give you a satisfactory answer !!
p11
sS'images'
p12
(lp13
Vhttp://cdn.iofferphoto.com/img/item/634/893/152/t_2pxAmix-carnivore-carnivorous-pack-5-species-40-seeds-p.jpg
p14
aVhttp://cdn.iofferphoto.com/img/item/634/893/152/t_r53Mmix-carnivore-carnivorous-pack-5-species-40-seeds-p.jpg
p15
aVhttp://cdn.iofferphoto.com/img/item/634/893/152/t_rqWtmix-carnivore-carnivorous-pack-5-species-40-seeds-p.jpg
p16
asS'shipping_info'
p17
(lp18
sS'id'
p19
V634893152_1497050831
p20
s.