(dp1
S'title'
p2
Vblack forest? whimsical bear pulling baby bear on a cart ironwood look!
p3
sS'url'
p4
S'http://www.ebay.com/itm/Black-Forest-Whimsical-Bear-Pulling-Baby-Bear-on-a-Cart-Ironwood-Look-/122538942742?hash=item1c87e3e116:g:Ms8AAOSwR29ZMEXA'
p5
sS'price'
p6
VUS $2,900.00
p7
sS'seller'
p8
(dp9
g4
Vhttp://www.ebay.com/usr/surrealistic?_trksid=p2047675.l2559
p10
sS'name'
p11
V surrealistic
p12
ssS'description_links'
p13
(lp14
Vhttp://vi.vipr.ebaydesc.com/ws/eBayISAPI.dll?ViewItemDescV4&item=122538942742&t=0&tid=10&category=162998&seller=surrealistic&excSoj=1&excTrk=1&lsite=0&ittenable=false&domain=ebay.com&descgauge=1
p15
asS'images'
p16
(lp17
(dp18
S'maxImageUrl'
p19
Vhttp://i.ebayimg.com/images/g/Ms8AAOSwR29ZMEXA/s-l1600.jpg
p20
sS'displayImgUrl'
p21
Vhttp://i.ebayimg.com/images/g/Ms8AAOSwR29ZMEXA/s-l300.jpg
p22
sa(dp23
g19
Vhttp://i.ebayimg.com/images/g/5sQAAOSw42dZMEXD/s-l1600.jpg
p24
sg21
Vhttp://i.ebayimg.com/images/g/5sQAAOSw42dZMEXD/s-l300.jpg
p25
sa(dp26
g19
Vhttp://i.ebayimg.com/images/g/8rEAAOSwtGlZMEXH/s-l1600.jpg
p27
sg21
Vhttp://i.ebayimg.com/images/g/8rEAAOSwtGlZMEXH/s-l300.jpg
p28
sa(dp29
g19
Vhttp://i.ebayimg.com/images/g/zgcAAOSw~y9ZMEXL/s-l1600.jpg
p30
sg21
Vhttp://i.ebayimg.com/images/g/zgcAAOSw~y9ZMEXL/s-l300.jpg
p31
sa(dp32
g19
Vhttp://i.ebayimg.com/images/g/bNEAAOSwH09ZMEXN/s-l1600.jpg
p33
sg21
Vhttp://i.ebayimg.com/images/g/bNEAAOSwH09ZMEXN/s-l300.jpg
p34
sa(dp35
g19
Vhttp://i.ebayimg.com/images/g/8xsAAOSwtGlZMEXS/s-l1600.jpg
p36
sg21
Vhttp://i.ebayimg.com/images/g/8xsAAOSwtGlZMEXS/s-l300.jpg
p37
sa(dp38
g19
Vhttp://i.ebayimg.com/images/g/AZUAAOSwi7RZMEXW/s-l1600.jpg
p39
sg21
Vhttp://i.ebayimg.com/images/g/AZUAAOSwi7RZMEXW/s-l300.jpg
p40
sa(dp41
g19
Vhttp://i.ebayimg.com/images/g/EsIAAOSwjL5ZMEXa/s-l1600.jpg
p42
sg21
Vhttp://i.ebayimg.com/images/g/EsIAAOSwjL5ZMEXa/s-l300.jpg
p43
sa(dp44
g19
Vhttp://i.ebayimg.com/images/g/wKoAAOSwGJlZMEXf/s-l1600.jpg
p45
sg21
Vhttp://i.ebayimg.com/images/g/wKoAAOSwGJlZMEXf/s-l300.jpg
p46
sa(dp47
g19
Vhttp://i.ebayimg.com/images/g/mcEAAOSw8HBZMEXi/s-l1600.jpg
p48
sg21
Vhttp://i.ebayimg.com/images/g/mcEAAOSw8HBZMEXi/s-l300.jpg
p49
sa(dp50
g19
Vhttp://i.ebayimg.com/images/g/12EAAOSwsXFZMEXl/s-l1600.jpg
p51
sg21
Vhttp://i.ebayimg.com/images/g/12EAAOSwsXFZMEXl/s-l300.jpg
p52
sasS'shipping_info'
p53
(dp54
S'item_location'
p55
(lp56
V\u000aMacon, Missouri, United States
p57
asS'delivery'
p58
(lp59
VVaries
p60
asS'posts_to'
p61
(lp62
VWorldwide
p63
assS'id'
p64
S'122538942742'
p65
s.