(dp1
S'title'
p2
VVintage 1992 Dakin Black & Tan Teddy bear Lovey Plush 19"
p3
sS'url'
p4
Vhttp://www.ecrater.com/p/16281737/vintage-1992-dakin-black-tan-teddy?keywords=black+bear
p5
sS'price'
p6
V$69.99
p7
sS'seller'
p8
Vhttp://overtherainbow.ecrater.com
p9
sS'description_links'
p10
VThis is a Vintage 1992 Dakin Teddy Bear Plush that measures 19 inches head to foot.This teddy has black fur with carmel brown fur on its muzzle, insides of its ears and chest. It has a black furry nose and glass like eyes. Please visit our homepage to see our terms concerning vintage items on this site.This has no rips or tears and comes from a non-smoking environment.
p11
sS'images'
p12
(lp13
Vhttp://s.ecrater.com/stores/197701/5086e2c50bac9_197701b.jpg
p14
asS'shipping_info'
p15
(lp16
VOnly 1 available
p17
aVShipping:US-Mainland: $10.40(more destinations)
p18
aVCondition: Used
p19
asS'id'
p20
V16281737
p21
s.