(dp1
S'title'
p2
Vmonumental black marble sculpture of bear with cub, over 8&#039; tall
p3
sS'url'
p4
S'http://www.ebay.com/itm/Monumental-Black-Marble-Sculpture-of-Bear-with-Cub-over-8-Tall-/172341129389?hash=item282054f0ad:g:ov4AAOSwPCVX2FpM'
p5
sS'price'
p6
(lp7
sS'seller'
p8
(dp9
g4
Vhttp://www.ebay.com/usr/powersurplustreasure?_trksid=p2047675.l2559
p10
sS'name'
p11
V powersurplustreasure
p12
ssS'description_links'
p13
(lp14
Vhttp://vi.vipr.ebaydesc.com/ws/eBayISAPI.dll?ViewItemDescV4&item=172341129389&t=1437842554000&tid=10&category=553&seller=powersurplustreasure&excSoj=1&excTrk=1&lsite=0&ittenable=false&domain=ebay.com&descgauge=1
p15
asS'images'
p16
(lp17
(dp18
S'maxImageUrl'
p19
Vhttp://i.ebayimg.com/images/g/ov4AAOSwPCVX2FpM/s-l1600.jpg
p20
sS'displayImgUrl'
p21
Vhttp://i.ebayimg.com/images/g/ov4AAOSwPCVX2FpM/s-l300.jpg
p22
sa(dp23
g19
Vhttp://i.ebayimg.com/images/g/nwQAAOSwPhdVIsez/s-l1600.jpg
p24
sg21
Vhttp://i.ebayimg.com/images/g/nwQAAOSwPhdVIsez/s-l300.jpg
p25
sa(dp26
g19
Vhttp://i.ebayimg.com/images/g/OGYAAOSwymxVIsfG/s-l1600.jpg
p27
sg21
Vhttp://i.ebayimg.com/images/g/OGYAAOSwymxVIsfG/s-l300.jpg
p28
sa(dp29
g19
Vhttp://i.ebayimg.com/images/g/8UoAAOSwBahVIsfV/s-l1600.jpg
p30
sg21
Vhttp://i.ebayimg.com/images/g/8UoAAOSwBahVIsfV/s-l300.jpg
p31
sa(dp32
g19
Vhttp://i.ebayimg.com/images/g/0lEAAOSw7aBVIsfN/s-l1600.jpg
p33
sg21
Vhttp://i.ebayimg.com/images/g/0lEAAOSw7aBVIsfN/s-l300.jpg
p34
sa(dp35
g19
Vhttp://i.ebayimg.com/images/g/bbAAAOSweW5VIsfZ/s-l1600.jpg
p36
sg21
Vhttp://i.ebayimg.com/images/g/bbAAAOSweW5VIsfZ/s-l300.jpg
p37
sa(dp38
g19
Vhttp://i.ebayimg.com/images/g/GloAAOSwv0tVIsfY/s-l1600.jpg
p39
sg21
Vhttp://i.ebayimg.com/images/g/GloAAOSwv0tVIsfY/s-l300.jpg
p40
sa(dp41
g19
Vhttp://i.ebayimg.com/images/g/1ckAAOSw34FVIslb/s-l1600.jpg
p42
sg21
Vhttp://i.ebayimg.com/images/g/1ckAAOSw34FVIslb/s-l300.jpg
p43
sa(dp44
g19
Vhttp://i.ebayimg.com/images/g/emMAAOSwymxVIslc/s-l1600.jpg
p45
sg21
Vhttp://i.ebayimg.com/images/g/emMAAOSwymxVIslc/s-l300.jpg
p46
sa(dp47
g19
Vhttp://i.ebayimg.com/images/g/3SAAAOSwPhdVIslY/s-l1600.jpg
p48
sg21
Vhttp://i.ebayimg.com/images/g/3SAAAOSwPhdVIslY/s-l300.jpg
p49
sasS'shipping_info'
p50
(dp51
S'item_location'
p52
(lp53
V\u000aBogart, Georgia, United States
p54
asS'delivery'
p55
(lp56
VVaries
p57
asS'posts_to'
p58
(lp59
VLocal pick-up only
p60
assS'id'
p61
S'172341129389'
p62
s.