(dp1
S'title'
p2
V2017 alaskan fall spot &amp; stalk black bear hunt
p3
sS'url'
p4
S'http://www.ebay.com/itm/2017-Alaskan-Fall-Spot-Stalk-Black-Bear-Hunt-/172621348037?hash=item283108bcc5:g:fLMAAOSwTuJYwzkY'
p5
sS'price'
p6
VUS $4,000.00
p7
sS'seller'
p8
(dp9
g4
Vhttp://www.ebay.com/usr/brownbear.01717_9?_trksid=p2047675.l2559
p10
sS'name'
p11
V brownbear.01717_9
p12
ssS'description_links'
p13
(lp14
Vhttp://vi.vipr.ebaydesc.com/ws/eBayISAPI.dll?ViewItemDescV4&item=172621348037&t=1492023095000&tid=10&category=14110&seller=brownbear.01717_9&excSoj=1&excTrk=1&lsite=0&ittenable=false&domain=ebay.com&descgauge=1
p15
asS'images'
p16
(lp17
(dp18
S'maxImageUrl'
p19
Vhttp://i.ebayimg.com/images/g/fLMAAOSwTuJYwzkY/s-l1600.jpg
p20
sS'displayImgUrl'
p21
Vhttp://i.ebayimg.com/images/g/fLMAAOSwTuJYwzkY/s-l300.jpg
p22
sa(dp23
g19
Vhttp://i.ebayimg.com/images/g/U~oAAOSwdGFYwziz/s-l1600.jpg
p24
sg21
Vhttp://i.ebayimg.com/images/g/U~oAAOSwdGFYwziz/s-l300.jpg
p25
sa(dp26
g19
Vhttp://i.ebayimg.com/images/g/5gAAAOSwXYtYwzkt/s-l1600.jpg
p27
sg21
Vhttp://i.ebayimg.com/images/g/5gAAAOSwXYtYwzkt/s-l300.jpg
p28
sa(dp29
g19
Vhttp://i.ebayimg.com/images/g/Y8wAAOSwc-tY7ndc/s-l1600.jpg
p30
sg21
Vhttp://i.ebayimg.com/images/g/Y8wAAOSwc-tY7ndc/s-l300.jpg
p31
sasS'shipping_info'
p32
(dp33
S'item_location'
p34
(lp35
V\u000aTalkeetna, Alaska, United States
p36
asS'delivery'
p37
(lp38
VVaries
p39
asS'posts_to'
p40
(lp41
VLocal pick-up only
p42
assS'id'
p43
S'172621348037'
p44
s.