(dp1
S'title'
p2
VVintage Hand Carved Wooden Bear Russian Soviet or Black Forest with Honey Barrel
p3
sS'url'
p4
Vhttp://www.ecrater.com/p/22945432/vintage-hand-carved-wooden-bear?keywords=black+bear
p5
sS'price'
p6
V$49.99
p7
sS'seller'
p8
Vhttp://forexart.ecrater.com
p9
sS'description_links'
p10
VDear Buyer!You looking for Vintage Hand Carved Wooden Bear Russian Soviet or Black Forest with Honey Barrel10.5" x 4.8"Rare Collectible~VG Vintage Condition ~\u273fLooks Beautifully\u273fFeel free to ask questions in English,Russian,Hebrewcollectiongofor saleGood Luck!Check my feedback and buy with confidence.Thank you for looking and good luck looking on this great item! Please check out my other products. Feel free to e-mail me with any questions you may have about this or any other my item. Thanks again!And don't forget about positive feedback with 5 stars...We accept PayPal only.Worldwide shippingPayment TermsPAYMENT:PAYPAL ONLY. We require that all items be paid for within 3 days of the end of the product. If you are looking on multiple items and need more than 3 days to complete payment,please be sure to contact us. If an item remains unpaid for 7days, we will begin the Unpaid Item process with eCRATER to recoup our eCRATER fees and will, ultimately, release the product back into our inventory for re-sale.Shipping TermsWe ship with package tracking through Registered Israel Air Mail to Worldwide .Merchandise will be handled in the order that payment is received.Merchandise wil lship from the warehouse with in 2 - 3 business days after payment has cleared through PayPal.supre
p11
sS'images'
p12
(lp13
Vhttp://s.ecrater.com/stores/361313/559c8c4c632ee_361313b.jpg
p14
asS'shipping_info'
p15
(lp16
VOnly 1 available
p17
aVShipping:US-Mainland: $29.99(more destinations)
p18
aVCondition: Used
p19
asS'id'
p20
V22945432
p21
s.