(dp1
S'title'
p2
VBeer Deer funny vintage bear drunk party college Black Hoodie
p3
sS'url'
p4
Vhttp://www.ecrater.com/p/23419905/beer-deer-funny-vintage-bear?keywords=black+bear
p5
sS'price'
p6
V$47.50
p7
sS'seller'
p8
Vhttp://cloth.ecrater.com
p9
sS'description_links'
p10
VThis Hanes classic is comfortable, stylish and versatile. Perfect as an outer or under layer, the men\u2019s hooded sweatshirt has become a staple in any wardrobe. Kangaroo-style front pocket is perfect for your phone, keys or anything else you want to stash.___________________________________________PLEASE NOTE SIZE ON ORDER MESSAGE!!!___________________________________________*50% cotton/50% polyester | Fabric Weight: 7.8 oz (midweight)*Ribbed cuffs and waist hem*Adjustable drawstring hood*Available Color: Black*Imported; processed and printed in the U.S.A.Size : (Height X Width) InchS : 27.0 X 20.0M : 28.0 X 22.0L : 29.0 X 24.0XL : 29.8 X 27.0XXL: 31.0 X 28.0PAYMENT=======- We accept PayPal only- Once payment is received, your order will be processed and shippedSHIPMENT========- Ship to USA, UK and Canada- From the date your payment, it takes about 5-12 business days for Shipment arrival to your address by post office, some areas/country sometimes will take a little longer.- Not responsible for customs duties, taxes, fees or delaysRETURN POLICY=============- If you are not fully satisfied with your purchase because you feel the item is not what was described or for any reason, please contact me imediately, so that I can try to resolve your concerns.- We will guarantee 30 days your money back- Shipping Charges are non refundable- Shipping Charges of Return Item are buyer's responsibility
p11
sS'images'
p12
(lp13
Vhttp://s.ecrater.com/stores/358660/560c16288651d_358660b.jpg
p14
asS'shipping_info'
p15
(lp16
V10 available
p17
aVShipping:US-Mainland: $8.50(more destinations)
p18
aVCondition: Brand new
p19
asS'id'
p20
V23419905
p21
s.