(dp1
S'title'
p2
Vheavy cast bronze black forrest bear coat hat rack hall tree amazing rare look
p3
sS'url'
p4
S'http://www.ebay.com/itm/Heavy-Cast-Bronze-Black-Forrest-Bear-Coat-Hat-Rack-Hall-Tree-Amazing-Rare-Look-/262760191890?hash=item3d2dba5792:g:no4AAOSwA3dYTxZe'
p5
sS'price'
p6
VUS $2,750.00
p7
sS'seller'
p8
(dp9
g4
Vhttp://www.ebay.com/usr/buyoldbritish?_trksid=p2047675.l2559
p10
sS'name'
p11
V buyoldbritish
p12
ssS'description_links'
p13
(lp14
Vhttp://vi.vipr.ebaydesc.com/ws/eBayISAPI.dll?ViewItemDescV4&item=262760191890&t=0&tid=10&category=162902&seller=buyoldbritish&excSoj=1&excTrk=1&lsite=0&ittenable=false&domain=ebay.com&descgauge=1
p15
asS'images'
p16
(lp17
(dp18
S'maxImageUrl'
p19
Vhttp://i.ebayimg.com/images/g/no4AAOSwA3dYTxZe/s-l1600.jpg
p20
sS'displayImgUrl'
p21
Vhttp://i.ebayimg.com/images/g/no4AAOSwA3dYTxZe/s-l300.jpg
p22
sa(dp23
g19
Vhttp://i.ebayimg.com/images/g/WNMAAOSwo4pYTxZh/s-l1600.jpg
p24
sg21
Vhttp://i.ebayimg.com/images/g/WNMAAOSwo4pYTxZh/s-l300.jpg
p25
sa(dp26
g19
Vhttp://i.ebayimg.com/images/g/~ugAAOSw-0xYTxZj/s-l1600.jpg
p27
sg21
Vhttp://i.ebayimg.com/images/g/~ugAAOSw-0xYTxZj/s-l300.jpg
p28
sa(dp29
g19
Vhttp://i.ebayimg.com/images/g/~eIAAOSwCEdYTxZm/s-l1600.jpg
p30
sg21
Vhttp://i.ebayimg.com/images/g/~eIAAOSwCEdYTxZm/s-l300.jpg
p31
sa(dp32
g19
Vhttp://i.ebayimg.com/images/g/Y9UAAOSw44BYTxZo/s-l1600.jpg
p33
sg21
Vhttp://i.ebayimg.com/images/g/Y9UAAOSw44BYTxZo/s-l300.jpg
p34
sa(dp35
g19
Vhttp://i.ebayimg.com/images/g/wasAAOSw6DtYTxZq/s-l1600.jpg
p36
sg21
Vhttp://i.ebayimg.com/images/g/wasAAOSw6DtYTxZq/s-l300.jpg
p37
sa(dp38
g19
Vhttp://i.ebayimg.com/images/g/ZG0AAOSw44BYTxZs/s-l1600.jpg
p39
sg21
Vhttp://i.ebayimg.com/images/g/ZG0AAOSw44BYTxZs/s-l300.jpg
p40
sa(dp41
g19
Vhttp://i.ebayimg.com/images/g/ZMAAAOSw44BYTxZv/s-l1600.jpg
p42
sg21
Vhttp://i.ebayimg.com/images/g/ZMAAAOSw44BYTxZv/s-l300.jpg
p43
sa(dp44
g19
Vhttp://i.ebayimg.com/images/g/PP8AAOSwux5YTxZx/s-l1600.jpg
p45
sg21
Vhttp://i.ebayimg.com/images/g/PP8AAOSwux5YTxZx/s-l300.jpg
p46
sa(dp47
g19
Vhttp://i.ebayimg.com/images/g/ofMAAOSwA3dYTxZz/s-l1600.jpg
p48
sg21
Vhttp://i.ebayimg.com/images/g/ofMAAOSwA3dYTxZz/s-l300.jpg
p49
sa(dp50
g19
Vhttp://i.ebayimg.com/images/g/ZacAAOSw44BYTxZ2/s-l1600.jpg
p51
sg21
Vhttp://i.ebayimg.com/images/g/ZacAAOSw44BYTxZ2/s-l300.jpg
p52
sasS'shipping_info'
p53
(dp54
S'item_location'
p55
(lp56
V\u000aWilmington, Illinois, United States
p57
asS'delivery'
p58
(lp59
VVaries
p60
asS'posts_to'
p61
(lp62
VLocal pick-up only
p63
assS'id'
p64
S'262760191890'
p65
s.