(dp1
S'title'
p2
V2015 New Trulinoya Right Handle Centrifugal Brake Casting Reel 13+1 Ball Bearing Black Fishing Ree
p3
sS'url'
p4
Vhttp://www.ecrater.com/p/26749554/2015-trulinoya-right-handle-centrifugal-brake?keywords=black+bear
p5
sS'price'
p6
V$47.51
p7
sS'seller'
p8
Vhttp://esport.ecrater.com
p9
sS'description_links'
p10
VSpecificationsGeneral: Category: Fishing Reel,Material: EVA,Metal,Fishing Method: Lure Fishing,Bass Fishing,Freshwater Fishing,General Fishing,Color: Black,Quantity: 1,Net Weight (kg): 0.198,Brand: Trulinoya,Reel Detail: Reel Type: Baitcast Reels,Ball Bearings: 14,Gear Ratio: 6.3:1,Line Capacity (mm/m): 0.3-100,Line Capacity (lbs/yds): 12/110,One Way Ball Bearing: With one way ball bearing,Reel Handle Type: Non-foldable,Hand Orientation: Right-handed,Handle Material: EVA,For more help,please take a look our FAQHuge sport items in my store,welcome to take a look in my store! Kindly note,If there are option(color or size),you can send your choice via note or email after finish the order,and if no choice,we will ship the default(The product as first picture) to you.It's good for delivery when there are contact phone numbers,if you aren't sure the pick-up address.There is "contact us" link on the upper right of product page,You can contact us via the link.
p11
sS'images'
p12
(lp13
sS'shipping_info'
p14
(lp15
VMore than 10 available
p16
aVShipping:US-Mainland: $5.00(more destinations)
p17
aVCondition: Brand new
p18
asS'id'
p19
V26749554
p20
s.