(dp1
S'title'
p2
Vswiss black forest hand carved bear solid wood lamp lantern signed ruef brothers
p3
sS'url'
p4
S'http://www.ebay.com/itm/Swiss-Black-Forest-Hand-Carved-Bear-Solid-Wood-Lamp-Lantern-Signed-Ruef-Brothers-/292119690865?hash=item4403b0be71:g:UJQAAOSwYvFZG2f-'
p5
sS'price'
p6
VUS $2,295.00
p7
sS'seller'
p8
(dp9
g4
Vhttp://www.ebay.com/usr/micflsun?_trksid=p2047675.l2559
p10
sS'name'
p11
V micflsun
p12
ssS'description_links'
p13
(lp14
Vhttp://vi.vipr.ebaydesc.com/ws/eBayISAPI.dll?ViewItemDescV4&item=292119690865&t=1494968553000&tid=10&category=162998&seller=micflsun&excSoj=1&excTrk=1&lsite=0&ittenable=false&domain=ebay.com&descgauge=1
p15
asS'images'
p16
(lp17
(dp18
S'maxImageUrl'
p19
Vhttp://i.ebayimg.com/images/g/UJQAAOSwYvFZG2f-/s-l1600.jpg
p20
sS'displayImgUrl'
p21
Vhttp://i.ebayimg.com/images/g/UJQAAOSwYvFZG2f-/s-l300.jpg
p22
sa(dp23
g19
Vhttp://i.ebayimg.com/images/g/Q8gAAOSwBt5ZG2gO/s-l1600.jpg
p24
sg21
Vhttp://i.ebayimg.com/images/g/Q8gAAOSwBt5ZG2gO/s-l300.jpg
p25
sa(dp26
g19
Vhttp://i.ebayimg.com/images/g/TzMAAOSww9xZG2gG/s-l1600.jpg
p27
sg21
Vhttp://i.ebayimg.com/images/g/TzMAAOSww9xZG2gG/s-l300.jpg
p28
sa(dp29
g19
Vhttp://i.ebayimg.com/images/g/e-QAAOSw5cRZG2fy/s-l1600.jpg
p30
sg21
Vhttp://i.ebayimg.com/images/g/e-QAAOSw5cRZG2fy/s-l300.jpg
p31
sa(dp32
g19
Vhttp://i.ebayimg.com/images/g/0TEAAOSw1WJZG2gD/s-l1600.jpg
p33
sg21
Vhttp://i.ebayimg.com/images/g/0TEAAOSw1WJZG2gD/s-l300.jpg
p34
sa(dp35
g19
Vhttp://i.ebayimg.com/images/g/i0wAAOSwR29ZG2f1/s-l1600.jpg
p36
sg21
Vhttp://i.ebayimg.com/images/g/i0wAAOSwR29ZG2f1/s-l300.jpg
p37
sa(dp38
g19
Vhttp://i.ebayimg.com/images/g/q2UAAOSwhvFZG2gJ/s-l1600.jpg
p39
sg21
Vhttp://i.ebayimg.com/images/g/q2UAAOSwhvFZG2gJ/s-l300.jpg
p40
sa(dp41
g19
Vhttp://i.ebayimg.com/images/g/6GsAAOSwDiBZG2f7/s-l1600.jpg
p42
sg21
Vhttp://i.ebayimg.com/images/g/6GsAAOSwDiBZG2f7/s-l300.jpg
p43
sa(dp44
g19
Vhttp://i.ebayimg.com/images/g/Qt8AAOSwBt5ZG2f5/s-l1600.jpg
p45
sg21
Vhttp://i.ebayimg.com/images/g/Qt8AAOSwBt5ZG2f5/s-l300.jpg
p46
sasS'shipping_info'
p47
(dp48
S'item_location'
p49
(lp50
V\u000aCanutillo, Texas, United States
p51
asS'delivery'
p52
(lp53
VVaries
p54
asS'posts_to'
p55
(lp56
VWorldwide
p57
assS'id'
p58
S'292119690865'
p59
s.