(dp1
S'title'
p2
V\u000aBlack Bear Forest Plush Mascot SpotSound Canada With Be\u000a
p3
sS'url'
p4
Vhttp://www.ioffer.com/i/black-bear-forest-plush-mascot-spotsound-canada-with-be-599994506
p5
sS'price'
p6
V$549.00
p7
sS'seller'
p8
(lp9
sS'description_links'
p10
VBlack Bear Forest Plush Mascot SpotSound Canada With Beige Belly For Logo. This mascot is very nice for a marketing event or a private party. FREE SHIPPING around the globe, 7 size to choose and customized options and accessories available on our website. SpotSound is a company represented in Europe and in North America with a reactive customer service. Don't wait, come to play with your future mascot costume !
p11
sS'images'
p12
(lp13
Vhttp://cdn.iofferphoto.com/img3/item/599/994/506/t_oucoblack-bear-forest-plush-mascot-spotsound-canada-with-be.jpg
p14
aVhttp://cdn.iofferphoto.com/img3/item/599/994/506/t_ZrtUblack-bear-forest-plush-mascot-spotsound-canada-with-be.jpg
p15
asS'shipping_info'
p16
(lp17
sS'id'
p18
V599994506_1497048792
p19
s.