(dp1
S'title'
p2
VWOLF PELT #632356
p3
sS'url'
p4
Vhttp://www.glacierwear.com/wolf-pelt-632356.html
p5
sS'price'
p6
V499.95
p7
sS'seller'
p8
(lp9
sS'description_links'
p10
V- Tip of Nose to Tip of Tail: 82 inches - Prime #1 Quality Fur: Heavy, Glossy and Silky - Color: Black- Complete Life Size- All Paws, Claws, and Pads- Ears Turned. - Slight Damage to Right Front Leg- Should be Suitable for Life Size Mount by Competent Taxidermist- Origin: Canada
p11
sS'images'
p12
(lp13
Vhttp://www.glacierwear.com/media/catalog/product/cache/1/thumbnail/500x/17f82f742ffe127f42dca9de82fb58b1/6/3/632356.jpg
p14
asS'shipping_info'
p15
VFree Shipping on $100.00+
p16
sS'id'
p17
V632356_1497048745
p18
s.