(dp1
S'title'
p2
VBlack-bearded Tomb Bat
p3
sS'url'
p4
Vhttp://www.skullsunlimited.com/record_variant.php?id=7010
p5
sS'price'
p6
V$49.00
p7
sS'seller'
p8
(lp9
sS'description_links'
p10
VThis species of bat is a rare find for any collector. Size and appearance of specimen will vary slightly from picture.This species skull measures on average 2.15 cms long.
p11
sS'images'
p12
(lp13
Vhttp://www.skullsunlimited.com/userfiles/image/variants_7010.jpg
p14
asS'shipping_info'
p15
(lp16
sS'id'
p17
V7010_1497048256
p18
s.