(dp1
S'title'
p2
VPolar Bear
p3
sS'url'
p4
Vhttp://store.yahoo.com/yhst-66562580642243/polar-bear.html
p5
sS'price'
p6
(lp7
sS'seller'
p8
(lp9
sS'description_links'
p10
VPolar Bear Photo Reference Cd
p11
sS'images'
p12
(lp13
Vhttp://ep.yimg.com/ca/I/yhst-66562580642243_2251_129388710
p14
asS'shipping_info'
p15
(lp16
sS'id'
p17
Vpolar-bear_1497048761
p18
s.