(dp1
S'title'
p2
V1999 hurco hawk-5 cnc vertical machining center -vmc-cnc mill # 7783357
p3
sS'url'
p4
S'http://www.ebay.com/itm/1999-Hurco-Hawk-5-CNC-Vertical-Machining-Center-VMC-CNC-Mill-7783357-/201605853203?hash=item2ef0a53013:g:ChkAAOSwhkRWcyM8'
p5
sS'price'
p6
VUS $10,150.00
p7
sS'seller'
p8
(dp9
g4
Vhttp://www.ebay.com/usr/k.d.capital?_trksid=p2047675.l2559
p10
sS'name'
p11
V k.d.capital
p12
ssS'description_links'
p13
(lp14
Vhttp://vi.vipr.ebaydesc.com/ws/eBayISAPI.dll?ViewItemDescV4&item=201605853203&t=1485302076000&tid=223353115&category=92150&seller=k.d.capital&excSoj=1&excTrk=1&lsite=0&ittenable=false&domain=ebay.com&descgauge=1
p15
asS'images'
p16
(lp17
(dp18
S'maxImageUrl'
p19
Vhttp://i.ebayimg.com/images/g/ChkAAOSwhkRWcyM8/s-l1600.jpg
p20
sS'displayImgUrl'
p21
Vhttp://i.ebayimg.com/images/g/ChkAAOSwhkRWcyM8/s-l300.jpg
p22
sa(dp23
g19
Vhttp://i.ebayimg.com/images/g/kusAAOSw5IJWcyM-/s-l1600.jpg
p24
sg21
Vhttp://i.ebayimg.com/images/g/kusAAOSw5IJWcyM-/s-l300.jpg
p25
sa(dp26
g19
Vhttp://i.ebayimg.com/images/g/PRwAAOSw1S9WcyNB/s-l1600.jpg
p27
sg21
Vhttp://i.ebayimg.com/images/g/PRwAAOSw1S9WcyNB/s-l300.jpg
p28
sa(dp29
g19
Vhttp://i.ebayimg.com/images/g/VgEAAOSwNyFWcyNC/s-l1600.jpg
p30
sg21
Vhttp://i.ebayimg.com/images/g/VgEAAOSwNyFWcyNC/s-l300.jpg
p31
sasS'shipping_info'
p32
(dp33
S'item_location'
p34
(lp35
V\u000aCall for Details, United States
p36
asS'delivery'
p37
(lp38
VVaries
p39
asS'posts_to'
p40
(lp41
VLocal pick-up only
p42
assS'id'
p43
S'201605853203'
p44
s.