(dp1
S'title'
p2
Vultralight aircraft. mfr.cgs hawk
p3
sS'url'
p4
S'http://www.ebay.com/itm/ultralight-aircraft-Mfr-CGS-Hawk-/222536815664?hash=item33d03a5430:g:EbMAAOSw8HBZJ5-m&vxp=mtr'
p5
sS'price'
p6
VUS $14,500.00
p7
sS'seller'
p8
(dp9
g4
Vhttp://www.ebay.com/usr/garboyle-0?_trksid=p2047675.l2559
p10
sS'name'
p11
V garboyle-0
p12
ssS'description_links'
p13
(lp14
Vhttp://vi.vipr.ebaydesc.com/ws/eBayISAPI.dll?ViewItemDescV4&item=222536815664&t=0&tid=10&category=26439&seller=garboyle-0&excSoj=1&excTrk=1&lsite=100&ittenable=false&domain=ebay.com&descgauge=1
p15
asS'images'
p16
(lp17
(dp18
S'maxImageUrl'
p19
Vhttp://i.ebayimg.com/images/g/EbMAAOSw8HBZJ5-m/s-l1600.jpg
p20
sS'displayImgUrl'
p21
Vhttp://i.ebayimg.com/images/g/EbMAAOSw8HBZJ5-m/s-l300.jpg
p22
sa(dp23
g19
Vhttp://i.ebayimg.com/images/g/qsEAAOSwtGlZJ5-o/s-l1600.jpg
p24
sg21
Vhttp://i.ebayimg.com/images/g/qsEAAOSwtGlZJ5-o/s-l300.jpg
p25
sa(dp26
g19
Vhttp://i.ebayimg.com/images/g/CRYAAOSwCQZZJ6Aa/s-l1600.jpg
p27
sg21
Vhttp://i.ebayimg.com/images/g/CRYAAOSwCQZZJ6Aa/s-l300.jpg
p28
sa(dp29
g19
Vhttp://i.ebayimg.com/images/g/X5MAAOSwlY1ZJ5-i/s-l1600.jpg
p30
sg21
Vhttp://i.ebayimg.com/images/g/X5MAAOSwlY1ZJ5-i/s-l300.jpg
p31
sa(dp32
g19
Vhttp://i.ebayimg.com/images/g/tasAAOSwn-tZJ5-u/s-l1600.jpg
p33
sg21
Vhttp://i.ebayimg.com/images/g/tasAAOSwn-tZJ5-u/s-l300.jpg
p34
sa(dp35
g19
Vhttp://i.ebayimg.com/images/g/AwMAAOSww9xZJ6Ap/s-l1600.jpg
p36
sg21
Vhttp://i.ebayimg.com/images/g/AwMAAOSww9xZJ6Ap/s-l300.jpg
p37
sasS'shipping_info'
p38
(dp39
S'item_location'
p40
(lp41
V\u000aSaginaw, Michigan, United States
p42
asS'delivery'
p43
(lp44
VVaries
p45
asS'posts_to'
p46
(lp47
VUnited States
p48
assS'id'
p49
S'222536815664'
p50
s.