(dp1
S'title'
p2
VAmerican Brilliant Period Hawkes Cut Glass mouth blown 10" bowl ABP  Antique
p3
sS'url'
p4
Vhttp://www.ecrater.com/p/22922237/american-brilliant-period-hawkes-cut?keywords=hawk
p5
sS'price'
p6
V$245.00
p7
sS'seller'
p8
Vhttp://orourke.ecrater.com
p9
sS'description_links'
p10
VOffering This ABP antique CUT GLASS bowl Not signedFrom the American brilliant period 1886 -1916The glass is water clear and cutting is sharp10" in diameter 4" high and weighs 6.25 lbIn great condition no chips cracks or cloudiness,I accept checks and credit cards by phone 724-547-3488Stop by our storefront located at402 E. Main Street Mount Pleasant, PA 15666 to see all of the new arrivals! Check out my other items!Be sure to add me to your favorites list!no refund on shipping costs unless we misrepresent item Froo www.froo.com | Froo Cross Sell, Free Cross Sell, Cross promote, eCRATER Marketing, eCRATER listing Apps, eCRATER Apps, eCRATER Application
p11
sS'images'
p12
(lp13
Vhttp://s.ecrater.com/stores/91914/5598952215aa5_91914b.jpg
p14
asS'shipping_info'
p15
(lp16
VOnly 1 available
p17
aVShipping:USPS calculated - check
p18
aVCondition: Used
p19
asS'id'
p20
V22922237
p21
s.