(dp1
S'title'
p2
VBlack-Hawk 4 TIR Interior Visor Led Light bar
p3
sS'url'
p4
Vhttp://www.ecrater.com/p/23250294/black-hawk-4-tir-interior-visor?keywords=hawk
p5
sS'price'
p6
V$200.00
p7
sS'seller'
p8
Vhttp://cwr911.ecrater.com
p9
sS'description_links'
p10
VGeneration III TIR LED technologyVoltage: 12VDCSelf contained internal flasherTIR4 LEDs in every module. (32 LEDs total).Sleek design with clear lens for stealth look15 Selectable flash patternsIncludes wire harness for easy installationBrackets included for mountingPlugs into lighter jack3 Year manufacturers defect warrantySize: 17in L x 1.5in W x 1.5in D each side / Glare protector 3in Length inner sideSku: A-1040
p11
sS'images'
p12
(lp13
sS'shipping_info'
p14
(lp15
VMore than 10 available
p16
aVShipping:US-Mainland: $10.00(more destinations)
p17
aVCondition: Brand new
p18
asS'id'
p19
V23250294
p20
s.