(dp1
S'title'
p2
VWWE CLASSIC SUPERSTARS SERIES 09 ROAD WARRIOR HAWK WRESTLING FIGURE
p3
sS'url'
p4
Vhttp://www.ecrater.com/p/24751768/wwe-classic-superstars-series-09-road?keywords=hawk
p5
sS'price'
p6
V$199.99
p7
sS'seller'
p8
Vhttp://toycloset.ecrater.com
p9
sS'description_links'
p10
VYOU ARE BIDDING ON A BRAND NEW IN PACKAGE (EXTREMELY RARE) WWE CLASSIC SUPERSTARS SERIES 09 ROAD WARRIOR HAWK WRESTLING FIGURE. THIS WRESTLING FIGURE WAS MADE BY JAKKS PACIFIC IN 2005, EXCLUSIVELY FOR WORLD WRESTLING ENTERTAINMENT INC.
p11
sS'images'
p12
(lp13
sS'shipping_info'
p14
(lp15
VOnly 1 available
p16
aVShipping:US-Mainland: free(more destinations)
p17
aVCondition: Brand new
p18
asS'id'
p19
V24751768
p20
s.