(dp1
S'title'
p2
VR&L; aluminum radiator Honda Super Hawk VTR1000F 1997-2005 98 99 00 01 02 03 2004
p3
sS'url'
p4
Vhttp://www.ecrater.com/p/25108119/rl-aluminum-radiator-honda-super?keywords=hawk
p5
sS'price'
p6
V$158.90
p7
sS'seller'
p8
Vhttp://xtremegoods.ecrater.com
p9
sS'description_links'
p10
VR&L; aluminum radiator Honda Super Hawk VTR1000F 1997-2005 98 99 00 01 02 03 2004Condition: NewProduct Code: 5825129*13165This part is compatible with 8 vehicle(s).YearMakeModelSubmodel2005HondaSuper Hawk 1000VTR1000F2004HondaSuper Hawk 1000VTR1000F2003HondaSuper Hawk 1000VTR1000F2002HondaSuper Hawk 1000VTR1000F2001HondaSuper Hawk 1000VTR1000F2000HondaSuper Hawk 1000VTR1000F1999HondaSuper Hawk 1000VTR1000F1998HondaSuper Hawk 1000VTR1000FBrand: GPISurface Finish: GPIPlacement on Vehicle: Left, RightDescriptionFull polished for the radiators.The core of the radiator is welded in vacuum brazing furnace, no epoxy
p11
sS'images'
p12
(lp13
Vhttp://s.ecrater.com/stores/375623/57ab7ad4e71ff_375623b.jpg
p14
asS'shipping_info'
p15
(lp16
VMore than 10 available
p17
aVShipping:US-Mainland: free(more destinations)
p18
aVSales Tax: Texas: 8.25%
p19
aVCondition: Brand new
p20
asS'id'
p21
V25108119
p22
s.