(dp1
S'title'
p2
Vhurco hawk 5m cnc vertical mill w/ yuasa 4th axis ultimax control cat-40 5 hp 97
p3
sS'url'
p4
S'http://www.ebay.com/itm/Hurco-Hawk-5M-CNC-Vertical-Mill-w-Yuasa-4th-Axis-Ultimax-Control-CAT-40-5-HP-97-/251548466754?hash=item3a9174fe42:g:UHQAAOxyzpdTjfwj'
p5
sS'price'
p6
VUS $12,500.00
p7
sS'seller'
p8
(dp9
g4
Vhttp://www.ebay.com/usr/520machinery?_trksid=p2047675.l2559
p10
sS'name'
p11
V 520machinery
p12
ssS'description_links'
p13
(lp14
Vhttp://vi.vipr.ebaydesc.com/ws/eBayISAPI.dll?ViewItemDescV4&item=251548466754&t=1456416658000&tid=10&category=12584&seller=520machinery&excSoj=1&excTrk=1&lsite=0&ittenable=false&domain=ebay.com&descgauge=1
p15
asS'images'
p16
(lp17
(dp18
S'maxImageUrl'
p19
Vhttp://i.ebayimg.com/images/g/UHQAAOxyzpdTjfwj/s-l1600.jpg
p20
sS'displayImgUrl'
p21
Vhttp://i.ebayimg.com/images/g/UHQAAOxyzpdTjfwj/s-l300.jpg
p22
sa(dp23
g19
Vhttp://i.ebayimg.com/images/g/rw0AAMXQ3kNTjfwg/s-l1600.jpg
p24
sg21
Vhttp://i.ebayimg.com/images/g/rw0AAMXQ3kNTjfwg/s-l300.jpg
p25
sa(dp26
g19
Vhttp://i.ebayimg.com/images/g/Vy8AAOxyF0pTjfwe/s-l1600.jpg
p27
sg21
Vhttp://i.ebayimg.com/images/g/Vy8AAOxyF0pTjfwe/s-l300.jpg
p28
sa(dp29
g19
Vhttp://i.ebayimg.com/images/g/b-kAAOxyrrpTjfwd/s-l1600.jpg
p30
sg21
Vhttp://i.ebayimg.com/images/g/b-kAAOxyrrpTjfwd/s-l300.jpg
p31
sa(dp32
g19
Vhttp://i.ebayimg.com/images/g/Y-8AAOxyoBtTjfwe/s-l1600.jpg
p33
sg21
Vhttp://i.ebayimg.com/images/g/Y-8AAOxyoBtTjfwe/s-l300.jpg
p34
sa(dp35
g19
Vhttp://i.ebayimg.com/images/g/osoAAOxyaURTjfwe/s-l1600.jpg
p36
sg21
Vhttp://i.ebayimg.com/images/g/osoAAOxyaURTjfwe/s-l300.jpg
p37
sa(dp38
g19
Vhttp://i.ebayimg.com/images/g/oYQAAMXQ1ZhTjfwh/s-l1600.jpg
p39
sg21
Vhttp://i.ebayimg.com/images/g/oYQAAMXQ1ZhTjfwh/s-l300.jpg
p40
sa(dp41
g19
Vhttp://i.ebayimg.com/images/g/VuEAAOxyF0pTjfwb/s-l1600.jpg
p42
sg21
Vhttp://i.ebayimg.com/images/g/VuEAAOxyF0pTjfwb/s-l300.jpg
p43
sa(dp44
g19
Vhttp://i.ebayimg.com/images/g/oWMAAMXQ1ZhTjfwg/s-l1600.jpg
p45
sg21
Vhttp://i.ebayimg.com/images/g/oWMAAMXQ1ZhTjfwg/s-l300.jpg
p46
sasS'shipping_info'
p47
(dp48
S'item_location'
p49
(lp50
V\u000aElk Grove Village, Illinois, United States
p51
asS'delivery'
p52
(lp53
VVaries
p54
asS'posts_to'
p55
(lp56
VLocal pick-up only
p57
assS'id'
p58
S'251548466754'
p59
s.