(dp1
S'title'
p2
Vnew 2016 jayco white hawk ultra lite 28rbks travel trailer rv
p3
sS'url'
p4
S'http://www.ebay.com/itm/New-2016-Jayco-White-Hawk-Ultra-Lite-28RBKS-Travel-Trailer-RV-/252764604491?hash=item3ad9f1c84b:g:uQ4AAOSwtfhYngPo&vxp=mtr'
p5
sS'price'
p6
VUS $29,987.00
p7
sS'seller'
p8
(dp9
g4
Vhttp://www.ebay.com/usr/terrytownrv?_trksid=p2047675.l2559
p10
sS'name'
p11
V terrytownrv
p12
ssS'description_links'
p13
(lp14
Vhttp://vi.vipr.ebaydesc.com/ws/eBayISAPI.dll?ViewItemDescV4&item=252764604491&t=0&tid=10&category=50063&seller=terrytownrv&excSoj=1&excTrk=1&lsite=100&ittenable=false&domain=ebay.com&descgauge=1
p15
asS'images'
p16
(lp17
(dp18
S'maxImageUrl'
p19
Vhttp://i.ebayimg.com/images/g/uQ4AAOSwtfhYngPo/s-l1600.jpg
p20
sS'displayImgUrl'
p21
Vhttp://i.ebayimg.com/images/g/uQ4AAOSwtfhYngPo/s-l300.jpg
p22
sa(dp23
g19
Vhttp://i.ebayimg.com/images/g/GO8AAOSwx6pYngPo/s-l1600.jpg
p24
sg21
Vhttp://i.ebayimg.com/images/g/GO8AAOSwx6pYngPo/s-l300.jpg
p25
sa(dp26
g19
Vhttp://i.ebayimg.com/images/g/dMsAAOSw~AVYngPo/s-l1600.jpg
p27
sg21
Vhttp://i.ebayimg.com/images/g/dMsAAOSw~AVYngPo/s-l300.jpg
p28
sa(dp29
g19
Vhttp://i.ebayimg.com/images/g/EsQAAOSwTuJYngPp/s-l1600.jpg
p30
sg21
Vhttp://i.ebayimg.com/images/g/EsQAAOSwTuJYngPp/s-l300.jpg
p31
sa(dp32
g19
Vhttp://i.ebayimg.com/images/g/j6kAAOSwdGFYngPo/s-l1600.jpg
p33
sg21
Vhttp://i.ebayimg.com/images/g/j6kAAOSwdGFYngPo/s-l300.jpg
p34
sa(dp35
g19
Vhttp://i.ebayimg.com/images/g/G6oAAOSw4A5YngPo/s-l1600.jpg
p36
sg21
Vhttp://i.ebayimg.com/images/g/G6oAAOSw4A5YngPo/s-l300.jpg
p37
sa(dp38
g19
Vhttp://i.ebayimg.com/images/g/58cAAOSwB-1YngPp/s-l1600.jpg
p39
sg21
Vhttp://i.ebayimg.com/images/g/58cAAOSwB-1YngPp/s-l300.jpg
p40
sa(dp41
g19
Vhttp://i.ebayimg.com/images/g/uFAAAOSw32lYngPo/s-l1600.jpg
p42
sg21
Vhttp://i.ebayimg.com/images/g/uFAAAOSw32lYngPo/s-l300.jpg
p43
sa(dp44
g19
Vhttp://i.ebayimg.com/images/g/uZMAAOSw4CFYngPo/s-l1600.jpg
p45
sg21
Vhttp://i.ebayimg.com/images/g/uZMAAOSw4CFYngPo/s-l300.jpg
p46
sa(dp47
g19
Vhttp://i.ebayimg.com/images/g/vAEAAOSwOgdYngPo/s-l1600.jpg
p48
sg21
Vhttp://i.ebayimg.com/images/g/vAEAAOSwOgdYngPo/s-l300.jpg
p49
sa(dp50
g19
Vhttp://i.ebayimg.com/images/g/oI8AAOSwax5YngPo/s-l1600.jpg
p51
sg21
Vhttp://i.ebayimg.com/images/g/oI8AAOSwax5YngPo/s-l300.jpg
p52
sa(dp53
g19
Vhttp://i.ebayimg.com/images/g/GRkAAOSwx6pYngPp/s-l1600.jpg
p54
sg21
Vhttp://i.ebayimg.com/images/g/GRkAAOSwx6pYngPp/s-l300.jpg
p55
sa(dp56
g19
Vhttp://i.ebayimg.com/images/g/oI0AAOSwax5YngPo/s-l1600.jpg
p57
sg21
Vhttp://i.ebayimg.com/images/g/oI0AAOSwax5YngPo/s-l300.jpg
p58
sa(dp59
g19
Vhttp://i.ebayimg.com/images/g/ErsAAOSwTuJYngPo/s-l1600.jpg
p60
sg21
Vhttp://i.ebayimg.com/images/g/ErsAAOSwTuJYngPo/s-l300.jpg
p61
sa(dp62
g19
Vhttp://i.ebayimg.com/images/g/uRUAAOSwtfhYngPo/s-l1600.jpg
p63
sg21
Vhttp://i.ebayimg.com/images/g/uRUAAOSwtfhYngPo/s-l300.jpg
p64
sa(dp65
g19
Vhttp://i.ebayimg.com/images/g/G68AAOSw4A5YngPp/s-l1600.jpg
p66
sg21
Vhttp://i.ebayimg.com/images/g/G68AAOSw4A5YngPp/s-l300.jpg
p67
sa(dp68
g19
Vhttp://i.ebayimg.com/images/g/KtUAAOSwr~lYngPo/s-l1600.jpg
p69
sg21
Vhttp://i.ebayimg.com/images/g/KtUAAOSwr~lYngPo/s-l300.jpg
p70
sa(dp71
g19
Vhttp://i.ebayimg.com/images/g/uEMAAOSw32lYngPo/s-l1600.jpg
p72
sg21
Vhttp://i.ebayimg.com/images/g/uEMAAOSw32lYngPo/s-l300.jpg
p73
sa(dp74
g19
Vhttp://i.ebayimg.com/images/g/KSsAAOSw3v5YngPo/s-l1600.jpg
p75
sg21
Vhttp://i.ebayimg.com/images/g/KSsAAOSw3v5YngPo/s-l300.jpg
p76
sa(dp77
g19
Vhttp://i.ebayimg.com/images/g/bbQAAOSw2gxYngPo/s-l1600.jpg
p78
sg21
Vhttp://i.ebayimg.com/images/g/bbQAAOSw2gxYngPo/s-l300.jpg
p79
sa(dp80
g19
Vhttp://i.ebayimg.com/images/g/uZAAAOSw4CFYngPo/s-l1600.jpg
p81
sg21
Vhttp://i.ebayimg.com/images/g/uZAAAOSw4CFYngPo/s-l300.jpg
p82
sa(dp83
g19
Vhttp://i.ebayimg.com/images/g/578AAOSwB-1YngPo/s-l1600.jpg
p84
sg21
Vhttp://i.ebayimg.com/images/g/578AAOSwB-1YngPo/s-l300.jpg
p85
sa(dp86
g19
Vhttp://i.ebayimg.com/images/g/BhQAAOSwfVpYngPp/s-l1600.jpg
p87
sg21
Vhttp://i.ebayimg.com/images/g/BhQAAOSwfVpYngPp/s-l300.jpg
p88
sa(dp89
g19
Vhttp://i.ebayimg.com/images/g/KtcAAOSwr~lYngPo/s-l1600.jpg
p90
sg21
Vhttp://i.ebayimg.com/images/g/KtcAAOSwr~lYngPo/s-l300.jpg
p91
sasS'shipping_info'
p92
(dp93
S'item_location'
p94
(lp95
sS'delivery'
p96
(lp97
sS'posts_to'
p98
(lp99
VLocal pick-up only
p100
assS'id'
p101
S'252764604491'
p102
s.