(dp1
S'title'
p2
Vhurco hawk 40 3 axis cnc bed mill vertical bedmill, new centroid controller
p3
sS'url'
p4
S'http://www.ebay.com/itm/HURCO-Hawk-40-3-Axis-CNC-Bed-Mill-Vertical-BedMill-New-Centroid-Controller-/331505158596?hash=item4d2f3f49c4:g:djQAAOSwi7RZFPoX'
p5
sS'price'
p6
VUS $21,900.00
p7
sS'seller'
p8
(dp9
g4
Vhttp://www.ebay.com/usr/jerry7oai?_trksid=p2047675.l2559
p10
sS'name'
p11
V jerry7oai
p12
ssS'description_links'
p13
(lp14
Vhttp://vi.vipr.ebaydesc.com/ws/eBayISAPI.dll?ViewItemDescV4&item=331505158596&t=1496170913000&tid=10&category=92150&seller=jerry7oai&excSoj=1&excTrk=1&lsite=0&ittenable=false&domain=ebay.com&descgauge=1
p15
asS'images'
p16
(lp17
(dp18
S'maxImageUrl'
p19
Vhttp://i.ebayimg.com/images/g/djQAAOSwi7RZFPoX/s-l1600.jpg
p20
sS'displayImgUrl'
p21
Vhttp://i.ebayimg.com/images/g/djQAAOSwi7RZFPoX/s-l300.jpg
p22
sa(dp23
g19
Vhttp://i.ebayimg.com/images/g/YQMAAOSw34FVBJZ0/s-l1600.jpg
p24
sg21
Vhttp://i.ebayimg.com/images/g/YQMAAOSw34FVBJZ0/s-l300.jpg
p25
sa(dp26
g19
Vhttp://i.ebayimg.com/images/g/1lIAAOSwBLlVBJZ-/s-l1600.jpg
p27
sg21
Vhttp://i.ebayimg.com/images/g/1lIAAOSwBLlVBJZ-/s-l300.jpg
p28
sasS'shipping_info'
p29
(dp30
S'item_location'
p31
(lp32
V\u000aVancouver, Washington, United States
p33
asS'delivery'
p34
(lp35
VVaries
p36
asS'posts_to'
p37
(lp38
VLocal pick-up only
p39
assS'id'
p40
S'331505158596'
p41
s.