(dp1
S'title'
p2
V\u000a1:1 Costume Cosplay Helmet Mask Jetman Red hawk PR09\u000a
p3
sS'url'
p4
Vhttp://www.ioffer.com/i/1-1-costume-cosplay-helmet-mask-jetman-red-hawk-pr09-593308097
p5
sS'price'
p6
V$249.00
p7
sS'seller'
p8
(lp9
sS'description_links'
p10
VItem Description This helmet made from fiberglass and it's custom helmet. Mint and 100% new. It's 1:1 full scale replica helmet. Inside diameter is around 9 x 10 inc., and 11 inc. high. Painted in fully hand accomplished by skillful professinals. It's ready to wear and all helmet have inside clip-lock. Fully internal padding for comfortable wearing. We learn and check about human physical face before making this helmet. Why don't you get one for your Halloween and others party ?Payment & Shipping - Ship to US United State and worldwide.- Pay with confidence through PayPal.- We always ship item within 3 days after getting clearly payment.- Items will be shipped from THAILAND by AIRMAIL.- Delivery time depends on destination and other factors, it may takes 10-28 business days.- Please make sure the shipping address is your confirmed address verified by PayPal.- After shipment, we will let you know through eBay's message.
p11
sS'images'
p12
(lp13
Vhttp://cdn.iofferphoto.com/img3/item/593/308/097/t_1-1-costume-cosplay-helmet-mask-jetman-red-hawk-pr09-0ce4.jpg
p14
aVhttp://cdn.iofferphoto.com/img3/item/593/308/097/t_1-1-costume-cosplay-helmet-mask-jetman-red-hawk-pr09-ffbb.jpg
p15
aVhttp://cdn.iofferphoto.com/img3/item/593/308/097/t_1-1-costume-cosplay-helmet-mask-jetman-red-hawk-pr09-50e6.jpg
p16
aVhttp://cdn.iofferphoto.com/img3/item/593/308/097/t_1-1-costume-cosplay-helmet-mask-jetman-red-hawk-pr09-25b5.jpg
p17
aVhttp://cdn.iofferphoto.com/img3/item/593/308/097/t_1-1-costume-cosplay-helmet-mask-jetman-red-hawk-pr09-6bc5.jpg
p18
aVhttp://cdn.iofferphoto.com/img3/item/593/308/097/t_1-1-costume-cosplay-helmet-mask-jetman-red-hawk-pr09-ec67.jpg
p19
asS'shipping_info'
p20
VEstimated Shipping10 - 15 Days
p21
sS'id'
p22
V593308097_1497078568
p23
s.