(dp1
S'title'
p2
V\u000aCINCINNATI HAWK 150 SIEMENS FLOPPY DRIVE 3-424-2128A 34\u000a
p3
sS'url'
p4
Vhttp://www.ioffer.com/i/cincinnati-hawk-150-siemens-floppy-drive-3-424-2128a-34-637482201
p5
sS'price'
p6
V$375.00
p7
sS'seller'
p8
(lp9
sS'description_links'
p10
V
sS'images'
p11
(lp12
Vhttp://cdn.iofferphoto.com/img3/item/637/482/201/t_0PaIcincinnati-hawk-150-siemens-floppy-drive-3-424-2128a-34.jpg
p13
aVhttp://cdn.iofferphoto.com/img3/item/637/482/201/t_0PBLcincinnati-hawk-150-siemens-floppy-drive-3-424-2128a-34.jpg
p14
aVhttp://cdn.iofferphoto.com/img3/item/637/482/201/t_Mgegcincinnati-hawk-150-siemens-floppy-drive-3-424-2128a-34.jpg
p15
aVhttp://cdn.iofferphoto.com/img3/item/637/482/201/t_QY9xcincinnati-hawk-150-siemens-floppy-drive-3-424-2128a-34.jpg
p16
aVhttp://cdn.iofferphoto.com/img3/item/637/482/201/t_TD3pcincinnati-hawk-150-siemens-floppy-drive-3-424-2128a-34.jpg
p17
aVhttp://cdn.iofferphoto.com/img3/item/637/482/201/t_XqI0cincinnati-hawk-150-siemens-floppy-drive-3-424-2128a-34.jpg
p18
asS'shipping_info'
p19
(lp20
sS'id'
p21
V637482201_1497078550
p22
s.