(dp1
S'title'
p2
VLONGHUNTER'S LEATHER ACCESSORIES PATTERN
p3
sS'url'
p4
Vhttp://www.glacierwear.com/longhunter-s-leather-accessories-pattern.html
p5
sS'price'
p6
V9.95
p7
sS'seller'
p8
(lp9
sS'description_links'
p10
Vptn-100-pm98Longhunter's Leather Accessories PatternThe Items in this Pattern were used by Roger's Rangers, and by the Woodsmen & Longhunters of what was to become the Eastern United States. Patterns Included are Eastern Leggings or Gaiters, Haversack-Knapsack, Hawk & Bayonet Belt Carriage, Leather Haversack & Shooting Bag.
p11
sS'images'
p12
(lp13
Vhttp://www.glacierwear.com/media/catalog/product/cache/1/image/9df78eab33525d08d6e5fb8d27136e95/l/o/longhunter_s_leather_accessories_pattern.jpg
p14
asS'shipping_info'
p15
VFree Shipping on $100.00+
p16
sS'id'
p17
Vpattern_1497078506
p18
s.