(dp1
S'title'
p2
VRed Tailed Hawk
p3
sS'url'
p4
Vhttp://store.yahoo.com/yhst-66562580642243/red-tailed-hawk.html
p5
sS'price'
p6
(lp7
sS'seller'
p8
(lp9
sS'description_links'
p10
(lp11
sS'images'
p12
(lp13
Vhttp://ep.yimg.com/ay/yhst-66562580642243/red-tailed-hawk-5.gif
p14
asS'shipping_info'
p15
(lp16
sS'id'
p17
Vred-tailed-hawk_1497078507
p18
s.