(dp1
S'title'
p2
VSwainson's Hawk
p3
sS'url'
p4
Vhttp://store.yahoo.com/yhst-66562580642243/swainson39s-ha39.html
p5
sS'price'
p6
(lp7
sS'seller'
p8
(lp9
sS'description_links'
p10
VSwainson's Hawk Photo Reference Cd
p11
sS'images'
p12
(lp13
Vhttp://ep.yimg.com/ay/yhst-66562580642243/swainson-39-s-hawk-5.gif
p14
asS'shipping_info'
p15
(lp16
sS'id'
p17
Vswainson39s-ha39_1497078510
p18
s.