(dp1
S'title'
p2
Vdon eckelberry white morph gyrfalcon
p3
sS'url'
p4
S'http://www.ebay.com/itm/Don-Eckelberry-White-Morph-Gyrfalcon-/182606570246?hash=item2a84332306:g:EycAAOSwIQdZKx2Z'
p5
sS'price'
p6
VUS $100.00
p7
sS'seller'
p8
(dp9
g4
Vhttp://www.ebay.com/usr/billm1971?_trksid=p2047675.l2559
p10
sS'name'
p11
V billm1971
p12
ssS'description_links'
p13
(lp14
Vhttp://vi.vipr.ebaydesc.com/ws/eBayISAPI.dll?ViewItemDescV4&item=182606570246&t=0&tid=10&category=360&seller=billm1971&excSoj=1&excTrk=1&lsite=0&ittenable=false&domain=ebay.com&descgauge=1
p15
asS'images'
p16
(lp17
(dp18
S'maxImageUrl'
p19
Vhttp://i.ebayimg.com/images/g/EycAAOSwIQdZKx2Z/s-l1600.jpg
p20
sS'displayImgUrl'
p21
Vhttp://i.ebayimg.com/images/g/EycAAOSwIQdZKx2Z/s-l300.jpg
p22
sa(dp23
g19
Vhttp://i.ebayimg.com/images/g/z8sAAOSwaeRZKx2d/s-l1600.jpg
p24
sg21
Vhttp://i.ebayimg.com/images/g/z8sAAOSwaeRZKx2d/s-l300.jpg
p25
sa(dp26
g19
Vhttp://i.ebayimg.com/images/g/ht4AAOSwK6RZKx2b/s-l1600.jpg
p27
sg21
Vhttp://i.ebayimg.com/images/g/ht4AAOSwK6RZKx2b/s-l300.jpg
p28
sa(dp29
g19
Vhttp://i.ebayimg.com/images/g/U74AAOSw~y9ZKx2h/s-l1600.jpg
p30
sg21
Vhttp://i.ebayimg.com/images/g/U74AAOSw~y9ZKx2h/s-l300.jpg
p31
sasS'shipping_info'
p32
(dp33
S'item_location'
p34
(lp35
V\u000aAmityville, New York, United States
p36
asS'delivery'
p37
(lp38
VVaries
p39
asS'posts_to'
p40
(lp41
VUnited States
p42
assS'id'
p43
S'182606570246'
p44
s.