(dp1
S'title'
p2
VCanada Gyrfalcon Faucon Gerfaut Postage Stamp
p3
sS'url'
p4
Vhttp://www.ecrater.com/p/2102225/canada-gyrfalcon-faucon-gerfaut-postage?keywords=gyrfalcon
p5
sS'price'
p6
V$3.00
p7
sS'seller'
p8
Vhttp://villageadsandprints.ecrater.com
p9
sS'description_links'
p10
VCanada Gyrfalcon Faucon Gerfaut Cancelled Postage Stamp - Ships 24 Hours
p11
sS'images'
p12
(lp13
sS'shipping_info'
p14
(lp15
VOnly 1 available
p16
aVShipping:US-Mainland: $1.50(more destinations)
p17
aVCondition: Used
p18
asS'id'
p19
V2102225
p20
s.