(dp1
S'title'
p2
Vlarge boehm porcelain sculpture 10178 &#034;gyrfalcon&#034; showroom new
p3
sS'url'
p4
S'http://www.ebay.com/itm/Large-Boehm-Porcelain-Sculpture-10178-GYRFALCON-Showroom-New-/262753380962?hash=item3d2d526a62:g:aOIAAOSw2xRYSMOo'
p5
sS'price'
p6
(lp7
sS'seller'
p8
(dp9
g4
Vhttp://www.ebay.com/usr/boehmshowroom?_trksid=p2047675.l2559
p10
sS'name'
p11
V boehmshowroom
p12
ssS'description_links'
p13
(lp14
Vhttp://vi.vipr.ebaydesc.com/ws/eBayISAPI.dll?ViewItemDescV4&item=262753380962&t=1480450805000&tid=132756&category=13833&seller=boehmshowroom&excSoj=1&excTrk=1&lsite=0&ittenable=false&domain=ebay.com&descgauge=1
p15
asS'images'
p16
(lp17
(dp18
S'maxImageUrl'
p19
Vhttp://i.ebayimg.com/images/g/aOIAAOSw2xRYSMOo/s-l1600.jpg
p20
sS'displayImgUrl'
p21
Vhttp://i.ebayimg.com/images/g/aOIAAOSw2xRYSMOo/s-l300.jpg
p22
sasS'shipping_info'
p23
(dp24
S'item_location'
p25
(lp26
V\u000aTrenton, New Jersey, United States
p27
asS'delivery'
p28
(lp29
VVaries
p30
asS'posts_to'
p31
(lp32
VLocal pick-up only
p33
assS'id'
p34
S'262753380962'
p35
s.