(dp1
S'title'
p2
Vlarge vintage mottahedeh design gyrfalcon extremely lifelike bird figurine 12.5&#034;
p3
sS'url'
p4
S'http://www.ebay.com/itm/Large-Vintage-Mottahedeh-Design-GyrFalcon-extremely-lifelike-bird-figurine-12-5-/282485487992?hash=item41c5727978:g:iuMAAOSwJH1ZHyPH'
p5
sS'price'
p6
VC $179.99
p7
sS'seller'
p8
(dp9
g4
Vhttp://www.ebay.com/usr/cm4tt2008?_trksid=p2047675.l2559
p10
sS'name'
p11
V cm4tt2008
p12
ssS'description_links'
p13
(lp14
Vhttp://vi.vipr.ebaydesc.com/ws/eBayISAPI.dll?ViewItemDescV4&item=282485487992&t=0&tid=210&category=168299&seller=cm4tt2008&excSoj=1&excTrk=1&lsite=2&ittenable=false&domain=ebay.com&descgauge=1
p15
asS'images'
p16
(lp17
(dp18
S'maxImageUrl'
p19
Vhttp://i.ebayimg.com/images/g/iuMAAOSwJH1ZHyPH/s-l1600.jpg
p20
sS'displayImgUrl'
p21
Vhttp://i.ebayimg.com/images/g/iuMAAOSwJH1ZHyPH/s-l300.jpg
p22
sa(dp23
g19
Vhttp://i.ebayimg.com/images/g/MUgAAOSww9xZHyPN/s-l1600.jpg
p24
sg21
Vhttp://i.ebayimg.com/images/g/MUgAAOSww9xZHyPN/s-l300.jpg
p25
sa(dp26
g19
Vhttp://i.ebayimg.com/images/g/NNYAAOSwIaFZHyPU/s-l1600.jpg
p27
sg21
Vhttp://i.ebayimg.com/images/g/NNYAAOSwIaFZHyPU/s-l300.jpg
p28
sa(dp29
g19
Vhttp://i.ebayimg.com/images/g/DiEAAOSwurZZHyQF/s-l1600.jpg
p30
sg21
Vhttp://i.ebayimg.com/images/g/DiEAAOSwurZZHyQF/s-l300.jpg
p31
sa(dp32
g19
Vhttp://i.ebayimg.com/images/g/cJAAAOSwrhBZHyP6/s-l1600.jpg
p33
sg21
Vhttp://i.ebayimg.com/images/g/cJAAAOSwrhBZHyP6/s-l300.jpg
p34
sa(dp35
g19
Vhttp://i.ebayimg.com/images/g/xHkAAOSwK6RZHyPi/s-l1600.jpg
p36
sg21
Vhttp://i.ebayimg.com/images/g/xHkAAOSwK6RZHyPi/s-l300.jpg
p37
sa(dp38
g19
Vhttp://i.ebayimg.com/images/g/jngAAOSwJH1ZHyQe/s-l1600.jpg
p39
sg21
Vhttp://i.ebayimg.com/images/g/jngAAOSwJH1ZHyQe/s-l300.jpg
p40
sa(dp41
g19
Vhttp://i.ebayimg.com/images/g/6YwAAOSwq1JZHyRD/s-l1600.jpg
p42
sg21
Vhttp://i.ebayimg.com/images/g/6YwAAOSwq1JZHyRD/s-l300.jpg
p43
sa(dp44
g19
Vhttp://i.ebayimg.com/images/g/eOkAAOSw42JZHySB/s-l1600.jpg
p45
sg21
Vhttp://i.ebayimg.com/images/g/eOkAAOSw42JZHySB/s-l300.jpg
p46
sasS'shipping_info'
p47
(dp48
S'item_location'
p49
(lp50
V\u000aMission, British Columbia, Canada
p51
asS'delivery'
p52
(lp53
VVaries
p54
asS'posts_to'
p55
(lp56
VCanada, United States
p57
assS'id'
p58
S'282485487992'
p59
s.