(dp1
S'title'
p2
VStanding Alaskan Lynx
p3
sS'url'
p4
Vhttp://www.thetaxidermystore.com/lynx-life-size-standing-taxidermy-mount-for-sale-10055.html
p5
sS'price'
p6
V$0.00
p7
sS'seller'
p8
(lp9
sS'description_links'
p10
VDetailsDescriptionFor Sale is an excellent Alaskan Lynx life size taxidermy mount. It has beautiful, thick hair with very well done taxidermy work, earning our Excellent\u2122 overall quality rating. It is mounted in a standing pose with an open mouth and comes on a wood base. All applicable measurements and dimensions are provided to help ensure this item will fit within your intended space.- This item comes on a wood base for display.- Great for the mantle, table, counter top, ledge, shelf, etc...About the Lynx (Lynx Canadensis)The lynx is the "lone wolf" of the feline family. They are typically found across the northern forests of North America, Europe and Asia, though they are very, very hard to find. The Lynx hunts at night, using its exceptional hearing and eyesight, avoiding contact with anything other than it's young. Lynx are carnivores who prefer birds and small mammals like hare for sustinance.  SpecificationsDimensions:*Depth: 15"Height: 25"Width: 34"Weight: 12 lbs
p11
sS'images'
p12
(lp13
Vhttp://www.thetaxidermystore.com/skin/frontend/default/blanco_customization/images/logo.png
p14
aVhttp://www.thetaxidermystore.com/media/wysiwyg/ttsgraphics/sales_banners/Spring-Sale-612.jpg
p15
aVhttp://www.thetaxidermystore.com/media/wysiwyg/ttsgraphics/sales_banners/Spring-Green-CP.jpg
p16
aVhttp://www.thetaxidermystore.com/media/wysiwyg/ttsgraphics/sales_banners/Spring-Sale-612.jpg
p17
aVhttp://www.thetaxidermystore.com/media/wysiwyg/ttsgraphics/sales_banners/Spring-Green-CP.jpg
p18
aVhttp://www.thetaxidermystore.com/media/catalog/product/cache/1/image/396x396/9df78eab33525d08d6e5fb8d27136e95/a/l/alaskan-lynx-life-size-taxidermy-mount-_10055-for-sale-_-the-taxidermy-store_1.jpg
p19
aVhttp://www.thetaxidermystore.com/media/catalog/product/cache/1/thumbnail/70x70/9df78eab33525d08d6e5fb8d27136e95/a/l/alaskan-lynx-life-size-taxidermy-mount-_10055-for-sale-_-the-taxidermy-store_1.jpg
p20
aVhttp://www.thetaxidermystore.com/media/catalog/product/cache/1/thumbnail/70x70/9df78eab33525d08d6e5fb8d27136e95/e/v/events_-_038.jpg
p21
aVhttp://www.thetaxidermystore.com/media/catalog/product/cache/1/thumbnail/70x70/9df78eab33525d08d6e5fb8d27136e95/e/v/events_-_107.jpg
p22
aVhttp://www.thetaxidermystore.com/media/catalog/product/cache/1/thumbnail/70x70/9df78eab33525d08d6e5fb8d27136e95/e/v/events_-_145.jpg
p23
aVhttp://www.thetaxidermystore.com/media/catalog/product/cache/1/thumbnail/70x70/9df78eab33525d08d6e5fb8d27136e95/e/v/events_-_076.jpg
p24
aVhttp://www.thetaxidermystore.com/media/catalog/product/cache/1/thumbnail/70x70/9df78eab33525d08d6e5fb8d27136e95/e/v/events_-_115.jpg
p25
aVhttp://www.thetaxidermystore.com/media/catalog/product/cache/1/thumbnail/70x70/9df78eab33525d08d6e5fb8d27136e95/e/v/events_-_024.jpg
p26
aVhttp://www.thetaxidermystore.com/media/catalog/product/cache/1/thumbnail/70x70/9df78eab33525d08d6e5fb8d27136e95/e/v/events_-_132.jpg
p27
aVhttp://www.thetaxidermystore.com//media/wysiwyg/grade/cache/225x225/excellent.png
p28
aVhttp://www.thetaxidermystore.com/skin/frontend/default/blanco_customization/images/loading.gif
p29
aVhttp://www.thetaxidermystore.com/media/wysiwyg/ttsgraphics/Certificate.png
p30
aVhttp://www.thetaxidermystore.com/media/wysiwyg/ttsgraphics/ttshomepage/pinterest-logo.jpg
p31
aV/skin/frontend/default/blanco_customization/images/icon-twitter.png
p32
aV/skin/frontend/default/blanco_customization/images/icon-paypal.png
p33
aV/skin/frontend/default/blanco_customization/images/icon-discover.png
p34
aV/skin/frontend/default/blanco_customization/images/icon-visa.png
p35
aV/skin/frontend/default/blanco_customization/images/icon-american-express.png
p36
aV/skin/frontend/default/blanco_customization/images/icon-mastercard.png
p37
asS'shipping_info'
p38
(lp39
sS'id'
p40
V10055_1497075922
p41
s.