(dp1
S'title'
p2
VLaying Alaskan Lynx 
p3
sS'url'
p4
Vhttp://www.thetaxidermystore.com/lynx-life-size-laying-taxidermy-mount-for-sale-11204.html
p5
sS'price'
p6
V$0.00
p7
sS'seller'
p8
(lp9
sS'description_links'
p10
VDetailsDescriptionThis is a stunning Alaskan Lynx life size laying taxidermy mount. It has beautiful, thick hair with World Class taxidermy work. It is mounted in a laying down pose with the head resting on the front paws. It comes with an Alaskan cities tag.- This item will sit on a flat surface and does not come with a base.- Perfect for the shelf, mantle, table, counter top, etc..About the Lynx (Lynx Canadensis)The lynx is the "lone wolf" of the feline family. They are typically found across the northern forests of North America, Europe and Asia, though they are very, very hard to find. The Lynx hunts at night, using its exceptional hearing and eyesight, avoiding contact with anything other than it's young. Lynx are carnivores who prefer birds and small mammals like hare for sustinance.  SpecificationsDimensions:*Depth: 21"Height: 9"Width: 32"Weight: 7 lbs
p11
sS'images'
p12
(lp13
Vhttp://www.thetaxidermystore.com/skin/frontend/default/blanco_customization/images/logo.png
p14
aVhttp://www.thetaxidermystore.com/media/wysiwyg/ttsgraphics/sales_banners/Spring-Sale-612.jpg
p15
aVhttp://www.thetaxidermystore.com/media/wysiwyg/ttsgraphics/sales_banners/Spring-Green-CP.jpg
p16
aVhttp://www.thetaxidermystore.com/media/wysiwyg/ttsgraphics/sales_banners/Spring-Sale-612.jpg
p17
aVhttp://www.thetaxidermystore.com/media/wysiwyg/ttsgraphics/sales_banners/Spring-Green-CP.jpg
p18
aVhttp://www.thetaxidermystore.com/media/catalog/product/cache/1/image/396x396/9df78eab33525d08d6e5fb8d27136e95/1/1/11204-xq-life-size-alaskan-lynx-laying-taxidermy-mount.jpg
p19
aVhttp://www.thetaxidermystore.com/media/catalog/product/cache/1/thumbnail/70x70/9df78eab33525d08d6e5fb8d27136e95/1/1/11204-xq-life-size-alaskan-lynx-laying-taxidermy-mount.jpg
p20
aVhttp://www.thetaxidermystore.com/media/catalog/product/cache/1/thumbnail/70x70/9df78eab33525d08d6e5fb8d27136e95/1/1/11204_-_7705.jpg
p21
aVhttp://www.thetaxidermystore.com/media/catalog/product/cache/1/thumbnail/70x70/9df78eab33525d08d6e5fb8d27136e95/1/1/11204_-_7711.jpg
p22
aVhttp://www.thetaxidermystore.com/media/catalog/product/cache/1/thumbnail/70x70/9df78eab33525d08d6e5fb8d27136e95/1/1/11204_-_7708.jpg
p23
aVhttp://www.thetaxidermystore.com/media/catalog/product/cache/1/thumbnail/70x70/9df78eab33525d08d6e5fb8d27136e95/1/1/11204_-_7709.jpg
p24
aVhttp://www.thetaxidermystore.com/media/catalog/product/cache/1/thumbnail/70x70/9df78eab33525d08d6e5fb8d27136e95/1/1/11204_-_7710.jpg
p25
aVhttp://www.thetaxidermystore.com//media/wysiwyg/grade/cache/225x225/world_class.png
p26
aVhttp://www.thetaxidermystore.com/skin/frontend/default/blanco_customization/images/loading.gif
p27
aVhttp://www.thetaxidermystore.com/media/wysiwyg/ttsgraphics/Certificate.png
p28
aVhttp://www.thetaxidermystore.com/media/wysiwyg/ttsgraphics/ttshomepage/pinterest-logo.jpg
p29
aV/skin/frontend/default/blanco_customization/images/icon-twitter.png
p30
aV/skin/frontend/default/blanco_customization/images/icon-paypal.png
p31
aV/skin/frontend/default/blanco_customization/images/icon-discover.png
p32
aV/skin/frontend/default/blanco_customization/images/icon-visa.png
p33
aV/skin/frontend/default/blanco_customization/images/icon-american-express.png
p34
aV/skin/frontend/default/blanco_customization/images/icon-mastercard.png
p35
asS'shipping_info'
p36
(lp37
sS'id'
p38
V11204_1497075932
p39
s.