(dp1
S'title'
p2
VLaying Alaskan Lynx 
p3
sS'url'
p4
Vhttp://www.thetaxidermystore.com/lynx-life-size-laying-taxidermy-mount-for-sale-11795.html
p5
sS'price'
p6
V$0.00
p7
sS'seller'
p8
(lp9
sS'description_links'
p10
VDetailsDescriptionThis is a stunning Alaskan Lynx life size laying taxidermy mount. It is mounted in a laying down pose with the head resting on the front paws. It has beautiful, thick hair with magnificent taxidermy work, earning our prestigious World Class\u2122 overall quality rating. All applicable dimensions are included to help ensure this item will fit within your intended display space.- This item is meant to be placed on a flat surface without a base.- Perfect for the shelf, mantle, table, counter top, etc..- Comes with an Alaskan cities tag.About the Lynx (Lynx Canadensis)The lynx is the "lone wolf" of the feline family. They are typically found across the northern forests of North America, Europe and Asia, though they are very, very hard to find. The Lynx hunts at night, using its exceptional hearing and eyesight, avoiding contact with anything other than it's young. Lynx are carnivores who prefer birds and small mammals like hare for sustinance.  SpecificationsDimensions:*Depth: 24"Height: 9"Width: 32"Weight: 6 lbs
p11
sS'images'
p12
(lp13
Vhttp://www.thetaxidermystore.com/skin/frontend/default/blanco_customization/images/logo.png
p14
aVhttp://www.thetaxidermystore.com/media/wysiwyg/ttsgraphics/sales_banners/Spring-Sale-612.jpg
p15
aVhttp://www.thetaxidermystore.com/media/wysiwyg/ttsgraphics/sales_banners/Spring-Green-CP.jpg
p16
aVhttp://www.thetaxidermystore.com/media/wysiwyg/ttsgraphics/sales_banners/Spring-Sale-612.jpg
p17
aVhttp://www.thetaxidermystore.com/media/wysiwyg/ttsgraphics/sales_banners/Spring-Green-CP.jpg
p18
aVhttp://www.thetaxidermystore.com/media/catalog/product/cache/1/image/396x396/9df78eab33525d08d6e5fb8d27136e95/a/l/alaskan-lynx-life-size-taxidermy-mount-_11795-for-sale-_-the-taxidermy-store.jpg
p19
aVhttp://www.thetaxidermystore.com/media/catalog/product/cache/1/thumbnail/70x70/9df78eab33525d08d6e5fb8d27136e95/a/l/alaskan-lynx-life-size-taxidermy-mount-_11795-for-sale-_-the-taxidermy-store.jpg
p20
aVhttp://www.thetaxidermystore.com/media/catalog/product/cache/1/thumbnail/70x70/9df78eab33525d08d6e5fb8d27136e95/1/1/11795_-_11040.jpg
p21
aVhttp://www.thetaxidermystore.com/media/catalog/product/cache/1/thumbnail/70x70/9df78eab33525d08d6e5fb8d27136e95/1/1/11795_-_11038.jpg
p22
aVhttp://www.thetaxidermystore.com/media/catalog/product/cache/1/thumbnail/70x70/9df78eab33525d08d6e5fb8d27136e95/1/1/11795_-_11039.jpg
p23
aVhttp://www.thetaxidermystore.com/media/catalog/product/cache/1/thumbnail/70x70/9df78eab33525d08d6e5fb8d27136e95/1/1/11795_-_11035.jpg
p24
aVhttp://www.thetaxidermystore.com/media/catalog/product/cache/1/thumbnail/70x70/9df78eab33525d08d6e5fb8d27136e95/1/1/11795_-_11037.jpg
p25
aVhttp://www.thetaxidermystore.com/media/catalog/product/cache/1/thumbnail/70x70/9df78eab33525d08d6e5fb8d27136e95/1/1/11795_-_11036.jpg
p26
aVhttp://www.thetaxidermystore.com/media/catalog/product/cache/1/thumbnail/70x70/9df78eab33525d08d6e5fb8d27136e95/1/1/11795_-_11032.jpg
p27
aVhttp://www.thetaxidermystore.com/media/catalog/product/cache/1/thumbnail/70x70/9df78eab33525d08d6e5fb8d27136e95/1/1/11795_-_11034.jpg
p28
aVhttp://www.thetaxidermystore.com//media/wysiwyg/grade/cache/225x225/world_class.png
p29
aVhttp://www.thetaxidermystore.com/skin/frontend/default/blanco_customization/images/loading.gif
p30
aVhttp://www.thetaxidermystore.com/media/wysiwyg/ttsgraphics/Certificate.png
p31
aVhttp://www.thetaxidermystore.com/media/wysiwyg/ttsgraphics/ttshomepage/pinterest-logo.jpg
p32
aV/skin/frontend/default/blanco_customization/images/icon-twitter.png
p33
aV/skin/frontend/default/blanco_customization/images/icon-paypal.png
p34
aV/skin/frontend/default/blanco_customization/images/icon-discover.png
p35
aV/skin/frontend/default/blanco_customization/images/icon-visa.png
p36
aV/skin/frontend/default/blanco_customization/images/icon-american-express.png
p37
aV/skin/frontend/default/blanco_customization/images/icon-mastercard.png
p38
asS'shipping_info'
p39
(lp40
sS'id'
p41
V11795_1497075917
p42
s.