(dp1
S'title'
p2
VReproduction Eurasian Lynx Taxidermy Shoulder Mount For Sale
p3
sS'url'
p4
Vhttp://www.thetaxidermystore.com/reproduction-eurasian-lynx-shoulder-taxidermy-mount-for-sale-12905.html
p5
sS'price'
p6
V$0.00
p7
sS'seller'
p8
(lp9
sS'description_links'
p10
VDetailsDescription of Taxidermy For SaleThis is an outstanding  "reproduction" Eurasian Lynx taxidermy shoulder mount, fabricated with reproduction teeth, synthetic hair and fur, and mounted in a semi-upright position, looking slightly to it's right side, into the room. It is extremely difficult to legally obtain a real Eurasian Lynx shoulder mount, so take advantage of this high-quality replica, containing no real animal parts! The craftsmanship of this piece is exceptional, earning this item our Excellent\u2122 overall quality rating. All applicable measurements and dimensions are provided to help ensure this item will fit within your intended space.- There is already a hanger attached to the back of this item.- The item will hang on a properly anchored drywall screw.About the Eurasian Lynx (Lynx lynx)The lynx is the "lone wolf" of the feline family. It is typically found across the northern forests of North America. Other members of the Lynx family can be found throughout Europe and Asia. The Lynx hunts at night, using its exceptional hearing and eyesight, and avoiding contact with anything other than it's young. It has large, wide paws with thick fur that help act as a "snowshoe" to keep the lynx from sinking down into the deep snow during the winter months. Lynx are carnivores who prefer birds and small mammals like hare for sustenance.SpecificationsDimensions:*Depth: 13"Height: 15"Width: 11"Weight: 5 lbs
p11
sS'images'
p12
(lp13
Vhttp://www.thetaxidermystore.com/skin/frontend/default/blanco_customization/images/logo.png
p14
aVhttp://www.thetaxidermystore.com/media/wysiwyg/ttsgraphics/sales_banners/Spring-Sale-612.jpg
p15
aVhttp://www.thetaxidermystore.com/media/wysiwyg/ttsgraphics/sales_banners/Spring-Green-CP.jpg
p16
aVhttp://www.thetaxidermystore.com/media/wysiwyg/ttsgraphics/sales_banners/Spring-Sale-612.jpg
p17
aVhttp://www.thetaxidermystore.com/media/wysiwyg/ttsgraphics/sales_banners/Spring-Green-CP.jpg
p18
aVhttp://www.thetaxidermystore.com/media/catalog/product/cache/1/image/396x396/9df78eab33525d08d6e5fb8d27136e95/e/u/eurasian-lynx-taxidermy-shoulder-mount-_12905-for-sale-_-the-taxidermy-store.jpg
p19
aVhttp://www.thetaxidermystore.com/media/catalog/product/cache/1/thumbnail/70x70/9df78eab33525d08d6e5fb8d27136e95/e/u/eurasian-lynx-taxidermy-shoulder-mount-_12905-for-sale-_-the-taxidermy-store.jpg
p20
aVhttp://www.thetaxidermystore.com/media/catalog/product/cache/1/thumbnail/70x70/9df78eab33525d08d6e5fb8d27136e95/1/2/12905_-_10.jpg
p21
aVhttp://www.thetaxidermystore.com/media/catalog/product/cache/1/thumbnail/70x70/9df78eab33525d08d6e5fb8d27136e95/1/2/12905_-_09.jpg
p22
aVhttp://www.thetaxidermystore.com/media/catalog/product/cache/1/thumbnail/70x70/9df78eab33525d08d6e5fb8d27136e95/1/2/12905_-_08.jpg
p23
aVhttp://www.thetaxidermystore.com/media/catalog/product/cache/1/thumbnail/70x70/9df78eab33525d08d6e5fb8d27136e95/1/2/12905_-_04.jpg
p24
aVhttp://www.thetaxidermystore.com/media/catalog/product/cache/1/thumbnail/70x70/9df78eab33525d08d6e5fb8d27136e95/1/2/12905_-_05.jpg
p25
aVhttp://www.thetaxidermystore.com/media/catalog/product/cache/1/thumbnail/70x70/9df78eab33525d08d6e5fb8d27136e95/1/2/12905_-_07.jpg
p26
aVhttp://www.thetaxidermystore.com/media/catalog/product/cache/1/thumbnail/70x70/9df78eab33525d08d6e5fb8d27136e95/1/2/12905_-_06.jpg
p27
aVhttp://www.thetaxidermystore.com//media/wysiwyg/grade/cache/225x225/excellent.png
p28
aVhttp://www.thetaxidermystore.com/media/wysiwyg/ttsgraphics/Certificate.png
p29
aVhttp://www.thetaxidermystore.com/media/catalog/product/cache/1/thumbnail/228x/9df78eab33525d08d6e5fb8d27136e95/1/1/11360-xq-javelina-peccary-shoulder-taxidermy-mount_1.jpg
p30
aVhttp://www.thetaxidermystore.com/media/catalog/product/cache/1/thumbnail/228x/9df78eab33525d08d6e5fb8d27136e95/1/1/11324-xq-brindle-boar-shoulder-taxidermy-mount.jpg
p31
aVhttp://www.thetaxidermystore.com/media/catalog/product/cache/1/thumbnail/228x/9df78eab33525d08d6e5fb8d27136e95/1/1/11359-xq-javelina-peccary-shoulder-taxidermy-mount.jpg
p32
aVhttp://www.thetaxidermystore.com/media/catalog/product/cache/1/thumbnail/228x/9df78eab33525d08d6e5fb8d27136e95/1/1/11318-xq-russian-boar-shoulder-taxidermy-mount.jpg
p33
aVhttp://www.thetaxidermystore.com/media/wysiwyg/ttsgraphics/ttshomepage/pinterest-logo.jpg
p34
aV/skin/frontend/default/blanco_customization/images/icon-twitter.png
p35
aV/skin/frontend/default/blanco_customization/images/icon-paypal.png
p36
aV/skin/frontend/default/blanco_customization/images/icon-discover.png
p37
aV/skin/frontend/default/blanco_customization/images/icon-visa.png
p38
aV/skin/frontend/default/blanco_customization/images/icon-american-express.png
p39
aV/skin/frontend/default/blanco_customization/images/icon-mastercard.png
p40
asS'shipping_info'
p41
(lp42
sS'id'
p43
V12905_1497075885
p44
s.