(dp1
S'title'
p2
VLYNX FUR BLANKET 60" x 80"
p3
sS'url'
p4
Vhttp://www.glacierwear.com/lynx-fur-blanket-60x80.html
p5
sS'price'
p6
V5999.95
p7
sS'seller'
p8
(lp9
sS'description_links'
p10
Vlyx30060x80Lynx Fur Blanket 60" x 80"All Fur, Full Pelt (not pieces), Lynx Fur Blanket. Made with Prime, Select Quality Lynx hides. Made just like a quilt with batting between layers. Backed with Satin. (All sizes are approx.) MADE IN USA!
p11
sS'images'
p12
(lp13
Vhttp://www.glacierwear.com/media/catalog/product/cache/1/thumbnail/500x/17f82f742ffe127f42dca9de82fb58b1/l/y/lynx_fur_blanket.jpg
p14
asS'shipping_info'
p15
VFree Shipping on $100.00+
p16
sS'id'
p17
V60x80_1497075956
p18
s.