(dp1
S'title'
p2
V\u000aModel Ship Lynx Boats Sailing Painted Wood Base Wooden\u000a
p3
sS'url'
p4
Vhttp://www.ioffer.com/i/model-ship-lynx-boats-sailing-painted-wood-base-wooden-631148577
p5
sS'price'
p6
V$459.00
p7
sS'seller'
p8
(lp9
sS'description_links'
p10
VItem #:OM-236 Overall measurements (inches) 27H x 7W x 34L .Overall Condition is New.Material(s): Wood Base,8% Linen,10% Linen,100% Linen,Wooden,Western Red Cedar. Style: Reproduction. Dates to circa New.
p11
sS'images'
p12
(lp13
Vhttp://cdn.iofferphoto.com/img/item/631/148/577/t_model-ship-lynx-boats-sailing-painted-wood-base-wooden-d50a.jpg
p14
aVhttp://cdn.iofferphoto.com/img/item/631/148/577/t_model-ship-lynx-boats-sailing-painted-wood-base-wooden-dfc0.jpg
p15
aVhttp://cdn.iofferphoto.com/img/item/631/148/577/t_model-ship-lynx-boats-sailing-painted-wood-base-wooden-626f.jpg
p16
aVhttp://cdn.iofferphoto.com/img/item/631/148/577/t_model-ship-lynx-boats-sailing-painted-wood-base-wooden-8660.jpg
p17
aVhttp://cdn.iofferphoto.com/img/item/631/148/577/t_model-ship-lynx-boats-sailing-painted-wood-base-wooden-c9b8.jpg
p18
aVhttp://cdn.iofferphoto.com/img/item/631/148/577/t_model-ship-lynx-boats-sailing-painted-wood-base-wooden-9bee.jpg
p19
aVhttp://cdn.iofferphoto.com/img/item/631/148/577/t_model-ship-lynx-boats-sailing-painted-wood-base-wooden-d37f.jpg
p20
aVhttp://cdn.iofferphoto.com/img/item/631/148/577/t_model-ship-lynx-boats-sailing-painted-wood-base-wooden-a26e.jpg
p21
aVhttp://cdn.iofferphoto.com/img/item/631/148/577/t_model-ship-lynx-boats-sailing-painted-wood-base-wooden-af2b.jpg
p22
aVhttp://cdn.iofferphoto.com/img/item/631/148/577/t_model-ship-lynx-boats-sailing-painted-wood-base-wooden-f838.jpg
p23
aVhttp://cdn.iofferphoto.com/img/item/631/148/577/t_model-ship-lynx-boats-sailing-painted-wood-base-wooden-0546.jpg
p24
aVhttp://cdn.iofferphoto.com/img/item/631/148/577/t_model-ship-lynx-boats-sailing-painted-wood-base-wooden-c076.jpg
p25
asS'shipping_info'
p26
VObjectModel ShipEstimated Shipping5 - 10 Days
p27
sS'id'
p28
V631148577_1497076057
p29
s.