(dp1
S'title'
p2
VLaying Alaskan Lynx 
p3
sS'url'
p4
Vhttp://www.thetaxidermystore.com/10811-lynx-life-size-laying-taxidermy-mount.html
p5
sS'price'
p6
V$0.00
p7
sS'seller'
p8
(lp9
sS'description_links'
p10
VDetails            This is a stunning Alaskan Lynx life size laying taxidermy mount. It has beautiful, thick hair with outstanding taxidermy work. This lynx earns a Premier overall grade.- Perfect for placement on a mantle, table, shelf, counter top, etc.        SpecificationsDimensions:*
p11
sS'images'
p12
(lp13
Vhttp://www.thetaxidermystore.com/skin/frontend/default/blanco_customization/images/logo.png
p14
aVhttp://www.thetaxidermystore.com/media/wysiwyg/ttsgraphics/sales_banners/Spring-Sale-612.jpg
p15
aVhttp://www.thetaxidermystore.com/media/wysiwyg/ttsgraphics/sales_banners/Spring-Green-CP.jpg
p16
aVhttp://www.thetaxidermystore.com/media/wysiwyg/ttsgraphics/sales_banners/Spring-Sale-612.jpg
p17
aVhttp://www.thetaxidermystore.com/media/wysiwyg/ttsgraphics/sales_banners/Spring-Green-CP.jpg
p18
aVhttp://www.thetaxidermystore.com/media/catalog/product/cache/1/image/396x396/9df78eab33525d08d6e5fb8d27136e95/1/0/10811_-_6005.jpg
p19
aVhttp://www.thetaxidermystore.com/media/catalog/product/cache/1/thumbnail/70x70/9df78eab33525d08d6e5fb8d27136e95/1/0/10811_-_6005.jpg
p20
aVhttp://www.thetaxidermystore.com/media/catalog/product/cache/1/thumbnail/70x70/9df78eab33525d08d6e5fb8d27136e95/1/0/10811_-_5996.jpg
p21
aVhttp://www.thetaxidermystore.com/media/catalog/product/cache/1/thumbnail/70x70/9df78eab33525d08d6e5fb8d27136e95/1/0/10811_-_5994.jpg
p22
aVhttp://www.thetaxidermystore.com/media/catalog/product/cache/1/thumbnail/70x70/9df78eab33525d08d6e5fb8d27136e95/1/0/10811_-_5990.jpg
p23
aVhttp://www.thetaxidermystore.com/media/catalog/product/cache/1/thumbnail/70x70/9df78eab33525d08d6e5fb8d27136e95/1/0/10811_-_5989.jpg
p24
aVhttp://www.thetaxidermystore.com/media/catalog/product/cache/1/thumbnail/70x70/9df78eab33525d08d6e5fb8d27136e95/1/0/10811_-_5993.jpg
p25
aVhttp://www.thetaxidermystore.com/media/catalog/product/cache/1/thumbnail/70x70/9df78eab33525d08d6e5fb8d27136e95/1/0/10811_-_5986.jpg
p26
aVhttp://www.thetaxidermystore.com/media/catalog/product/cache/1/thumbnail/70x70/9df78eab33525d08d6e5fb8d27136e95/1/0/10811_-_5987.jpg
p27
aVhttp://www.thetaxidermystore.com/media/catalog/product/cache/1/thumbnail/70x70/9df78eab33525d08d6e5fb8d27136e95/1/0/10811_-_5992.jpg
p28
aVhttp://www.thetaxidermystore.com/media/catalog/product/cache/1/thumbnail/70x70/9df78eab33525d08d6e5fb8d27136e95/1/0/10811_-_5985.jpg
p29
aVhttp://www.thetaxidermystore.com/media/catalog/product/cache/1/thumbnail/70x70/9df78eab33525d08d6e5fb8d27136e95/1/0/10811_-_5991.jpg
p30
aVhttp://www.thetaxidermystore.com/media/catalog/product/cache/1/thumbnail/70x70/9df78eab33525d08d6e5fb8d27136e95/1/0/10811_-_5988.jpg
p31
aVhttp://www.thetaxidermystore.com//media/wysiwyg/grade/cache/225x225/premier.png
p32
aVhttp://www.thetaxidermystore.com/skin/frontend/default/blanco_customization/images/loading.gif
p33
aVhttp://www.thetaxidermystore.com/media/wysiwyg/ttsgraphics/Certificate.png
p34
aVhttp://www.thetaxidermystore.com/media/wysiwyg/ttsgraphics/ttshomepage/pinterest-logo.jpg
p35
aV/skin/frontend/default/blanco_customization/images/icon-twitter.png
p36
aV/skin/frontend/default/blanco_customization/images/icon-paypal.png
p37
aV/skin/frontend/default/blanco_customization/images/icon-discover.png
p38
aV/skin/frontend/default/blanco_customization/images/icon-visa.png
p39
aV/skin/frontend/default/blanco_customization/images/icon-american-express.png
p40
aV/skin/frontend/default/blanco_customization/images/icon-mastercard.png
p41
asS'shipping_info'
p42
(lp43
sS'id'
p44
Voun_1497075942
p45
s.