(dp1
S'title'
p2
VLynx Metacarpal Packs
p3
sS'url'
p4
Vhttp://www.boneroom.com/store/p1582/Lynx_Metacarpal_Packs.html
p5
sS'price'
p6
V$10.00
p7
sS'seller'
p8
(lp9
sS'description_links'
p10
VApproximate length 1.5"-2.5"Pack of 5 metacarpals
p11
sS'images'
p12
(lp13
Vhttp://www.boneroom.com//uploads/4/8/1/1/48118243/s521972503441136676_p1582_i1_w640.jpeg
p14
asS'shipping_info'
p15
(lp16
sS'id'
p17
Vp1582_1497076066
p18
s.