(dp1
S'title'
p2
VRussian Lynx
p3
sS'url'
p4
Vhttp://store.yahoo.com/yhst-66562580642243/russian-lynx.html
p5
sS'price'
p6
(lp7
sS'seller'
p8
(lp9
sS'description_links'
p10
VRussian Lynx Photo Reference Cd
p11
sS'images'
p12
(lp13
Vhttp://ep.yimg.com/ca/I/yhst-66562580642243_2251_69765409
p14
asS'shipping_info'
p15
(lp16
sS'id'
p17
Vrussian-lynx_1497076030
p18
s.