(dp1
S'title'
p2
V2015 john deere 9570rt track tractors
p3
sS'url'
p4
S'http://www.ebay.com/itm/2015-John-Deere-9570RT-Track-Tractors-/122134480793?hash=item1c6fc84799:g:hgkAAOSwTuJYxPnN'
p5
sS'price'
p6
VUS $365,500.00
p7
sS'seller'
p8
(dp9
g4
Vhttp://www.ebay.com/usr/amundsonpetersonjd?_trksid=p2047675.l2559
p10
sS'name'
p11
V amundsonpetersonjd
p12
ssS'description_links'
p13
(lp14
Vhttp://vi.vipr.ebaydesc.com/ws/eBayISAPI.dll?ViewItemDescV4&item=122134480793&t=1496901359000&tid=10&category=91953&seller=amundsonpetersonjd&excSoj=1&excTrk=1&lsite=0&ittenable=false&domain=ebay.com&descgauge=1
p15
asS'images'
p16
(lp17
(dp18
S'maxImageUrl'
p19
Vhttp://i.ebayimg.com/images/g/hgkAAOSwTuJYxPnN/s-l1600.jpg
p20
sS'displayImgUrl'
p21
Vhttp://i.ebayimg.com/images/g/hgkAAOSwTuJYxPnN/s-l300.jpg
p22
sa(dp23
g19
Vhttp://i.ebayimg.com/images/g/s6UAAOSwol5YxPnN/s-l1600.jpg
p24
sg21
Vhttp://i.ebayimg.com/images/g/s6UAAOSwol5YxPnN/s-l300.jpg
p25
sa(dp26
g19
Vhttp://i.ebayimg.com/images/g/eFAAAOSwax5YxPnM/s-l1600.jpg
p27
sg21
Vhttp://i.ebayimg.com/images/g/eFAAAOSwax5YxPnM/s-l300.jpg
p28
sa(dp29
g19
Vhttp://i.ebayimg.com/images/g/hgYAAOSwTuJYxPnN/s-l1600.jpg
p30
sg21
Vhttp://i.ebayimg.com/images/g/hgYAAOSwTuJYxPnN/s-l300.jpg
p31
sa(dp32
g19
Vhttp://i.ebayimg.com/images/g/UVcAAOSwhQhYxPnM/s-l1600.jpg
p33
sg21
Vhttp://i.ebayimg.com/images/g/UVcAAOSwhQhYxPnM/s-l300.jpg
p34
sa(dp35
g19
Vhttp://i.ebayimg.com/images/g/4nsAAOSwB-1YxPnM/s-l1600.jpg
p36
sg21
Vhttp://i.ebayimg.com/images/g/4nsAAOSwB-1YxPnM/s-l300.jpg
p37
sa(dp38
g19
Vhttp://i.ebayimg.com/images/g/gnsAAOSw2gxYxPnN/s-l1600.jpg
p39
sg21
Vhttp://i.ebayimg.com/images/g/gnsAAOSw2gxYxPnN/s-l300.jpg
p40
sa(dp41
g19
Vhttp://i.ebayimg.com/images/g/T1wAAOSwWxNYxPnM/s-l1600.jpg
p42
sg21
Vhttp://i.ebayimg.com/images/g/T1wAAOSwWxNYxPnM/s-l300.jpg
p43
sa(dp44
g19
Vhttp://i.ebayimg.com/images/g/s5EAAOSwol5YxPnM/s-l1600.jpg
p45
sg21
Vhttp://i.ebayimg.com/images/g/s5EAAOSwol5YxPnM/s-l300.jpg
p46
sa(dp47
g19
Vhttp://i.ebayimg.com/images/g/hgoAAOSwTuJYxPnN/s-l1600.jpg
p48
sg21
Vhttp://i.ebayimg.com/images/g/hgoAAOSwTuJYxPnN/s-l300.jpg
p49
sa(dp50
g19
Vhttp://i.ebayimg.com/images/g/JDQAAOSwzgBYxPnO/s-l1600.jpg
p51
sg21
Vhttp://i.ebayimg.com/images/g/JDQAAOSwzgBYxPnO/s-l300.jpg
p52
sa(dp53
g19
Vhttp://i.ebayimg.com/images/g/2GsAAOSwCU1YxPnM/s-l1600.jpg
p54
sg21
Vhttp://i.ebayimg.com/images/g/2GsAAOSwCU1YxPnM/s-l300.jpg
p55
sasS'shipping_info'
p56
(dp57
S'item_location'
p58
(lp59
V\u000aMorris, Minnesota, United States
p60
asS'delivery'
p61
(lp62
VVaries
p63
asS'posts_to'
p64
(lp65
VLocal pick-up only
p66
assS'id'
p67
S'122134480793'
p68
s.