(dp1
S'title'
p2
V2016 john deere s680 combines &amp; harvesters
p3
sS'url'
p4
S'http://www.ebay.com/itm/2016-John-Deere-S680-Combines-Harvesters-/132121457040?hash=item1ec30d7190:g:5lMAAOSw4A5Ywk0Z'
p5
sS'price'
p6
VUS $368,500.00
p7
sS'seller'
p8
(dp9
g4
Vhttp://www.ebay.com/usr/tennesseetractorllc?_trksid=p2047675.l2559
p10
sS'name'
p11
V tennesseetractorllc
p12
ssS'description_links'
p13
(lp14
Vhttp://vi.vipr.ebaydesc.com/ws/eBayISAPI.dll?ViewItemDescV4&item=132121457040&t=0&tid=10&category=73094&seller=tennesseetractorllc&excSoj=1&excTrk=1&lsite=0&ittenable=false&domain=ebay.com&descgauge=1
p15
asS'images'
p16
(lp17
(dp18
S'maxImageUrl'
p19
Vhttp://i.ebayimg.com/images/g/5lMAAOSw4A5Ywk0Z/s-l1600.jpg
p20
sS'displayImgUrl'
p21
Vhttp://i.ebayimg.com/images/g/5lMAAOSw4A5Ywk0Z/s-l300.jpg
p22
sa(dp23
g19
Vhttp://i.ebayimg.com/images/g/tAoAAOSwTuJYwk0Z/s-l1600.jpg
p24
sg21
Vhttp://i.ebayimg.com/images/g/tAoAAOSwTuJYwk0Z/s-l300.jpg
p25
sa(dp26
g19
Vhttp://i.ebayimg.com/images/g/gkMAAOSwol5Ywk0Z/s-l1600.jpg
p27
sg21
Vhttp://i.ebayimg.com/images/g/gkMAAOSwol5Ywk0Z/s-l300.jpg
p28
sa(dp29
g19
Vhttp://i.ebayimg.com/images/g/mvEAAOSwfVpYwk0Z/s-l1600.jpg
p30
sg21
Vhttp://i.ebayimg.com/images/g/mvEAAOSwfVpYwk0Z/s-l300.jpg
p31
sa(dp32
g19
Vhttp://i.ebayimg.com/images/g/xDQAAOSw4CFYwk0Z/s-l1600.jpg
p33
sg21
Vhttp://i.ebayimg.com/images/g/xDQAAOSw4CFYwk0Z/s-l300.jpg
p34
sa(dp35
g19
Vhttp://i.ebayimg.com/images/g/ZvsAAOSwXYtYwk0Z/s-l1600.jpg
p36
sg21
Vhttp://i.ebayimg.com/images/g/ZvsAAOSwXYtYwk0Z/s-l300.jpg
p37
sa(dp38
g19
Vhttp://i.ebayimg.com/images/g/CqcAAOSwuxFYwk0Z/s-l1600.jpg
p39
sg21
Vhttp://i.ebayimg.com/images/g/CqcAAOSwuxFYwk0Z/s-l300.jpg
p40
sa(dp41
g19
Vhttp://i.ebayimg.com/images/g/CqYAAOSwuxFYwk0Z/s-l1600.jpg
p42
sg21
Vhttp://i.ebayimg.com/images/g/CqYAAOSwuxFYwk0Z/s-l300.jpg
p43
sa(dp44
g19
Vhttp://i.ebayimg.com/images/g/muwAAOSwfVpYwk0Z/s-l1600.jpg
p45
sg21
Vhttp://i.ebayimg.com/images/g/muwAAOSwfVpYwk0Z/s-l300.jpg
p46
sa(dp47
g19
Vhttp://i.ebayimg.com/images/g/ZvcAAOSwXYtYwk0Z/s-l1600.jpg
p48
sg21
Vhttp://i.ebayimg.com/images/g/ZvcAAOSwXYtYwk0Z/s-l300.jpg
p49
sa(dp50
g19
Vhttp://i.ebayimg.com/images/g/xD4AAOSw4CFYwk0Z/s-l1600.jpg
p51
sg21
Vhttp://i.ebayimg.com/images/g/xD4AAOSw4CFYwk0Z/s-l300.jpg
p52
sasS'shipping_info'
p53
(dp54
S'item_location'
p55
(lp56
V\u000aJackson, Tennessee, United States
p57
asS'delivery'
p58
(lp59
VVaries
p60
asS'posts_to'
p61
(lp62
VLocal pick-up only
p63
assS'id'
p64
S'132121457040'
p65
s.