(dp1
S'title'
p2
V2016 john deere 9620r 4wd tractors
p3
sS'url'
p4
S'http://www.ebay.com/itm/2016-John-Deere-9620R-4WD-Tractors-/162350403335?hash=item25ccd68f07:g:H9cAAOSwSlBYwPxo'
p5
sS'price'
p6
VUS $380,000.00
p7
sS'seller'
p8
(dp9
g4
Vhttp://www.ebay.com/usr/noteboomimplementjd?_trksid=p2047675.l2559
p10
sS'name'
p11
V noteboomimplementjd
p12
ssS'description_links'
p13
(lp14
Vhttp://vi.vipr.ebaydesc.com/ws/eBayISAPI.dll?ViewItemDescV4&item=162350403335&t=1495778073000&tid=10&category=91953&seller=noteboomimplementjd&excSoj=1&excTrk=1&lsite=0&ittenable=false&domain=ebay.com&descgauge=1
p15
asS'images'
p16
(lp17
(dp18
S'maxImageUrl'
p19
Vhttp://i.ebayimg.com/images/g/H9cAAOSwSlBYwPxo/s-l1600.jpg
p20
sS'displayImgUrl'
p21
Vhttp://i.ebayimg.com/images/g/H9cAAOSwSlBYwPxo/s-l300.jpg
p22
sasS'shipping_info'
p23
(dp24
S'item_location'
p25
(lp26
V\u000aLake Park, Iowa, United States
p27
asS'delivery'
p28
(lp29
VVaries
p30
asS'posts_to'
p31
(lp32
VLocal pick-up only
p33
assS'id'
p34
S'162350403335'
p35
s.