(dp1
S'title'
p2
V2015 john deere 9520rt track tractors
p3
sS'url'
p4
S'http://www.ebay.com/itm/2015-John-Deere-9520RT-Track-Tractors-/232331200382?hash=item361804c77e:g:wuQAAOSwZ4dZE~1R'
p5
sS'price'
p6
VUS $397,500.00
p7
sS'seller'
p8
(dp9
g4
Vhttp://www.ebay.com/usr/campbell_tractorco?_trksid=p2047675.l2559
p10
sS'name'
p11
V campbell_tractorco
p12
ssS'description_links'
p13
(lp14
Vhttp://vi.vipr.ebaydesc.com/ws/eBayISAPI.dll?ViewItemDescV4&item=232331200382&t=0&tid=10&category=91953&seller=campbell_tractorco&excSoj=1&excTrk=1&lsite=0&ittenable=false&domain=ebay.com&descgauge=1
p15
asS'images'
p16
(lp17
(dp18
S'maxImageUrl'
p19
Vhttp://i.ebayimg.com/images/g/wuQAAOSwZ4dZE~1R/s-l1600.jpg
p20
sS'displayImgUrl'
p21
Vhttp://i.ebayimg.com/images/g/wuQAAOSwZ4dZE~1R/s-l300.jpg
p22
sa(dp23
g19
Vhttp://i.ebayimg.com/images/g/DDAAAOSwONBZE~1R/s-l1600.jpg
p24
sg21
Vhttp://i.ebayimg.com/images/g/DDAAAOSwONBZE~1R/s-l300.jpg
p25
sa(dp26
g19
Vhttp://i.ebayimg.com/images/g/cqYAAOSwcgNZE~1Q/s-l1600.jpg
p27
sg21
Vhttp://i.ebayimg.com/images/g/cqYAAOSwcgNZE~1Q/s-l300.jpg
p28
sa(dp29
g19
Vhttp://i.ebayimg.com/images/g/IPoAAOSw0hlZE~1R/s-l1600.jpg
p30
sg21
Vhttp://i.ebayimg.com/images/g/IPoAAOSw0hlZE~1R/s-l300.jpg
p31
sa(dp32
g19
Vhttp://i.ebayimg.com/images/g/GI0AAOSwCQZZE~1R/s-l1600.jpg
p33
sg21
Vhttp://i.ebayimg.com/images/g/GI0AAOSwCQZZE~1R/s-l300.jpg
p34
sa(dp35
g19
Vhttp://i.ebayimg.com/images/g/PPIAAOSwH09ZE~1R/s-l1600.jpg
p36
sg21
Vhttp://i.ebayimg.com/images/g/PPIAAOSwH09ZE~1R/s-l300.jpg
p37
sa(dp38
g19
Vhttp://i.ebayimg.com/images/g/IPkAAOSw0hlZE~1Q/s-l1600.jpg
p39
sg21
Vhttp://i.ebayimg.com/images/g/IPkAAOSw0hlZE~1Q/s-l300.jpg
p40
sasS'shipping_info'
p41
(dp42
S'item_location'
p43
(lp44
V\u000aWendell, Idaho, United States
p45
asS'delivery'
p46
(lp47
VVaries
p48
asS'posts_to'
p49
(lp50
VLocal pick-up only
p51
assS'id'
p52
S'232331200382'
p53
s.