(dp1
S'title'
p2
V2016 john deere 8800 combines & harvesters
p3
sS'url'
p4
S'http://www.ebay.com/itm/2016-John-Deere-8800-Combines-Harvesters-/232362949647?hash=item3619e93c0f:g:wVwAAOSw~y9ZN5Xd'
p5
sS'price'
p6
VUS $595,000.00
p7
sS'seller'
p8
(dp9
g4
Vhttp://www.ebay.com/usr/campbell_tractorco?_trksid=p2047675.l2559
p10
sS'name'
p11
V campbell_tractorco
p12
ssS'description_links'
p13
(lp14
Vhttp://vi.vipr.ebaydesc.com/ws/eBayISAPI.dll?ViewItemDescV4&item=232362949647&t=0&tid=10&category=73094&seller=campbell_tractorco&excSoj=1&excTrk=1&lsite=0&ittenable=false&domain=ebay.com&descgauge=1
p15
asS'images'
p16
(lp17
(dp18
S'maxImageUrl'
p19
Vhttp://i.ebayimg.com/images/g/wVwAAOSw~y9ZN5Xd/s-l1600.jpg
p20
sS'displayImgUrl'
p21
Vhttp://i.ebayimg.com/images/g/wVwAAOSw~y9ZN5Xd/s-l300.jpg
p22
sa(dp23
g19
Vhttp://i.ebayimg.com/images/g/fZ0AAOSw0hlZN5Xd/s-l1600.jpg
p24
sg21
Vhttp://i.ebayimg.com/images/g/fZ0AAOSw0hlZN5Xd/s-l300.jpg
p25
sa(dp26
g19
Vhttp://i.ebayimg.com/images/g/EZ0AAOSwDiBZN5Xd/s-l1600.jpg
p27
sg21
Vhttp://i.ebayimg.com/images/g/EZ0AAOSwDiBZN5Xd/s-l300.jpg
p28
sa(dp29
g19
Vhttp://i.ebayimg.com/images/g/MAMAAOSwcB5ZN5Xd/s-l1600.jpg
p30
sg21
Vhttp://i.ebayimg.com/images/g/MAMAAOSwcB5ZN5Xd/s-l300.jpg
p31
sa(dp32
g19
Vhttp://i.ebayimg.com/images/g/tAcAAOSw42dZN5Xd/s-l1600.jpg
p33
sg21
Vhttp://i.ebayimg.com/images/g/tAcAAOSw42dZN5Xd/s-l300.jpg
p34
sa(dp35
g19
Vhttp://i.ebayimg.com/images/g/9gMAAOSw1WJZN5Xd/s-l1600.jpg
p36
sg21
Vhttp://i.ebayimg.com/images/g/9gMAAOSw1WJZN5Xd/s-l300.jpg
p37
sa(dp38
g19
Vhttp://i.ebayimg.com/images/g/OygAAOSwZ4dZN5Xd/s-l1600.jpg
p39
sg21
Vhttp://i.ebayimg.com/images/g/OygAAOSwZ4dZN5Xd/s-l300.jpg
p40
sa(dp41
g19
Vhttp://i.ebayimg.com/images/g/NmcAAOSwIQdZN5Xd/s-l1600.jpg
p42
sg21
Vhttp://i.ebayimg.com/images/g/NmcAAOSwIQdZN5Xd/s-l300.jpg
p43
sasS'shipping_info'
p44
(dp45
S'item_location'
p46
(lp47
V\u000aNampa, Idaho, United States
p48
asS'delivery'
p49
(lp50
VVaries
p51
asS'posts_to'
p52
(lp53
VLocal pick-up only
p54
assS'id'
p55
S'232362949647'
p56
s.