(dp1
S'title'
p2
VLeach Enterprises has a John Deere Riding Mower for Sale Online
p3
sS'url'
p4
Vhttp://www.ecrater.com/p/24959341/leach-enterprises-has-a-john-deere?keywords=deer
p5
sS'price'
p6
V$2,000.00
p7
sS'seller'
p8
Vhttp://michaelleachmystore.ecrater.com
p9
sS'description_links'
p10
VLeach Enterprises has a John Deere D130 V Twin Hydrostatic 42 in Riding Lawn Mower with Briggs & Stratton Engine and Mulchins Capability for Sale Online. Product# BG20714
p11
sS'images'
p12
(lp13
Vhttp://s.ecrater.com/stores/363616/577ab80e8805a_363616b.jpg
p14
asS'shipping_info'
p15
(lp16
VMore than 10 available
p17
aVShipping:US-Mainland: free(more destinations)
p18
aVCondition: Brand new
p19
asS'id'
p20
V24959341
p21
s.