(dp1
S'title'
p2
V2016 john deere 9620r 4wd tractors
p3
sS'url'
p4
S'http://www.ebay.com/itm/2016-John-Deere-9620R-4WD-Tractors-/262933582390?hash=item3d38101236:g:Z5YAAOSwhQhY7xHH'
p5
sS'price'
p6
VUS $439,900.00
p7
sS'seller'
p8
(dp9
g4
Vhttp://www.ebay.com/usr/greenironequipment?_trksid=p2047675.l2559
p10
sS'name'
p11
V greenironequipment
p12
ssS'description_links'
p13
(lp14
Vhttp://vi.vipr.ebaydesc.com/ws/eBayISAPI.dll?ViewItemDescV4&item=262933582390&t=1494136362000&tid=10&category=91953&seller=greenironequipment&excSoj=1&excTrk=1&lsite=0&ittenable=false&domain=ebay.com&descgauge=1
p15
asS'images'
p16
(lp17
(dp18
S'maxImageUrl'
p19
Vhttp://i.ebayimg.com/images/g/Z5YAAOSwhQhY7xHH/s-l1600.jpg
p20
sS'displayImgUrl'
p21
Vhttp://i.ebayimg.com/images/g/Z5YAAOSwhQhY7xHH/s-l300.jpg
p22
sa(dp23
g19
Vhttp://i.ebayimg.com/images/g/mIcAAOSwls5Y7cCG/s-l1600.jpg
p24
sg21
Vhttp://i.ebayimg.com/images/g/mIcAAOSwls5Y7cCG/s-l300.jpg
p25
sa(dp26
g19
Vhttp://i.ebayimg.com/images/g/qVoAAOSwc49Y7cCG/s-l1600.jpg
p27
sg21
Vhttp://i.ebayimg.com/images/g/qVoAAOSwc49Y7cCG/s-l300.jpg
p28
sa(dp29
g19
Vhttp://i.ebayimg.com/images/g/Wn0AAOSw4CFY7cCG/s-l1600.jpg
p30
sg21
Vhttp://i.ebayimg.com/images/g/Wn0AAOSw4CFY7cCG/s-l300.jpg
p31
sa(dp32
g19
Vhttp://i.ebayimg.com/images/g/1SsAAOSw~CFY7cCG/s-l1600.jpg
p33
sg21
Vhttp://i.ebayimg.com/images/g/1SsAAOSw~CFY7cCG/s-l300.jpg
p34
sa(dp35
g19
Vhttp://i.ebayimg.com/images/g/B1kAAOSww3tY7cCG/s-l1600.jpg
p36
sg21
Vhttp://i.ebayimg.com/images/g/B1kAAOSww3tY7cCG/s-l300.jpg
p37
sa(dp38
g19
Vhttp://i.ebayimg.com/images/g/Y6EAAOSwnF9Y7cCH/s-l1600.jpg
p39
sg21
Vhttp://i.ebayimg.com/images/g/Y6EAAOSwnF9Y7cCH/s-l300.jpg
p40
sasS'shipping_info'
p41
(dp42
S'item_location'
p43
(lp44
V\u000aNapoleon, North Dakota, United States
p45
asS'delivery'
p46
(lp47
VVaries
p48
asS'posts_to'
p49
(lp50
VLocal pick-up only
p51
assS'id'
p52
S'262933582390'
p53
s.