(dp1
S'title'
p2
V2016 john deere 9520r 4wd tractors
p3
sS'url'
p4
S'http://www.ebay.com/itm/2016-John-Deere-9520R-4WD-Tractors-/262933582381?hash=item3d3810122d:g:O0oAAOSwSypY-Ey6'
p5
sS'price'
p6
VUS $399,900.00
p7
sS'seller'
p8
(dp9
g4
Vhttp://www.ebay.com/usr/greenironequipment?_trksid=p2047675.l2559
p10
sS'name'
p11
V greenironequipment
p12
ssS'description_links'
p13
(lp14
Vhttp://vi.vipr.ebaydesc.com/ws/eBayISAPI.dll?ViewItemDescV4&item=262933582381&t=1492667573000&tid=10&category=91953&seller=greenironequipment&excSoj=1&excTrk=1&lsite=0&ittenable=false&domain=ebay.com&descgauge=1
p15
asS'images'
p16
(lp17
(dp18
S'maxImageUrl'
p19
Vhttp://i.ebayimg.com/images/g/O0oAAOSwSypY-Ey6/s-l1600.jpg
p20
sS'displayImgUrl'
p21
Vhttp://i.ebayimg.com/images/g/O0oAAOSwSypY-Ey6/s-l300.jpg
p22
sa(dp23
g19
Vhttp://i.ebayimg.com/images/g/g-UAAOSw3utY7cB6/s-l1600.jpg
p24
sg21
Vhttp://i.ebayimg.com/images/g/g-UAAOSw3utY7cB6/s-l300.jpg
p25
sa(dp26
g19
Vhttp://i.ebayimg.com/images/g/YagAAOSwnF9Y7cB7/s-l1600.jpg
p27
sg21
Vhttp://i.ebayimg.com/images/g/YagAAOSwnF9Y7cB7/s-l300.jpg
p28
sa(dp29
g19
Vhttp://i.ebayimg.com/images/g/YYkAAOSwnF9Y7cB6/s-l1600.jpg
p30
sg21
Vhttp://i.ebayimg.com/images/g/YYkAAOSwnF9Y7cB6/s-l300.jpg
p31
sa(dp32
g19
Vhttp://i.ebayimg.com/images/g/p54AAOSwc49Y7cB6/s-l1600.jpg
p33
sg21
Vhttp://i.ebayimg.com/images/g/p54AAOSwc49Y7cB6/s-l300.jpg
p34
sa(dp35
g19
Vhttp://i.ebayimg.com/images/g/WLAAAOSw4CFY7cB6/s-l1600.jpg
p36
sg21
Vhttp://i.ebayimg.com/images/g/WLAAAOSw4CFY7cB6/s-l300.jpg
p37
sa(dp38
g19
Vhttp://i.ebayimg.com/images/g/BDQAAOSwAANY7cB7/s-l1600.jpg
p39
sg21
Vhttp://i.ebayimg.com/images/g/BDQAAOSwAANY7cB7/s-l300.jpg
p40
sa(dp41
g19
Vhttp://i.ebayimg.com/images/g/EgcAAOSwrddY7cB6/s-l1600.jpg
p42
sg21
Vhttp://i.ebayimg.com/images/g/EgcAAOSwrddY7cB6/s-l300.jpg
p43
sasS'shipping_info'
p44
(dp45
S'item_location'
p46
(lp47
V\u000aEllendale, North Dakota, United States
p48
asS'delivery'
p49
(lp50
VVaries
p51
asS'posts_to'
p52
(lp53
VLocal pick-up only
p54
assS'id'
p55
S'262933582381'
p56
s.