(dp1
S'title'
p2
V2016 john deere 9620rx track tractors
p3
sS'url'
p4
S'http://www.ebay.com/itm/2016-John-Deere-9620RX-Track-Tractors-/263014232528?hash=item3d3cdeb1d0:g:SZ8AAOSwiOFZOjiW'
p5
sS'price'
p6
VUS $469,900.00
p7
sS'seller'
p8
(dp9
g4
Vhttp://www.ebay.com/usr/greenironequipment?_trksid=p2047675.l2559
p10
sS'name'
p11
V greenironequipment
p12
ssS'description_links'
p13
(lp14
Vhttp://vi.vipr.ebaydesc.com/ws/eBayISAPI.dll?ViewItemDescV4&item=263014232528&t=1496987795000&tid=10&category=91953&seller=greenironequipment&excSoj=1&excTrk=1&lsite=0&ittenable=false&domain=ebay.com&descgauge=1
p15
asS'images'
p16
(lp17
(dp18
S'maxImageUrl'
p19
Vhttp://i.ebayimg.com/images/g/SZ8AAOSwiOFZOjiW/s-l1600.jpg
p20
sS'displayImgUrl'
p21
Vhttp://i.ebayimg.com/images/g/SZ8AAOSwiOFZOjiW/s-l300.jpg
p22
sa(dp23
g19
Vhttp://i.ebayimg.com/images/g/RT8AAOSwBt5ZL6xB/s-l1600.jpg
p24
sg21
Vhttp://i.ebayimg.com/images/g/RT8AAOSwBt5ZL6xB/s-l300.jpg
p25
sa(dp26
g19
Vhttp://i.ebayimg.com/images/g/svsAAOSw1BlZOjiV/s-l1600.jpg
p27
sg21
Vhttp://i.ebayimg.com/images/g/svsAAOSw1BlZOjiV/s-l300.jpg
p28
sa(dp29
g19
Vhttp://i.ebayimg.com/images/g/EvUAAOSwCmZZOjiV/s-l1600.jpg
p30
sg21
Vhttp://i.ebayimg.com/images/g/EvUAAOSwCmZZOjiV/s-l300.jpg
p31
sa(dp32
g19
Vhttp://i.ebayimg.com/images/g/r2sAAOSwKflZOjiV/s-l1600.jpg
p33
sg21
Vhttp://i.ebayimg.com/images/g/r2sAAOSwKflZOjiV/s-l300.jpg
p34
sa(dp35
g19
Vhttp://i.ebayimg.com/images/g/PRQAAOSw6YtZOjiV/s-l1600.jpg
p36
sg21
Vhttp://i.ebayimg.com/images/g/PRQAAOSw6YtZOjiV/s-l300.jpg
p37
sa(dp38
g19
Vhttp://i.ebayimg.com/images/g/YOoAAOSwCkZZOjiV/s-l1600.jpg
p39
sg21
Vhttp://i.ebayimg.com/images/g/YOoAAOSwCkZZOjiV/s-l300.jpg
p40
sa(dp41
g19
Vhttp://i.ebayimg.com/images/g/aM8AAOSw3YJZOjiV/s-l1600.jpg
p42
sg21
Vhttp://i.ebayimg.com/images/g/aM8AAOSw3YJZOjiV/s-l300.jpg
p43
sa(dp44
g19
Vhttp://i.ebayimg.com/images/g/sj4AAOSwLsBZOjiV/s-l1600.jpg
p45
sg21
Vhttp://i.ebayimg.com/images/g/sj4AAOSwLsBZOjiV/s-l300.jpg
p46
sasS'shipping_info'
p47
(dp48
S'item_location'
p49
(lp50
V\u000aLaMoure, North Dakota, United States
p51
asS'delivery'
p52
(lp53
VVaries
p54
asS'posts_to'
p55
(lp56
VLocal pick-up only
p57
assS'id'
p58
S'263014232528'
p59
s.