(dp1
S'title'
p2
V2016 john deere s680 combines & harvesters
p3
sS'url'
p4
S'http://www.ebay.com/itm/2016-John-Deere-S680-Combines-Harvesters-/282348447815?hash=item41bd476847:g:Q5EAAOSwXYtYw58k'
p5
sS'price'
p6
VUS $399,500.00
p7
sS'seller'
p8
(dp9
g4
Vhttp://www.ebay.com/usr/vanwalljdequipment?_trksid=p2047675.l2559
p10
sS'name'
p11
V vanwalljdequipment
p12
ssS'description_links'
p13
(lp14
Vhttp://vi.vipr.ebaydesc.com/ws/eBayISAPI.dll?ViewItemDescV4&item=282348447815&t=1489215113000&tid=10&category=73094&seller=vanwalljdequipment&excSoj=1&excTrk=1&lsite=0&ittenable=false&domain=ebay.com&descgauge=1
p15
asS'images'
p16
(lp17
(dp18
S'maxImageUrl'
p19
Vhttp://i.ebayimg.com/images/g/Q5EAAOSwXYtYw58k/s-l1600.jpg
p20
sS'displayImgUrl'
p21
Vhttp://i.ebayimg.com/images/g/Q5EAAOSwXYtYw58k/s-l300.jpg
p22
sa(dp23
g19
Vhttp://i.ebayimg.com/images/g/M60AAOSwTM5Yw58k/s-l1600.jpg
p24
sg21
Vhttp://i.ebayimg.com/images/g/M60AAOSwTM5Yw58k/s-l300.jpg
p25
sa(dp26
g19
Vhttp://i.ebayimg.com/images/g/2sAAAOSwCU1Yw58k/s-l1600.jpg
p27
sg21
Vhttp://i.ebayimg.com/images/g/2sAAAOSwCU1Yw58k/s-l300.jpg
p28
sa(dp29
g19
Vhttp://i.ebayimg.com/images/g/09cAAOSwSlBYw58k/s-l1600.jpg
p30
sg21
Vhttp://i.ebayimg.com/images/g/09cAAOSwSlBYw58k/s-l300.jpg
p31
sa(dp32
g19
Vhttp://i.ebayimg.com/images/g/IzcAAOSwWxNYw58k/s-l1600.jpg
p33
sg21
Vhttp://i.ebayimg.com/images/g/IzcAAOSwWxNYw58k/s-l300.jpg
p34
sa(dp35
g19
Vhttp://i.ebayimg.com/images/g/08cAAOSw2gxYw58k/s-l1600.jpg
p36
sg21
Vhttp://i.ebayimg.com/images/g/08cAAOSw2gxYw58k/s-l300.jpg
p37
sasS'shipping_info'
p38
(dp39
S'item_location'
p40
(lp41
V\u000aDenison, Iowa, United States
p42
asS'delivery'
p43
(lp44
VVaries
p45
asS'posts_to'
p46
(lp47
VLocal pick-up only
p48
assS'id'
p49
S'282348447815'
p50
s.