(dp1
S'title'
p2
V2016 john deere s680 combines & harvesters
p3
sS'url'
p4
S'http://www.ebay.com/itm/2016-John-Deere-S680-Combines-Harvesters-/282348447816?hash=item41bd476848:g:-w8AAOSwCQZZCW~t'
p5
sS'price'
p6
VUS $385,000.00
p7
sS'seller'
p8
(dp9
g4
Vhttp://www.ebay.com/usr/vanwalljdequipment?_trksid=p2047675.l2559
p10
sS'name'
p11
V vanwalljdequipment
p12
ssS'description_links'
p13
(lp14
Vhttp://vi.vipr.ebaydesc.com/ws/eBayISAPI.dll?ViewItemDescV4&item=282348447816&t=1493790698000&tid=10&category=73094&seller=vanwalljdequipment&excSoj=1&excTrk=1&lsite=0&ittenable=false&domain=ebay.com&descgauge=1
p15
asS'images'
p16
(lp17
(dp18
S'maxImageUrl'
p19
Vhttp://i.ebayimg.com/images/g/-w8AAOSwCQZZCW~t/s-l1600.jpg
p20
sS'displayImgUrl'
p21
Vhttp://i.ebayimg.com/images/g/-w8AAOSwCQZZCW~t/s-l300.jpg
p22
sa(dp23
g19
Vhttp://i.ebayimg.com/images/g/AmMAAOSwR29ZCW~t/s-l1600.jpg
p24
sg21
Vhttp://i.ebayimg.com/images/g/AmMAAOSwR29ZCW~t/s-l300.jpg
p25
sa(dp26
g19
Vhttp://i.ebayimg.com/images/g/VkoAAOSwuMZZCW~t/s-l1600.jpg
p27
sg21
Vhttp://i.ebayimg.com/images/g/VkoAAOSwuMZZCW~t/s-l300.jpg
p28
sa(dp29
g19
Vhttp://i.ebayimg.com/images/g/pxoAAOSwtGlZCW~t/s-l1600.jpg
p30
sg21
Vhttp://i.ebayimg.com/images/g/pxoAAOSwtGlZCW~t/s-l300.jpg
p31
sa(dp32
g19
Vhttp://i.ebayimg.com/images/g/AmQAAOSwR29ZCW~t/s-l1600.jpg
p33
sg21
Vhttp://i.ebayimg.com/images/g/AmQAAOSwR29ZCW~t/s-l300.jpg
p34
sa(dp35
g19
Vhttp://i.ebayimg.com/images/g/KqYAAOSw~y9ZCW~t/s-l1600.jpg
p36
sg21
Vhttp://i.ebayimg.com/images/g/KqYAAOSw~y9ZCW~t/s-l300.jpg
p37
sa(dp38
g19
Vhttp://i.ebayimg.com/images/g/64wAAOSwcgNZCW~t/s-l1600.jpg
p39
sg21
Vhttp://i.ebayimg.com/images/g/64wAAOSwcgNZCW~t/s-l300.jpg
p40
sa(dp41
g19
Vhttp://i.ebayimg.com/images/g/OGUAAOSww9xZCW~t/s-l1600.jpg
p42
sg21
Vhttp://i.ebayimg.com/images/g/OGUAAOSww9xZCW~t/s-l300.jpg
p43
sa(dp44
g19
Vhttp://i.ebayimg.com/images/g/aMAAAOSwONBZCW~t/s-l1600.jpg
p45
sg21
Vhttp://i.ebayimg.com/images/g/aMAAAOSwONBZCW~t/s-l300.jpg
p46
sa(dp47
g19
Vhttp://i.ebayimg.com/images/g/oi0AAOSw7GRZCW~t/s-l1600.jpg
p48
sg21
Vhttp://i.ebayimg.com/images/g/oi0AAOSw7GRZCW~t/s-l300.jpg
p49
sasS'shipping_info'
p50
(dp51
S'item_location'
p52
(lp53
V\u000aNevada, Iowa, United States
p54
asS'delivery'
p55
(lp56
VVaries
p57
asS'posts_to'
p58
(lp59
VLocal pick-up only
p60
assS'id'
p61
S'282348447816'
p62
s.