(dp1
S'title'
p2
VGenuine Deer Leather Fringed Bag
p3
sS'url'
p4
Vhttp://www.glacierwear.com/genuine-deer-buckskin-bag-5750.html
p5
sS'price'
p6
V5.95
p7
sS'seller'
p8
(lp9
sS'description_links'
p10
VGenuine Deer Leather Fringed Bag- White Only
p11
sS'images'
p12
(lp13
Vhttp://www.glacierwear.com/media/catalog/product/cache/1/thumbnail/500x/17f82f742ffe127f42dca9de82fb58b1/b/a/bag_with_fringe.jpg
p14
asS'shipping_info'
p15
VFree Shipping on $100.00+
p16
sS'id'
p17
V5750_1497052075
p18
s.