(dp1
S'title'
p2
V\u000aFANHUA Fashion New Colorful Deer Printed Winter Wool Sc\u000a
p3
sS'url'
p4
Vhttp://www.ioffer.com/i/fanhua-fashion-new-colorful-deer-printed-winter-wool-sc-637209462
p5
sS'price'
p6
V$30.93
p7
sS'seller'
p8
(lp9
sS'description_links'
p10
VPattern Type: StripedDepartment Name: AdultScarves Type: ScarfStyle: FashionGender: WomenMaterial: Cotton,Polyester,WoolModel Number: FJ-SC-183Scarves Length: 135cm-175cmItem Type: ScarvesMaterial: MohairWeight: 290gSize: 194*36cmColor: black  white  red Colors: blue and red, blue and beige
p11
sS'images'
p12
(lp13
Vhttp://cdn.iofferphoto.com/img3/item/637/209/462/t_hhzffanhua-fashion-new-colorful-deer-printed-winter-wool-sc.jpg
p14
aVhttp://cdn.iofferphoto.com/img3/item/637/209/462/t_sSsyfanhua-fashion-new-colorful-deer-printed-winter-wool-sc.jpg
p15
asS'shipping_info'
p16
(lp17
sS'id'
p18
V637209462_1497052123
p19
s.