(dp1
S'title'
p2
VBarasingha - Swamp Deer
p3
sS'url'
p4
Vhttp://store.yahoo.com/yhst-66562580642243/barasingha--swamp-deer.html
p5
sS'price'
p6
(lp7
sS'seller'
p8
(lp9
sS'description_links'
p10
VBarasingha / Swamp Deer Photo Reference Cd
p11
sS'images'
p12
(lp13
Vhttp://ep.yimg.com/ca/I/yhst-66562580642243_2251_77663278
p14
asS'shipping_info'
p15
(lp16
sS'id'
p17
Vbarasingha--swamp-deer_1497052085
p18
s.