(dp1
S'title'
p2
VWhite Tailed Deer Antler PAIR-M
p3
sS'url'
p4
Vhttp://www.boneroom.com/store/p3140/White_Tailed_Deer_Antler_PAIR-M.html
p5
sS'price'
p6
V$120.00
p7
sS'seller'
p8
(lp9
sS'description_links'
p10
VPair of antlers from same specimenOdocoileus virginianus
p11
sS'images'
p12
(lp13
Vhttp://www.boneroom.com//uploads/4/8/1/1/48118243/s521972503441136676_p3140_i1_w640.jpeg
p14
asS'shipping_info'
p15
(lp16
sS'id'
p17
Vp3140_1497052138
p18
s.