(dp1
S'title'
p2
VPaired Roe Deer Antlers
p3
sS'url'
p4
Vhttp://www.boneroom.com/store/p3180/Paired_Roe_Deer_Antlers_.html
p5
sS'price'
p6
V$25.00
p7
sS'seller'
p8
(lp9
sS'description_links'
p10
VCapreolus capreolus
p11
sS'images'
p12
(lp13
Vhttp://www.boneroom.com//uploads/4/8/1/1/48118243/s521972503441136676_p3180_i1_w640.jpeg
p14
asS'shipping_info'
p15
(lp16
sS'id'
p17
Vp3180_1497052158
p18
s.