(dp1
S'title'
p2
VPere David's Deer
p3
sS'url'
p4
Vhttp://store.yahoo.com/yhst-66562580642243/pere-david39s-de39.html
p5
sS'price'
p6
(lp7
sS'seller'
p8
(lp9
sS'description_links'
p10
VPere David's Deer Photo Reference Cd
p11
sS'images'
p12
(lp13
Vhttp://ep.yimg.com/ca/I/yhst-66562580642243_2251_128936100
p14
asS'shipping_info'
p15
(lp16
sS'id'
p17
Vpere-david39s-de39_1497052096
p18
s.