(dp1
S'title'
p2
VMassive Gem Unc Cook Islands 2004 Dollar~D Day Invasion Anniversary~Free Ship
p3
sS'url'
p4
Vhttp://www.ecrater.com/p/20576466/massive-gem-unc-cook-islands-2004?keywords=invasive
p5
sS'price'
p6
V$23.79
p7
sS'seller'
p8
Vhttp://coin5555.ecrater.com
p9
sS'description_links'
p10
VCOIN5555 U.S. AND FOREIGN RARE COINS~SPECIAL OFFERING~* MASSIVE, GEM UNCIRCULATED COOK ISLANDS 2004 DOLLAR, THE SUBJECT OF THIS COIN IS THE 60TH ANNIVERSARY OF THE D-DAY INVASION. THIS IS A GREAT INVESTMENT AND AN EXCELLENT EXAMPLE ANDA SPECTACULAR PROBLEM FREE COIN, SURE TO PLEASE EVEN THE MOST DISCRIMINATING COLLECTOR.* FREE DOMESTIC SHIPPING* HANDLED WITH WHITE CLOTH GLOVES AND PACKAGED IN A 2X2 COIN PROTECTION HOLDER.* YOUR SATISFACTION WITH THIS ITEM IS GUARANTEED OR YOUR MONEY BACK*SEARCH OUR E-BAY STORE OR VISIT US FOR A VAST SELECTION OFPROOF FOREIGN COINSAND THOUSANDS OF OTHER COINS AND NOTES, WE ARE GEARED TO SERVICEBOTH DEALERS ANDCOLLECTORS ALIKE.~NEWS FOR OUR CUSTOMERS~WELISTENED TO OUR CUSTOMERSTHATSAID THAT BETWEEN OUR E-BAY product STYLE LISTINGS, E-BAY STORE, AND OUR WEBSITE THAT THERE ARE THOUSANDS OF ITEMS THAT THEY WANT TOLOOK AT, YOU ASKED FOR MORE TIME SO YOU MAY COMBINE ITEMS BEFORE PAYING YOUR INVOICE, OUR ANSWER IS THAT ALL CUSTOMERSMAY WAIT UP TO 3 WEEKS FROM THEIR ORIGINAL PURCHASE BEFORE PAYING THE INVOICE. SO SIT BACK AND RELAX, BROWSE THRU OUR ITEMS, TAKE YOUR TIME AND FILL OUT YOUR COLLECTION WITH OUT THE WORRY OF HAVING TO CHECK OUT RIGHT AWAY UNTIL YOUR READY.~SHIPPING~* WESHIP FAST AS OURCUSTOMERS KNOW, INMOST CASES YOUR ORDER WILL BE COMPLETELY PROCESSED AND ON THE WAY TO YOU WITHIN 1 BUSINESS DAY.* WE ARE PROFESSIONALS AND HANDLE YOUR ITEMS WITH EXTREME CARE, SECURE PACKAGING IS OUR STANDARD.*INTERNATIONAL ORDERS ARE SHIPPED EITHER 1ST CLASS INTERNATIONAL OR GLOBAL PRIORITY MAIL.~PAYMENT~* WE ACCEPT ALL MAJOR CREDIT CARDS THRU PAYPAL.~ABOUT US~* WE ARE SELLERS WITH 100% FEEDBACK, YOUR SATISFACTION IS GUARANTEED. THANK YOU AND GOOD LUCK.Powered by eCRATER . List your items fast and easy and manage your active items.
p11
sS'images'
p12
(lp13
Vhttp://s.ecrater.com/stores/342288/540ffcdea77c1_342288b.jpg
p14
asS'shipping_info'
p15
(lp16
VOnly 1 available
p17
aVShipping:US-Mainland: free(more destinations)
p18
aVCondition: Used
p19
asS'id'
p20
V20576466
p21
s.