(dp1
S'title'
p2
VDirty Diana Tie - Invasion V
p3
sS'url'
p4
Vhttp://www.ecrater.com/p/25071540/dirty-diana-tie-invasion-v?keywords=invasive
p5
sS'price'
p6
V$22.75
p7
sS'seller'
p8
Vhttp://topties.ecrater.com
p9
sS'description_links'
p10
VWelcome to my shop! Here you will find unique ties, not available anywhere else.The ties are made one by one, by request. So, it take time to get at your home. I do my best to make them soon, anyway, it could take 10 to 15 days to produce the tie and a week to get there. If you can wait, you will get an awesome and unique tie.In our catalog you will find the most diverse ties categories: characters, music bands, movies, series, celebrities, cars, retro, horror, etc! We also have a special service: we make ties with your favorite character, for your event, with its own logo, etc...! I send to all over the world. I take paypal payments. Visit out catalog and enjoy!!!
p11
sS'images'
p12
(lp13
sS'shipping_info'
p14
(lp15
V10 available
p16
aVShipping:US-Mainland: $9.50(more destinations)
p17
aVCondition: Brand new
p18
asS'id'
p19
V25071540
p20
s.