(dp1
S'title'
p2
VLEGO 7775 Aquabase Invasion - Aquaraiders
p3
sS'url'
p4
Vhttp://www.ecrater.com/p/3142647/lego-7775-aquabase-invasion-aquaraiders?keywords=invasive
p5
sS'price'
p6
V$165.00
p7
sS'seller'
p8
Vhttp://cosmicray.ecrater.com
p9
sS'description_links'
p10
VContains 840 LEGO elements, including 5 figures. This set was released in 2007. New & Sealed.Contains small parts. Not intended for children under 3 years.Manufacturers suggested age range: 8-14This item ships separate from other items in your order.
p11
sS'images'
p12
(lp13
Vhttp://s.ecrater.com/stores/31594/51acd5ea6dcb9_31594b.jpg
p14
asS'shipping_info'
p15
(lp16
VOnly 1 available
p17
aVShipping:USPS calculated - check
p18
aVSales Tax: Florida: 7%
p19
aVCondition: Brand new
p20
asS'id'
p21
V3142647
p22
s.