(dp1
S'title'
p2
V\u000aMETALLICA rare INVASION U.K. IMPORT CD 1992 LIVE 12trk\u000a
p3
sS'url'
p4
Vhttp://www.ioffer.com/i/metallica-rare-invasion-u-k-import-cd-1992-live-12trk-598694366
p5
sS'price'
p6
V$50.00
p7
sS'seller'
p8
(lp9
sS'description_links'
p10
VCD is an original IMPORT - CD contains 12 live tracks - CD and inserts are in very good conditionno cutouts or promo marks
p11
sS'images'
p12
(lp13
Vhttp://cdn.iofferphoto.com/img3/item/598/694/366/t_metallica-rare-invasion-u-k-import-cd-1992-live-12trk-6219.jpg
p14
aVhttp://cdn.iofferphoto.com/img3/item/598/694/366/t_metallica-rare-invasion-u-k-import-cd-1992-live-12trk-1a0d.jpg
p15
asS'shipping_info'
p16
VEstimated Shipping1 - 3 Days
p17
sS'id'
p18
V598694366_1497080507
p19
s.