(dp1
S'title'
p2
V\u000aHarper, Valerie Photo Signed Autograph An Invasion Of P\u000a
p3
sS'url'
p4
Vhttp://www.ioffer.com/i/harper-valerie-photo-signed-autograph-an-invasion-of-p-617126244
p5
sS'price'
p6
V$208.00
p7
sS'seller'
p8
(lp9
sS'description_links'
p10
VTHIS IS AN AUTHENTICALLY AUTOGRAPHED PHOTO BY VALERIE HARPER.. THIS IS A 7 INCH BY 9 INCH BLACK AND WHITE PHOTO BY VALERIE HARPER FROM THE 1985 RELEASED AN INVASION OF PRIVACY. HAS A TYPED AND DATED BYLINE ON CBS STATIONARY EXPLAINING PHOTO AND GIVING DATE OF BROADCAST. CONDITION OF THE PHOTO AND AUTOGRAPH IS EXCELLENT. Valerie Harper (born August 22, 1940) is an Emmy Award-winning American actress, best known for her role as Rhoda Morgenstern on the 1970s television show The Mary Tyler Moore Show, and its spin-off, Rhoda.
p11
sS'images'
p12
(lp13
Vhttp://cdn.iofferphoto.com/img3/item/617/126/244/t_5J5Fharper-valerie-photo-signed-autograph-an-invasion-of-p.jpg
p14
aVhttp://cdn.iofferphoto.com/img3/item/617/126/244/t_nOpvharper-valerie-photo-signed-autograph-an-invasion-of-p.jpg
p15
aVhttp://cdn.iofferphoto.com/img3/item/617/126/244/t_6hCIharper-valerie-photo-signed-autograph-an-invasion-of-p.jpg
p16
asS'shipping_info'
p17
(lp18
sS'id'
p19
V617126244_1497080483
p20
s.