(dp1
S'title'
p2
V\u000aXelement Invasion Men's Red/Black Mesh Armored Motorcyc\u000a
p3
sS'url'
p4
Vhttp://www.ioffer.com/i/xelement-invasion-men-s-red-black-mesh-armored-motorcyc-631560033
p5
sS'price'
p6
V$104.90
p7
sS'seller'
p8
(lp9
sS'description_links'
p10
V
sS'images'
p11
(lp12
Vhttp://cdn.iofferphoto.com/img/item/631/560/033/t_CSLfxelement-invasion-men-s-red-black-mesh-armored-motorcyc.jpg
p13
aVhttp://cdn.iofferphoto.com/img/item/631/560/033/t_IwuFxelement-invasion-men-s-red-black-mesh-armored-motorcyc.jpg
p14
aVhttp://cdn.iofferphoto.com/img/item/631/560/033/t_Z1idxelement-invasion-men-s-red-black-mesh-armored-motorcyc.jpg
p15
aVhttp://cdn.iofferphoto.com/img/item/631/560/033/t_TjUVxelement-invasion-men-s-red-black-mesh-armored-motorcyc.jpg
p16
aVhttp://cdn.iofferphoto.com/img/item/631/560/033/t_v62uxelement-invasion-men-s-red-black-mesh-armored-motorcyc.jpg
p17
asS'shipping_info'
p18
(lp19
sS'id'
p20
V631560033_1497080495
p21
s.