(dp1
S'title'
p2
V\u000aGERMAN D-DAY INVASION CD MANUALON U.S.ARMY FORCES NEW W\u000a
p3
sS'url'
p4
Vhttp://www.ioffer.com/i/german-d-day-invasion-cd-manualon-u-s-army-forces-new-w-637743519
p5
sS'price'
p6
V$24.97
p7
sS'seller'
p8
(lp9
sS'description_links'
p10
V
sS'images'
p11
(lp12
Vhttp://cdn.iofferphoto.com/img/item/637/743/519/t_2Jdlgerman-d-day-invasion-cd-manualon-u-s-army-forces-new-w.jpg
p13
aVhttp://cdn.iofferphoto.com/img/item/637/743/519/t_HGdZgerman-d-day-invasion-cd-manualon-u-s-army-forces-new-w.jpg
p14
aVhttp://cdn.iofferphoto.com/img/item/637/743/519/t_WazLgerman-d-day-invasion-cd-manualon-u-s-army-forces-new-w.jpg
p15
aVhttp://cdn.iofferphoto.com/img/item/637/743/519/t_6jMegerman-d-day-invasion-cd-manualon-u-s-army-forces-new-w.jpg
p16
aVhttp://cdn.iofferphoto.com/img/item/637/743/519/t_Xdtrgerman-d-day-invasion-cd-manualon-u-s-army-forces-new-w.jpg
p17
aVhttp://cdn.iofferphoto.com/img/item/637/743/519/t_S3Xrgerman-d-day-invasion-cd-manualon-u-s-army-forces-new-w.jpg
p18
aVhttp://cdn.iofferphoto.com/img/item/637/743/519/t_9Rj5german-d-day-invasion-cd-manualon-u-s-army-forces-new-w.jpg
p19
aVhttp://cdn.iofferphoto.com/img/item/637/743/519/t_tIY9german-d-day-invasion-cd-manualon-u-s-army-forces-new-w.jpg
p20
aVhttp://cdn.iofferphoto.com/img/item/637/743/519/t_kSNigerman-d-day-invasion-cd-manualon-u-s-army-forces-new-w.jpg
p21
aVhttp://cdn.iofferphoto.com/img/item/637/743/519/t_9RK9german-d-day-invasion-cd-manualon-u-s-army-forces-new-w.jpg
p22
aVhttp://cdn.iofferphoto.com/img/item/637/743/519/t_IgB3german-d-day-invasion-cd-manualon-u-s-army-forces-new-w.jpg
p23
aVhttp://cdn.iofferphoto.com/img/item/637/743/519/t_PqBZgerman-d-day-invasion-cd-manualon-u-s-army-forces-new-w.jpg
p24
asS'shipping_info'
p25
(lp26
sS'id'
p27
V637743519_1497080518
p28
s.