(dp1
S'title'
p2
VAir Bladder x4 NM Nemesis Magic the Gathering
p3
sS'url'
p4
Vhttp://www.ecrater.com/p/23623705/air-bladder-x4-nm-nemesis?keywords=air+bladder
p5
sS'price'
p6
V$0.20
p7
sS'seller'
p8
Vhttp://43rdstreetcomicscards.ecrater.com
p9
sS'description_links'
p10
VAir Bladder x4 NM Nemesis Magic the GatheringActual Cards in picture
p11
sS'images'
p12
(lp13
Vhttp://s.ecrater.com/stores/363207/562977888ddb2_363207b.jpg
p14
asS'shipping_info'
p15
(lp16
VOnly 1 available
p17
aVShipping:US-Mainland: $2.75(more destinations)
p18
aVSales Tax: Florida: 7%
p19
aVCondition: Used
p20
asS'id'
p21
V23623705
p22
s.