(dp1
S'title'
p2
Voil air type bladder size 11 hydro-pneumatic accumalator *new no box*
p3
sS'url'
p4
S'http://www.ebay.com/itm/OIL-AIR-TYPE-BLADDER-SIZE-11-HYDRO-PNEUMATIC-ACCUMALATOR-NEW-NO-BOX-/311709002493?hash=item48934deafd:g:2WAAAOSw5cNYXKJC'
p5
sS'price'
p6
VUS $875.00
p7
sS'seller'
p8
(dp9
g4
Vhttp://www.ebay.com/usr/mroglobalsolutions?_trksid=p2047675.l2559
p10
sS'name'
p11
V mroglobalsolutions
p12
ssS'description_links'
p13
(lp14
Vhttp://vi.vipr.ebaydesc.com/ws/eBayISAPI.dll?ViewItemDescV4&item=311709002493&t=1482465850000&tid=10&category=181708&seller=mroglobalsolutions&excSoj=1&excTrk=1&lsite=0&ittenable=false&domain=ebay.com&descgauge=1
p15
asS'images'
p16
(lp17
(dp18
S'maxImageUrl'
p19
Vhttp://i.ebayimg.com/images/g/2WAAAOSw5cNYXKJC/s-l1600.jpg
p20
sS'displayImgUrl'
p21
Vhttp://i.ebayimg.com/images/g/2WAAAOSw5cNYXKJC/s-l300.jpg
p22
sa(dp23
g19
Vhttp://i.ebayimg.com/images/g/gnYAAOSwA3dYXKJC/s-l1600.jpg
p24
sg21
Vhttp://i.ebayimg.com/images/g/gnYAAOSwA3dYXKJC/s-l300.jpg
p25
sa(dp26
g19
Vhttp://i.ebayimg.com/images/g/Pf0AAOSwJ7RYXKJC/s-l1600.jpg
p27
sg21
Vhttp://i.ebayimg.com/images/g/Pf0AAOSwJ7RYXKJC/s-l300.jpg
p28
sa(dp29
g19
Vhttp://i.ebayimg.com/images/g/JD4AAOSwa~BYXKJC/s-l1600.jpg
p30
sg21
Vhttp://i.ebayimg.com/images/g/JD4AAOSwa~BYXKJC/s-l300.jpg
p31
sa(dp32
g19
Vhttp://i.ebayimg.com/images/g/gm0AAOSwA3dYXKJB/s-l1600.jpg
p33
sg21
Vhttp://i.ebayimg.com/images/g/gm0AAOSwA3dYXKJB/s-l300.jpg
p34
sasS'shipping_info'
p35
(dp36
S'item_location'
p37
(lp38
V\u000aKnoxville, Tennessee, United States
p39
asS'delivery'
p40
(lp41
VVaries
p42
asS'posts_to'
p43
(lp44
VWorldwide
p45
assS'id'
p46
S'311709002493'
p47
s.