(dp1
S'title'
p2
V\u000aMen's wear mink fur genuine leather gold ermine bladder\u000a
p3
sS'url'
p4
Vhttp://www.ioffer.com/i/men-s-wear-mink-fur-genuine-leather-gold-ermine-bladder-596667244
p5
sS'price'
p6
V$1,213.10
p7
sS'seller'
p8
(lp9
sS'description_links'
p10
VS: Bust 108 cm dress length 70 cm Shoulder 45 cm Sleeve 64 cmM: Bust 112 cm dress length 71 cm Shoulder 47 cm Sleeve 65 cmL: Bust 116 cm dress length 72 cm Shoulder 48 cm Sleeve 66 cmXL: Bust 120 cm dress length 73 cm Shoulder 50 cm Sleeve 67 cmXXL: Bust 124 cm dress length 74 cm Shoulder 51 cm Sleeve 68 cm3XL: Bust 128 cm dress length 75 cm Shoulder 53 cm Sleeve 69 cm4XL: Bust 132 cm dress length 76 cm Shoulder 54 cm Sleeve 70 cm accept paypal payment and western union payment.It is FREE SHIPPING via Air Mail to ship the item to you, and it may take 20-30 days for delivery.Please feel free to contact me if you have any questions. Thanks for your visiting!
p11
sS'images'
p12
(lp13
Vhttp://cdn.iofferphoto.com/img/item/596/667/244/t_men-s-wear-mink-fur-genuine-leather-gold-ermine-bladder-4573.jpg
p14
aVhttp://cdn.iofferphoto.com/img/item/596/667/244/t_men-s-wear-mink-fur-genuine-leather-gold-ermine-bladder-928a.jpg
p15
aVhttp://cdn.iofferphoto.com/img/item/596/667/244/t_men-s-wear-mink-fur-genuine-leather-gold-ermine-bladder-166b.jpg
p16
aVhttp://cdn.iofferphoto.com/img/item/596/667/244/t_men-s-wear-mink-fur-genuine-leather-gold-ermine-bladder-1405.jpg
p17
asS'shipping_info'
p18
VAvailable ColorsAvailable SizesSizesSmallMediumLargeX-LargeXXL3XL4XLS: bust 108 cm dress length 70 cm shoulder 45 cm sleeve 64 cm m: bust 112 cm dress length 71 cm shoulder 47 cm sleeve 65 cm l: bust 116 cm dress length 72 cm shoulder 48 cm sleeve 66 cm xl: bust 120 cm dress length 73 cm shoulder 50 cm sleeve 67 cm xxl: bMink FurEstimated Shipping1 - 3 Days
p19
sS'id'
p20
V596667244_1497083582
p21
s.