(dp1
S'title'
p2
V\u000aNEW NIKE AIR HUARACHE SNEAKERS MEN'S RUNNING SHOES\u000a
p3
sS'url'
p4
Vhttp://www.ioffer.com/i/new-nike-air-huarache-sneakers-men-s-running-shoes-622503281
p5
sS'price'
p6
V$39.00
p7
sS'seller'
p8
(lp9
sS'description_links'
p10
VAbout size: Please choose European size. for example if you wear 41. please choose 41, don't choose UK USA AND JAPAN SIZE, if not, The shoes won't fit you. All items are High quality, It's worth every penny of it. You get what you pay for. I am a honest Seller on ioffer, Tracking No. would be provided after shipping, you can track your order online anytime. Payment: Credit card and MoneyGraml and Western union Shipping Way 1: EMS,sometimes 7-10 business days need add some money Shipping Way 2: China post air, usually delivery time 14 - 25 business days
p11
sS'images'
p12
(lp13
Vhttp://cdn.iofferphoto.com/img/item/622/503/281/t_new-nike-air-huarache-sneakers-men-s-running-shoes-7043.jpg
p14
aVhttp://cdn.iofferphoto.com/img/item/622/503/281/t_new-nike-air-huarache-sneakers-men-s-running-shoes-4763.jpg
p15
aVhttp://cdn.iofferphoto.com/img/item/622/503/281/t_new-nike-air-huarache-sneakers-men-s-running-shoes-a7e4.jpg
p16
aVhttp://cdn.iofferphoto.com/img/item/622/503/281/t_new-nike-air-huarache-sneakers-men-s-running-shoes-fe4a.jpg
p17
aVhttp://cdn.iofferphoto.com/img/item/622/503/281/t_new-nike-air-huarache-sneakers-men-s-running-shoes-9052.jpg
p18
aVhttp://cdn.iofferphoto.com/img/item/622/503/281/t_new-nike-air-huarache-sneakers-men-s-running-shoes-76ae.jpg
p19
aVhttp://cdn.iofferphoto.com/img/item/622/503/281/t_new-nike-air-huarache-sneakers-men-s-running-shoes-65cb.jpg
p20
asS'shipping_info'
p21
VAvailable ColorsAvailable SizesMen's Shoe SizesUSA6789101112UK5.56.57.58.59.510.511.5European39404142434445Japan24252627282930Eur size stock:Eur39, Eur40,  Eur41,  Eur42,  Eur43,  Eur44, and  And Eur45Estimated Shipping1 - 3 Days
p22
sS'id'
p23
V622503281_1497083578
p24
s.