(dp1
S'title'
p2
V\u000a2017 NEW MEN'S WOMEN'S WEST SNEAKERS RUNNING AIR SHOES\u000a
p3
sS'url'
p4
Vhttp://www.ioffer.com/i/2017-new-men-s-women-s-west-sneakers-running-air-shoes-631886267
p5
sS'price'
p6
V$31.00
p7
sS'seller'
p8
(lp9
sS'description_links'
p10
VPlease note! ! !please tell me men size or women size\uff01\uff01 Welcome visit in my shop! Great items Please don't miss it . All pictures are our own pictures, what you see that what you will get!  Color: same picture With all color Free choice of color and size,  In order to reduce the freight cost for you, usually don't shipping box, If need the box, please  let me know. Thank you very much! Payment 1. Payment methods accepted : with the third party credit card companies . 2. Please select visa or Mastercard payment,( Credit Card - King365Pay )  Shipping:  1. We Ship to Worldwide. 2. We ship your orders within 1-2 business days after the payment cleared. 3. Item shipped from China Post Airmail, Only USA will with first EMS 8-15days arrive.  Other reach most of the countries within 15 to 28 days. 4. Delivery time depends on destination and other factors, it may takes up to 30 days. If  you don't receive the item after 35 days,please contact us, we'll investigate and solve the  delivery problem.  Return Policy: 100% satisfaction guaranteed, If you with any not satisfied of buy . please first contact  us, I will guarantee give a 100% Satisfied reply to you.  About US: We maintain high standards of excellence and strive for 100% customer satisfaction! If  satisfied the items and our services please give the 5+++++ Feedback to me . That can  increase our faith , Prompted me to provide better service in the future. Feedback is very  important to us. We request that you contact us immediately BEFORE you give us neutral or  negative feedback, so that we can satisfactorily address your concerns. It is impossible to address issues if we do not know about them!  Contact us:  If have any questions please not hesitate to contact us , we will provide a satisfactory  answer to you within 12 hours, We will create a pleasant shopping experience for you.\u3000 Your Satisfaction, Our Pursuit.
p11
sS'images'
p12
(lp13
Vhttp://cdn.iofferphoto.com/img/item/631/886/267/t_2017-new-men-s-women-s-west-sneakers-running-air-shoes-03fc.jpg
p14
aVhttp://cdn.iofferphoto.com/img/item/631/886/267/t_2017-new-men-s-women-s-west-sneakers-running-air-shoes-5f7a.jpg
p15
aVhttp://cdn.iofferphoto.com/img/item/631/886/267/t_2017-new-men-s-women-s-west-sneakers-running-air-shoes-dac5.jpg
p16
aVhttp://cdn.iofferphoto.com/img/item/631/886/267/t_2017-new-men-s-women-s-west-sneakers-running-air-shoes-d899.jpg
p17
aVhttp://cdn.iofferphoto.com/img/item/631/886/267/t_2017-new-men-s-women-s-west-sneakers-running-air-shoes-dfa7.jpg
p18
aVhttp://cdn.iofferphoto.com/img/item/631/886/267/t_2017-new-men-s-women-s-west-sneakers-running-air-shoes-7f66.jpg
p19
aVhttp://cdn.iofferphoto.com/img/item/631/886/267/t_2017-new-men-s-women-s-west-sneakers-running-air-shoes-f3c3.jpg
p20
aVhttp://cdn.iofferphoto.com/img/item/631/886/267/t_2017-new-men-s-women-s-west-sneakers-running-air-shoes-f5f0.jpg
p21
aVhttp://cdn.iofferphoto.com/img/item/631/886/267/t_2017-new-men-s-women-s-west-sneakers-running-air-shoes-cd17.jpg
p22
aVhttp://cdn.iofferphoto.com/img/item/631/886/267/t_2017-new-men-s-women-s-west-sneakers-running-air-shoes-04c9.jpg
p23
aVhttp://cdn.iofferphoto.com/img/item/631/886/267/t_2017-new-men-s-women-s-west-sneakers-running-air-shoes-e256.jpg
p24
aVhttp://cdn.iofferphoto.com/img/item/631/886/267/t_2017-new-men-s-women-s-west-sneakers-running-air-shoes-01af.jpg
p25
aVhttp://cdn.iofferphoto.com/img/item/631/886/267/t_2017-new-men-s-women-s-west-sneakers-running-air-shoes-d7b1.jpg
p26
aVhttp://cdn.iofferphoto.com/img/item/631/886/267/t_2017-new-men-s-women-s-west-sneakers-running-air-shoes-7ad2.jpg
p27
aVhttp://cdn.iofferphoto.com/img/item/631/886/267/t_2017-new-men-s-women-s-west-sneakers-running-air-shoes-4ea0.jpg
p28
aVhttp://cdn.iofferphoto.com/img/item/631/886/267/t_2017-new-men-s-women-s-west-sneakers-running-air-shoes-9abb.jpg
p29
aVhttp://cdn.iofferphoto.com/img/item/631/886/267/t_2017-new-men-s-women-s-west-sneakers-running-air-shoes-12cd.jpg
p30
aVhttp://cdn.iofferphoto.com/img/item/631/886/267/t_2017-new-men-s-women-s-west-sneakers-running-air-shoes-9e60.jpg
p31
asS'shipping_info'
p32
VAvailable ColorsAvailable SizesWomen's Shoe SizesUSA4.55.56.57.58.59.51010.511.512.513.5UK2.53.54.55.56.57.588.59.510.511.5European35363738394041.542434445Japan20.521.522.524.525.526.52727.528.529.530.5Estimated Shipping15 - 20 Days
p33
sS'id'
p34
V631886267_1497083565
p35
s.