(dp1
S'title'
p2
V\u000a2017 NEW MEN'S WOMEN'S WEST SNEAKERS RUNNING AIR SHOES\u000a
p3
sS'url'
p4
Vhttp://www.ioffer.com/i/2017-new-men-s-women-s-west-sneakers-running-air-shoes-631887569
p5
sS'price'
p6
V$23.99
p7
sS'seller'
p8
(lp9
sS'description_links'
p10
Vpayment:1: when you order pls choose king365pay or Visa and mastercard payment.2: Western unionshipping:When I send parcel, you will get effective tracking number, Usually need 15-22 Working days arrived!Welcome to retail and wholesaleYou can mix any items from my store togetherHigh quality; Competitive price; Fast shipping; Combine shipping available; Best and TimelyService; 100% Satisfaction; Big discount for big orderCOLOUR: as the pictureShipping:We will send your items during 30 hours after paymentnotice, we mark all parcel as "gift" with lower value, so you noneed to pay customs tax. we send items via AIRMAIL (FREE SHIPPING), You can receive theitem in about 15-25 days.Since your feedback is very important to our business development,we sincerely invite you to leave positive feedback for us if you aresatisfied with our product and service. Itl just take you 1 minute.Thank you!
p11
sS'images'
p12
(lp13
Vhttp://cdn.iofferphoto.com/img3/item/631/887/569/t_2017-new-men-s-women-s-west-sneakers-running-air-shoes-577a.jpg
p14
aVhttp://cdn.iofferphoto.com/img3/item/631/887/569/t_2017-new-men-s-women-s-west-sneakers-running-air-shoes-296e.jpg
p15
aVhttp://cdn.iofferphoto.com/img3/item/631/887/569/t_2017-new-men-s-women-s-west-sneakers-running-air-shoes-91ac.jpg
p16
aVhttp://cdn.iofferphoto.com/img3/item/631/887/569/t_2017-new-men-s-women-s-west-sneakers-running-air-shoes-2a65.jpg
p17
aVhttp://cdn.iofferphoto.com/img3/item/631/887/569/t_2017-new-men-s-women-s-west-sneakers-running-air-shoes-5cf6.jpg
p18
aVhttp://cdn.iofferphoto.com/img3/item/631/887/569/t_2017-new-men-s-women-s-west-sneakers-running-air-shoes-01de.jpg
p19
aVhttp://cdn.iofferphoto.com/img3/item/631/887/569/t_2017-new-men-s-women-s-west-sneakers-running-air-shoes-17a4.jpg
p20
aVhttp://cdn.iofferphoto.com/img3/item/631/887/569/t_2017-new-men-s-women-s-west-sneakers-running-air-shoes-1a75.jpg
p21
aVhttp://cdn.iofferphoto.com/img3/item/631/887/569/t_2017-new-men-s-women-s-west-sneakers-running-air-shoes-58a0.jpg
p22
aVhttp://cdn.iofferphoto.com/img3/item/631/887/569/t_2017-new-men-s-women-s-west-sneakers-running-air-shoes-9580.jpg
p23
aVhttp://cdn.iofferphoto.com/img3/item/631/887/569/t_2017-new-men-s-women-s-west-sneakers-running-air-shoes-ffb4.jpg
p24
aVhttp://cdn.iofferphoto.com/img3/item/631/887/569/t_2017-new-men-s-women-s-west-sneakers-running-air-shoes-5d37.jpg
p25
aVhttp://cdn.iofferphoto.com/img3/item/631/887/569/t_2017-new-men-s-women-s-west-sneakers-running-air-shoes-f7bf.jpg
p26
aVhttp://cdn.iofferphoto.com/img3/item/631/887/569/t_2017-new-men-s-women-s-west-sneakers-running-air-shoes-e9b1.jpg
p27
aVhttp://cdn.iofferphoto.com/img3/item/631/887/569/t_2017-new-men-s-women-s-west-sneakers-running-air-shoes-cbc5.jpg
p28
aVhttp://cdn.iofferphoto.com/img3/item/631/887/569/t_2017-new-men-s-women-s-west-sneakers-running-air-shoes-7dfd.jpg
p29
asS'shipping_info'
p30
VAvailable ColorsAvailable SizesMen's Shoe SizesUSA6789101112UK5.56.57.58.59.510.511.5European39404142434445Japan24252627282930Black gray beige size35 36 37 38 39 40 41 42 43 44 45 46Grey size35 36 37 38 39 340 41 42 43 44Estimated Shipping15 - 20 Days
p31
sS'id'
p32
V631887569_1497083573
p33
s.