(dp1
S'title'
p2
VCow Horn
p3
sS'url'
p4
Vhttp://www.boneroom.com/store/p320/Cow_Horn.html
p5
sS'price'
p6
V$5.00
p7
sS'seller'
p8
(lp9
sS'description_links'
p10
VBos TaurusColors vary between black and tan. Great for crafts!Approx. 6.5" total length
p11
sS'images'
p12
(lp13
Vhttp://www.boneroom.com//uploads/4/8/1/1/48118243/s521972503441136676_p320_i3_w640.jpeg
p14
asS'shipping_info'
p15
(lp16
sS'id'
p17
Vp320_1497035100
p18
s.