(dp1
S'title'
p2
VBUFFALO HORN CARVED FISH WHISTLE 
p3
sS'url'
p4
Vhttp://www.glacierwear.com/buffalo-horn-carved-fish-whistle.html
p5
sS'price'
p6
V1.75
p7
sS'seller'
p8
(lp9
sS'description_links'
p10
VGenuine Buffalo Horn Carved Fish Whistle
p11
sS'images'
p12
(lp13
Vhttp://www.glacierwear.com/media/catalog/product/cache/1/thumbnail/500x/17f82f742ffe127f42dca9de82fb58b1/i/m/img_0498.jpg
p14
asS'shipping_info'
p15
VFree Shipping on $100.00+
p16
sS'id'
p17
Vwhistle_1497035067
p18
s.