(dp1
S'title'
p2
VBarbie pink + black stud bow punk rock bracelet set Hot Topic punk rock Kera
p3
sS'url'
p4
Vhttp://www.ecrater.com/p/23375040/barbie-pink-black-stud-bow?keywords=keras
p5
sS'price'
p6
V$6.95
p7
sS'seller'
p8
Vhttp://cuteandrock.ecrater.com
p9
sS'description_links'
p10
VSet of Barbie bracelets that are hot pink, black, and silver. Brand new, purchased from Hot Topic. Also included are 2 pink x black plastic stud bracelets, and one faux leather adjustable bracelet with stud and bow accents.
p11
sS'images'
p12
(lp13
Vhttp://s.ecrater.com/stores/365397/5601b14fdaa8b_365397b.jpg
p14
asS'shipping_info'
p15
(lp16
VOnly 1 available
p17
aVShipping:US-Mainland: $2.95(more destinations)
p18
aVCondition: Brand new
p19
asS'id'
p20
V23375040
p21
s.