(dp1
S'title'
p2
VAlba Kera 3 Mint Yellow Rhinestone Closed Back Ankle Strap Platform Shoe Sandal
p3
sS'url'
p4
Vhttp://www.ecrater.com/p/25371415/alba-kera-3-mint-yellow-rhinestone?keywords=keras
p5
sS'price'
p6
V$59.99
p7
sS'seller'
p8
Vhttp://heeljunkies.ecrater.com
p9
sS'description_links'
p10
VALBA KERA 3Give any outfit that extra edge.Rhinestone covered sexy ankle strap platform shoeand cushioned foot-bed.Approximately 6 inch heel and 2 inch platform.Come See Us !!!Email us with any questionsINTERNATIONAL BUYERS PLEASE BE AWARE THAT THERE MAYBE A 10 DAY HANDLING WAITALSOImport duties, taxes, and charges are not included in the item price or shipping cost. These charges are the buyer's responsibility.Please check with your country's customs office to determine what these additional costs will be prior to looking or buyingPLEASE NOTE THAT WE SHIP PRIORITY OR EXPRESS MAIL ONLY WITH TRACKING FOR YOUR PROTECTION AND OURSITEMS MAYBE HELD UP IN CUSTOMS CONTACT US AND YOUR OFFICE IF ITEM IS LATEImage by Cool Text
p11
sS'images'
p12
(lp13
sS'shipping_info'
p14
(lp15
VOnly 1 available
p16
aVShipping:US-Mainland: free(more destinations)
p17
aVCondition: Used
p18
asS'id'
p19
V25371415
p20
s.