(dp1
S'title'
p2
Vchicago - chicago 5.1 surround sound DVD 2003 rhino warner used mint
p3
sS'url'
p4
Vhttp://www.ecrater.com/p/17196631/chicago-51-surround-sound-dvd-2003-rhino?keywords=rhino
p5
sS'price'
p6
V$199.95
p7
sS'seller'
p8
Vhttp://baystatejem.ecrater.com
p9
sS'description_links'
p10
Vdisc and inserts are like new, original case is intact, immediate first class shipping domestic and international.tracks: 1. Movin' In2. The Road3. Poem for the People4. In the Country5. Wake Up Sunshine6. Ballet for a Girl in Buchannon: Make Me Smile7. Ballet for a Girl in Buchannon: So Much to Say, So Much to Give8. Ballet for a Girl in Buchannon: Anxiety's Moment9. Ballet for a Girl in Buchannon: West Virginia Fantasies10. Ballet for a Girl in Buchannon: Colour My World11. Ballet for a Girl in Buchannon: To Be Free12. Ballet for a Girl in Buchannon: Now More Than Ever13. Fancy Colours14. 25 or 6 to 415. Prelude16. A.M. Mourning17. P.M. Mourning18. Memories of Love19. It Better End Soon: 1st Movement20. It Better End Soon: 2nd Movement21. It Better End Soon: 3rd Movement22. It Better End Soon: 4th Movement23. It Better End Soon: Where Do We Go from Here 021613dvd222c
p11
sS'images'
p12
(lp13
sS'shipping_info'
p14
(lp15
VOnly 1 available
p16
aVShipping:US-Mainland: $5.99(more destinations)
p17
aVCondition: Used
p18
asS'id'
p19
V17196631
p20
s.