(dp1
S'title'
p2
V2013 chevrolet silverado 1500
p3
sS'url'
p4
S'http://www.ebay.com/itm/2013-Chevrolet-Silverado-1500-/182588472099?hash=item2a831efb23:g:vDsAAOSwlY1ZJFCY&vxp=mtr'
p5
sS'price'
p6
VUS $17,226.00
p7
sS'seller'
p8
(dp9
g4
Vhttp://www.ebay.com/usr/customcarswest?_trksid=p2047675.l2559
p10
sS'name'
p11
V customcarswest
p12
ssS'description_links'
p13
(lp14
Vhttp://vi.vipr.ebaydesc.com/ws/eBayISAPI.dll?ViewItemDescV4&item=182588472099&t=0&tid=10&category=13487&seller=customcarswest&excSoj=1&excTrk=1&lsite=100&ittenable=false&domain=ebay.com&descgauge=1
p15
asS'images'
p16
(lp17
(dp18
S'maxImageUrl'
p19
Vhttp://i.ebayimg.com/images/g/vDsAAOSwlY1ZJFCY/s-l1600.jpg
p20
sS'displayImgUrl'
p21
Vhttp://i.ebayimg.com/images/g/vDsAAOSwlY1ZJFCY/s-l300.jpg
p22
sasS'shipping_info'
p23
(dp24
S'item_location'
p25
(lp26
sS'delivery'
p27
(lp28
sS'posts_to'
p29
(lp30
VLocal pick-up only
p31
assS'id'
p32
S'182588472099'
p33
s.