(dp1
S'title'
p2
V2006 Yamaha Rhino 35W HID Headlight Conversion Kit NIB!
p3
sS'url'
p4
Vhttp://www.ecrater.com/p/18660171/2006-yamaha-rhino-35w-hid-headlight?keywords=rhino
p5
sS'price'
p6
V$159.95
p7
sS'seller'
p8
Vhttp://aawenterprises.ecrater.com
p9
sS'description_links'
p10
VHID HeadlightConversion Kit for 2006 Yamaha Rhino (Trident Lens) - SKU: HIDRHItem No.HIDRHComparing your bulb withSee Comparison Chart ImageFor UTV Model2006 Yamaha Rhino; headlamp lens with wording "Trident" and "Yamaha"; note: diameter of the halogen bulb base is at 1-3/16"; not good for the diameter at 1-3/4".Kit includes:2 pieces 12V 35W Ballast2 pieces 12V HID Xenon Bulb2 pieces ConnectorFeatures:Bulbs are specially manufactured to be an OEM fit for the stock headlamps, 2000 hours+ life and 6000K; Wirings and connectors are specially manufactured to fit the vehicle's OEM wiring, no splicing, cutting, gluing, modifying nor changing out headlamp assemblies; Kits are true Plug-N-Play, ready to install right out of the box; Very user friendly, installation is usually 20 minutes or less!Sold as Kit, one kit for one UTVMSRP$179.00 per kit**Free Shipping Lower 48 US States only- others please contact us for a quote.Check out my other items!International Buyers \u2013 Please Note: Import duties, taxes and charges are not included in the item price or shipping charges and will be charged at the time of delivery (COD). These charges are the buyer's responsibility. Please check with your country's customs office to determine what these additional costs will be prior to looking/buying.At DWB all items are in stock and available at the time of listing. We ship from multiple warehouses located across the United States providing timely delivery. We do also offer our products through many outlets, so occasionally an item may not be on hand at the time of purchase. In this instance, we will notify you with the estimated delivery time - with the option to cancel your purchase and receive a full refund. Our fulfillment rate is 99.9%. If you have any questions regarding stock status, product information or fitment - please contact us.            Powered by eCRATER    . List your items fast and easy and manage your active items.
p11
sS'images'
p12
(lp13
sS'shipping_info'
p14
(lp15
VOnly 1 available
p16
aVShipping:US-Mainland: free(more destinations)
p17
aVCondition: Used
p18
asS'id'
p19
V18660171
p20
s.