(dp1
S'title'
p2
VRhino Legendary Scale Bust Sideshow Exclusive
p3
sS'url'
p4
Vhttp://www.ecrater.com/p/18828688/rhino-legendary-scale-bust-sideshow?keywords=rhino
p5
sS'price'
p6
V$499.99
p7
sS'seller'
p8
Vhttp://mattytoy.ecrater.com
p9
sS'description_links'
p10
VRhino Legendary Scale Bust Sideshow Exclusive Limited To Only 125
p11
sS'images'
p12
(lp13
sS'shipping_info'
p14
(lp15
VOnly 1 available
p16
aVShipping:US-Mainland: free(more destinations)
p17
aVCondition: Brand new
p18
asS'id'
p19
V18828688
p20
s.