(dp1
S'title'
p2
Vgrateful dead - dave's picks volume 12 live limited edition HDCD 2014 rhino 2 discs
p3
sS'url'
p4
Vhttp://www.ecrater.com/p/22150231/grateful-dead-daves-picks-volume-12?keywords=rhino
p5
sS'price'
p6
V$189.95
p7
sS'seller'
p8
Vhttp://baystatejem.ecrater.com
p9
sS'description_links'
p10
Vlimited edition: 8296 / 14000discs, insert, and digipak are all like new, immediate priority shipping within the continental USA, immediate first class shipping overseas.031315ro206c[!year;2014!]
p11
sS'images'
p12
(lp13
sS'shipping_info'
p14
(lp15
VOnly 1 available
p16
aVShipping:US-Mainland: $5.99(more destinations)
p17
aVCondition: Used
p18
asS'id'
p19
V22150231
p20
s.