(dp1
S'title'
p2
VYAMAHA RHINO 700 FI  2008 2009 2010 2011 2012 2013   STARTER MOTOR
p3
sS'url'
p4
Vhttp://www.ecrater.com/p/23181375/yamaha-rhino-700-fi-2008-2009-2010-2011-2012-2013-starter-motor?keywords=rhino
p5
sS'price'
p6
V$147.99
p7
sS'seller'
p8
Vhttp://vtcustoms.ecrater.com
p9
sS'description_links'
p10
V495346NEW STARTER MOTOR  THIS IS NOT A REBULT UNITNO CORE CHARGES A NEW STARTER MOTORnew tech line number is 518 548 4495OUR NEW TECH LINE NUMBER IS 518 548 4495
p11
sS'images'
p12
(lp13
sS'shipping_info'
p14
(lp15
VOnly 1 available
p16
aVShipping:US-Mainland: free(more destinations)
p17
aVCondition: Brand new
p18
asS'id'
p19
V23181375
p20
s.