(dp1
S'title'
p2
Vhyundai wia skt-15lms & rhino barfeed, 2012, live milling, sub spindle, 3k hours
p3
sS'url'
p4
S'http://www.ebay.com/itm/HYUNDAI-WIA-SKT-15LMS-RHINO-BARFEED-2012-LIVE-MILLING-SUB-SPINDLE-3K-HOURS-/232209439590?hash=item3610c2db66:g:z1MAAOSwo4pYfoHK'
p5
sS'price'
p6
VUS $69,500.00
p7
sS'seller'
p8
(dp9
g4
Vhttp://www.ebay.com/usr/clarkmachinerysales?_trksid=p2047675.l2559
p10
sS'name'
p11
V clarkmachinerysales
p12
ssS'description_links'
p13
(lp14
Vhttp://vi.vipr.ebaydesc.com/ws/eBayISAPI.dll?ViewItemDescV4&item=232209439590&t=0&tid=10&category=92150&seller=clarkmachinerysales&excSoj=1&excTrk=1&lsite=0&ittenable=false&domain=ebay.com&descgauge=1
p15
asS'images'
p16
(lp17
(dp18
S'maxImageUrl'
p19
Vhttp://i.ebayimg.com/images/g/z1MAAOSwo4pYfoHK/s-l1600.jpg
p20
sS'displayImgUrl'
p21
Vhttp://i.ebayimg.com/images/g/z1MAAOSwo4pYfoHK/s-l300.jpg
p22
sa(dp23
g19
Vhttp://i.ebayimg.com/images/g/WpEAAOSwZQRYfoHN/s-l1600.jpg
p24
sg21
Vhttp://i.ebayimg.com/images/g/WpEAAOSwZQRYfoHN/s-l300.jpg
p25
sa(dp26
g19
Vhttp://i.ebayimg.com/images/g/NT4AAOSwt5hYfoHO/s-l1600.jpg
p27
sg21
Vhttp://i.ebayimg.com/images/g/NT4AAOSwt5hYfoHO/s-l300.jpg
p28
sa(dp29
g19
Vhttp://i.ebayimg.com/images/g/1l0AAOSw-0xYfoHQ/s-l1600.jpg
p30
sg21
Vhttp://i.ebayimg.com/images/g/1l0AAOSw-0xYfoHQ/s-l300.jpg
p31
sa(dp32
g19
Vhttp://i.ebayimg.com/images/g/1G4AAOSw5cNYfoHR/s-l1600.jpg
p33
sg21
Vhttp://i.ebayimg.com/images/g/1G4AAOSw5cNYfoHR/s-l300.jpg
p34
sa(dp35
g19
Vhttp://i.ebayimg.com/images/g/WzkAAOSwZQRYfoHS/s-l1600.jpg
p36
sg21
Vhttp://i.ebayimg.com/images/g/WzkAAOSwZQRYfoHS/s-l300.jpg
p37
sa(dp38
g19
Vhttp://i.ebayimg.com/images/g/t8wAAOSwLEtYfoHU/s-l1600.jpg
p39
sg21
Vhttp://i.ebayimg.com/images/g/t8wAAOSwLEtYfoHU/s-l300.jpg
p40
sa(dp41
g19
Vhttp://i.ebayimg.com/images/g/6eEAAOSw4DJYfoHV/s-l1600.jpg
p42
sg21
Vhttp://i.ebayimg.com/images/g/6eEAAOSw4DJYfoHV/s-l300.jpg
p43
sasS'shipping_info'
p44
(dp45
S'item_location'
p46
(lp47
V\u000aHunt Valley, Maryland, United States
p48
asS'delivery'
p49
(lp50
VVaries
p51
asS'posts_to'
p52
(lp53
VLocal pick-up only
p54
assS'id'
p55
S'232209439590'
p56
s.