(dp1
S'title'
p2
VRhinolophidae
p3
sS'url'
p4
Vhttp://www.skullsunlimited.com/record_family.php?id=276
p5
sS'price'
p6
(lp7
sS'seller'
p8
(lp9
sS'description_links'
p10
VAll horseshoe bats have leaf-like, horseshoe-shaped protuberances on their noses.
p11
sS'images'
p12
(lp13
sS'shipping_info'
p14
(lp15
sS'id'
p16
V276_1497034300
p17
s.