(dp1
S'title'
p2
Vcactus - barely contained the studio sessions CD 1972 2004 elektra rhino new factory sealed
p3
sS'url'
p4
Vhttp://www.ecrater.com/p/3229914/cactus-barely-contained-the-studio?keywords=rhino
p5
sS'price'
p6
V$199.95
p7
sS'seller'
p8
Vhttp://baystatejem.ecrater.com
p9
sS'description_links'
p10
Vfactory sealed, immediate first class shipping domestic and international, with insurance where available.tracks:disc one:1. Parchman Farm (LP Version) 3:06    2. Bro. Bill (LP Version) 5:10    3. My Lady From South Of Detroit (LP Version) 4:26   4. You Can't Judge A Book By The Cover (LP Version) 6:32    5. Let Me Swim (LP Version) 3:50    6. No Need To Worry (LP Version) 6:15    7. Oleo (LP Version) 4:51    8. Feel So Good (LP Version) 6:03    9. Sweet Sixteen (Previously Unissued) 5:06  10. Rumblin' Man (LP Version) 4:20 $0.99    11. Both Sides Of The Street (Previously Unissued) 5:14  12. Long Tall Sally (Single Version) 5:54 13. Rockout, Whatever You Feel Like (LP Version) 3:59  14. Rock N' Roll Children (LP Version) 5:44  15. Big Mama Boogie - Parts 1 & 2 (LP Version) 5:29 16. Song For Aires (LP Version) 3:06 Disc two:     1. Feel So Bad (Single Version) 5:31    2. Home Town Bust (LP Version) 6:38    3. One Way...Or Another (LP Version) 5:08    4. Hound Dog Sniffin' (Previously Unissued) 5:18    5. Restrictions (LP Version) 6:16    6. Token Chokin' (Single Version) 3:08   7. Gulitless Glider (LP Version) 8:44    8. Evil (Single Version) 3:15    9. Alaska (Single Version) 3:40 10. Sweet Sixteen (Single Version) 3:19  11. Bag Drag (LP Version) 5:12  12. Mean Night In Cleveland (LP Version) 2:10  13. Bad Stuff (LP Version) 3:11 14. Bringing Me Down (LP Version) 5:26 15. Bedroom Mazurka (LP Version) 4:36  16. Telling You (LP Version) 5:10 17. Underneath The Arches (LP Version) 0:26 101108ro201ec
p11
sS'images'
p12
(lp13
sS'shipping_info'
p14
(lp15
VOnly 1 available
p16
aVShipping:US-Mainland: $4.99(more destinations)
p17
aVCondition: Brand new
p18
asS'id'
p19
V3229914
p20
s.