(dp1
S'title'
p2
(lp3
sS'url'
p4
Vhttp://www.ioffer.com/i/14mm-rhino-horn-spiked-slide-free-shipping-495408464
p5
sS'price'
p6
V$10.00
p7
sS'seller'
p8
(lp9
sS'description_links'
p10
VRhino Horn Spiked slide made by Rusty glass. Another perfect collector's piece from Rusty glass, this slide is very unique in look and feel.. This is a huge slide with a perfect small pack, the weight and size of this thing is almost raquet ball status.The Rhino horn is huge coming out the side and the other accent spikes give this slide one tough ass look, this slide is so solid it could act as a back up weapon if needed..LOL.Extremely one of a kind and 100% Made in the USA Details:Rhino Horn Spiked Slide Elvis Rod Rhino Horn and SpikesSurface FrittGold Fuming14mm Simax Joint Huge exterior dimensions  TERMS:  By purchasing this product you agree that you are (1) AT LEAST 18 years of age (2) Recognize that these pipes are intended for tobacco use only or display purposes (3) You have reviewed your local laws regarding these tobacco related products.  If you dont understand the 3 terms above please do not purchase.  If necessary please be prepared to prove any of these terms.
p11
sS'images'
p12
(lp13
sS'shipping_info'
p14
(lp15
sS'id'
p16
V495408464_1497034566
p17
s.