(dp1
S'title'
p2
V\u000aHip-hop pants rhino Men Loose casual pants shorts\u000a
p3
sS'url'
p4
Vhttp://www.ioffer.com/i/hip-hop-pants-rhino-men-loose-casual-pants-shorts-570448185
p5
sS'price'
p6
V$22.50
p7
sS'seller'
p8
(lp9
sS'description_links'
p10
VConditions \uff1aBrand new Material \uff1a80% cotton, 20% polyester Package Included : 1pcsSize\uff1a  M:  waist:75-104cm, length:58cm, hips:112cm,L:   waist:80-108cm, length:60cm, hips:116cm,XL: waist:85-112cm, length:62cm, hips:120cm,XXL: waist:90-116cm, length:64cm, hips:124cm,XXXL: waist:95-120cm, length:66cm, hips:128cm,
p11
sS'images'
p12
(lp13
Vhttp://cdn.iofferphoto.com/img/item/570/448/185/t_hip-hop-pants-rhino-men-loose-casual-pants-shorts-a7d4.jpg
p14
aVhttp://cdn.iofferphoto.com/img/item/570/448/185/t_hip-hop-pants-rhino-men-loose-casual-pants-shorts-0122.jpg
p15
asS'shipping_info'
p16
VAvailable ColorsAvailable SizesSizesMediumLargeX-LargeXXL3XLEstimated Shipping15 - 20 Days
p17
sS'id'
p18
V570448185_1497034586
p19
s.