(dp1
S'title'
p2
V\u000aLilly Pulitzer Run for The Roses Pink Rhinoceros Rhino \u000a
p3
sS'url'
p4
Vhttp://www.ioffer.com/i/lilly-pulitzer-run-for-the-roses-pink-rhinoceros-rhino-618284460
p5
sS'price'
p6
V$179.99
p7
sS'seller'
p8
(lp9
sS'description_links'
p10
V
sS'images'
p11
(lp12
Vhttp://cdn.iofferphoto.com/img3/item/618/284/460/t_2sWslilly-pulitzer-run-for-the-roses-pink-rhinoceros-rhino.jpg
p13
aVhttp://cdn.iofferphoto.com/img3/item/618/284/460/t_wjSelilly-pulitzer-run-for-the-roses-pink-rhinoceros-rhino.jpg
p14
aVhttp://cdn.iofferphoto.com/img3/item/618/284/460/t_ATPWlilly-pulitzer-run-for-the-roses-pink-rhinoceros-rhino.jpg
p15
aVhttp://cdn.iofferphoto.com/img3/item/618/284/460/t_G704lilly-pulitzer-run-for-the-roses-pink-rhinoceros-rhino.jpg
p16
aVhttp://cdn.iofferphoto.com/img3/item/618/284/460/t_yx9ulilly-pulitzer-run-for-the-roses-pink-rhinoceros-rhino.jpg
p17
aVhttp://cdn.iofferphoto.com/img3/item/618/284/460/t_Fom4lilly-pulitzer-run-for-the-roses-pink-rhinoceros-rhino.jpg
p18
aVhttp://cdn.iofferphoto.com/img3/item/618/284/460/t_ZErflilly-pulitzer-run-for-the-roses-pink-rhinoceros-rhino.jpg
p19
aVhttp://cdn.iofferphoto.com/img3/item/618/284/460/t_RHNglilly-pulitzer-run-for-the-roses-pink-rhinoceros-rhino.jpg
p20
aVhttp://cdn.iofferphoto.com/img3/item/618/284/460/t_Rmmqlilly-pulitzer-run-for-the-roses-pink-rhinoceros-rhino.jpg
p21
aVhttp://cdn.iofferphoto.com/img3/item/618/284/460/t_aukjlilly-pulitzer-run-for-the-roses-pink-rhinoceros-rhino.jpg
p22
aVhttp://cdn.iofferphoto.com/img3/item/618/284/460/t_jGmTlilly-pulitzer-run-for-the-roses-pink-rhinoceros-rhino.jpg
p23
aVhttp://cdn.iofferphoto.com/img3/item/618/284/460/t_mf5Elilly-pulitzer-run-for-the-roses-pink-rhinoceros-rhino.jpg
p24
asS'shipping_info'
p25
(lp26
sS'id'
p27
V618284460_1497034554
p28
s.