(dp1
S'title'
p2
VZebra Easton Swivel Lounge Chair
p3
sS'url'
p4
Vhttp://www.ecrater.com/p/10791921/zebra-easton-swivel-lounge-chair?keywords=zebra
p5
sS'price'
p6
V$319.00
p7
sS'seller'
p8
Vhttp://allfurniture.ecrater.com
p9
sS'description_links'
p10
VWe offer FREE shipping within the 5 boroughs of NYC and some areas of NJ ONLY. Call us for more information! NOTE: All other areas must email or call us for a freight quote.TOLL FREE 1-877-336-1144 All dimensions listed are approximate.EASTON COLLECTIONWhen designing your living space the accent pieces you choose not only to fill the room but allow for the expression of your individual style to come shining through. Offered in a multitude of fabrics and frames, our accent collection will compliment your unique style. The rounded back Easton swivel chair is offered in the following covers: wild zebra, beige geometric pattern and brown geometric pattern.27 x 28 x 32H
p11
sS'images'
p12
(lp13
Vhttp://s.ecrater.com/stores/18295/4d70275fcedcb_18295b.jpg
p14
asS'shipping_info'
p15
(lp16
VMore than 10 available
p17
aVShipping:US-Mainland: $50.00(more destinations)
p18
aVSales Tax: New York: 8.875%
p19
aVCondition: Brand new
p20
asS'id'
p21
V10791921
p22
s.