(dp1
S'title'
p2
VRoberto Coin 5th Season Black/White Zebra Drop Earrings 925 Silver NWOT $950
p3
sS'url'
p4
Vhttp://www.ecrater.com/p/20591522/roberto-coin-5th-season-black?keywords=zebra
p5
sS'price'
p6
V$613.19
p7
sS'seller'
p8
Vhttp://luxebuster.ecrater.com
p9
sS'description_links'
p10
VeCRATER template Roberto Coin 5th Season Black/White Zebra Drop Earrings 925 Silver NWOT $950                  Click the preview button to view more images.Ad # 29638Item Description:Be sure to check our shipping calculator for the best shipping costs!Roberto Coin 5th Season Black/White Zebra Drop Earrings Sterling Silver ***New Without Tag***Retail: $950Designer: Roberto CoinCollection: The Fifth SeasonStyle/Model #: Item: EarringsClasp: HookDescription: 13mm wide oval drop crafted of sterling silver with a distressed, blackened finish, and diamond cut \u201czig zag\u201d stripesComposition: Sterling SilverTotal Weight: 5.9Measurements: 2-1/8\u201d total lengthMarkings: Italy, 925, Roberto Coin, signature ruby Guaranteed authentic, or your money back. This will appropriately packed to ensure safe arrival. QUESTIONS? FEEL FREE TO EMAIL US! Return to top Use our Shipping Calculator to see a selection of shipping methods and costs.To get a real-time shipping quote to your destination, enter your country and zip / postal code information into the shipping calculator and click "Get Rate". Select Destination Country and ServiceUnited States USPS Priority MailCanada USPS Priority Mail InternationalMexico USPS Priority Mail InternationalOther USPS Priority Mail InternationalShipping CostAdditional Item ShippingPut your products on autopilot with Kyozou eCRATER product Tools,RcmdId ViewItemDescV4,RlogId p4%60bo7%60jtb9%3Fuk.rp*a4%601gc%3E-148698addae-0x110-->
p11
sS'images'
p12
(lp13
Vhttp://s.ecrater.com/stores/342561/54151aab3e678_342561b.jpg
p14
asS'shipping_info'
p15
(lp16
VOnly 1 available
p17
aVShipping:US-Mainland: free(more destinations)
p18
aVCondition: Used
p19
asS'id'
p20
V20591522
p21
s.