(dp1
S'title'
p2
VCrochet Ripple Zebra Double Twin Size Afghan
p3
sS'url'
p4
Vhttp://www.ecrater.com/p/24552641/crochet-ripple-zebra-double-twin?keywords=zebra
p5
sS'price'
p6
V$470.00
p7
sS'seller'
p8
Vhttp://galyacrafts.ecrater.com
p9
sS'description_links'
p10
VThis is traditional ripple blanket.It is crocheted from beautiful colored acrylic yarn.The colors are used random.This blanket I made with all my love.It is very cute,soft and warm.It is perfect decoration for your room.Wash by hands or in a washing machine-hand imitating program and flat dry.Size: 80" - 90" or 203/230 cm.It is made to order.Please allow 25 business day for my work ,before shipping.
p11
sS'images'
p12
(lp13
Vhttp://s.ecrater.com/stores/377728/56fa36e93be3a_377728b.jpg
p14
asS'shipping_info'
p15
(lp16
VOnly 1 available
p17
aVShipping:US-Mainland: $40.00(more destinations)
p18
aVCondition: Brand new
p19
asS'id'
p20
V24552641
p21
s.