(dp1
S'title'
p2
VZebra 
p3
sS'url'
p4
Vhttp://store.yahoo.com/yhst-66562580642243/zebra-reference-photo-disc.html
p5
sS'price'
p6
(lp7
sS'seller'
p8
(lp9
sS'description_links'
p10
VZebra Photo Reference Cd
p11
sS'images'
p12
(lp13
Vhttp://ep.yimg.com/ca/I/yhst-66562580642243_2251_95293404
p14
asS'shipping_info'
p15
(lp16
sS'id'
p17
Vzebra-reference-photo-disc_1497070030
p18
s.