(dp1
S'title'
p2
Vchopard l.u.c prince of whales limited edition men&apos;s watch new! $18,250 retail!!
p3
sS'url'
p4
S'http://www.ebay.com/itm/CHOPARD-L-U-C-PRINCE-OF-WHALES-LIMITED-EDITION-MENS-WATCH-NEW-18-250-RETAIL-/122505177197?hash=item1c85e0a86d:g:sIkAAOSwx2dYFg3J'
p5
sS'price'
p6
VUS $8,000.00
p7
sS'seller'
p8
(dp9
g4
Vhttp://www.ebay.com/usr/watchobsession?_trksid=p2047675.l2559
p10
sS'name'
p11
V watchobsession
p12
ssS'description_links'
p13
(lp14
Vhttp://vi.vipr.ebaydesc.com/ws/eBayISAPI.dll?ViewItemDescV4&item=122505177197&t=1477840732000&tid=10&category=31387&seller=watchobsession&excSoj=1&excTrk=1&lsite=0&ittenable=false&domain=ebay.com&descgauge=1
p15
asS'images'
p16
(lp17
(dp18
S'maxImageUrl'
p19
Vhttp://i.ebayimg.com/images/g/sIkAAOSwx2dYFg3J/s-l1600.jpg
p20
sS'displayImgUrl'
p21
Vhttp://i.ebayimg.com/images/g/sIkAAOSwx2dYFg3J/s-l300.jpg
p22
sa(dp23
g19
Vhttp://i.ebayimg.com/images/g/YEQAAOSw5cNYFg3R/s-l1600.jpg
p24
sg21
Vhttp://i.ebayimg.com/images/g/YEQAAOSw5cNYFg3R/s-l300.jpg
p25
sa(dp26
g19
Vhttp://i.ebayimg.com/images/g/Y3AAAOSw5cNYFg3m/s-l1600.jpg
p27
sg21
Vhttp://i.ebayimg.com/images/g/Y3AAAOSw5cNYFg3m/s-l300.jpg
p28
sa(dp29
g19
Vhttp://i.ebayimg.com/images/g/aeIAAOSwnbZYFg2-/s-l1600.jpg
p30
sg21
Vhttp://i.ebayimg.com/images/g/aeIAAOSwnbZYFg2-/s-l300.jpg
p31
sa(dp32
g19
Vhttp://i.ebayimg.com/images/g/bGAAAOSwMVdYFg2~/s-l1600.jpg
p33
sg21
Vhttp://i.ebayimg.com/images/g/bGAAAOSwMVdYFg2~/s-l300.jpg
p34
sa(dp35
g19
Vhttp://i.ebayimg.com/images/g/CI4AAOSwA3dYFg3B/s-l1600.jpg
p36
sg21
Vhttp://i.ebayimg.com/images/g/CI4AAOSwA3dYFg3B/s-l300.jpg
p37
sa(dp38
g19
Vhttp://i.ebayimg.com/images/g/APgAAOSwal5YFg3D/s-l1600.jpg
p39
sg21
Vhttp://i.ebayimg.com/images/g/APgAAOSwal5YFg3D/s-l300.jpg
p40
sa(dp41
g19
Vhttp://i.ebayimg.com/images/g/JWQAAOSwn7JYFg3E/s-l1600.jpg
p42
sg21
Vhttp://i.ebayimg.com/images/g/JWQAAOSwn7JYFg3E/s-l300.jpg
p43
sa(dp44
g19
Vhttp://i.ebayimg.com/images/g/FdEAAOSwcUBYFg3G/s-l1600.jpg
p45
sg21
Vhttp://i.ebayimg.com/images/g/FdEAAOSwcUBYFg3G/s-l300.jpg
p46
sa(dp47
g19
Vhttp://i.ebayimg.com/images/g/MMEAAOSwB09YFg3H/s-l1600.jpg
p48
sg21
Vhttp://i.ebayimg.com/images/g/MMEAAOSwB09YFg3H/s-l300.jpg
p49
sa(dp50
g19
Vhttp://i.ebayimg.com/images/g/B1sAAOSwA3dYFg23/s-l1600.jpg
p51
sg21
Vhttp://i.ebayimg.com/images/g/B1sAAOSwA3dYFg23/s-l300.jpg
p52
sasS'shipping_info'
p53
(dp54
S'item_location'
p55
(lp56
V\u000aNew York, New York, United States
p57
asS'delivery'
p58
(lp59
VVaries
p60
asS'posts_to'
p61
(lp62
VWorldwide
p63
assS'id'
p64
S'122505177197'
p65
s.