(dp1
S'title'
p2
VWalnut Whale Octagon Wood Cremation Urn
p3
sS'url'
p4
Vhttp://www.ecrater.com/p/18278826/walnut-whale-octagon-wood-cremation?keywords=whale
p5
sS'price'
p6
V$389.95
p7
sS'seller'
p8
Vhttp://memorialsforever.ecrater.com
p9
sS'description_links'
p10
VProduct Description:This urn is made from the finest solid hardwoods with a three dimensional artistry on the front showing a whale scene set into the walnut hardwood urn.  The three dimensional scene is created by laser cuts and engravings.  The wood used to create the three dimensional scene on the front are also from actual hardwoods that are assembled on a laser etched panel to create a three dimensional affect.Made in the USA:Each urn is individually hand crafted by a skilled wood crafter in the United States.  Some production equipment is utilized in the creation of this urn to ensure a level of constancy between urns while still maintaining their individual uniqueness.Product Details:\u2022Dimensions:  11" W x 7" L x 8.25" H\u2022Capacity:  200 cubic inches\u2022Opening:  This urn opens from the bottom and is secured by 4 screws.Availability:Each urn is custom made for the client upon ordering and typically takes 2-5 business days to ship.  Overnight or 2 day services can be arranged but please contact us first to determine availability.
p11
sS'images'
p12
(lp13
Vhttp://s.ecrater.com/stores/300092/51d20fad33017_300092b.jpg
p14
asS'shipping_info'
p15
(lp16
V2 available
p17
aVShipping:US-Mainland: free(more destinations)
p18
aVCondition: Brand new
p19
asS'id'
p20
V18278826
p21
s.