(dp1
S'title'
p2
VWhale Music (1995) NEW DVD
p3
sS'url'
p4
Vhttp://www.ecrater.com/p/21873292/whale-music-1995-dvd?keywords=whale
p5
sS'price'
p6
V$50.00
p7
sS'seller'
p8
Vhttp://retro-rhythm.ecrater.com
p9
sS'description_links'
p10
VWhale Music (1995) NEW DVD  BACK COVER HAS SLIGHT TAB INDENTATIONS  UPC-065935209188  Region 1, Fullscreen. English, French audio. English subs  Maury Chaykin, Cyndy Preston and Jennifer Dale star. About the redemption of a faded rock star through love and music. Richard J. Lewis' exploration of the reclusive musician's efforts to create a piece of music that will summon the whales is a sensory and emotional tour de force.  retrorhythmfuturetext
p11
sS'images'
p12
(lp13
Vhttp://s.ecrater.com/stores/206175/54c4931e943a8_206175b.jpg
p14
asS'shipping_info'
p15
(lp16
V2 available
p17
aVShipping:US-Mainland: $6.00(more destinations)
p18
aVCondition: Brand new
p19
asS'id'
p20
V21873292
p21
s.