(dp1
S'title'
p2
Vprs hollowbody ii faded whale blue smokeburst 10 top (807)
p3
sS'url'
p4
S'http://www.ebay.com/itm/PRS-Hollowbody-II-Faded-Whale-Blue-Smokeburst-10-Top-807-/252956136861?hash=item3ae55c559d:g:E6cAAOSwjDZYk6U4'
p5
sS'price'
p6
VUS $5,600.00
p7
sS'seller'
p8
(dp9
g4
Vhttp://www.ebay.com/usr/willcuttguitars?_trksid=p2047675.l2559
p10
sS'name'
p11
V willcuttguitars
p12
ssS'description_links'
p13
(lp14
Vhttp://vi.vipr.ebaydesc.com/ws/eBayISAPI.dll?ViewItemDescV4&item=252956136861&t=0&tid=10&category=33034&seller=willcuttguitars&excSoj=1&excTrk=1&lsite=0&ittenable=false&domain=ebay.com&descgauge=1
p15
asS'images'
p16
(lp17
(dp18
S'maxImageUrl'
p19
Vhttp://i.ebayimg.com/images/g/E6cAAOSwjDZYk6U4/s-l1600.jpg
p20
sS'displayImgUrl'
p21
Vhttp://i.ebayimg.com/images/g/E6cAAOSwjDZYk6U4/s-l300.jpg
p22
sa(dp23
g19
Vhttp://i.ebayimg.com/images/g/Z0cAAOSw5cNYk6U3/s-l1600.jpg
p24
sg21
Vhttp://i.ebayimg.com/images/g/Z0cAAOSw5cNYk6U3/s-l300.jpg
p25
sa(dp26
g19
Vhttp://i.ebayimg.com/images/g/5LMAAOSwNnRYk6U7/s-l1600.jpg
p27
sg21
Vhttp://i.ebayimg.com/images/g/5LMAAOSwNnRYk6U7/s-l300.jpg
p28
sa(dp29
g19
Vhttp://i.ebayimg.com/images/g/69gAAOSwA3dYk6U8/s-l1600.jpg
p30
sg21
Vhttp://i.ebayimg.com/images/g/69gAAOSwA3dYk6U8/s-l300.jpg
p31
sa(dp32
g19
Vhttp://i.ebayimg.com/images/g/s9QAAOSw9GhYk6U-/s-l1600.jpg
p33
sg21
Vhttp://i.ebayimg.com/images/g/s9QAAOSw9GhYk6U-/s-l300.jpg
p34
sa(dp35
g19
Vhttp://i.ebayimg.com/images/g/0NgAAOSw44BYk6U-/s-l1600.jpg
p36
sg21
Vhttp://i.ebayimg.com/images/g/0NgAAOSw44BYk6U-/s-l300.jpg
p37
sa(dp38
g19
Vhttp://i.ebayimg.com/images/g/zX4AAOSwTglYk6VG/s-l1600.jpg
p39
sg21
Vhttp://i.ebayimg.com/images/g/zX4AAOSwTglYk6VG/s-l300.jpg
p40
sa(dp41
g19
Vhttp://i.ebayimg.com/images/g/HP4AAOSw-0xYk6VF/s-l1600.jpg
p42
sg21
Vhttp://i.ebayimg.com/images/g/HP4AAOSw-0xYk6VF/s-l300.jpg
p43
sasS'shipping_info'
p44
(dp45
S'item_location'
p46
(lp47
V\u000aLexington, Kentucky, United States
p48
asS'delivery'
p49
(lp50
VVaries
p51
asS'posts_to'
p52
(lp53
VUnited States
p54
assS'id'
p55
S'252956136861'
p56
s.