(dp1
S'title'
p2
Vprs hollowbody ii faded whale blue wood library edition (934)
p3
sS'url'
p4
S'http://www.ebay.com/itm/PRS-Hollowbody-II-Faded-Whale-Blue-Wood-Library-Edition-934-/252956136804?hash=item3ae55c5564:g:tFkAAOSw9GhYcBWb'
p5
sS'price'
p6
VUS $5,860.00
p7
sS'seller'
p8
(dp9
g4
Vhttp://www.ebay.com/usr/willcuttguitars?_trksid=p2047675.l2559
p10
sS'name'
p11
V willcuttguitars
p12
ssS'description_links'
p13
(lp14
Vhttp://vi.vipr.ebaydesc.com/ws/eBayISAPI.dll?ViewItemDescV4&item=252956136804&t=0&tid=10&category=33034&seller=willcuttguitars&excSoj=1&excTrk=1&lsite=0&ittenable=false&domain=ebay.com&descgauge=1
p15
asS'images'
p16
(lp17
(dp18
S'maxImageUrl'
p19
Vhttp://i.ebayimg.com/images/g/tFkAAOSw9GhYcBWb/s-l1600.jpg
p20
sS'displayImgUrl'
p21
Vhttp://i.ebayimg.com/images/g/tFkAAOSw9GhYcBWb/s-l300.jpg
p22
sa(dp23
g19
Vhttp://i.ebayimg.com/images/g/OAoAAOSw241YcBWc/s-l1600.jpg
p24
sg21
Vhttp://i.ebayimg.com/images/g/OAoAAOSw241YcBWc/s-l300.jpg
p25
sa(dp26
g19
Vhttp://i.ebayimg.com/images/g/-twAAOSw2xRYcBWd/s-l1600.jpg
p27
sg21
Vhttp://i.ebayimg.com/images/g/-twAAOSw2xRYcBWd/s-l300.jpg
p28
sa(dp29
g19
Vhttp://i.ebayimg.com/images/g/-vMAAOSw2xRYcBWd/s-l1600.jpg
p30
sg21
Vhttp://i.ebayimg.com/images/g/-vMAAOSw2xRYcBWd/s-l300.jpg
p31
sa(dp32
g19
Vhttp://i.ebayimg.com/images/g/JpsAAOSwA3dYcBWe/s-l1600.jpg
p33
sg21
Vhttp://i.ebayimg.com/images/g/JpsAAOSwA3dYcBWe/s-l300.jpg
p34
sa(dp35
g19
Vhttp://i.ebayimg.com/images/g/tLwAAOSw9GhYcBWf/s-l1600.jpg
p36
sg21
Vhttp://i.ebayimg.com/images/g/tLwAAOSw9GhYcBWf/s-l300.jpg
p37
sa(dp38
g19
Vhttp://i.ebayimg.com/images/g/VN4AAOSwt5hYcBWg/s-l1600.jpg
p39
sg21
Vhttp://i.ebayimg.com/images/g/VN4AAOSwt5hYcBWg/s-l300.jpg
p40
sa(dp41
g19
Vhttp://i.ebayimg.com/images/g/mJgAAOSwUKxYcBWg/s-l1600.jpg
p42
sg21
Vhttp://i.ebayimg.com/images/g/mJgAAOSwUKxYcBWg/s-l300.jpg
p43
sasS'shipping_info'
p44
(dp45
S'item_location'
p46
(lp47
V\u000aLexington, Kentucky, United States
p48
asS'delivery'
p49
(lp50
VVaries
p51
asS'posts_to'
p52
(lp53
VUnited States
p54
assS'id'
p55
S'252956136804'
p56
s.