(dp1
S'title'
p2
Vprs 58/15 custom 24 limited faded whale blue (382)
p3
sS'url'
p4
S'http://www.ebay.com/itm/PRS-58-15-Custom-24-Limited-Faded-Whale-Blue-382-/252956136851?hash=item3ae55c5593:g:dF8AAOSwv-NWYa~X'
p5
sS'price'
p6
VUS $5,299.00
p7
sS'seller'
p8
(dp9
g4
Vhttp://www.ebay.com/usr/willcuttguitars?_trksid=p2047675.l2559
p10
sS'name'
p11
V willcuttguitars
p12
ssS'description_links'
p13
(lp14
Vhttp://vi.vipr.ebaydesc.com/ws/eBayISAPI.dll?ViewItemDescV4&item=252956136851&t=1479403485000&tid=10&category=33034&seller=willcuttguitars&excSoj=1&excTrk=1&lsite=0&ittenable=false&domain=ebay.com&descgauge=1
p15
asS'images'
p16
(lp17
(dp18
S'maxImageUrl'
p19
Vhttp://i.ebayimg.com/images/g/dF8AAOSwv-NWYa~X/s-l1600.jpg
p20
sS'displayImgUrl'
p21
Vhttp://i.ebayimg.com/images/g/dF8AAOSwv-NWYa~X/s-l300.jpg
p22
sa(dp23
g19
Vhttp://i.ebayimg.com/images/g/kcsAAOSwcBhWYa~W/s-l1600.jpg
p24
sg21
Vhttp://i.ebayimg.com/images/g/kcsAAOSwcBhWYa~W/s-l300.jpg
p25
sa(dp26
g19
Vhttp://i.ebayimg.com/images/g/pXYAAOSwfZ1WYa~Z/s-l1600.jpg
p27
sg21
Vhttp://i.ebayimg.com/images/g/pXYAAOSwfZ1WYa~Z/s-l300.jpg
p28
sa(dp29
g19
Vhttp://i.ebayimg.com/images/g/vA0AAOSw7FRWYa~Z/s-l1600.jpg
p30
sg21
Vhttp://i.ebayimg.com/images/g/vA0AAOSw7FRWYa~Z/s-l300.jpg
p31
sa(dp32
g19
Vhttp://i.ebayimg.com/images/g/klgAAOSwcBhWYa~a/s-l1600.jpg
p33
sg21
Vhttp://i.ebayimg.com/images/g/klgAAOSwcBhWYa~a/s-l300.jpg
p34
sa(dp35
g19
Vhttp://i.ebayimg.com/images/g/XvMAAOSwp5JWYa~b/s-l1600.jpg
p36
sg21
Vhttp://i.ebayimg.com/images/g/XvMAAOSwp5JWYa~b/s-l300.jpg
p37
sa(dp38
g19
Vhttp://i.ebayimg.com/images/g/x-MAAOSwHQ9WYa~d/s-l1600.jpg
p39
sg21
Vhttp://i.ebayimg.com/images/g/x-MAAOSwHQ9WYa~d/s-l300.jpg
p40
sa(dp41
g19
Vhttp://i.ebayimg.com/images/g/vIwAAOSw7FRWYa~d/s-l1600.jpg
p42
sg21
Vhttp://i.ebayimg.com/images/g/vIwAAOSw7FRWYa~d/s-l300.jpg
p43
sasS'shipping_info'
p44
(dp45
S'item_location'
p46
(lp47
V\u000aLexington, Kentucky, United States
p48
asS'delivery'
p49
(lp50
VVaries
p51
asS'posts_to'
p52
(lp53
VUnited States
p54
assS'id'
p55
S'252956136851'
p56
s.