(dp1
S'title'
p2
V2013 Florida Protect Florida Whales License Plate (WCM9P)
p3
sS'url'
p4
Vhttp://www.ecrater.com/p/25422458/2013-florida-protect-whales-license-plate?keywords=whale
p5
sS'price'
p6
V$60.00
p7
sS'seller'
p8
Vhttp://marksplates.ecrater.com
p9
sS'description_links'
p10
V2013 Florida Protect Florida Whales License Plate in great shape. All my License Plates are expired and are not valid for use on any vehicle and are to be used for display or collectible purposes only. Shipping is $6.00, add $1.00 each additional plate.
p11
sS'images'
p12
(lp13
Vhttp://s.ecrater.com/stores/337073/57f2f841d23e2_337073b.jpg
p14
asS'shipping_info'
p15
(lp16
VOnly 1 available
p17
aVShipping:US-Mainland: $6.00(more destinations)
p18
aVCondition: Used
p19
asS'id'
p20
V25422458
p21
s.