(dp1
S'title'
p2
VWhale Studio Women's Casual/Daily Cute Shift DressSolid Round Neck Above Knee  Sleeve Green Others
p3
sS'url'
p4
Vhttp://www.ecrater.com/p/26856447/whale-studio-womens-casual-daily?keywords=whale
p5
sS'price'
p6
V$59.39
p7
sS'seller'
p8
Vhttp://wdresses.ecrater.com
p9
sS'description_links'
p10
VSpecificationsSpecification: Occasion: Casual/Daily,Style: Cute,Season: Winter,Dresses Type: Shift,Gender: Women's,Color: Green,Pattern: Solid,Neckline: Round Neck,Sleeve Type: Flare Sleeve,Waistline Type: High Rise,Thickness: Medium,Elasticity: Inelastic,Fabric: Others,Look After Me: Wash inside out,Wash separately,Dress Length: Above Knee,Sleeve Length:  Sleeve,Clothing Shoulder Width (cm): S:36,M:37,L:38,XL:39,Clothing Bust (cm): S:82,M:86,L:90,XL:94,Clothing Waist (cm): S:68,M:72,L:76,XL:80,Clothing Sleeve (cm): S:49,M:50,L:51,XL:52,Clothing Length (cm): S:86,M:87,L:88,XL:89,Special Suggestion: This Style is TRUE to SIZE.,Specification: Front page: FF,Huge womens dresses in my store,welcome to take a look in my store! Kindly note,If there are option(color or size),you can send your choice via note or email after finish the order,or you can contact us send the option choice to me.It's good for delivery when there are contact phone numbers,if you aren't sure the pick-up address.There is "contact us" link on the upper right of product page,You can contact us via the link.
p11
sS'images'
p12
(lp13
sS'shipping_info'
p14
(lp15
VMore than 10 available
p16
aVShipping:US-Mainland: $6.00(more destinations)
p17
aVCondition: Brand new
p18
asS'id'
p19
V26856447
p20
s.