(dp1
S'title'
p2
V\u000aWOLF-EYES Pilot Whale-II Cree XM-L U2 Tactic Diving Fla\u000a
p3
sS'url'
p4
Vhttp://www.ioffer.com/i/wolf-eyes-pilot-whale-ii-cree-xm-l-u2-tactic-diving-fla-607330548
p5
sS'price'
p6
V$414.59
p7
sS'seller'
p8
(lp9
sS'description_links'
p10
VWOLF-EYES Pilot Whale-II Cree XM-L U2 Tactic Diving Flashlight     Specification: Product name: WOLF-EYES Pilot Whale-II XM-L U2 Diving Flashlight Brand: WOLF-EYES Model: Pilot Whale-II Emitter Brand CREE Emitter Type: XM-L U2 Material: Aerospace grade aluminum construction Mode: Turbo/High/Middle/Low/Strobe Battery Configurations: 3 x 18650 (LRB168A-2900mAh)(Batteries included) Reflector: High temperature processed, layers of alloy coating films Finish: Low temperature (-20???) hard - anodized (HA) finish treatment. Beam: Flawless concentrate beam Switch: The circular dimmer Brightness: 2486lumens Range: 200-500m Runtime: 70min with 100% brightness; 90min with 80% brightness; 220mins with 30% brightness ;45 hous with 2% brightness. Operation Temperature: -25???-60??? Waterproof: Diving depth can up to 100 meters. Color: Tactical black Weight: 765g(not included battery) Size: 216 x 73 x 46mm (length x head diameter x body diameter) Features: 1.3 x Super Cree XM-L U2 LED 3000lumens. 2.Professional Diving flashlight, Diving depth can up to 100 meters. 3.5 Digital Stages: OFF->(Turbo)Full Brightness-> 80% Brightness-> 30% Brightness-> 2% Brightness-> 100% Strobe. 4.Take out the battery magazine and replace the batteries observing proper battery polarity Insert the battery magazine into the body and install the tail cap back on to the body. 5.Rotate the ring at the bezel to select different brightness/output and also OFF the light. 6.High intensity beam with regulated output rating. 7.Replace Li-ion battery conveniently with battery magazine. 8.Aerospace-grade Aluminum body with special hard anodized finish, can suffer the corrosion of sea," salt water. Package included: 1 x WOLF-EYES Pilot Whale-II XM-L U2 Diving Flashlight 3 x LRB-168A Li-ion Battery (2900mAH) 1 x CH-1210B AC Charger 1 x Rope 50CM 1 x Special Package Box     SKU134509
p11
sS'images'
p12
(lp13
Vhttp://cdn.iofferphoto.com/img/item/607/330/548/t_R8Qjwolf-eyes-pilot-whale-ii-cree-xm-l-u2-tactic-diving-fla.jpg
p14
aVhttp://cdn.iofferphoto.com/img/item/607/330/548/t_wuOgwolf-eyes-pilot-whale-ii-cree-xm-l-u2-tactic-diving-fla.jpg
p15
aVhttp://cdn.iofferphoto.com/img/item/607/330/548/t_stgQwolf-eyes-pilot-whale-ii-cree-xm-l-u2-tactic-diving-fla.jpg
p16
asS'shipping_info'
p17
(lp18
sS'id'
p19
V607330548_1497058557
p20
s.