(dp1
S'title'
p2
V\u000aLARGE "KILLER WHALE & HAWK MAN" Authentic Northwest Coa\u000a
p3
sS'url'
p4
Vhttp://www.ioffer.com/i/large-killer-whale-hawk-man-authentic-northwest-coa-631865189
p5
sS'price'
p6
V$1,002.00
p7
sS'seller'
p8
(lp9
sS'description_links'
p10
V
sS'images'
p11
(lp12
Vhttp://cdn.iofferphoto.com/img/item/631/865/189/t_0JKBlarge-killer-whale-hawk-man-authentic-northwest-coa.jpg
p13
aVhttp://cdn.iofferphoto.com/img/item/631/865/189/t_0z8hlarge-killer-whale-hawk-man-authentic-northwest-coa.jpg
p14
aVhttp://cdn.iofferphoto.com/img/item/631/865/189/t_aFEKlarge-killer-whale-hawk-man-authentic-northwest-coa.jpg
p15
aVhttp://cdn.iofferphoto.com/img/item/631/865/189/t_9L47large-killer-whale-hawk-man-authentic-northwest-coa.jpg
p16
aVhttp://cdn.iofferphoto.com/img/item/631/865/189/t_BNFblarge-killer-whale-hawk-man-authentic-northwest-coa.jpg
p17
aVhttp://cdn.iofferphoto.com/img/item/631/865/189/t_gVIIlarge-killer-whale-hawk-man-authentic-northwest-coa.jpg
p18
aVhttp://cdn.iofferphoto.com/img/item/631/865/189/t_KDuFlarge-killer-whale-hawk-man-authentic-northwest-coa.jpg
p19
aVhttp://cdn.iofferphoto.com/img/item/631/865/189/t_ThP7large-killer-whale-hawk-man-authentic-northwest-coa.jpg
p20
aVhttp://cdn.iofferphoto.com/img/item/631/865/189/t_u0oIlarge-killer-whale-hawk-man-authentic-northwest-coa.jpg
p21
aVhttp://cdn.iofferphoto.com/img/item/631/865/189/t_Knt2large-killer-whale-hawk-man-authentic-northwest-coa.jpg
p22
aVhttp://cdn.iofferphoto.com/img/item/631/865/189/t_jrznlarge-killer-whale-hawk-man-authentic-northwest-coa.jpg
p23
asS'shipping_info'
p24
(lp25
sS'id'
p26
V631865189_1497058541
p27
s.