(dp1
S'title'
p2
VNorthern Right Whale Dolphin Skull Cast
p3
sS'url'
p4
Vhttp://www.boneroom.com/store/p1301/Northern_Right_Whale_Dolphin_Skull_Cast.html
p5
sS'price'
p6
V$309.00
p7
sS'seller'
p8
(lp9
sS'description_links'
p10
VLissodelphis borealis17.3 " in length
p11
sS'images'
p12
(lp13
Vhttp://www.boneroom.com//uploads/4/8/1/1/48118243/s521972503441136676_p1301_i1_w600.jpeg
p14
asS'shipping_info'
p15
(lp16
sS'id'
p17
Vp1301_1497058574
p18
s.