(dp1
S'title'
p2
VDwarf Sperm Whale Skull Cast
p3
sS'url'
p4
Vhttp://www.boneroom.com/store/p1308/Dwarf_Sperm_Whale_Skull_Cast.html
p5
sS'price'
p6
V$476.00
p7
sS'seller'
p8
(lp9
sS'description_links'
p10
VKogia simus11.4" in length
p11
sS'images'
p12
(lp13
Vhttp://www.boneroom.com//uploads/4/8/1/1/48118243/s521972503441136676_p1308_i1_w500.jpeg
p14
asS'shipping_info'
p15
(lp16
sS'id'
p17
Vp1308_1497058583
p18
s.