(dp1
S'title'
p2
VMelon-Headed Whale Skull Cast
p3
sS'url'
p4
Vhttp://www.boneroom.com/store/p1311/Melon-Headed_Whale_Skull_Cast.html
p5
sS'price'
p6
V$309.00
p7
sS'seller'
p8
(lp9
sS'description_links'
p10
VPeponocephala electra18.1 " in length
p11
sS'images'
p12
(lp13
Vhttp://www.boneroom.com//uploads/4/8/1/1/48118243/s521972503441136676_p1311_i1_w600.jpeg
p14
asS'shipping_info'
p15
(lp16
sS'id'
p17
Vp1311_1497058592
p18
s.