(dp1
S'title'
p2
VSperm Whale Tooth (Miocene) Cast
p3
sS'url'
p4
Vhttp://www.boneroom.com/store/p1566/Sperm_Whale_Tooth_%28Miocene%29_Cast.html
p5
sS'price'
p6
V$10.00
p7
sS'seller'
p8
(lp9
sS'description_links'
p10
VPhyseteridae sp.  6.5" x 2.5" x 1.5"
p11
sS'images'
p12
(lp13
Vhttp://www.boneroom.com//uploads/4/8/1/1/48118243/s521972503441136676_p1566_i1_w444.jpeg
p14
asS'shipping_info'
p15
(lp16
sS'id'
p17
Vp1566_1497058572
p18
s.