(dp1
S'title'
p2
VPOLAR BEAR RUG PLUSH white BIG 52" LARGE photography prop KING bearskin faux suede bottom
p3
sS'url'
p4
Vhttp://www.ecrater.com/p/12991152/polar-bear-rug-plush-white?keywords=polar+bear
p5
sS'price'
p6
V$179.99
p7
sS'seller'
p8
Vhttp://luckyshipper.ecrater.com
p9
sS'description_links'
p10
VSOFT ~ PLUSH ~ HIGH QUALITYPOLAR BEAR RUG BRAND NEWMeasures approx 57" long x 52" wide from claw to claw extended Plush Faux Fur Rug on one side Mock Suede smooth on the bottomComes in a zipper package great for gift giving! (other colors and styles available)
p11
sS'images'
p12
(lp13
Vhttp://s.ecrater.com/stores/51986/4ecd3d6f4f99c_51986b.jpg
p14
asS'shipping_info'
p15
(lp16
V2 available
p17
aVShipping:USPS calculated - check
p18
aVSales Tax: Arizona: 6.1%
p19
aVCondition: Brand new
p20
asS'id'
p21
V12991152
p22
s.