(dp1
S'title'
p2
VVHTF Vintage 1989 Dakin Hugging Polar Bears Hearts On Tush Red Bows Red Velour Feet Lovey Plush 9"
p3
sS'url'
p4
Vhttp://www.ecrater.com/p/16038571/vhtf-vintage-1989-dakin-hugging-polar?keywords=polar+bear
p5
sS'price'
p6
V$99.99
p7
sS'seller'
p8
Vhttp://overtherainbow.ecrater.com
p9
sS'description_links'
p10
VThis is a Very Hard To Find 1989 Dakin Hugging Polar Bear Plushes that measure 9 inches head to foot.Polar bears are white fur with red satin bows, red plastic hearts on their tushes, black button eyes ( girl has black furry eyebrows), black plastic noses and red velour like bottoms of their feet. Please visit our homepage to see our terms concerning vintage items on this site.These come from a non-smoking environment and have no rips or tears.
p11
sS'images'
p12
(lp13
Vhttp://s.ecrater.com/stores/197701/505a207a3ce83_197701b.jpg
p14
asS'shipping_info'
p15
(lp16
VOnly 1 available
p17
aVShipping:US-Mainland: $6.30(more destinations)
p18
aVCondition: Used
p19
asS'id'
p20
V16038571
p21
s.