(dp1
S'title'
p2
VVintage 1985 24k Polar Puff by Special Effects Jeb Plush walking Bear 9"
p3
sS'url'
p4
Vhttp://www.ecrater.com/p/22288652/vintage-1985-24k-polar-puff-by?keywords=polar+bear
p5
sS'price'
p6
V$129.00
p7
sS'seller'
p8
Vhttp://gojeweled.ecrater.com
p9
sS'description_links'
p10
VThis is a 9" tall, vintage 1985 24k Polar Puff by Special Effects #4672 Jeb Bear plush stuffedcollectible toyCondition - great - clean - used for display only.PLEASE SEE PICTURES FOR DETAILS AND E-MAIL YOUR QUESTIONS.Take advantage of combined shipments!Check out my other items!Be sure to add me to your favorites list!On Dec-28-11 at 16:01:29 PST, seller added the following information:
p11
sS'images'
p12
(lp13
sS'shipping_info'
p14
(lp15
VOnly 1 available
p16
aVShipping:USPS calculated - check
p17
aVCondition: Used
p18
asS'id'
p19
V22288652
p20
s.