(dp1
S'title'
p2
VHuge Vintage Needlework Naive Impressionist Folk Art Polar Bear Cubs Village
p3
sS'url'
p4
Vhttp://www.ecrater.com/p/22971732/huge-vintage-needlework-naive-impressionist?keywords=polar+bear
p5
sS'price'
p6
V$150.00
p7
sS'seller'
p8
Vhttp://divebackintime.ecrater.com
p9
sS'description_links'
p10
VFanciful and delightful!.Exuberant vintage large scale needlework.Landscape, village life scene.Cottage with a smoking chimney.Horse and rider, ice house with  meat or fish hook hanging from the roof.Female figure carrying a covered vessel, and polar bear cubs....you decide that one!!.Excellent condition. Post-Impressionist effect in the grass .Extremely charming and folky Work is  20" x 28"Frame 21" x 29"Framed in a museum frame It is vintage, and any imperfections that have occurred only add to its charm and uniqueness.If you are expecting it to be new in the box, never touched by life or human hands, it is not for you.Please do not purchase it.Please note:The shipping cost is clearly stated, if you do not feel it is right please let me know before purchase.By purchasing you agree to the shipping cost in the listing.If local pick ups: Buyer must advise me through eCRATER messaging, within 72 hours after making payment, of the shipper that will be picking up the item. 48 hours notice is required from the shipper to pick up the item.Pick up only Monday through Friday. The shipper must provide me with an acceptable to me time frame for the pick up 48 hours prior to pick up. International buyers please note the following information below.Import duties, taxes and charges are not included in the item price or shipping charges. These charges are the buyer's responsibility.Please check with your country's customs office to determine what these additional costs will be prior to looking/buying.These charges are normally collected by the delivering freight (shipping) company or when you pick the item up.Do not confuse them for additional shipping charges.inkfrog terapeakinkFrog Analytics
p11
sS'images'
p12
(lp13
Vhttp://s.ecrater.com/stores/362351/55a25212b27b8_362351b.jpg
p14
asS'shipping_info'
p15
(lp16
VOnly 1 available
p17
aVShipping:US-Mainland: free(more destinations)
p18
aVCondition: Used
p19
asS'id'
p20
V22971732
p21
s.