(dp1
S'title'
p2
Vnew vickerman 23.5" x 43" female polar bear sculpture with 1540 led lights
p3
sS'url'
p4
S'http://www.ebay.com/itm/New-Vickerman-23-5-x-43-Female-Polar-Bear-Sculpture-with-1540-LED-Lights-/232091592894?hash=item3609bca8be:g:~6IAAOSw8w1X5C2i'
p5
sS'price'
p6
VUS $3,023.28
p7
sS'seller'
p8
(dp9
g4
Vhttp://www.ebay.com/usr/universalchristmas?_trksid=p2047675.l2559
p10
sS'name'
p11
V universalchristmas
p12
ssS'description_links'
p13
(lp14
Vhttp://vi.vipr.ebaydesc.com/ws/eBayISAPI.dll?ViewItemDescV4&item=232091592894&t=0&tid=10&category=38229&seller=universalchristmas&excSoj=1&excTrk=1&lsite=0&ittenable=false&domain=ebay.com&descgauge=1
p15
asS'images'
p16
(lp17
(dp18
S'maxImageUrl'
p19
Vhttp://i.ebayimg.com/images/g/~6IAAOSw8w1X5C2i/s-l1600.jpg
p20
sS'displayImgUrl'
p21
Vhttp://i.ebayimg.com/images/g/~6IAAOSw8w1X5C2i/s-l300.jpg
p22
sasS'shipping_info'
p23
(dp24
S'item_location'
p25
(lp26
V\u000aQuincy, Illinois, United States
p27
asS'delivery'
p28
(lp29
VVaries
p30
asS'posts_to'
p31
(lp32
VUnited States
p33
assS'id'
p34
S'232091592894'
p35
s.