(dp1
S'title'
p2
VLeg Avenue Cozy Polar Bear Size S
p3
sS'url'
p4
Vhttp://www.ecrater.com/p/23652100/leg-avenue-cozy-polar-bear?keywords=polar+bear
p5
sS'price'
p6
V$52.99
p7
sS'seller'
p8
Vhttp://worldclasscostumes.ecrater.com
p9
sS'description_links'
p10
VCozy Polar Bear Costume features zipper front fleece dress with stuffed bear hood and attached striped scarf.color white/redSku 85527
p11
sS'images'
p12
(lp13
Vhttp://s.ecrater.com/stores/359695/575f4294798fb_359695b.jpg
p14
asS'shipping_info'
p15
(lp16
VMore than 10 available
p17
aVShipping:USPS calculated - check
p18
aVSales Tax: Florida: 7%
p19
aVCondition: Brand new
p20
asS'id'
p21
V23652100
p22
s.