(dp1
S'title'
p2
VPolar Bear Fur Head,Polar Bear Fur Headdress,Polar Bear Furry Head
p3
sS'url'
p4
Vhttp://www.ecrater.com/p/24718962/polar-bear-fur-headpolar-headdresspolar?keywords=polar+bear
p5
sS'price'
p6
V$129.00
p7
sS'seller'
p8
Vhttp://cosplaycostumediy.ecrater.com
p9
sS'description_links'
p10
VPolar Bear Fur Head,Polar Bear Fur Headdress,Polar Bear Furry HeadSize: One-Size-Fit-AllDelivery: 3-4 days for design,7-10 days for delivery.Payment: PaypalPolar Bear Fur Head,Polar Bear Fur Headdress,Polar Bear Furry Head
p11
sS'images'
p12
(lp13
Vhttp://s.ecrater.com/stores/371482/57318853aec27_371482b.jpg
p14
asS'shipping_info'
p15
(lp16
V10 available
p17
aVShipping:US-Mainland: free(more destinations)
p18
aVCondition: Brand new
p19
asS'id'
p20
V24718962
p21
s.