(dp1
S'title'
p2
VChristmas Inflatable Polar Bear Penguins Lights Indoor Outdoor Garden Decoration #114
p3
sS'url'
p4
Vhttp://www.ecrater.com/p/24872457/christmas-inflatable-polar-bear-penguins?keywords=polar+bear
p5
sS'price'
p6
V$98.00
p7
sS'seller'
p8
Vhttp://gotinflatables.ecrater.com
p9
sS'description_links'
p10
VSelf Inflates in Moment, Inflated Size: 101" x 59" x 96" (L x W x H)Lights Up for Better Nighttime ViewingSelf Inflates in MinutesDeflates Back Down for Easy StorageGood for indoor and outdoor useEverything included: Inflatable, Fan, Ground Stakes and TethersEasy Set UpVoltage: 110VDESCRIPTION:This is a perfect gift or decoration to take family holiday photos with. This Inflatable is a must-have to complete your holiday decor. With self-inflating design, this Inflatable will be presented in front of you in seconds. The weatherproof design allows both indoor and outdoor use. With the lights, it is the perfect decoration at your front door or backyard at night. Worried about storage? Simply let the air out and fold it! It's thin like a paper. Instructions included. CAUTION:Do not inflate during storms or strong winds. Protect fan and power cord from water. Not for use in temperatures below 14 degrees F (or -10 degrees C). Not for children under 3 years. HANDLING TIME: After your payment has cleared, it will be about 1 business day later that your shipping label will be printed and queued to go out in our daily afternoon shipments. We are open Monday - Friday 9am - 4pm Pacific Standard Time. We do not process orders on the weekend. We DO NOT ship free to Canada, Hawaii, and Alaska (sorry!) If you have ANY questions about shipping, please email us before you buy! OVERNIGHT SHIPPING: We offer expedited and overnight shipping services wherever possible. We strive to provide accurate quotes for all faster shipping methods. Overnight shipping does not include weekends, and we cannot guarantee same day processing for overnight orders if you do not contact us first. Email us before you complete a rush order via eCRATER for the fastest service. SALE TAX: Seller charges sales tax for items shipped to: CA (California) 8.0%DAMAGE IN SHIPPING: Email Us First! We will work with you to get the case resolved in the fastest method possible working with the appropriate shipping providers, and getting you a replacement item quicker than if you had filed a claim with the shipping provider yourself. PayPal: We only accept payments through PayPal when purchasing our products through eCRATER.  This is the only way to guarantee that automated processes work correctly.  We want you to feel safe and secure in your purchases. Keeping everything within PayPal and eCRATER protects both the buyer and the seller.   RETURN POLICY: Email us first for approval and assignment of an RMA number.  We accept returns for refunds within 14 days of your product receipt. Return Shipping Costs: If shipping to you was free and the item is working, you must pay for the shipping of items back to us.  In the case where you receive the item damaged, we will replace parts or the item at no charge to you or provide you with a refund in the case where we cannot fulfill a replacement shipment. There is a 20% restocking fee for any return items. Feedback: We value you as a customer and your complete satisfaction is our goal. If for any reason you feel you cannot leave us the highest 5-Star feedback in every category, please let us know prior to leaving feedback and we will do our best to rectify any problem to your satisfaction.  5 Star Customer Service Thank you for shopping GOT INFLATABLES.
p11
sS'images'
p12
(lp13
Vhttp://s.ecrater.com/stores/266696/5761eac0a7701_266696b.jpg
p14
asS'shipping_info'
p15
(lp16
VMore than 10 available
p17
aVShipping:US-Mainland: free(more destinations)
p18
aVSales Tax: California: 8%
p19
aVCondition: Brand new
p20
asS'id'
p21
V24872457
p22
s.