(dp1
S'title'
p2
VVintage Abraham Palatnik Lucite Acrylic Polar Bear Sculpture Figurine Pal 2448
p3
sS'url'
p4
Vhttp://www.ecrater.com/p/27041938/vintage-abraham-palatnik-lucite-acrylic?keywords=polar+bear
p5
sS'price'
p6
V$125.00
p7
sS'seller'
p8
Vhttp://artobsessed.ecrater.com
p9
sS'description_links'
p10
VView more great itemsAbraham Palatnik Polar BearFigurine SculptureAnothergreat piece from Brazil's most sought after artistMeasuring approx. 6 1/2 inches long by 3 1/2 inches tallSigned Pal (as shown in last photograph)In Excellent vintage, pre-owned condition**FREE SHIPPING WITHIN CONTINENTAL UNITED STATES INCLUDES TRACKING,INSURANCE AND DELIVERY CONFIRMATION. If you would like to purchase multiple items from our shop, please contact us PRIOR to purchasing,that way we can work with you to determine if you are eligible for a multiple piece purchase discount &/or figure outthe best and least expensive method for shipping in order to save you money!!! If you are not using Global Shipping Program for international shipments, please contact usfor a shipping quote to your international destination.For those electing to use the Global Shipping Program for international shipments, if you would like topurchase multiple items from our shop, PLEASE contact us prior to checking out! We want to help you combine shipments and save you money!!!WE HAVE A LARGE COLLECTION OF PALATNIK PIECES FOR SALE, FEEL FREETO INQUIRE WITHIN AS TO OTHER PIECES IN OUR INVENTORY.PLEASE READ BEFORE YOU buyPlease ask all questionsPRIOR TO looking &/OR MAKING A PURCHASEwhich commitsyou to buying the item(s) listed and agreeing to the following policies:ALL SALES ARE FINAL unless item is grossly misrepresented.We accept Paypal only for Payment. Payment is due within 3 days of end of product unless item is listed as a Buy It Now/OBO; immediate payment is required for these types of listings. Immediate payments are preferred and are always appreciated!If no contact is made within 3 days of product\u2019s end, we reserve the right to send 2ndchance, relist and/or file a non-payment claim with eCRATER.Refunds and ExchangesALL SALES ARE FINAL unless item is grossly misrepresented. In the rare event that an item is accepted for return,purchaser is responsible for return shipping fees.In the event that an item is damaged or lost during shipment, the seller will put a claim in to the shipping carrier. The buyer will provide the seller with all necessary information to file a claim (i.e. photos of damage/return of original shipping materials and item(s) damaged). Once the claim is approved, then the buyer will be reimbursed/refunded accordingly.Once an item has been confirmed by the shipping carrier as "delivered" to the address provided by the buyer; the seller is no longer responsible for said item, therefore please have your items shipped to a secure location.ShippingMost items are shipped within two days of receiving payment. Items are always insured & tracking information will be sent to the buyer upon request. We package our items with care, always using necessary packing materials such as bubble wrap or packing peanuts to ensure your items arrive without damage.Shipping includes insurance to the lower 48 states.**Please contact us prior to looking for shipping rates to any other areas and/or countries as theymight be higher or lowerthan the fees listed.**International BuyersPlease note: Import taxes, duties and charges are the buyer\u2019s responsibility andare not includedin the item price or shipping charges.It is the buyer\u2019s responsibility to check with their country\u2019s customs office to determine any additional fees that might be imposed.We do not mark merchandise values below value or indicate that they are "gifts" - US and International government regulations prohibit such behavior.           FREE!  Sellers: Add a FREE map to your listings. FREE!PLEASE NOTE:Purchases sold and shipped in NYS will be subject to NYS Sales TaxINTERNATIONAL BUYERS SHIPPING CHARGES: With the exception of a few items (those really large &/or very heavy) we will gladly ship to all international destinations. We offer two options for international shipping. One option is via eCRATER's Global Shipping Program (if you select this method you pre-pay for any applicable import duties or taxes).The second option is having us ship your international package. We have extensive experience with doing our own international shipping. Since there are different options and prices for various locations, we are unable to provide a price quote for international shipping, done on our behalf, for each item available for purchase. If interested in getting an international shipping quote, besides the one already provided (which is via eCRATER's Global Shipping Program) PLEASE send us a message and provide us with your international destination shipping address for a shipping quote to have us ship your items/package to your country. There is no obligation to purchase anything to get a shipping quote, so feel free to contact us!!!! Thank you!,RcmdId ViewItemDescV4,RlogId p4%60bo7%60jtb9%3Feog4d71f%2B0a7%3E-15b8007fac5-0x124-->
p11
sS'images'
p12
(lp13
sS'shipping_info'
p14
(lp15
VOnly 1 available
p16
aVShipping:US-Mainland: free(more destinations)
p17
aVSales Tax: New York: 8.38%
p18
aVCondition: Used
p19
asS'id'
p20
V27041938
p21
s.