(dp1
S'title'
p2
V30" Commercial Walking Plush White Polar Bear Christmas Decoration
p3
sS'url'
p4
Vhttp://www.ecrater.com/p/27319788/30-commercial-walking-plush-white-polar?keywords=polar+bear
p5
sS'price'
p6
V$129.99
p7
sS'seller'
p8
Vhttp://christmas-central.ecrater.com
p9
sS'description_links'
p10
Vtitles & descriptions                                                                                                                                                                                                                                                                                                                                                                                                                                                                                                                                                                                                                                                                                                                                                                                                                                                                                                                                                                                                                                                                                                                                                                                                                                                                                                                                                                                                                                                                                                                                                                                                                                                                                                                                                                                                                                                                                                                                                                                                                                                                                                                                                                                                                                                                                                                                                                                                                                                                                                                                                                                                                                                                                                                                                                                                                                                                                                                                                                                                                                                                                                                                                                                                                                                                                                                                                                                                                                                                                                                                                                                                                                                                                                                                                                                                                                                                                                                                                                                                                                                                                                                                                                                                                                                                                                                                                                                                                                                                                                                                                                                                                                                                                                                                                                                                                                                                                                                                                                                                                                                                                                                                                                                                                                                                                                                                                                                                                                                                                                                                                                                                                                                                                                                                                                                                                                                                                                                                                                                                                                                                                                                                                                                                                                                                                                                                                                                                                                                                                                                                                                                                                                                                                                                                                                                                                                                                                            30" Commercial Walking Plush White Polar Bear Christmas Decoration                                                                                                                                                                                                                                                                                                                                                                                                                                                                                                                                                                                                                                                                                                                                                                                                                                                                                                                                                                                                                                                                                                                                                                                                                                                                                                                                                                                                                                                                                                                                                                                                                                                                                                                                                                                                                                                                                                                                                                                                                                                                                                                                                                                                                                                                                                                                                                                                                                                                                                                                                                                                                                      Large white polar bear is in a walking pose, has large black beaded eyes, a sweet little smile and is wearing a red scarf  Accented with sparkling glitter  Bear features a soft, plush cotton outer shell with a lightweight foam core which makes moving the bear an easy task  Commercial decoration  Recommended for indoor use    Dimensions: 30"W x 15"H x 12"D  Material(s): cotton/fabric/foam                                                                        SKU: NORTHLIGHT JA83732                                                                         UPC# 762152760576
p11
sS'images'
p12
(lp13
sS'shipping_info'
p14
(lp15
VOnly 1 available
p16
aVShipping:US-Mainland: $7.00(more destinations)
p17
aVSales Tax: New York: 8.75%
p18
aVCondition: Brand new
p19
asS'id'
p20
V27319788
p21
s.