(dp1
S'title'
p2
V24" Battery Operated LED Lighted Tinsel Polar Bear Christmas Decoration
p3
sS'url'
p4
Vhttp://www.ecrater.com/p/27316976/24-battery-operated-led-lighted-tinsel?keywords=polar+bear
p5
sS'price'
p6
V$59.99
p7
sS'seller'
p8
Vhttp://christmas-central.ecrater.com
p9
sS'description_links'
p10
Vtitles & descriptions                                                                                                                                                                                                                                                                                                                                                                                                                                                                                                                                                                                                                                                                                                                                                                                                                                                                                                                                                                                                                                                                                                                                                                                                                                                                                                                                                                                                                                                                                                                                                                                                                                                                                                                                                                                                                                                                                                                                                                                                                                                                                                                                                                                                                                                                                                                                                                                                                                                                                                                                                                                                                                                                                                                                                                                                                                                                                                                                                                                                                                                                                                                                                                                                                                                                                                                                                                                                                                                                                                                                                                                                                                                                                                                                                                                                                                                                                                                                                                                                                                                                                                                                                                                                                                                                                                                                                                                                                                                                                                                                                                                                                                                                                                                                                                                                                                                                                                                                                                                                                                                                                                                                                                                                                                                                                                                                                                                                                                                                                                                                                                                                                                                                                                                                                                                                                                                                                                                                                                                                                                                                                                                                                                                                                                                                                                                                                                                                                                                                                                                                                                                                                                                                                                                                                                                                                                                                                            24" Battery Operated LED Lighted Tinsel Polar Bear Christmas Decoration                                                                                                                                                                                                                                                                                                                                                                                                                                                                                                                                                                                                                                                                                                                                                                                                                                                                                                                                                                                                                                                                                                                                                                                                                                                                                                                                                                                                                                                                                                                                                                                                                                                                                                                                                                                                                                                                                                                                                                                                                                                                                                                                                                                                                                                                                                                                                                                                                                                                                                                                                                                                                                      Battery Operated Lighted Polar Bear Christmas Decoration  Item #AL2012-1025S    Features:  Pre-lit with a total of 35 blue LED mini lights  Bulb size: concave wide angle  Glitter, sparkles and sugar-like faux crystals are woven through his tinsel body for a look that just shimmers and sparkles with ice   If one bulb burns out, the rest will stay lit  Requires 3 "AA" batteries (not included)    Additional product features:  LED lights use 90% less energy   Super bright bulbs   Bulbs last up to 100,000 hours   Battery pack sits inside the body of the polar bear, with controller options: on/off/blinking  Recommended for indoor use - if using outdoors use under a covered area or porch   Non-replaceable bulbs    Dimensions: 18"H x 24"W x 9.5"D
p11
sS'images'
p12
(lp13
sS'shipping_info'
p14
(lp15
VOnly 1 available
p16
aVShipping:US-Mainland: $7.00(more destinations)
p17
aVSales Tax: New York: 8.75%
p18
aVCondition: Brand new
p19
asS'id'
p20
V27316976
p21
s.