(dp1
S'title'
p2
VBrown Bear - Vol. 2
p3
sS'url'
p4
Vhttp://store.yahoo.com/yhst-66562580642243/brown-bear--vol-2.html
p5
sS'price'
p6
(lp7
sS'seller'
p8
(lp9
sS'description_links'
p10
VBrown Bear - Vol. 2 Photo Reference Cd
p11
sS'images'
p12
(lp13
Vhttp://ep.yimg.com/ay/yhst-66562580642243/brown-bear-vol-2-9.gif
p14
asS'shipping_info'
p15
(lp16
sS'id'
p17
Vbrown-bear--vol-2_1497064717
p18
s.