(dp1
S'title'
p2
Vyamaha rhino yxr450 yxr660 dust seal 5ug-f3527-00
p3
sS'url'
p4
S'http://www.ebay.com/itm/Yamaha-Rhino-YXR450-YXR660-Dust-Seal-5UG-F3527-00-/361539577829?hash=item542d7027e5:g:BPUAAOSwYudXGTgs&vxp=mtr'
p5
sS'price'
p6
(lp7
sS'seller'
p8
(dp9
g4
Vhttp://www.ebay.com/usr/fatmansparts?_trksid=p2047675.l2559
p10
sS'name'
p11
V fatmansparts
p12
ssS'description_links'
p13
(lp14
Vhttp://vi.vipr.ebaydesc.com/ws/eBayISAPI.dll?ViewItemDescV4&item=361539577829&t=1493238662000&tid=10&category=10064&seller=fatmansparts&excSoj=1&excTrk=1&lsite=100&ittenable=false&domain=ebay.com&descgauge=1
p15
asS'images'
p16
(lp17
(dp18
S'maxImageUrl'
p19
Vhttp://i.ebayimg.com/images/g/BPUAAOSwYudXGTgs/s-l1600.jpg
p20
sS'displayImgUrl'
p21
Vhttp://i.ebayimg.com/images/g/BPUAAOSwYudXGTgs/s-l300.jpg
p22
sasS'shipping_info'
p23
(dp24
S'item_location'
p25
(lp26
V\u000aLake Elsinore, California, United States
p27
asS'delivery'
p28
(lp29
VVaries
p30
asS'posts_to'
p31
(lp32
VWorldwide
p33
assS'id'
p34
S'361539577829'
p35
s.