(dp1
S'title'
p2
VLarge Rhino Beetle in Lucite
p3
sS'url'
p4
Vhttp://www.boneroom.com/store/p364/Large_Rhino_Beetle_in_Lucite.html
p5
sS'price'
p6
V$14.00
p7
sS'seller'
p8
(lp9
sS'description_links'
p10
VLarge4.31" x 1.63" x 1.13"
p11
sS'images'
p12
(lp13
Vhttp://www.boneroom.com//uploads/4/8/1/1/48118243/s521972503441136676_p364_i2_w600.jpeg
p14
asS'shipping_info'
p15
(lp16
sS'id'
p17
Vp364_1497059749
p18
s.