(dp1
S'title'
p2
VAATP twilight circus jsk I/ mini hat / tight set ivory x brown
p3
sS'url'
p4
Vhttp://www.ecrater.com/p/20971294/aatp-twilight-circus-jsk-i-mini?keywords=ivory
p5
sS'price'
p6
V$465.00
p7
sS'seller'
p8
Vhttp://kittycarousel.ecrater.com
p9
sS'description_links'
p10
VAATP twilight circus jsk I/ mini hat / tight set ivory x browncondition: Dress, used has a small spot of the back came from aatp this way. hat used. tights are offbrand and are newapprox measurements:Bust: 83-95Waist: 62-74Length: 93cm
p11
sS'images'
p12
(lp13
Vhttp://s.ecrater.com/stores/289402/5446cce858158_289402b.jpg
p14
asS'shipping_info'
p15
(lp16
VOnly 1 available
p17
aVShipping:US-Mainland: $22.00(more destinations)
p18
aVCondition: Used
p19
asS'id'
p20
V20971294
p21
s.