(dp1
S'title'
p2
VAlfred Angelo size 4 Ivory
p3
sS'url'
p4
Vhttp://www.ecrater.com/p/23610333/alfred-angelo-size-4-ivory?keywords=ivory
p5
sS'price'
p6
V$499.99
p7
sS'seller'
p8
Vhttp://ladyslipperbridaloutlet.ecrater.com
p9
sS'description_links'
p10
VDetails Original Price 999.99Color IvorySize 4Net, Organza, Re-Embroidered Lace. Rhinestones, Pearls, Crystal Beading. Sequins.Straps. Chapel Train. Also Available with Lace-up Back as Style.
p11
sS'images'
p12
(lp13
sS'shipping_info'
p14
(lp15
VOnly 1 available
p16
aVShipping:USPS calculated - check
p17
aVCondition: Brand new
p18
asS'id'
p19
V23610333
p20
s.