(dp1
S'title'
p2
VVintage Style Pole Pocket Ivory 100% cotton Velvet curtain Theater/Stage Panel - 20Wx10H FT
p3
sS'url'
p4
Vhttp://www.ecrater.com/p/24375775/vintage-style-pole-pocket-ivory-100?keywords=ivory
p5
sS'price'
p6
V$449.99
p7
sS'seller'
p8
Vhttp://fabricart.ecrater.com
p9
sS'description_links'
p10
VROYAL VELVET CURTAINS100% Cotton ROYAL Velvet Curtain when fully extended/stretched out completely* THESE ARE NOT LINED AND PLEATED CURTAIN* For Lined and Pleated curtains extra charges will be applyThis material is made of High Quality (Luxuries) 100% Cotton Velvet and weighs about 16oz. per yard.This material hangs very beautifully and is soft to the touch!PANEL - 1Size : 20FT W BY 10FT H (240"W BY 144"H)Color : Ivory (Other Colors also available)Best for  Satges/Theatre/Studio/Halls/Clubs/Pubs/Churches/Home/Room Divider/Bars/Parlour/Backdrop/School/Launge & Hotel etcSTYLE : ROD POCKET TOPYou can have choice of EyeletCurtain comes with JOINT!!100% Cotton Velvet Curtain has been mainly used for  Stages & Theatre it being a very heavy and thick material, which makes it great for sound absorption.This Curtain is Professionally made!Make sure to check out our store for other sizes and Styles!Customized Sizes Option is also availableFeel free to ask any question. Please look at the pictures for a better description of this item.The pictures show with and without flash, of the material.We do custom made Work in any Size and Quantity!This Curtain is not made of Fire Retardant Chemicals nor has it been sprayed with any Fire retardant Chemicals.The Curtain you will be receiving will be exactly or almost exactly like the one shown. The picture is a stock picture we use for all the  100% Cotton Velvet curtains we sell. The only thing that's different is the measurements.About us* We are one of the LEADING MANUFACTURERS OF VELVET CURTAINS, VELVET BEDDING etc* We have over 10 years of experience specifically in Egyptian Cotton Products.* We also have been manufacturing Egyptian Cotton Sheet Sets for over 3 years.FeedbackLeaving Negative or Neutral Feedback will not solve a problem, so please contact us if you have any questions or any complaints before leaving a FeedbackYour feedback is important for us to grow our business on eBay, so please do leave feedback.THANK YOU SO MUCH
p11
sS'images'
p12
(lp13
Vhttp://s.ecrater.com/stores/295242/56d023ac66f4f_295242b.jpg
p14
asS'shipping_info'
p15
(lp16
VMore than 10 available
p17
aVShipping:US-Mainland: free(more destinations)
p18
aVCondition: Brand new
p19
asS'id'
p20
V24375775
p21
s.