(dp1
S'title'
p2
VLouis Vuitton Runway Leather Briefacse M95779 211486 Ivory Satchel
p3
sS'url'
p4
Vhttp://www.ecrater.com/p/26071035/louis-vuitton-runway-leather-briefacse?keywords=ivory
p5
sS'price'
p6
V$1,299.00
p7
sS'seller'
p8
Vhttp://bagriculture.ecrater.com
p9
sS'description_links'
p10
VThis item will ship immediately!!Previously owned.Date Code: FO 0056Made In: ItalyMeasurements: Length: 17" Width: 5" Height: 13"Handle Drop: 3.5"Zipper works well.Signs of Wear: minir scuffs on the exterior. Minor Creases on the exterior leather. Scratches on the hardware. Light marks on the interior. This item does not come with any other extra accessories.Please review measurements and photos to see if this is the perfect item for you.Please keep in mind that measurements are provided only as a guide and are approximate.Please review photos for more details.Color appearance may vary depending on your monitor settings.SKU :  M95779 211486
p11
sS'images'
p12
(lp13
Vhttp://s.ecrater.com/stores/395073/586b3f53394c8_395073b.jpg
p14
asS'shipping_info'
p15
(lp16
VOnly 1 available
p17
aVShipping:US-Mainland: free(more destinations)
p18
aVSales Tax: New York: 8.88%
p19
aVCondition: Used
p20
asS'id'
p21
V26071035
p22
s.