(dp1
S'title'
p2
VChanel Cc Classic Flap Crossbody 211694 Ivory Messenger Bag
p3
sS'url'
p4
Vhttp://www.ecrater.com/p/26071012/chanel-cc-classic-flap-crossbody-211694?keywords=ivory
p5
sS'price'
p6
V$825.00
p7
sS'seller'
p8
Vhttp://bagriculture.ecrater.com
p9
sS'description_links'
p10
VThis item will ship immediately!!Previously owned.Date/style Code: 12228415Made In: ItalyMeasurements: Length: 12.5" Width:2.7" Height:9"Shoulder strap drop: 16"-22""Signs of Wear: Considerable scuffs on the exterior, especially on the bottom of the bag where there is peeling of the material. Discoloration of the exterior. Scuffs and small stains on the front of the flap. Staining of the interior.Slight cigarette odor. Authenticity card and dust bag included.This item does not come with any other extra accessories.Please review measurements and photos to see if this is the perfect item for you.Please keep in mind that measurements are provided only as a guide and are approximate.Please review photos for more details.Color appearance may vary depending on your monitor settings.SKU : 211694
p11
sS'images'
p12
(lp13
Vhttp://s.ecrater.com/stores/395073/586b3f59d598e_395073b.jpg
p14
asS'shipping_info'
p15
(lp16
VOnly 1 available
p17
aVShipping:US-Mainland: free(more destinations)
p18
aVSales Tax: New York: 8.88%
p19
aVCondition: Used
p20
asS'id'
p21
V26071012
p22
s.