(dp1
S'title'
p2
V9X12 Aubusson Area Rug YELLOW BEIGE IVORY W PINK ROSE Wool French Decor Carpet
p3
sS'url'
p4
Vhttp://www.ecrater.com/p/26696028/9x12-aubusson-area-rug-yellow?keywords=ivory
p5
sS'price'
p6
V$1,749.00
p7
sS'seller'
p8
Vhttp://aubussoncastle.ecrater.com
p9
sS'description_links'
p10
VHandwoven French Aubusson Rug~ Shabby Chic COUNTRY FRENCH ~Yellow Beige IvoryWOOL HANDWOVEN!!!~Description~Style: Antique reproduction French rose floral  flat weave tridational thin aubusson rug, not piled or tufted.Craftsmanship: Handwoven in China following the same antique aubusson weaving craftsmanship used centuries ago in the Aubusson town of France.   Thin but durable to last for generations and convenient to use for all seasons.Size: 9'x12' (270x365cm)   approx. rectangle.Weight:  arround  12kgs.Retail Value:  over USD4000EXCLUSIVE DESIGN!------NEWLY HANDWOVEN!------FINE QUALITY------GENIUNE FRENCH AUBUSSON RUG!Soft pastel shading!  light beige background,   Ivory main borders,   Yellow Brown Edges. pink roses!   Very elegant French style!Newly handwoven to show up!  Very are to find in today's market!This pattern is suitable to go with most of the muted french decorations.* Only top quality and genuine handwoven aubussons are guaranteed!!Storage: This antique reproduction aubusson rug comes from a smoke free and pet free environment.Always buy with full  confidence after checking the market to know quality and prices well!!~Shipping~Free shipping to USA, Canada, UK, Australia, New Zealand and most Europe.By DHL/EMS/Fedex/TNT/Aramex air express taking around 7-10 days to arrive!Traceable online! ~Return Policy~Returns are accepted with no conditions and no reasons!For quality reasons, shipping fees back and forth are on us. For other issues or no reason returns, we bear one way and buyers bear one way back.~Contact~Please contact me at "elitcha@msn.com".or call 0086-139-5347-8428 directly.
p11
sS'images'
p12
(lp13
Vhttp://s.ecrater.com/stores/164925/58c33f7612c9f_164925b.jpg
p14
asS'shipping_info'
p15
(lp16
VOnly 1 available
p17
aVShipping:US-Mainland: free(more destinations)
p18
aVCondition: Brand new
p19
asS'id'
p20
V26696028
p21
s.