(dp1
S'title'
p2
Vmassive antique hand carved wood barbola and cane bedroom suite
p3
sS'url'
p4
S'http://www.ebay.com/itm/Massive-Antique-Hand-Carved-Wood-Barbola-and-Cane-Bedroom-Suite-/371850550160?hash=item5694051b90:g:amUAAOSwhcJWL6Qs'
p5
sS'price'
p6
VUS $50,000.00
p7
sS'seller'
p8
(dp9
g4
Vhttp://www.ebay.com/usr/lakegenevaantiques?_trksid=p2047675.l2559
p10
sS'name'
p11
V lakegenevaantiques
p12
ssS'description_links'
p13
(lp14
Vhttp://vi.vipr.ebaydesc.com/ws/eBayISAPI.dll?ViewItemDescV4&item=371850550160&t=1457184680000&tid=10&category=63550&seller=lakegenevaantiques&excSoj=1&excTrk=1&lsite=0&ittenable=false&domain=ebay.com&descgauge=1
p15
asS'images'
p16
(lp17
(dp18
S'maxImageUrl'
p19
Vhttp://i.ebayimg.com/images/g/amUAAOSwhcJWL6Qs/s-l1600.jpg
p20
sS'displayImgUrl'
p21
Vhttp://i.ebayimg.com/images/g/amUAAOSwhcJWL6Qs/s-l300.jpg
p22
sa(dp23
g19
Vhttp://i.ebayimg.com/images/g/KJcAAOSwo0JWKQoW/s-l1600.jpg
p24
sg21
Vhttp://i.ebayimg.com/images/g/KJcAAOSwo0JWKQoW/s-l300.jpg
p25
sa(dp26
g19
Vhttp://i.ebayimg.com/images/g/GcwAAOSwl9BWKQoR/s-l1600.jpg
p27
sg21
Vhttp://i.ebayimg.com/images/g/GcwAAOSwl9BWKQoR/s-l300.jpg
p28
sa(dp29
g19
Vhttp://i.ebayimg.com/images/g/UzcAAOSw5ZBWKQkl/s-l1600.jpg
p30
sg21
Vhttp://i.ebayimg.com/images/g/UzcAAOSw5ZBWKQkl/s-l300.jpg
p31
sa(dp32
g19
Vhttp://i.ebayimg.com/images/g/uZkAAOSwI-BWKQkw/s-l1600.jpg
p33
sg21
Vhttp://i.ebayimg.com/images/g/uZkAAOSwI-BWKQkw/s-l300.jpg
p34
sa(dp35
g19
Vhttp://i.ebayimg.com/images/g/rlYAAOSwAYtWKQk7/s-l1600.jpg
p36
sg21
Vhttp://i.ebayimg.com/images/g/rlYAAOSwAYtWKQk7/s-l300.jpg
p37
sa(dp38
g19
Vhttp://i.ebayimg.com/images/g/M-UAAOSwT5tWKQoG/s-l1600.jpg
p39
sg21
Vhttp://i.ebayimg.com/images/g/M-UAAOSwT5tWKQoG/s-l300.jpg
p40
sa(dp41
g19
Vhttp://i.ebayimg.com/images/g/hvQAAOSwo6lWKQoM/s-l1600.jpg
p42
sg21
Vhttp://i.ebayimg.com/images/g/hvQAAOSwo6lWKQoM/s-l300.jpg
p43
sa(dp44
g19
Vhttp://i.ebayimg.com/images/g/tdQAAOSwhcJWKQoc/s-l1600.jpg
p45
sg21
Vhttp://i.ebayimg.com/images/g/tdQAAOSwhcJWKQoc/s-l300.jpg
p46
sa(dp47
g19
Vhttp://i.ebayimg.com/images/g/FJkAAOSw5ZBWL6QJ/s-l1600.jpg
p48
sg21
Vhttp://i.ebayimg.com/images/g/FJkAAOSw5ZBWL6QJ/s-l300.jpg
p49
sa(dp50
g19
Vhttp://i.ebayimg.com/images/g/~ccAAOSwl9BWL6Pw/s-l1600.jpg
p51
sg21
Vhttp://i.ebayimg.com/images/g/~ccAAOSwl9BWL6Pw/s-l300.jpg
p52
sa(dp53
g19
Vhttp://i.ebayimg.com/images/g/-5IAAOSwwbdWL6QU/s-l1600.jpg
p54
sg21
Vhttp://i.ebayimg.com/images/g/-5IAAOSwwbdWL6QU/s-l300.jpg
p55
sasS'shipping_info'
p56
(dp57
S'item_location'
p58
(lp59
V\u000aWilliams Bay, Wisconsin, United States
p60
asS'delivery'
p61
(lp62
VVaries
p63
asS'posts_to'
p64
(lp65
VLocal pick-up only
p66
assS'id'
p67
S'371850550160'
p68
s.