(dp1
S'title'
p2
V\u000aRug CYAN DESIGN TOUNGOO Blue Ivory Microfiber New\u000a
p3
sS'url'
p4
Vhttp://www.ioffer.com/i/rug-cyan-design-toungoo-blue-ivory-microfiber-new-631126525
p5
sS'price'
p6
V$1,110.00
p7
sS'seller'
p8
(lp9
sS'description_links'
p10
VItem #:CY-464 Overall measurements (inches) 1H x 91W x 114L .Overall Condition is New.Material(s): Microfiber. Dates to circa New.
p11
sS'images'
p12
(lp13
Vhttp://cdn.iofferphoto.com/img3/item/631/126/525/t_rug-cyan-design-toungoo-blue-ivory-microfiber-new-d841.jpg
p14
aVhttp://cdn.iofferphoto.com/img3/item/631/126/525/t_rug-cyan-design-toungoo-blue-ivory-microfiber-new-67b3.jpg
p15
aVhttp://cdn.iofferphoto.com/img3/item/631/126/525/t_rug-cyan-design-toungoo-blue-ivory-microfiber-new-b23b.jpg
p16
asS'shipping_info'
p17
VOtherHand Tufted ConstructionEstimated Shipping5 - 10 Days
p18
sS'id'
p19
V631126525_1497024815
p20
s.