(dp1
S'title'
p2
V\u000aDining Chair AMBELLA HOME Classic Solid Ivory Deep\u000a
p3
sS'url'
p4
Vhttp://www.ioffer.com/i/dining-chair-ambella-home-classic-solid-ivory-deep-631359041
p5
sS'price'
p6
V$889.00
p7
sS'seller'
p8
(lp9
sS'description_links'
p10
VItem #:AH-1249 Overall measurements (inches) 39H x 22W x 21D .Overall Condition is New.Material(s): American White Oak. Style: Classic. Dates to circa New.
p11
sS'images'
p12
(lp13
Vhttp://cdn.iofferphoto.com/img3/item/631/359/041/t_dining-chair-ambella-home-classic-solid-ivory-deep-0b3b.jpg
p14
aVhttp://cdn.iofferphoto.com/img3/item/631/359/041/t_dining-chair-ambella-home-classic-solid-ivory-deep-8982.jpg
p15
aVhttp://cdn.iofferphoto.com/img3/item/631/359/041/t_dining-chair-ambella-home-classic-solid-ivory-deep-c938.jpg
p16
aVhttp://cdn.iofferphoto.com/img3/item/631/359/041/t_dining-chair-ambella-home-classic-solid-ivory-deep-eeca.jpg
p17
asS'shipping_info'
p18
VObjectDining ChairEstimated Shipping5 - 10 Days
p19
sS'id'
p20
V631359041_1497024823
p21
s.