(dp1
S'title'
p2
V\u000aOLD AFRICAN BAULE KUAMABO TRIBE IVORY COAST MASK BUSH R\u000a
p3
sS'url'
p4
Vhttp://www.ioffer.com/i/old-african-baule-kuamabo-tribe-ivory-coast-mask-bush-r-635273839
p5
sS'price'
p6
V$739.98
p7
sS'seller'
p8
(lp9
sS'description_links'
p10
V
sS'images'
p11
(lp12
Vhttp://cdn.iofferphoto.com/img3/item/635/273/839/t_5NpMold-african-baule-kuamabo-tribe-ivory-coast-mask-bush-r.jpg
p13
aVhttp://cdn.iofferphoto.com/img3/item/635/273/839/t_7zoBold-african-baule-kuamabo-tribe-ivory-coast-mask-bush-r.jpg
p14
aVhttp://cdn.iofferphoto.com/img3/item/635/273/839/t_VI0Eold-african-baule-kuamabo-tribe-ivory-coast-mask-bush-r.jpg
p15
aVhttp://cdn.iofferphoto.com/img3/item/635/273/839/t_ElCjold-african-baule-kuamabo-tribe-ivory-coast-mask-bush-r.jpg
p16
aVhttp://cdn.iofferphoto.com/img3/item/635/273/839/t_tLzEold-african-baule-kuamabo-tribe-ivory-coast-mask-bush-r.jpg
p17
aVhttp://cdn.iofferphoto.com/img3/item/635/273/839/t_hVMEold-african-baule-kuamabo-tribe-ivory-coast-mask-bush-r.jpg
p18
aVhttp://cdn.iofferphoto.com/img3/item/635/273/839/t_rFouold-african-baule-kuamabo-tribe-ivory-coast-mask-bush-r.jpg
p19
aVhttp://cdn.iofferphoto.com/img3/item/635/273/839/t_W0kDold-african-baule-kuamabo-tribe-ivory-coast-mask-bush-r.jpg
p20
aVhttp://cdn.iofferphoto.com/img3/item/635/273/839/t_AKNaold-african-baule-kuamabo-tribe-ivory-coast-mask-bush-r.jpg
p21
aVhttp://cdn.iofferphoto.com/img3/item/635/273/839/t_Xs0Sold-african-baule-kuamabo-tribe-ivory-coast-mask-bush-r.jpg
p22
aVhttp://cdn.iofferphoto.com/img3/item/635/273/839/t_j6edold-african-baule-kuamabo-tribe-ivory-coast-mask-bush-r.jpg
p23
aVhttp://cdn.iofferphoto.com/img3/item/635/273/839/t_jgEJold-african-baule-kuamabo-tribe-ivory-coast-mask-bush-r.jpg
p24
asS'shipping_info'
p25
(lp26
sS'id'
p27
V635273839_1497024834
p28
s.