(dp1
S'title'
p2
V\u000aRug CYAN DESIGN TUMULT Ivory Blue Wool New Hand-Tufted\u000a
p3
sS'url'
p4
Vhttp://www.ioffer.com/i/rug-cyan-design-tumult-ivory-blue-wool-new-hand-tufted-637476742
p5
sS'price'
p6
V$1,347.50
p7
sS'seller'
p8
(lp9
sS'description_links'
p10
VItem #:CY-466 Overall measurements (inches) 1H x 85W x 132L .Overall Condition is New.Material(s): Wool. Dates to circa New.
p11
sS'images'
p12
(lp13
Vhttp://cdn.iofferphoto.com/img3/item/637/476/742/t_rug-cyan-design-tumult-ivory-blue-wool-new-hand-tufted-248b.jpg
p14
aVhttp://cdn.iofferphoto.com/img3/item/637/476/742/t_rug-cyan-design-tumult-ivory-blue-wool-new-hand-tufted-0ede.jpg
p15
aVhttp://cdn.iofferphoto.com/img3/item/637/476/742/t_rug-cyan-design-tumult-ivory-blue-wool-new-hand-tufted-0e3c.jpg
p16
asS'shipping_info'
p17
VOtherHand Tufted ConstructionEstimated Shipping5 - 10 Days
p18
sS'id'
p19
V637476742_1497024807
p20
s.