(dp1
S'title'
p2
VAAA DOUBLE STRAND IVORY CREAM AKOYA PEARL NECKLACE
p3
sS'url'
p4
Vhttp://www.ecrater.com/p/902214/aaa-double-strand-ivory-cream?keywords=ivory
p5
sS'price'
p6
V$1,250.00
p7
sS'seller'
p8
Vhttp://xaxe.ecrater.com
p9
sS'description_links'
p10
VThis rare & unique ivory cream pearls are huge. Measures approx. 6.5-7 mm in diameter. Perfectly round in shape with fine luster & good thick nacre as it should be. This AAA grading pearls are professionally hand knotted in alternated fashion of 16"" & 17"" in length; almost touching. The clasp is 14K-yellow gold.  The retail value is $13,000.
p11
sS'images'
p12
(lp13
sS'shipping_info'
p14
(lp15
VMore than 10 available
p16
aVShipping:US-Mainland: $5.00(more destinations)
p17
aVCondition: Brand new
p18
asS'id'
p19
V902214
p20
s.