(dp1
S'title'
p2
V2003 national dolphin 6355 lx
p3
sS'url'
p4
S'http://www.ebay.com/itm/2003-National-Dolphin-6355-LX-/152531803799?hash=item23839a9e97:g:GRUAAOSwTM5Y0XHS&vxp=mtr'
p5
sS'price'
p6
VUS $42,000.00
p7
sS'seller'
p8
(dp9
g4
Vhttp://www.ebay.com/usr/poprvs?_trksid=p2047675.l2559
p10
sS'name'
p11
V poprvs
p12
ssS'description_links'
p13
(lp14
Vhttp://vi.vipr.ebaydesc.com/ws/eBayISAPI.dll?ViewItemDescV4&item=152531803799&t=1496241572000&tid=10&category=50056&seller=poprvs&excSoj=1&excTrk=1&lsite=100&ittenable=false&domain=ebay.com&descgauge=1
p15
asS'images'
p16
(lp17
(dp18
S'maxImageUrl'
p19
Vhttp://i.ebayimg.com/images/g/GRUAAOSwTM5Y0XHS/s-l1600.jpg
p20
sS'displayImgUrl'
p21
Vhttp://i.ebayimg.com/images/g/GRUAAOSwTM5Y0XHS/s-l300.jpg
p22
sa(dp23
g19
Vhttp://i.ebayimg.com/images/g/oVgAAOSwuLZY0XHT/s-l1600.jpg
p24
sg21
Vhttp://i.ebayimg.com/images/g/oVgAAOSwuLZY0XHT/s-l300.jpg
p25
sa(dp26
g19
Vhttp://i.ebayimg.com/images/g/UoYAAOSwuxFY0XHV/s-l1600.jpg
p27
sg21
Vhttp://i.ebayimg.com/images/g/UoYAAOSwuxFY0XHV/s-l300.jpg
p28
sa(dp29
g19
Vhttp://i.ebayimg.com/images/g/DEcAAOSw4YdY0XHX/s-l1600.jpg
p30
sg21
Vhttp://i.ebayimg.com/images/g/DEcAAOSw4YdY0XHX/s-l300.jpg
p31
sa(dp32
g19
Vhttp://i.ebayimg.com/images/g/DBsAAOSwol5Y0XHY/s-l1600.jpg
p33
sg21
Vhttp://i.ebayimg.com/images/g/DBsAAOSwol5Y0XHY/s-l300.jpg
p34
sa(dp35
g19
Vhttp://i.ebayimg.com/images/g/euIAAOSwSlBY0XHZ/s-l1600.jpg
p36
sg21
Vhttp://i.ebayimg.com/images/g/euIAAOSwSlBY0XHZ/s-l300.jpg
p37
sa(dp38
g19
Vhttp://i.ebayimg.com/images/g/AlIAAOSw2gxY0XHb/s-l1600.jpg
p39
sg21
Vhttp://i.ebayimg.com/images/g/AlIAAOSw2gxY0XHb/s-l300.jpg
p40
sa(dp41
g19
Vhttp://i.ebayimg.com/images/g/P7cAAOSw4CFY0XHc/s-l1600.jpg
p42
sg21
Vhttp://i.ebayimg.com/images/g/P7cAAOSw4CFY0XHc/s-l300.jpg
p43
sa(dp44
g19
Vhttp://i.ebayimg.com/images/g/hI4AAOSwzgBY0XHd/s-l1600.jpg
p45
sg21
Vhttp://i.ebayimg.com/images/g/hI4AAOSwzgBY0XHd/s-l300.jpg
p46
sa(dp47
g19
Vhttp://i.ebayimg.com/images/g/AxQAAOSw2gxY0XHf/s-l1600.jpg
p48
sg21
Vhttp://i.ebayimg.com/images/g/AxQAAOSw2gxY0XHf/s-l300.jpg
p49
sa(dp50
g19
Vhttp://i.ebayimg.com/images/g/cXYAAOSwB-1Y0XHg/s-l1600.jpg
p51
sg21
Vhttp://i.ebayimg.com/images/g/cXYAAOSwB-1Y0XHg/s-l300.jpg
p52
sa(dp53
g19
Vhttp://i.ebayimg.com/images/g/fAIAAOSwSlBY0XHi/s-l1600.jpg
p54
sg21
Vhttp://i.ebayimg.com/images/g/fAIAAOSwSlBY0XHi/s-l300.jpg
p55
sasS'shipping_info'
p56
(dp57
S'item_location'
p58
(lp59
sS'delivery'
p60
(lp61
sS'posts_to'
p62
(lp63
VLocal pick-up only
p64
assS'id'
p65
S'152531803799'
p66
s.