(dp1
S'title'
p2
V2007 national dolphin dolphin 6342 lx
p3
sS'url'
p4
S'http://www.ebay.com/itm/2007-National-Dolphin-Dolphin-6342-LX-/152512584660?hash=item2382755bd4:g:BoIAAOSw4CFYp1Oc&vxp=mtr'
p5
sS'price'
p6
VUS $63,500.00
p7
sS'seller'
p8
(dp9
g4
Vhttp://www.ebay.com/usr/poprvs?_trksid=p2047675.l2559
p10
sS'name'
p11
V poprvs
p12
ssS'description_links'
p13
(lp14
Vhttp://vi.vipr.ebaydesc.com/ws/eBayISAPI.dll?ViewItemDescV4&item=152512584660&t=1494947100000&tid=10&category=50056&seller=poprvs&excSoj=1&excTrk=1&lsite=100&ittenable=false&domain=ebay.com&descgauge=1
p15
asS'images'
p16
(lp17
(dp18
S'maxImageUrl'
p19
Vhttp://i.ebayimg.com/images/g/BoIAAOSw4CFYp1Oc/s-l1600.jpg
p20
sS'displayImgUrl'
p21
Vhttp://i.ebayimg.com/images/g/BoIAAOSw4CFYp1Oc/s-l300.jpg
p22
sa(dp23
g19
Vhttp://i.ebayimg.com/images/g/-YcAAOSwTuJYp1Oe/s-l1600.jpg
p24
sg21
Vhttp://i.ebayimg.com/images/g/-YcAAOSwTuJYp1Oe/s-l300.jpg
p25
sa(dp26
g19
Vhttp://i.ebayimg.com/images/g/x9cAAOSwax5Yp1Og/s-l1600.jpg
p27
sg21
Vhttp://i.ebayimg.com/images/g/x9cAAOSwax5Yp1Og/s-l300.jpg
p28
sa(dp29
g19
Vhttp://i.ebayimg.com/images/g/lK0AAOSwx6pYp1Oi/s-l1600.jpg
p30
sg21
Vhttp://i.ebayimg.com/images/g/lK0AAOSwx6pYp1Oi/s-l300.jpg
p31
sa(dp32
g19
Vhttp://i.ebayimg.com/images/g/m7kAAOSw4A5Yp1Ok/s-l1600.jpg
p33
sg21
Vhttp://i.ebayimg.com/images/g/m7kAAOSw4A5Yp1Ok/s-l300.jpg
p34
sa(dp35
g19
Vhttp://i.ebayimg.com/images/g/yNoAAOSwax5Yp1Om/s-l1600.jpg
p36
sg21
Vhttp://i.ebayimg.com/images/g/yNoAAOSwax5Yp1Om/s-l300.jpg
p37
sa(dp38
g19
Vhttp://i.ebayimg.com/images/g/ySAAAOSwax5Yp1Oo/s-l1600.jpg
p39
sg21
Vhttp://i.ebayimg.com/images/g/ySAAAOSwax5Yp1Oo/s-l300.jpg
p40
sa(dp41
g19
Vhttp://i.ebayimg.com/images/g/nJ4AAOSw4A5Yp1Oq/s-l1600.jpg
p42
sg21
Vhttp://i.ebayimg.com/images/g/nJ4AAOSw4A5Yp1Oq/s-l300.jpg
p43
sa(dp44
g19
Vhttp://i.ebayimg.com/images/g/lmoAAOSwx6pYp1Ot/s-l1600.jpg
p45
sg21
Vhttp://i.ebayimg.com/images/g/lmoAAOSwx6pYp1Ot/s-l300.jpg
p46
sa(dp47
g19
Vhttp://i.ebayimg.com/images/g/81gAAOSw2gxYp1Ov/s-l1600.jpg
p48
sg21
Vhttp://i.ebayimg.com/images/g/81gAAOSw2gxYp1Ov/s-l300.jpg
p49
sa(dp50
g19
Vhttp://i.ebayimg.com/images/g/~ZMAAOSwWxNYp1Ox/s-l1600.jpg
p51
sg21
Vhttp://i.ebayimg.com/images/g/~ZMAAOSwWxNYp1Ox/s-l300.jpg
p52
sa(dp53
g19
Vhttp://i.ebayimg.com/images/g/-GcAAOSw32lYp1Oz/s-l1600.jpg
p54
sg21
Vhttp://i.ebayimg.com/images/g/-GcAAOSw32lYp1Oz/s-l300.jpg
p55
sasS'shipping_info'
p56
(dp57
S'item_location'
p58
(lp59
sS'delivery'
p60
(lp61
sS'posts_to'
p62
(lp63
VLocal pick-up only
p64
assS'id'
p65
S'152512584660'
p66
s.