(dp1
S'title'
p2
V2006 national dolphin 36
p3
sS'url'
p4
S'http://www.ebay.com/itm/2006-National-Dolphin-36-/152519025463?hash=item2382d7a337:g:KgsAAOSw2gxY0XLZ&vxp=mtr'
p5
sS'price'
p6
VUS $55,600.00
p7
sS'seller'
p8
(dp9
g4
Vhttp://www.ebay.com/usr/poprvs?_trksid=p2047675.l2559
p10
sS'name'
p11
V poprvs
p12
ssS'description_links'
p13
(lp14
Vhttp://vi.vipr.ebaydesc.com/ws/eBayISAPI.dll?ViewItemDescV4&item=152519025463&t=1496587142000&tid=10&category=50056&seller=poprvs&excSoj=1&excTrk=1&lsite=100&ittenable=false&domain=ebay.com&descgauge=1
p15
asS'images'
p16
(lp17
(dp18
S'maxImageUrl'
p19
Vhttp://i.ebayimg.com/images/g/KgsAAOSw2gxY0XLZ/s-l1600.jpg
p20
sS'displayImgUrl'
p21
Vhttp://i.ebayimg.com/images/g/KgsAAOSw2gxY0XLZ/s-l300.jpg
p22
sa(dp23
g19
Vhttp://i.ebayimg.com/images/g/ERsAAOSwWxNY0XLb/s-l1600.jpg
p24
sg21
Vhttp://i.ebayimg.com/images/g/ERsAAOSwWxNY0XLb/s-l300.jpg
p25
sa(dp26
g19
Vhttp://i.ebayimg.com/images/g/HXoAAOSwax5Y0XLc/s-l1600.jpg
p27
sg21
Vhttp://i.ebayimg.com/images/g/HXoAAOSwax5Y0XLc/s-l300.jpg
p28
sa(dp29
g19
Vhttp://i.ebayimg.com/images/g/r6oAAOSwYXVY0XLe/s-l1600.jpg
p30
sg21
Vhttp://i.ebayimg.com/images/g/r6oAAOSwYXVY0XLe/s-l300.jpg
p31
sa(dp32
g19
Vhttp://i.ebayimg.com/images/g/o5oAAOSwSlBY0XLf/s-l1600.jpg
p33
sg21
Vhttp://i.ebayimg.com/images/g/o5oAAOSwSlBY0XLf/s-l300.jpg
p34
sa(dp35
g19
Vhttp://i.ebayimg.com/images/g/k~AAAOSwsW9Y0XLh/s-l1600.jpg
p36
sg21
Vhttp://i.ebayimg.com/images/g/k~AAAOSwsW9Y0XLh/s-l300.jpg
p37
sa(dp38
g19
Vhttp://i.ebayimg.com/images/g/RlgAAOSwhQhY0XLj/s-l1600.jpg
p39
sg21
Vhttp://i.ebayimg.com/images/g/RlgAAOSwhQhY0XLj/s-l300.jpg
p40
sa(dp41
g19
Vhttp://i.ebayimg.com/images/g/EzEAAOSw32lY0XLl/s-l1600.jpg
p42
sg21
Vhttp://i.ebayimg.com/images/g/EzEAAOSw32lY0XLl/s-l300.jpg
p43
sa(dp44
g19
Vhttp://i.ebayimg.com/images/g/gggAAOSwuxFY0XLm/s-l1600.jpg
p45
sg21
Vhttp://i.ebayimg.com/images/g/gggAAOSwuxFY0XLm/s-l300.jpg
p46
sa(dp47
g19
Vhttp://i.ebayimg.com/images/g/06AAAOSwuLZY0XLo/s-l1600.jpg
p48
sg21
Vhttp://i.ebayimg.com/images/g/06AAAOSwuLZY0XLo/s-l300.jpg
p49
sa(dp50
g19
Vhttp://i.ebayimg.com/images/g/NnsAAOSwol5Y0XLq/s-l1600.jpg
p51
sg21
Vhttp://i.ebayimg.com/images/g/NnsAAOSwol5Y0XLq/s-l300.jpg
p52
sa(dp53
g19
Vhttp://i.ebayimg.com/images/g/a5oAAOSw4CFY0XLu/s-l1600.jpg
p54
sg21
Vhttp://i.ebayimg.com/images/g/a5oAAOSw4CFY0XLu/s-l300.jpg
p55
sasS'shipping_info'
p56
(dp57
S'item_location'
p58
(lp59
sS'delivery'
p60
(lp61
sS'posts_to'
p62
(lp63
VLocal pick-up only
p64
assS'id'
p65
S'152519025463'
p66
s.