(dp1
S'title'
p2
VDan Marino Miami Dolphins signed 2 photo Frame
p3
sS'url'
p4
Vhttp://www.ecrater.com/p/19673922/dan-marino-miami-dolphins-signed-2?keywords=dolphin
p5
sS'price'
p6
V$359.00
p7
sS'seller'
p8
Vhttp://midwaymemorabilia.ecrater.com
p9
sS'description_links'
p10
VDan Marino Miami Dolphins signed 2 photo Frame
p11
sS'images'
p12
(lp13
sS'shipping_info'
p14
(lp15
VOnly 1 available
p16
aVShipping:US-Mainland: $35.90(more destinations)
p17
aVCondition: Used
p18
asS'id'
p19
V19673922
p20
s.