(dp1
S'title'
p2
VDan Marino Autographed Miami Dolphins Full Size Proline Helmet (N/O) JSA
p3
sS'url'
p4
Vhttp://www.ecrater.com/p/27247541/dan-marino-autographed-miami-dolphins?keywords=dolphin
p5
sS'price'
p6
V$569.00
p7
sS'seller'
p8
Vhttp://powersautographs4.ecrater.com
p9
sS'description_links'
p10
VDan Marino personally autographed this Riddell full size Proline Helmet. The greatest Miami Dolphin of all-time, holds franchise records for most game played, most career passing yards, most career touchdown passes, most career attempts, most career completions. Ranks in the top three all-time in NFL history for career wins, touchdowns, yards, attempts & completions. Includes a picture from the signing as well as a certificate of authenticity from James Spence Authentication (JSA) and Denver Autographs.
p11
sS'images'
p12
(lp13
Vhttp://s.ecrater.com/stores/406576/59212a7cde29e_406576b.jpg
p14
asS'shipping_info'
p15
(lp16
VOnly 1 available
p17
aVShipping:US-Mainland: free(more destinations)
p18
aVSales Tax: Missouri: 7.85%
p19
aVCondition: Brand new
p20
asS'id'
p21
V27247541
p22
s.