(dp1
S'title'
p2
VMark Clayton, Mark Duper & Dan Marino Autographed Miami Dolphins Full Size Proline Helmet
p3
sS'url'
p4
Vhttp://www.ecrater.com/p/27243237/mark-clayton-duper-dan-marino?keywords=dolphin
p5
sS'price'
p6
V$809.00
p7
sS'seller'
p8
Vhttp://powersautographs4.ecrater.com
p9
sS'description_links'
p10
VThis is a Riddell Full Size Proline helmet that has been personally signed by Dan Marino, Mark Clayton, Mark Duper. These three player made for one of the most exciting Quarterback-Wide Reciever trios in NFL History. All three of these players are multiple time Pro Bowlers and All-Pros. This item includes a certificate of authenticity from James Spence Authentication (JSA)
p11
sS'images'
p12
(lp13
Vhttp://s.ecrater.com/stores/406576/59211d287b9ec_406576b.jpg
p14
asS'shipping_info'
p15
(lp16
V5 available
p17
aVShipping:US-Mainland: free(more destinations)
p18
aVSales Tax: Missouri: 7.85%
p19
aVCondition: Brand new
p20
asS'id'
p21
V27243237
p22
s.