(dp1
S'title'
p2
VBob Griese & Larry Csonka Autographed Hand Signed 1972 Miami Dolphins Throwback Full Size Authentic 
p3
sS'url'
p4
Vhttp://www.ecrater.com/p/27249170/bob-griese-larry-csonka-autographed?keywords=dolphin
p5
sS'price'
p6
V$929.00
p7
sS'seller'
p8
Vhttp://powersautographs4.ecrater.com
p9
sS'description_links'
p10
VThis 1972 Miami Dolphins Throwback Authentic Pro Line Football Helmet has been hand signed by Bob Griese & Larry Csonka. Mr. Griese added the HOF (Hall of Fame) 90, 17-0, SB (Super Bowl) VII, VIII Champs Inscriptions & Mr. Csonka added the HOF (Hall of Fame)  87, SB (Super Bowl) VIII MVP Inscriptions. The Helmet will include the PSA/DNA sticker affixed to the Helmet, the photos of Bob Griese and Larry Csonka signing our helmets and a Certificate of Authenticity from Creative Sports Ent, Inc with matching holograms on the helmet and certificate.
p11
sS'images'
p12
(lp13
Vhttp://s.ecrater.com/stores/406576/59212edee8326_406576b.jpg
p14
asS'shipping_info'
p15
(lp16
V3 available
p17
aVShipping:US-Mainland: free(more destinations)
p18
aVSales Tax: Missouri: 7.85%
p19
aVCondition: Brand new
p20
asS'id'
p21
V27249170
p22
s.