(dp1
S'title'
p2
VLong-beaked Common Dolphin  Skull
p3
sS'url'
p4
Vhttp://www.skullsunlimited.com/record_variant.php?id=3685
p5
sS'price'
p6
V$310.00
p7
sS'seller'
p8
(lp9
sS'description_links'
p10
VLong-beaked Dolphin Skull - The Long-beaked dolphin is native to various tropical and subtropical coasts throughout the world's oceans. Common dolphins feed on schooling fish such as anchovies, sardines and pilchards. This species is very similar to the Short-beaked Common dolphin and was once considered to be the same species.
p11
sS'images'
p12
(lp13
Vhttp://www.skullsunlimited.com/userfiles/image/variants_3685.jpg
p14
asS'shipping_info'
p15
(lp16
sS'id'
p17
V3685_1497074686
p18
s.