(dp1
S'title'
p2
V\u000aCustomised Cute Blue And White Dolphin Plush Mascot Spo\u000a
p3
sS'url'
p4
Vhttp://www.ioffer.com/i/customised-cute-blue-and-white-dolphin-plush-mascot-spo-600044048
p5
sS'price'
p6
V$549.00
p7
sS'seller'
p8
(lp9
sS'description_links'
p10
VCustomised Cute Blue And White Dolphin Plush Mascot SpotSound Canada. This mascot is very nice for a marketing event or a private party. FREE SHIPPING around the globe, 7 size to choose and customized options and accessories available on our website. SpotSound is a company represented in Europe and in North America with a reactive customer service. Don't wait, come to play with your future mascot costume !
p11
sS'images'
p12
(lp13
Vhttp://cdn.iofferphoto.com/img3/item/600/044/048/t_2qHTcustomised-cute-blue-and-white-dolphin-plush-mascot-spo.jpg
p14
aVhttp://cdn.iofferphoto.com/img3/item/600/044/048/t_6rB2customised-cute-blue-and-white-dolphin-plush-mascot-spo.jpg
p15
asS'shipping_info'
p16
(lp17
sS'id'
p18
V600044048_1497075009
p19
s.