(dp1
S'title'
p2
V\u000aDolphin Diamond Engagement Ring 1/4ct Round Center 14kt\u000a
p3
sS'url'
p4
Vhttp://www.ioffer.com/i/dolphin-diamond-engagement-ring-1-4ct-round-center-14kt-636361539
p5
sS'price'
p6
V$734.00
p7
sS'seller'
p8
(lp9
sS'description_links'
p10
V
sS'images'
p11
(lp12
Vhttp://cdn.iofferphoto.com/img/item/636/361/539/t_65C9dolphin-diamond-engagement-ring-1-4ct-round-center-14kt.jpg
p13
aVhttp://cdn.iofferphoto.com/img/item/636/361/539/t_MoS8dolphin-diamond-engagement-ring-1-4ct-round-center-14kt.jpg
p14
aVhttp://cdn.iofferphoto.com/img/item/636/361/539/t_LUfUdolphin-diamond-engagement-ring-1-4ct-round-center-14kt.jpg
p15
aVhttp://cdn.iofferphoto.com/img/item/636/361/539/t_ysR3dolphin-diamond-engagement-ring-1-4ct-round-center-14kt.jpg
p16
aVhttp://cdn.iofferphoto.com/img/item/636/361/539/t_tD6Ddolphin-diamond-engagement-ring-1-4ct-round-center-14kt.jpg
p17
asS'shipping_info'
p18
(lp19
sS'id'
p20
V636361539_1497074970
p21
s.