(dp1
S'title'
p2
V\u000aDolphin Engagement Ring, 2 Dolphins Different Sizes 40p\u000a
p3
sS'url'
p4
Vhttp://www.ioffer.com/i/dolphin-engagement-ring-2-dolphins-different-sizes-40p-636353065
p5
sS'price'
p6
V$1,487.00
p7
sS'seller'
p8
(lp9
sS'description_links'
p10
V
sS'images'
p11
(lp12
Vhttp://cdn.iofferphoto.com/img3/item/636/353/065/t_8WbHdolphin-engagement-ring-2-dolphins-different-sizes-40p.jpg
p13
aVhttp://cdn.iofferphoto.com/img3/item/636/353/065/t_vfHDdolphin-engagement-ring-2-dolphins-different-sizes-40p.jpg
p14
aVhttp://cdn.iofferphoto.com/img3/item/636/353/065/t_9Kysdolphin-engagement-ring-2-dolphins-different-sizes-40p.jpg
p15
aVhttp://cdn.iofferphoto.com/img3/item/636/353/065/t_eyG0dolphin-engagement-ring-2-dolphins-different-sizes-40p.jpg
p16
aVhttp://cdn.iofferphoto.com/img3/item/636/353/065/t_zzEYdolphin-engagement-ring-2-dolphins-different-sizes-40p.jpg
p17
asS'shipping_info'
p18
(lp19
sS'id'
p20
V636353065_1497074939
p21
s.