(dp1
S'title'
p2
V\u000aDolphin Diamond Engagement Ring in14kt. white or yellow\u000a
p3
sS'url'
p4
Vhttp://www.ioffer.com/i/dolphin-diamond-engagement-ring-in14kt-white-or-yellow-636353405
p5
sS'price'
p6
V$1,330.00
p7
sS'seller'
p8
(lp9
sS'description_links'
p10
V
sS'images'
p11
(lp12
Vhttp://cdn.iofferphoto.com/img3/item/636/353/405/t_1NjVdolphin-diamond-engagement-ring-in14kt-white-or-yellow.jpg
p13
aVhttp://cdn.iofferphoto.com/img3/item/636/353/405/t_SbuVdolphin-diamond-engagement-ring-in14kt-white-or-yellow.jpg
p14
aVhttp://cdn.iofferphoto.com/img3/item/636/353/405/t_5p3Sdolphin-diamond-engagement-ring-in14kt-white-or-yellow.jpg
p15
aVhttp://cdn.iofferphoto.com/img3/item/636/353/405/t_dOo1dolphin-diamond-engagement-ring-in14kt-white-or-yellow.jpg
p16
aVhttp://cdn.iofferphoto.com/img3/item/636/353/405/t_4gK1dolphin-diamond-engagement-ring-in14kt-white-or-yellow.jpg
p17
aVhttp://cdn.iofferphoto.com/img3/item/636/353/405/t_YRPDdolphin-diamond-engagement-ring-in14kt-white-or-yellow.jpg
p18
aVhttp://cdn.iofferphoto.com/img3/item/636/353/405/t_74khdolphin-diamond-engagement-ring-in14kt-white-or-yellow.jpg
p19
asS'shipping_info'
p20
(lp21
sS'id'
p22
V636353405_1497074941
p23
s.