(dp1
S'title'
p2
V\u000aDolphin Engagement Ring, "Independence Day" style setti\u000a
p3
sS'url'
p4
Vhttp://www.ioffer.com/i/dolphin-engagement-ring-independence-day-style-setti-636357515
p5
sS'price'
p6
V$1,234.00
p7
sS'seller'
p8
(lp9
sS'description_links'
p10
V
sS'images'
p11
(lp12
Vhttp://cdn.iofferphoto.com/img/item/636/357/515/t_0tvhdolphin-engagement-ring-independence-day-style-setti.jpg
p13
aVhttp://cdn.iofferphoto.com/img/item/636/357/515/t_WxUmdolphin-engagement-ring-independence-day-style-setti.jpg
p14
aVhttp://cdn.iofferphoto.com/img/item/636/357/515/t_QF3xdolphin-engagement-ring-independence-day-style-setti.jpg
p15
aVhttp://cdn.iofferphoto.com/img/item/636/357/515/t_yMbvdolphin-engagement-ring-independence-day-style-setti.jpg
p16
aVhttp://cdn.iofferphoto.com/img/item/636/357/515/t_S5kSdolphin-engagement-ring-independence-day-style-setti.jpg
p17
aVhttp://cdn.iofferphoto.com/img/item/636/357/515/t_f83mdolphin-engagement-ring-independence-day-style-setti.jpg
p18
asS'shipping_info'
p19
(lp20
sS'id'
p21
V636357515_1497074953
p22
s.