(dp1
S'title'
p2
V\u000aDolphin Diamond Engagement Ring, w/ 25pt. Center Diamon\u000a
p3
sS'url'
p4
Vhttp://www.ioffer.com/i/dolphin-diamond-engagement-ring-w-25pt-center-diamon-636360622
p5
sS'price'
p6
V$954.00
p7
sS'seller'
p8
(lp9
sS'description_links'
p10
V
sS'images'
p11
(lp12
Vhttp://cdn.iofferphoto.com/img3/item/636/360/622/t_3BMzdolphin-diamond-engagement-ring-w-25pt-center-diamon.jpg
p13
aVhttp://cdn.iofferphoto.com/img3/item/636/360/622/t_ATgwdolphin-diamond-engagement-ring-w-25pt-center-diamon.jpg
p14
aVhttp://cdn.iofferphoto.com/img3/item/636/360/622/t_tKdrdolphin-diamond-engagement-ring-w-25pt-center-diamon.jpg
p15
asS'shipping_info'
p16
(lp17
sS'id'
p18
V636360622_1497074961
p19
s.