(dp1
S'title'
p2
V\u000a6.5*6.5*3cm Brown Kraft Paper Dolphin Hollow Out Box Fo\u000a
p3
sS'url'
p4
Vhttp://www.ioffer.com/i/6-5-6-5-3cm-brown-kraft-paper-dolphin-hollow-out-box-fo-637169866
p5
sS'price'
p6
V$17.00
p7
sS'seller'
p8
(lp9
sS'description_links'
p10
VType: Event & Party SuppliesBrand Name: WACCOMT PackMaterial: PaperboardOccasion: Valentine's DayModel Number: 6.5*6.5*3cmEvent & Party Item Type: Candy Box
p11
sS'images'
p12
(lp13
Vhttp://cdn.iofferphoto.com/img3/item/637/169/866/t_8Nyd6-5-6-5-3cm-brown-kraft-paper-dolphin-hollow-out-box-fo.jpg
p14
aVhttp://cdn.iofferphoto.com/img3/item/637/169/866/t_k3HO6-5-6-5-3cm-brown-kraft-paper-dolphin-hollow-out-box-fo.jpg
p15
aVhttp://cdn.iofferphoto.com/img3/item/637/169/866/t_GwT16-5-6-5-3cm-brown-kraft-paper-dolphin-hollow-out-box-fo.jpg
p16
asS'shipping_info'
p17
(lp18
sS'id'
p19
V637169866_1497074995
p20
s.