(dp1
S'title'
p2
V\u000a7355101 180*180cm Dolphin Sea Fish Styled Bathroom Show\u000a
p3
sS'url'
p4
Vhttp://www.ioffer.com/i/7355101-180-180cm-dolphin-sea-fish-styled-bathroom-show-637512696
p5
sS'price'
p6
V$17.72
p7
sS'seller'
p8
(lp9
sS'description_links'
p10
V180*180cm Dolphin Sea Fish Styled Bathroom Shower Curtainwaterproof / mould-proof / w/ 12 hooksClassification Product TypeCurtains Aesthetic ColorColorful MaterialPolyester Package Package TypePlain Package Contents1*Curtain, 12*Hooks Dimensions us | metricDepth2 mmHeight1800 mmWidth1800 mmProduct Weight430 gFastTechSKU7355101DATE LISTED4/6/2017This waterproof shower curtain is easy to install and make your bathroom unique.This shower curtain is made of polyester waterproof fabric and it has characteristics of durable, waterproof, mould-proof, soft, durable and nontoxic odorless.      7355101
p11
sS'images'
p12
(lp13
Vhttps://img.fasttechcdn.com/735/7355101/7355101-1.jpg
p14
aVhttps://img.fasttechcdn.com/735/7355101/7355101-2.jpg
p15
aVhttps://img.fasttechcdn.com/735/7355101/7355101-3.jpg
p16
asS'shipping_info'
p17
(lp18
sS'id'
p19
V637512696_1497074988
p20
s.