(dp1
S'title'
p2
V\u000a925 Sterling Silver Dolphin Heart Ring LKNSPCR708\u000a
p3
sS'url'
p4
Vhttp://www.ioffer.com/i/925-sterling-silver-dolphin-heart-ring-lknspcr708-637703589
p5
sS'price'
p6
V$6.99
p7
sS'seller'
p8
(lp9
sS'description_links'
p10
V*100% Brand new!!! *High quantity! Factory price! *Send it as an ideal gift or keep it as an lovely collection. # Material : silver# Best gifts for your family members and friends  Size:7,8Packing include: 1.Brand-new item as picture Our Products We strive for 100% customer satisfaction on every sale we complete. If, for any reason you are not satisfied with your purchase, please contact us before leaving neutral or negative feedback. We will work with you.  Shipping Item will be shipped by Air Mail via Hong Kong Post within 48 hours after payment confirmation. It takes approximately 15-25days(USA,CA,AU,UK). other country 30-35days. International shipping requires more complicated shipping procedures (such as both countries customs, transit stations etc.), it will probably take longer time for your items to arrive at the final destination. Thank you for your understanding on this matter. if you want faster shipping, please contact us .  Payment * We prefer you pay via Paypal. pls let me know your paypal email before you purchase we can send invoice , thanks!!! * Payment must be received within 3 working days after the purchase unless buyer has contacted us in advance with any specific reasons. An unpaid strick will be sent if the related item has not been paid for 14 days.
p11
sS'images'
p12
(lp13
Vhttp://cdn.iofferphoto.com/img3/item/637/703/589/t_925-sterling-silver-dolphin-heart-ring-lknspcr708-9192.jpg
p14
aVhttp://cdn.iofferphoto.com/img3/item/637/703/589/t_925-sterling-silver-dolphin-heart-ring-lknspcr708-c372.jpg
p15
aVhttp://cdn.iofferphoto.com/img3/item/637/703/589/t_925-sterling-silver-dolphin-heart-ring-lknspcr708-6477.jpg
p16
asS'shipping_info'
p17
VAvailable ColorsCondition100% Brand NewEstimated Shipping1 - 3 Days
p18
sS'id'
p19
V637703589_1497074977
p20
s.