(dp1
S'title'
p2
V4D Dolphin Anatomy Model
p3
sS'url'
p4
Vhttp://www.skullsunlimited.com/record_variant.php?id=7268
p5
sS'price'
p6
V$32.00
p7
sS'seller'
p8
(lp9
sS'description_links'
p10
VBuild your own anatomy model of the dolphin! This exceptionally detailed, 10" model contains 18 detachable, hand-painted organs and parts and a display stand. Also includes illustrated assembly guide, a description of the anatomy, a detailed description of a dolphin\u2019s life cycle, eating habits and size along with some fun Q&A to test your knowledge! A nice addition to curriculum for teaching marine biology or any child's science fair project related to marine biology. Collect the series and have your own animal science museum!Please see photographs for details.Ages 8+.
p11
sS'images'
p12
(lp13
Vhttp://www.skullsunlimited.com/userfiles/image/variants_7268.jpg
p14
asS'shipping_info'
p15
(lp16
sS'id'
p17
V7268_1497074673
p18
s.