(dp1
S'title'
p2
VA Field Guide to Marine Mammals of the Pacific Coast
p3
sS'url'
p4
Vhttp://www.boneroom.com/store/p95/A_Field_Guide_to_Marine_Mammals_of_the_Pacific_Coast.html
p5
sS'price'
p6
V$17.50
p7
sS'seller'
p8
(lp9
sS'description_links'
p10
VSigned by Illustrator - Sophie Webb, Authors - Allen/MortensonFrom  gray whales giving birth in the lagoons of Baja California to sea  otters nestled in kelp beds off California--this spectacular stretch of  the Pacific Coast boasts one of the most abundant populations of sea  mammals on earth. This handy interpretive field guide describes the 45  whales, dolphins, seals, and otters that are resident in, migrate  through, or forage from Baja in Mexico to British Columbia in Canada.Paperback
p11
sS'images'
p12
(lp13
Vhttp://www.boneroom.com//uploads/4/8/1/1/48118243/s521972503441136676_p95_i2_w621.jpeg
p14
asS'shipping_info'
p15
(lp16
sS'id'
p17
Vp95_1497075034
p18
s.