(dp1
S'title'
p2
VVINTAGE POSTCARD California,Marineland,Porpoise Flying
p3
sS'url'
p4
Vhttp://www.ecrater.com/p/12136371/vintage-postcard-californiamarinelandporpoise-flying?keywords=porpoise
p5
sS'price'
p6
V$6.99
p7
sS'seller'
p8
Vhttp://rosespostcards.ecrater.com
p9
sS'description_links'
p10
VVINTAGE POSTCARD California,Marineland,Porpoise Flying                                                                                                                                                                                                                                                                                                                                                                                                                                                        click      to Enlarge                                          Description:Item:POSTCARD California,Palos Verdes,Marineland o/t Pacific,High Flying PorpoiseDescription:This is a Mirrochrome card by H.B.Crocker Co,LA with the inscription "Marineland of the Pacific.". Published by Golden West Color Card Co. Long Beach, California. Photographer: Geo. E. Watson. Marineland of the Pacific closed in 1987.  Size:approx3-1/2by5inches.Condition: Slight edge wear.This is unused.This is anice postcard.Collectors love acquiring the same image across decades. This one is sure to please. Buy now to make this yours. 2075greg Incredible! Great Stuff. Good prices. Some real bargins. Fast personal service.  epoxy330 WOW, Great PINS!!! Thanks For The Buying Opportunity!!! AAAAA+++++ - )  solared51 rapid shipment, smooth transaction, recommend A+++  scotspeony7usz Very, very fast delivery. Mint condition. Thanks. Created by Feedback Analyzer Pro Shipping:Combined Orders: I am happy to combine orders for shipping savings.  Insurance: I want your package to arrive safe and sound at your door.  I insure every package at no expense to you. Shipping Costs: I am pleased to offer free economy shipping on all my items.  If you prefer expedited shipping, the shipping calculator is set up to give you the best options for safe and secure delivery to your doorstep! Payment:I charge a Sales Tax of 9.0% for buyers who reside in Washington State. WA state has changed it's sales tax to assign by buyer location. If you wait for an invoice, I'll calculate your exact rate.  The Short Version: Refund Policy: No-questions-asked refund for cost of item (less shipping) with return of item. "As-is" items refunded only if misrepresented. Copyright Notice: Photos, title and text of this listing are copyrighted, 2009, From Grandma's Tree. International Sales: Orders outside the US may be subject to import duties and taxes, which are levied once a shipment reaches your country/region. Additional charges for customs clearance must be borne by you; I have no control over these charges and cannot predict what they may be. Customs policies vary widely from country/region to country/region; you should contact your local customs office for further information. Additionally, when purchasing from me, you are considered the importer of record and must comply with all laws and regulations of the country/region in which you are receiving the goods. THE LONG VERSION: REFUND POLICY: I would like to be sure that you are satisfied with your purchase so I offer a no-questions-asked refund and return policy for the cost of the item less shipping. I do ask purchasers to contact me within 3 days of receipt of item and to return the item.The exception is items which are designated "as-is". "As-Is" items are sold with no guarantee. I attempt to describe what I know about the item and to make it clear to buyder what the area of risk is. For these items, I only refund in the instance that the item was mis-represented. Copyright Notice: All photographs, titles and text are the intellectual and physical property of From Grandma's Tree, and we will protect those rights. No un-authorized copy or use of any photographs, titles or text is allowed. If you are interested in purchasing the rights to use our text or images, please contact us via email.See my eCRATER ABOUT MEpage for more information about me and about collecting.  I encourage you to click on the links provided there for full access to my offerings. Please use the eCRATER communication system to contact us prior to the close of the product. Your email will likely be treated as spam unless it arrives via the eCRATER system.  inkfrog terapeaki000000
p11
sS'images'
p12
(lp13
sS'shipping_info'
p14
(lp15
VOnly 1 available
p16
aVShipping:USPS calculated - check
p17
aVCondition: Brand new
p18
asS'id'
p19
V12136371
p20
s.