(dp1
S'title'
p2
V2016  USB rechargeable electronic cigarette lighter Porpoise men gifts smoke marine life cigar
p3
sS'url'
p4
Vhttp://www.ecrater.com/p/27048812/2016-usb-rechargeable-electronic-cigarette-lighter?keywords=porpoise
p5
sS'price'
p6
V$24.00
p7
sS'seller'
p8
Vhttp://biglighter.ecrater.com
p9
sS'description_links'
p10
Vlighter lot on sale at reasonable prices, buy 2016  USB rechargeable electronic cigarette lighter Porpoise men gifts smoke marine life cigar boy present portable lighter  We promise the item will be 100% same the picture show . And the item be new, never used before.Tracking Number Provided.FEEDBACK and RETURN POLICY :Your Satisfaction is our goal , If you received the item, Please give us the good feedback . If you have any question. Please DO NOT leaves a negative feedback before contact us.We believe that all the problems can be fixed if you are working with us to solve the problem.Shipped by ePacket shipping which needs about 8-20 business days to arrive.(US)Others shipped by HK post air mail,needs about 15-28 days to arrive.Terms & Conditions- Please do not bids if you do not agree with all the terms and condition
p11
sS'images'
p12
(lp13
Vhttp://s.ecrater.com/stores/404456/58f7a6da1b54f_404456b.jpg
p14
asS'shipping_info'
p15
(lp16
V5 available
p17
aVShipping:US-Mainland: free(more destinations)
p18
aVCondition: Brand new
p19
asS'id'
p20
V27048812
p21
s.