(dp1
S'title'
p2
V\u000aDolphin Porpoise Division Swimming Championship Screen \u000a
p3
sS'url'
p4
Vhttp://www.ioffer.com/i/dolphin-porpoise-division-swimming-championship-screen-599036030
p5
sS'price'
p6
V$19.51
p7
sS'seller'
p8
(lp9
sS'description_links'
p10
V
sS'images'
p11
(lp12
Vhttp://cdn.iofferphoto.com/img3/item/599/036/030/t_alKidolphin-porpoise-division-swimming-championship-screen.jpg
p13
aVhttp://cdn.iofferphoto.com/img3/item/599/036/030/t_yvSydolphin-porpoise-division-swimming-championship-screen.jpg
p14
aVhttp://cdn.iofferphoto.com/img3/item/599/036/030/t_oP6Qdolphin-porpoise-division-swimming-championship-screen.jpg
p15
aVhttp://cdn.iofferphoto.com/img3/item/599/036/030/t_I6Ftdolphin-porpoise-division-swimming-championship-screen.jpg
p16
asS'shipping_info'
p17
(lp18
sS'id'
p19
V599036030_1497075524
p20
s.