(dp1
S'title'
p2
V\u000aAquamarine Pink Sterling Silver Dolphin Porpoise Neckla\u000a
p3
sS'url'
p4
Vhttp://www.ioffer.com/i/aquamarine-pink-sterling-silver-dolphin-porpoise-neckla-599061764
p5
sS'price'
p6
V$29.97
p7
sS'seller'
p8
(lp9
sS'description_links'
p10
V
sS'images'
p11
(lp12
Vhttp://cdn.iofferphoto.com/img/item/599/061/764/t_7l5Zaquamarine-pink-sterling-silver-dolphin-porpoise-neckla.jpg
p13
aVhttp://cdn.iofferphoto.com/img/item/599/061/764/t_MOn8aquamarine-pink-sterling-silver-dolphin-porpoise-neckla.jpg
p14
aVhttp://cdn.iofferphoto.com/img/item/599/061/764/t_qK7waquamarine-pink-sterling-silver-dolphin-porpoise-neckla.jpg
p15
aVhttp://cdn.iofferphoto.com/img/item/599/061/764/t_YcgKaquamarine-pink-sterling-silver-dolphin-porpoise-neckla.jpg
p16
asS'shipping_info'
p17
(lp18
sS'id'
p19
V599061764_1497075464
p20
s.