(dp1
S'title'
p2
V\u000aAquamarine Pink Sterling Silver Dolphin Porpoise Neckla\u000a
p3
sS'url'
p4
Vhttp://www.ioffer.com/i/aquamarine-pink-sterling-silver-dolphin-porpoise-neckla-603825380
p5
sS'price'
p6
V$29.97
p7
sS'seller'
p8
(lp9
sS'description_links'
p10
V
sS'images'
p11
(lp12
Vhttp://cdn.iofferphoto.com/img3/item/603/825/380/t_6oTcaquamarine-pink-sterling-silver-dolphin-porpoise-neckla.jpg
p13
aVhttp://cdn.iofferphoto.com/img3/item/603/825/380/t_ax3yaquamarine-pink-sterling-silver-dolphin-porpoise-neckla.jpg
p14
aVhttp://cdn.iofferphoto.com/img3/item/603/825/380/t_IXD7aquamarine-pink-sterling-silver-dolphin-porpoise-neckla.jpg
p15
aVhttp://cdn.iofferphoto.com/img3/item/603/825/380/t_A8VJaquamarine-pink-sterling-silver-dolphin-porpoise-neckla.jpg
p16
asS'shipping_info'
p17
(lp18
sS'id'
p19
V603825380_1497075494
p20
s.