(dp1
S'title'
p2
V\u000aAir Huarachelab Run TXT Porpoise trainers run shoes\u000a
p3
sS'url'
p4
Vhttp://www.ioffer.com/i/air-huarachelab-run-txt-porpoise-trainers-run-shoes-635274818
p5
sS'price'
p6
V$70.00
p7
sS'seller'
p8
(lp9
sS'description_links'
p10
VDear friend,welcome to my store:  http://www.ioffer.com/selling/generousyang___________________________________________________________wholesale and retail Nike Air Huarache Run TXT "Porpoise"  ,women size 36-40 ,men size 40-44.  The more you order,the more discount you get.  _____________________________________________________________Notice: Please only pick the EUR size you need when you place an order,thanks!  MEN SHOES SIZE :  EUR40 = US7   = UK6   =25  CMEUR41 = US8   = UK7   =26  CM EUR42 = US8.5 = UK7.5 =26.5CM EUR43 = US9.5 = UK8.5 =27.5CM EUR44 = US10  = UK9   =28  CM EUR45 = US11  = UK10  =29  CMEUR46 = US12  = UK11  =30  CM_______________________________________________________ WOMEN SHOES SIZE :  EUR36 = US5.5 = UK3   = 22.5 CM EUR37 = US6.5 = UK4   = 23.5 CM EUR38 = US7   = UK4.5 = 24   CM EUR39 = US8   = UK5.5 = 25   CM EUR40 = US8.5 = UK6   = 25.5 CM _____________________________________________________happy shopping!  http://www.ioffer.com/selling/generousyang
p11
sS'images'
p12
(lp13
Vhttp://cdn.iofferphoto.com/img3/item/635/274/818/t_air-huarachelab-run-txt-porpoise-trainers-run-shoes-36c3.jpg
p14
aVhttp://cdn.iofferphoto.com/img3/item/635/274/818/t_air-huarachelab-run-txt-porpoise-trainers-run-shoes-79f4.jpg
p15
aVhttp://cdn.iofferphoto.com/img3/item/635/274/818/t_air-huarachelab-run-txt-porpoise-trainers-run-shoes-c0cf.jpg
p16
aVhttp://cdn.iofferphoto.com/img3/item/635/274/818/t_air-huarachelab-run-txt-porpoise-trainers-run-shoes-d8b3.jpg
p17
aVhttp://cdn.iofferphoto.com/img3/item/635/274/818/t_air-huarachelab-run-txt-porpoise-trainers-run-shoes-1952.jpg
p18
asS'shipping_info'
p19
VAvailable ColorsAvailable SizesWomen's Shoe SizesUSA5.56.57.58.59.51010.511.512.513.5UK3.54.55.56.57.588.59.510.511.5European363738394041.542434445Japan21.522.524.525.526.52727.528.529.530.5Nike air huarache run txt "porpoise"Nike Air Huarache Run Txt &Quot;Porpoise&Quot;Estimated Shipping15 - 20 Days
p20
sS'id'
p21
V635274818_1497075457
p22
s.